
手動機_1284p.elf:     file format elf32-avr

Sections:
Idx Name          Size      VMA       LMA       File off  Algn
  0 .data         00000190  00800100  0000301c  000030b0  2**0
                  CONTENTS, ALLOC, LOAD, DATA
  1 .text         0000301c  00000000  00000000  00000094  2**1
                  CONTENTS, ALLOC, LOAD, READONLY, CODE
  2 .bss          0000004b  00800290  00800290  00003240  2**0
                  ALLOC
  3 .debug_aranges 00000160  00000000  00000000  00003240  2**0
                  CONTENTS, READONLY, DEBUGGING
  4 .debug_pubnames 0000066a  00000000  00000000  000033a0  2**0
                  CONTENTS, READONLY, DEBUGGING
  5 .debug_info   00003804  00000000  00000000  00003a0a  2**0
                  CONTENTS, READONLY, DEBUGGING
  6 .debug_abbrev 000012f5  00000000  00000000  0000720e  2**0
                  CONTENTS, READONLY, DEBUGGING
  7 .debug_line   00003660  00000000  00000000  00008503  2**0
                  CONTENTS, READONLY, DEBUGGING
  8 .debug_frame  00000570  00000000  00000000  0000bb64  2**2
                  CONTENTS, READONLY, DEBUGGING
  9 .debug_str    00000705  00000000  00000000  0000c0d4  2**0
                  CONTENTS, READONLY, DEBUGGING
 10 .debug_loc    000010b1  00000000  00000000  0000c7d9  2**0
                  CONTENTS, READONLY, DEBUGGING
 11 .debug_ranges 00000680  00000000  00000000  0000d88a  2**0
                  CONTENTS, READONLY, DEBUGGING

Disassembly of section .text:

00000000 <__vectors>:
       0:	0c 94 46 00 	jmp	0x8c	; 0x8c <__ctors_end>
       4:	0c 94 65 00 	jmp	0xca	; 0xca <__bad_interrupt>
       8:	0c 94 65 00 	jmp	0xca	; 0xca <__bad_interrupt>
       c:	0c 94 65 00 	jmp	0xca	; 0xca <__bad_interrupt>
      10:	0c 94 65 00 	jmp	0xca	; 0xca <__bad_interrupt>
      14:	0c 94 65 00 	jmp	0xca	; 0xca <__bad_interrupt>
      18:	0c 94 65 00 	jmp	0xca	; 0xca <__bad_interrupt>
      1c:	0c 94 65 00 	jmp	0xca	; 0xca <__bad_interrupt>
      20:	0c 94 65 00 	jmp	0xca	; 0xca <__bad_interrupt>
      24:	0c 94 65 00 	jmp	0xca	; 0xca <__bad_interrupt>
      28:	0c 94 65 00 	jmp	0xca	; 0xca <__bad_interrupt>
      2c:	0c 94 65 00 	jmp	0xca	; 0xca <__bad_interrupt>
      30:	0c 94 65 00 	jmp	0xca	; 0xca <__bad_interrupt>
      34:	0c 94 65 00 	jmp	0xca	; 0xca <__bad_interrupt>
      38:	0c 94 65 00 	jmp	0xca	; 0xca <__bad_interrupt>
      3c:	0c 94 65 00 	jmp	0xca	; 0xca <__bad_interrupt>
      40:	0c 94 65 00 	jmp	0xca	; 0xca <__bad_interrupt>
      44:	0c 94 65 00 	jmp	0xca	; 0xca <__bad_interrupt>
      48:	0c 94 65 00 	jmp	0xca	; 0xca <__bad_interrupt>
      4c:	0c 94 65 00 	jmp	0xca	; 0xca <__bad_interrupt>
      50:	0c 94 1b 01 	jmp	0x236	; 0x236 <__vector_20>
      54:	0c 94 65 00 	jmp	0xca	; 0xca <__bad_interrupt>
      58:	0c 94 65 00 	jmp	0xca	; 0xca <__bad_interrupt>
      5c:	0c 94 65 00 	jmp	0xca	; 0xca <__bad_interrupt>
      60:	0c 94 65 00 	jmp	0xca	; 0xca <__bad_interrupt>
      64:	0c 94 65 00 	jmp	0xca	; 0xca <__bad_interrupt>
      68:	0c 94 65 00 	jmp	0xca	; 0xca <__bad_interrupt>
      6c:	0c 94 65 00 	jmp	0xca	; 0xca <__bad_interrupt>
      70:	0c 94 65 00 	jmp	0xca	; 0xca <__bad_interrupt>
      74:	0c 94 65 00 	jmp	0xca	; 0xca <__bad_interrupt>
      78:	0c 94 65 00 	jmp	0xca	; 0xca <__bad_interrupt>
      7c:	0c 94 65 00 	jmp	0xca	; 0xca <__bad_interrupt>
      80:	0c 94 65 00 	jmp	0xca	; 0xca <__bad_interrupt>
      84:	0c 94 65 00 	jmp	0xca	; 0xca <__bad_interrupt>
      88:	0c 94 65 00 	jmp	0xca	; 0xca <__bad_interrupt>

0000008c <__ctors_end>:
      8c:	11 24       	eor	r1, r1
      8e:	1f be       	out	0x3f, r1	; 63
      90:	cf ef       	ldi	r28, 0xFF	; 255
      92:	d0 e4       	ldi	r29, 0x40	; 64
      94:	de bf       	out	0x3e, r29	; 62
      96:	cd bf       	out	0x3d, r28	; 61

00000098 <__do_copy_data>:
      98:	12 e0       	ldi	r17, 0x02	; 2
      9a:	a0 e0       	ldi	r26, 0x00	; 0
      9c:	b1 e0       	ldi	r27, 0x01	; 1
      9e:	ec e1       	ldi	r30, 0x1C	; 28
      a0:	f0 e3       	ldi	r31, 0x30	; 48
      a2:	00 e0       	ldi	r16, 0x00	; 0
      a4:	0b bf       	out	0x3b, r16	; 59
      a6:	02 c0       	rjmp	.+4      	; 0xac <__do_copy_data+0x14>
      a8:	07 90       	elpm	r0, Z+
      aa:	0d 92       	st	X+, r0
      ac:	a0 39       	cpi	r26, 0x90	; 144
      ae:	b1 07       	cpc	r27, r17
      b0:	d9 f7       	brne	.-10     	; 0xa8 <__do_copy_data+0x10>

000000b2 <__do_clear_bss>:
      b2:	12 e0       	ldi	r17, 0x02	; 2
      b4:	a0 e9       	ldi	r26, 0x90	; 144
      b6:	b2 e0       	ldi	r27, 0x02	; 2
      b8:	01 c0       	rjmp	.+2      	; 0xbc <.do_clear_bss_start>

000000ba <.do_clear_bss_loop>:
      ba:	1d 92       	st	X+, r1

000000bc <.do_clear_bss_start>:
      bc:	ab 3d       	cpi	r26, 0xDB	; 219
      be:	b1 07       	cpc	r27, r17
      c0:	e1 f7       	brne	.-8      	; 0xba <.do_clear_bss_loop>
      c2:	0e 94 44 0d 	call	0x1a88	; 0x1a88 <main>
      c6:	0c 94 0c 18 	jmp	0x3018	; 0x3018 <_exit>

000000ca <__bad_interrupt>:
      ca:	0c 94 00 00 	jmp	0	; 0x0 <__vectors>

000000ce <up_touch>:
}


/**********タッチセンサー関連**********/
bool up_touch(void){
	return PINB & _BV(0);
      ce:	83 b1       	in	r24, 0x03	; 3
}
      d0:	81 70       	andi	r24, 0x01	; 1
      d2:	08 95       	ret

000000d4 <down_touch>:

bool down_touch(void){
	return PINB & _BV(1);
      d4:	83 b1       	in	r24, 0x03	; 3
      d6:	90 e0       	ldi	r25, 0x00	; 0
      d8:	96 95       	lsr	r25
      da:	87 95       	ror	r24
}
      dc:	81 70       	andi	r24, 0x01	; 1
      de:	08 95       	ret

000000e0 <right_touch>:

bool right_touch(void){
	return PINB & _BV(2);
      e0:	83 b1       	in	r24, 0x03	; 3
      e2:	90 e0       	ldi	r25, 0x00	; 0
      e4:	96 95       	lsr	r25
      e6:	87 95       	ror	r24
      e8:	96 95       	lsr	r25
      ea:	87 95       	ror	r24
}
      ec:	81 70       	andi	r24, 0x01	; 1
      ee:	08 95       	ret

000000f0 <left_touch>:

bool left_touch(void){
	return PINB & _BV(5);
      f0:	83 b1       	in	r24, 0x03	; 3
      f2:	90 e0       	ldi	r25, 0x00	; 0
      f4:	45 e0       	ldi	r20, 0x05	; 5
      f6:	96 95       	lsr	r25
      f8:	87 95       	ror	r24
      fa:	4a 95       	dec	r20
      fc:	e1 f7       	brne	.-8      	; 0xf6 <left_touch+0x6>
}
      fe:	81 70       	andi	r24, 0x01	; 1
     100:	08 95       	ret

00000102 <usart_init>:
#define MYUBRR FOSC/16/BAUD-1 // UART分周率


/* USART設定 */
void usart_init(unsigned int ubrr){
  UBRR0H = (unsigned char)(ubrr>>8); // ボーレート上位8bit
     102:	90 93 c5 00 	sts	0x00C5, r25
  UBRR0L = (unsigned char)ubrr; // ボーレート下位8bit
     106:	80 93 c4 00 	sts	0x00C4, r24
  UCSR0A = (0<<U2X0); // 等速
     10a:	10 92 c0 00 	sts	0x00C0, r1
  UCSR0B = (1<<RXEN0)|(1<<TXEN0)|(1<<RXCIE0); // 送受信許可、受信完了割り込み許可
     10e:	88 e9       	ldi	r24, 0x98	; 152
     110:	80 93 c1 00 	sts	0x00C1, r24
  UCSR0C = (0<<UMSEL00)|(3<<UCSZ00)|(1<<USBS0)|(0<<UPM00);
     114:	8e e0       	ldi	r24, 0x0E	; 14
     116:	80 93 c2 00 	sts	0x00C2, r24
  // フレーム設定 非同期通信 8ビット 1ストップビット パリティ無し
}
     11a:	08 95       	ret

0000011c <nop>:

/* NoOperation */
void nop(int count){
     11c:	40 e0       	ldi	r20, 0x00	; 0
     11e:	50 e0       	ldi	r21, 0x00	; 0
    milliseconds can be achieved.
 */
void
_delay_loop_2(uint16_t __count)
{
	__asm__ volatile (
     120:	68 ec       	ldi	r22, 0xC8	; 200
     122:	70 e0       	ldi	r23, 0x00	; 0
     124:	0a c0       	rjmp	.+20     	; 0x13a <nop+0x1e>
	int i;
	for(i = 0; i < count; i++){
     126:	28 ee       	ldi	r18, 0xE8	; 232
     128:	33 e0       	ldi	r19, 0x03	; 3
     12a:	fb 01       	movw	r30, r22
     12c:	31 97       	sbiw	r30, 0x01	; 1
     12e:	f1 f7       	brne	.-4      	; 0x12c <nop+0x10>
		__ticks = (uint16_t) (__ms * 10.0);
		while(__ticks)
		{
			// wait 1/10 ms
			_delay_loop_2(((F_CPU) / 4e3) / 10);
			__ticks --;
     130:	21 50       	subi	r18, 0x01	; 1
     132:	30 40       	sbci	r19, 0x00	; 0
		__ticks = 1;
	else if (__tmp > 65535)
	{
		//	__ticks = requested delay in 1/10 ms
		__ticks = (uint16_t) (__ms * 10.0);
		while(__ticks)
     134:	d1 f7       	brne	.-12     	; 0x12a <nop+0xe>
     136:	4f 5f       	subi	r20, 0xFF	; 255
     138:	5f 4f       	sbci	r21, 0xFF	; 255
     13a:	48 17       	cp	r20, r24
     13c:	59 07       	cpc	r21, r25
     13e:	9c f3       	brlt	.-26     	; 0x126 <nop+0xa>
		_delay_ms(100);
	}
}
     140:	08 95       	ret

00000142 <getDigit>:

/* intの桁数を返す */
char getDigit(int n){
     142:	40 e0       	ldi	r20, 0x00	; 0
     144:	06 c0       	rjmp	.+12     	; 0x152 <getDigit+0x10>
  char i;
  i = 0;
  while(n>0){
    n /= 10;
     146:	6a e0       	ldi	r22, 0x0A	; 10
     148:	70 e0       	ldi	r23, 0x00	; 0
     14a:	0e 94 ae 17 	call	0x2f5c	; 0x2f5c <__divmodhi4>
     14e:	cb 01       	movw	r24, r22
    i++;
     150:	4f 5f       	subi	r20, 0xFF	; 255

/* intの桁数を返す */
char getDigit(int n){
  char i;
  i = 0;
  while(n>0){
     152:	18 16       	cp	r1, r24
     154:	19 06       	cpc	r1, r25
     156:	bc f3       	brlt	.-18     	; 0x146 <getDigit+0x4>
    n /= 10;
    i++;
  }
  return i;
}
     158:	84 2f       	mov	r24, r20
     15a:	08 95       	ret

0000015c <intToStr>:

/* int->String変換 */
char *intToStr(int n, char *buf){ // 変換する数、作業領域
     15c:	cf 92       	push	r12
     15e:	df 92       	push	r13
     160:	ef 92       	push	r14
     162:	ff 92       	push	r15
     164:	0f 93       	push	r16
     166:	1f 93       	push	r17
     168:	cf 93       	push	r28
     16a:	df 93       	push	r29
     16c:	ec 01       	movw	r28, r24
     16e:	8b 01       	movw	r16, r22
  int i, digit;

  if(n == 0){
     170:	00 97       	sbiw	r24, 0x00	; 0
     172:	31 f4       	brne	.+12     	; 0x180 <intToStr+0x24>
	buf[0] = '0';
     174:	80 e3       	ldi	r24, 0x30	; 48
     176:	db 01       	movw	r26, r22
     178:	8c 93       	st	X, r24
	buf[1] = '\0';
     17a:	11 96       	adiw	r26, 0x01	; 1
     17c:	1c 92       	st	X, r1
     17e:	24 c0       	rjmp	.+72     	; 0x1c8 <intToStr+0x6c>
	return buf;
  }

  digit = getDigit(n); // 桁数
     180:	0e 94 a1 00 	call	0x142	; 0x142 <getDigit>
     184:	e8 2e       	mov	r14, r24
     186:	ff 24       	eor	r15, r15
  for(i = digit-1; i >= 0; i--){ // intは最大5桁
     188:	f7 01       	movw	r30, r14
     18a:	31 97       	sbiw	r30, 0x01	; 1
     18c:	68 01       	movw	r12, r16
     18e:	ce 0e       	add	r12, r30
     190:	df 1e       	adc	r13, r31
     192:	12 c0       	rjmp	.+36     	; 0x1b8 <intToStr+0x5c>
    buf[i] = n%10+'0';
     194:	ce 01       	movw	r24, r28
     196:	6a e0       	ldi	r22, 0x0A	; 10
     198:	70 e0       	ldi	r23, 0x00	; 0
     19a:	0e 94 ae 17 	call	0x2f5c	; 0x2f5c <__divmodhi4>
     19e:	80 5d       	subi	r24, 0xD0	; 208
     1a0:	d6 01       	movw	r26, r12
     1a2:	8c 93       	st	X, r24
    n /= 10;
     1a4:	ce 01       	movw	r24, r28
     1a6:	6a e0       	ldi	r22, 0x0A	; 10
     1a8:	70 e0       	ldi	r23, 0x00	; 0
     1aa:	0e 94 ae 17 	call	0x2f5c	; 0x2f5c <__divmodhi4>
     1ae:	eb 01       	movw	r28, r22
	buf[1] = '\0';
	return buf;
  }

  digit = getDigit(n); // 桁数
  for(i = digit-1; i >= 0; i--){ // intは最大5桁
     1b0:	31 97       	sbiw	r30, 0x01	; 1
     1b2:	08 94       	sec
     1b4:	c1 08       	sbc	r12, r1
     1b6:	d1 08       	sbc	r13, r1
     1b8:	bf ef       	ldi	r27, 0xFF	; 255
     1ba:	ef 3f       	cpi	r30, 0xFF	; 255
     1bc:	fb 07       	cpc	r31, r27
     1be:	51 f7       	brne	.-44     	; 0x194 <intToStr+0x38>
    buf[i] = n%10+'0';
    n /= 10;
  }
  buf[digit] = '\0'; // 行末改行
     1c0:	e0 0e       	add	r14, r16
     1c2:	f1 1e       	adc	r15, r17
     1c4:	f7 01       	movw	r30, r14
     1c6:	10 82       	st	Z, r1
  return buf;
}
     1c8:	c8 01       	movw	r24, r16
     1ca:	df 91       	pop	r29
     1cc:	cf 91       	pop	r28
     1ce:	1f 91       	pop	r17
     1d0:	0f 91       	pop	r16
     1d2:	ff 90       	pop	r15
     1d4:	ef 90       	pop	r14
     1d6:	df 90       	pop	r13
     1d8:	cf 90       	pop	r12
     1da:	08 95       	ret

000001dc <usart_sendStr>:

/* USARTで文字列送信 */
void usart_sendStr(char *str){
     1dc:	fc 01       	movw	r30, r24
     1de:	07 c0       	rjmp	.+14     	; 0x1ee <usart_sendStr+0x12>
  while(*str != '\0'){
    loop_until_bit_is_set(UCSR0A,UDRE0); // 送信データレジスタ空きまで待機
     1e0:	80 91 c0 00 	lds	r24, 0x00C0
     1e4:	85 ff       	sbrs	r24, 5
     1e6:	fc cf       	rjmp	.-8      	; 0x1e0 <usart_sendStr+0x4>
    UDR0 = *str++; // 1文字送信、1文字進む
     1e8:	90 93 c6 00 	sts	0x00C6, r25
     1ec:	31 96       	adiw	r30, 0x01	; 1
  return buf;
}

/* USARTで文字列送信 */
void usart_sendStr(char *str){
  while(*str != '\0'){
     1ee:	90 81       	ld	r25, Z
     1f0:	99 23       	and	r25, r25
     1f2:	b1 f7       	brne	.-20     	; 0x1e0 <usart_sendStr+0x4>
    loop_until_bit_is_set(UCSR0A,UDRE0); // 送信データレジスタ空きまで待機
    UDR0 = *str++; // 1文字送信、1文字進む
  }
}
     1f4:	08 95       	ret

000001f6 <adc_init>:

/* ADコンバータ設定 */
void adc_init(void){
  ADMUX = (0<<REFS0); // 外部基準電圧
     1f6:	10 92 7c 00 	sts	0x007C, r1
  ADCSRA =(1<<ADEN)|(1<<ADSC)|(0<<ADPS0);
     1fa:	80 ec       	ldi	r24, 0xC0	; 192
     1fc:	80 93 7a 00 	sts	0x007A, r24
  // A/D変換許可、1回目変換開始(調整)、分周率2
}
     200:	08 95       	ret

00000202 <adc_convert>:

/* ピンを指定してAD変換 return 0-1023 */
int adc_convert(char pin){
  int ad;
  ADMUX = pin; // AD変換入力ピン
     202:	80 93 7c 00 	sts	0x007C, r24
  cbi(ADCSRA,ADIF);
     206:	80 91 7a 00 	lds	r24, 0x007A
     20a:	8f 7e       	andi	r24, 0xEF	; 239
     20c:	80 93 7a 00 	sts	0x007A, r24
  sbi(ADCSRA,ADSC); // 変換開始
     210:	80 91 7a 00 	lds	r24, 0x007A
     214:	80 64       	ori	r24, 0x40	; 64
     216:	80 93 7a 00 	sts	0x007A, r24
  loop_until_bit_is_set(ADCSRA,ADIF); // 変換完了まで待つ
     21a:	80 91 7a 00 	lds	r24, 0x007A
     21e:	84 ff       	sbrs	r24, 4
     220:	fc cf       	rjmp	.-8      	; 0x21a <adc_convert+0x18>
  ad = ADCL; // 下位8bit取得
     222:	90 91 78 00 	lds	r25, 0x0078
  return ad += (ADCH<<8); // 上位2bit取得
     226:	80 91 79 00 	lds	r24, 0x0079
     22a:	38 2f       	mov	r19, r24
     22c:	20 e0       	ldi	r18, 0x00	; 0
     22e:	29 0f       	add	r18, r25
     230:	31 1d       	adc	r19, r1
}
     232:	c9 01       	movw	r24, r18
     234:	08 95       	ret

00000236 <__vector_20>:

/* ATTiny2313からPSコントローラーの信号を受信 */
ISR(USART0_RX_vect){
     236:	1f 92       	push	r1
     238:	0f 92       	push	r0
     23a:	0f b6       	in	r0, 0x3f	; 63
     23c:	0f 92       	push	r0
     23e:	0b b6       	in	r0, 0x3b	; 59
     240:	0f 92       	push	r0
     242:	11 24       	eor	r1, r1
     244:	2f 93       	push	r18
     246:	3f 93       	push	r19
     248:	8f 93       	push	r24
     24a:	9f 93       	push	r25
     24c:	ef 93       	push	r30
     24e:	ff 93       	push	r31

    static uint16_t buff;
    uint16_t data,temp;

    data = UDR0;
     250:	80 91 c6 00 	lds	r24, 0x00C6
     254:	e8 2f       	mov	r30, r24
     256:	f0 e0       	ldi	r31, 0x00	; 0

    if(!(data & 0x08)){
     258:	83 fd       	sbrc	r24, 3
     25a:	05 c0       	rjmp	.+10     	; 0x266 <__vector_20+0x30>
        buff = data;
     25c:	f0 93 a3 02 	sts	0x02A3, r31
     260:	e0 93 a2 02 	sts	0x02A2, r30
     264:	1e c0       	rjmp	.+60     	; 0x2a2 <__vector_20+0x6c>
        return;
    }
    if((data & 0x07)==(buff & 0x07)){
     266:	20 91 a2 02 	lds	r18, 0x02A2
     26a:	30 91 a3 02 	lds	r19, 0x02A3
     26e:	cf 01       	movw	r24, r30
     270:	82 27       	eor	r24, r18
     272:	93 27       	eor	r25, r19
     274:	87 70       	andi	r24, 0x07	; 7
     276:	90 70       	andi	r25, 0x00	; 0
     278:	89 2b       	or	r24, r25
     27a:	99 f4       	brne	.+38     	; 0x2a2 <__vector_20+0x6c>
        temp  = buff & 0xF0;
     27c:	20 7f       	andi	r18, 0xF0	; 240
     27e:	30 70       	andi	r19, 0x00	; 0
        temp |= data >> 4;
     280:	cf 01       	movw	r24, r30
     282:	92 95       	swap	r25
     284:	82 95       	swap	r24
     286:	8f 70       	andi	r24, 0x0F	; 15
     288:	89 27       	eor	r24, r25
     28a:	9f 70       	andi	r25, 0x0F	; 15
     28c:	89 27       	eor	r24, r25
     28e:	82 2b       	or	r24, r18
     290:	93 2b       	or	r25, r19
        SwitchRecv[data & 0x07] = temp;
     292:	e7 70       	andi	r30, 0x07	; 7
     294:	f0 70       	andi	r31, 0x00	; 0
     296:	ee 0f       	add	r30, r30
     298:	ff 1f       	adc	r31, r31
     29a:	eb 54       	subi	r30, 0x4B	; 75
     29c:	fd 4f       	sbci	r31, 0xFD	; 253
     29e:	91 83       	std	Z+1, r25	; 0x01
     2a0:	80 83       	st	Z, r24
    }
}
     2a2:	ff 91       	pop	r31
     2a4:	ef 91       	pop	r30
     2a6:	9f 91       	pop	r25
     2a8:	8f 91       	pop	r24
     2aa:	3f 91       	pop	r19
     2ac:	2f 91       	pop	r18
     2ae:	0f 90       	pop	r0
     2b0:	0b be       	out	0x3b, r0	; 59
     2b2:	0f 90       	pop	r0
     2b4:	0f be       	out	0x3f, r0	; 63
     2b6:	0f 90       	pop	r0
     2b8:	1f 90       	pop	r1
     2ba:	18 95       	reti

000002bc <strat0>:

/*----------------------足回りモーター関数---------------------------*/
//0A,0B: 右モーター
//2A,2B: 左モーター

void strat0(int s, int st){
     2bc:	cf 93       	push	r28
     2be:	df 93       	push	r29
     2c0:	dc 01       	movw	r26, r24
	int i, a = 0;

	A0_number = s;
     2c2:	90 93 d2 02 	sts	0x02D2, r25
     2c6:	80 93 d1 02 	sts	0x02D1, r24
	B0_number = 0;
     2ca:	10 92 da 02 	sts	0x02DA, r1
     2ce:	10 92 d9 02 	sts	0x02D9, r1
	A2_number = s;
     2d2:	90 93 d0 02 	sts	0x02D0, r25
     2d6:	80 93 cf 02 	sts	0x02CF, r24
	B2_number = 0;
     2da:	10 92 b0 02 	sts	0x02B0, r1
     2de:	10 92 af 02 	sts	0x02AF, r1
     2e2:	ac 01       	movw	r20, r24
     2e4:	9c 01       	movw	r18, r24
     2e6:	e0 e0       	ldi	r30, 0x00	; 0
     2e8:	f0 e0       	ldi	r31, 0x00	; 0
     2ea:	c0 ea       	ldi	r28, 0xA0	; 160
     2ec:	df e0       	ldi	r29, 0x0F	; 15
     2ee:	21 c0       	rjmp	.+66     	; 0x332 <strat0+0x76>

/*----------------------足回りモーター関数---------------------------*/
//0A,0B: 右モーター
//2A,2B: 左モーター

void strat0(int s, int st){
     2f0:	4f 5f       	subi	r20, 0xFF	; 255
     2f2:	5f 4f       	sbci	r21, 0xFF	; 255

//		A0_number = A0_number + 1;
		A2_number = A2_number + 1;


		a++;	
     2f4:	31 96       	adiw	r30, 0x01	; 1

		if(a > 1){
     2f6:	e1 30       	cpi	r30, 0x01	; 1
     2f8:	f1 05       	cpc	r31, r1
     2fa:	31 f4       	brne	.+12     	; 0x308 <strat0+0x4c>
			}

			A0_number = A0_number + 1;

		}else {
			if(s <= 100){
     2fc:	a5 36       	cpi	r26, 0x65	; 101
     2fe:	b1 05       	cpc	r27, r1
     300:	1c f0       	brlt	.+6      	; 0x308 <strat0+0x4c>
     302:	20 e0       	ldi	r18, 0x00	; 0
     304:	30 e0       	ldi	r19, 0x00	; 0
     306:	02 c0       	rjmp	.+4      	; 0x30c <strat0+0x50>
				A0_number = A0_number + 1;
     308:	2f 5f       	subi	r18, 0xFF	; 255
     30a:	3f 4f       	sbci	r19, 0xFF	; 255
			}else {
				A0_number = 0;
			}
		}

		OCR0A = A0_number;
     30c:	27 bd       	out	0x27, r18	; 39
		OCR0B = B0_number;
     30e:	18 bc       	out	0x28, r1	; 40
		PORTB |=  _BV(1);
     310:	29 9a       	sbi	0x05, 1	; 5
		PORTB |=  _BV(2);
     312:	2a 9a       	sbi	0x05, 2	; 5

		OCR2A = A2_number;
     314:	40 93 b3 00 	sts	0x00B3, r20
		OCR2B = B2_number;
     318:	10 92 b4 00 	sts	0x00B4, r1
		PORTD |=  _BV(2);
     31c:	5a 9a       	sbi	0x0b, 2	; 11
		PORTD |=  _BV(3);
     31e:	5b 9a       	sbi	0x0b, 3	; 11
     320:	ce 01       	movw	r24, r28
     322:	01 97       	sbiw	r24, 0x01	; 1
     324:	f1 f7       	brne	.-4      	; 0x322 <strat0+0x66>
#define sbi(BYTE,BIT) BYTE|=_BV(BIT) // BYTEの指定BITに1をセット
#define cbi(BYTE,BIT) BYTE&=~_BV(BIT) // BYTEの指定BITをクリア

// 上キーが押されているか返す
inline bool ps_top(void){
	return SwitchRecv[0] & _BV(PS_UP);
     326:	80 91 b5 02 	lds	r24, 0x02B5
     32a:	90 91 b6 02 	lds	r25, 0x02B6
		OCR2B = B2_number;
		PORTD |=  _BV(2);
		PORTD |=  _BV(3);
		_delay_ms(2);

		if(!ps_top()){
     32e:	84 ff       	sbrs	r24, 4
     330:	03 c0       	rjmp	.+6      	; 0x338 <strat0+0x7c>
	A0_number = s;
	B0_number = 0;
	A2_number = s;
	B2_number = 0;

	for(i = 0; i < st; i++){
     332:	e6 17       	cp	r30, r22
     334:	f7 07       	cpc	r31, r23
     336:	e4 f2       	brlt	.-72     	; 0x2f0 <strat0+0x34>
     338:	50 93 d0 02 	sts	0x02D0, r21
     33c:	40 93 cf 02 	sts	0x02CF, r20
     340:	30 93 d2 02 	sts	0x02D2, r19
     344:	20 93 d1 02 	sts	0x02D1, r18

		if(!ps_top()){
			break;
		}
	}
}
     348:	df 91       	pop	r29
     34a:	cf 91       	pop	r28
     34c:	08 95       	ret

0000034e <strat1>:

void strat1(int s){
     34e:	9c 01       	movw	r18, r24

//			debug_move(); //足回りデバッグ

		if(s == 100){
     350:	84 36       	cpi	r24, 0x64	; 100
     352:	91 05       	cpc	r25, r1
     354:	39 f4       	brne	.+14     	; 0x364 <strat1+0x16>
			A0_number = s - 4;
     356:	80 e6       	ldi	r24, 0x60	; 96
     358:	90 e0       	ldi	r25, 0x00	; 0
     35a:	90 93 d2 02 	sts	0x02D2, r25
     35e:	80 93 d1 02 	sts	0x02D1, r24
     362:	08 c0       	rjmp	.+16     	; 0x374 <strat1+0x26>
			B0_number = 0;
			A2_number = s;
			B2_number = 0;
		}else {
			A0_number = s - 13;
     364:	2d 50       	subi	r18, 0x0D	; 13
     366:	30 40       	sbci	r19, 0x00	; 0
     368:	30 93 d2 02 	sts	0x02D2, r19
     36c:	20 93 d1 02 	sts	0x02D1, r18
     370:	23 5f       	subi	r18, 0xF3	; 243
     372:	3f 4f       	sbci	r19, 0xFF	; 255
			B0_number = 0;
     374:	10 92 da 02 	sts	0x02DA, r1
     378:	10 92 d9 02 	sts	0x02D9, r1
			A2_number = s;
     37c:	30 93 d0 02 	sts	0x02D0, r19
     380:	20 93 cf 02 	sts	0x02CF, r18
			B2_number = 0;
     384:	10 92 b0 02 	sts	0x02B0, r1
     388:	10 92 af 02 	sts	0x02AF, r1
		}


		OCR0A = A0_number;
     38c:	80 91 d1 02 	lds	r24, 0x02D1
     390:	87 bd       	out	0x27, r24	; 39
		OCR0B = B0_number;
     392:	18 bc       	out	0x28, r1	; 40
		PORTB |=  _BV(1);
     394:	29 9a       	sbi	0x05, 1	; 5
		PORTB |=  _BV(2);
     396:	2a 9a       	sbi	0x05, 2	; 5

		OCR2A = A2_number;
     398:	80 91 cf 02 	lds	r24, 0x02CF
     39c:	80 93 b3 00 	sts	0x00B3, r24
		OCR2B = B2_number;
     3a0:	10 92 b4 00 	sts	0x00B4, r1
		PORTD |=  _BV(2);
     3a4:	5a 9a       	sbi	0x0b, 2	; 11
		PORTD |=  _BV(3);
     3a6:	5b 9a       	sbi	0x0b, 3	; 11


}
     3a8:	08 95       	ret

000003aa <strat_stop>:

void strat_stop(){
	int i;

	A0_number = 255;
     3aa:	8f ef       	ldi	r24, 0xFF	; 255
     3ac:	90 e0       	ldi	r25, 0x00	; 0
     3ae:	90 93 d2 02 	sts	0x02D2, r25
     3b2:	80 93 d1 02 	sts	0x02D1, r24
	B0_number = 0;
	A2_number = 255;
     3b6:	90 93 d0 02 	sts	0x02D0, r25
     3ba:	80 93 cf 02 	sts	0x02CF, r24
     3be:	20 e0       	ldi	r18, 0x00	; 0
     3c0:	30 e0       	ldi	r19, 0x00	; 0
     3c2:	40 e0       	ldi	r20, 0x00	; 0
     3c4:	50 e0       	ldi	r21, 0x00	; 0
//			debug_move(); //足回りデバッグ

		B0_number = B0_number + 2;
		B2_number = B2_number + 2;

		OCR0A = A0_number;
     3c6:	ef ef       	ldi	r30, 0xFF	; 255
     3c8:	60 ea       	ldi	r22, 0xA0	; 160
     3ca:	7f e0       	ldi	r23, 0x0F	; 15
		PORTD |=  _BV(3);


}

void strat_stop(){
     3cc:	4e 5f       	subi	r20, 0xFE	; 254
     3ce:	5f 4f       	sbci	r21, 0xFF	; 255
     3d0:	2e 5f       	subi	r18, 0xFE	; 254
     3d2:	3f 4f       	sbci	r19, 0xFF	; 255
//			debug_move(); //足回りデバッグ

		B0_number = B0_number + 2;
		B2_number = B2_number + 2;

		OCR0A = A0_number;
     3d4:	e7 bd       	out	0x27, r30	; 39
		OCR0B = B0_number;
     3d6:	48 bd       	out	0x28, r20	; 40
		PORTB &=  ~_BV(1);
     3d8:	29 98       	cbi	0x05, 1	; 5
		PORTB &=  ~_BV(2);
     3da:	2a 98       	cbi	0x05, 2	; 5

		OCR2A = A2_number;
     3dc:	e0 93 b3 00 	sts	0x00B3, r30
		OCR2B = B2_number;
     3e0:	20 93 b4 00 	sts	0x00B4, r18
		PORTD &=  ~_BV(2);
     3e4:	5a 98       	cbi	0x0b, 2	; 11
		PORTD &=  ~_BV(3);
     3e6:	5b 98       	cbi	0x0b, 3	; 11
     3e8:	cb 01       	movw	r24, r22
     3ea:	01 97       	sbiw	r24, 0x01	; 1
     3ec:	f1 f7       	brne	.-4      	; 0x3ea <strat_stop+0x40>
	A0_number = 255;
	B0_number = 0;
	A2_number = 255;
	B2_number = 0;

	for(i = 0; i < 126; i++){
     3ee:	2c 3f       	cpi	r18, 0xFC	; 252
     3f0:	31 05       	cpc	r19, r1
     3f2:	61 f7       	brne	.-40     	; 0x3cc <strat_stop+0x22>
     3f4:	30 93 b0 02 	sts	0x02B0, r19
     3f8:	20 93 af 02 	sts	0x02AF, r18
     3fc:	30 93 da 02 	sts	0x02DA, r19
     400:	20 93 d9 02 	sts	0x02D9, r18
		PORTD &=  ~_BV(2);
		PORTD &=  ~_BV(3);
		_delay_ms(2);

	}
}
     404:	08 95       	ret

00000406 <back0>:




void back0(int s, int bt){
     406:	9c 01       	movw	r18, r24
	int i, a = 0;

	A0_number = 0;
     408:	10 92 d2 02 	sts	0x02D2, r1
     40c:	10 92 d1 02 	sts	0x02D1, r1
	B0_number = s;
     410:	90 93 da 02 	sts	0x02DA, r25
     414:	80 93 d9 02 	sts	0x02D9, r24
	A2_number = 0;
     418:	10 92 d0 02 	sts	0x02D0, r1
     41c:	10 92 cf 02 	sts	0x02CF, r1
	B2_number = s;
     420:	90 93 b0 02 	sts	0x02B0, r25
     424:	80 93 af 02 	sts	0x02AF, r24
     428:	ac 01       	movw	r20, r24
     42a:	e0 e0       	ldi	r30, 0x00	; 0
     42c:	f0 e0       	ldi	r31, 0x00	; 0
     42e:	a0 ea       	ldi	r26, 0xA0	; 160
     430:	bf e0       	ldi	r27, 0x0F	; 15
     432:	18 c0       	rjmp	.+48     	; 0x464 <back0+0x5e>
}




void back0(int s, int bt){
     434:	2f 5f       	subi	r18, 0xFF	; 255
     436:	3f 4f       	sbci	r19, 0xFF	; 255
     438:	4f 5f       	subi	r20, 0xFF	; 255
     43a:	5f 4f       	sbci	r21, 0xFF	; 255
//				B0_number = 0;
//			}
//		}


		OCR0A = A0_number;
     43c:	17 bc       	out	0x27, r1	; 39
		OCR0B = B0_number;
     43e:	48 bd       	out	0x28, r20	; 40
		PORTB |=  _BV(1);
     440:	29 9a       	sbi	0x05, 1	; 5
		PORTB |=  _BV(2);
     442:	2a 9a       	sbi	0x05, 2	; 5

		OCR2A = A2_number;
     444:	10 92 b3 00 	sts	0x00B3, r1
		OCR2B = B2_number;
     448:	20 93 b4 00 	sts	0x00B4, r18
		PORTD |=  _BV(2);
     44c:	5a 9a       	sbi	0x0b, 2	; 11
		PORTD |=  _BV(3);
     44e:	5b 9a       	sbi	0x0b, 3	; 11
     450:	cd 01       	movw	r24, r26
     452:	01 97       	sbiw	r24, 0x01	; 1
     454:	f1 f7       	brne	.-4      	; 0x452 <back0+0x4c>
	return SwitchRecv[0] & _BV(PS_RIGHT);
}

// 下キーが押されているか返す
inline bool ps_bottom(void){
	return SwitchRecv[0] & _BV(PS_DOWN);
     456:	80 91 b5 02 	lds	r24, 0x02B5
     45a:	90 91 b6 02 	lds	r25, 0x02B6
		OCR2B = B2_number;
		PORTD |=  _BV(2);
		PORTD |=  _BV(3);
		_delay_ms(2);

		if(!ps_bottom()){
     45e:	86 ff       	sbrs	r24, 6
     460:	04 c0       	rjmp	.+8      	; 0x46a <back0+0x64>
	A0_number = 0;
	B0_number = s;
	A2_number = 0;
	B2_number = s;

	for(i = 0; i < bt; i++){
     462:	31 96       	adiw	r30, 0x01	; 1
     464:	e6 17       	cp	r30, r22
     466:	f7 07       	cpc	r31, r23
     468:	2c f3       	brlt	.-54     	; 0x434 <back0+0x2e>
     46a:	50 93 da 02 	sts	0x02DA, r21
     46e:	40 93 d9 02 	sts	0x02D9, r20
     472:	30 93 b0 02 	sts	0x02B0, r19
     476:	20 93 af 02 	sts	0x02AF, r18
     47a:	08 95       	ret

0000047c <back1>:
//	debug_move(); //デバッグ

	}
}

void back1(int s){
     47c:	9c 01       	movw	r18, r24

	if(s == 100){
     47e:	84 36       	cpi	r24, 0x64	; 100
     480:	91 05       	cpc	r25, r1
     482:	59 f4       	brne	.+22     	; 0x49a <back1+0x1e>
		A0_number = 0;
     484:	10 92 d2 02 	sts	0x02D2, r1
     488:	10 92 d1 02 	sts	0x02D1, r1
		B0_number = s - 9;
     48c:	8b e5       	ldi	r24, 0x5B	; 91
     48e:	90 e0       	ldi	r25, 0x00	; 0
     490:	90 93 da 02 	sts	0x02DA, r25
     494:	80 93 d9 02 	sts	0x02D9, r24
     498:	0c c0       	rjmp	.+24     	; 0x4b2 <back1+0x36>
		A2_number = 0;
		B2_number = s;
	}else {
		A0_number = 0;
     49a:	10 92 d2 02 	sts	0x02D2, r1
     49e:	10 92 d1 02 	sts	0x02D1, r1
		B0_number = s - 3;
     4a2:	23 50       	subi	r18, 0x03	; 3
     4a4:	30 40       	sbci	r19, 0x00	; 0
     4a6:	30 93 da 02 	sts	0x02DA, r19
     4aa:	20 93 d9 02 	sts	0x02D9, r18
     4ae:	2d 5f       	subi	r18, 0xFD	; 253
     4b0:	3f 4f       	sbci	r19, 0xFF	; 255
		A2_number = 0;
     4b2:	10 92 d0 02 	sts	0x02D0, r1
     4b6:	10 92 cf 02 	sts	0x02CF, r1
		B2_number = s;
     4ba:	30 93 b0 02 	sts	0x02B0, r19
     4be:	20 93 af 02 	sts	0x02AF, r18
	}



	OCR0A = A0_number;
     4c2:	17 bc       	out	0x27, r1	; 39
	OCR0B = B0_number;
     4c4:	80 91 d9 02 	lds	r24, 0x02D9
     4c8:	88 bd       	out	0x28, r24	; 40
	PORTB |=  _BV(1);
     4ca:	29 9a       	sbi	0x05, 1	; 5
	PORTB |=  _BV(2);
     4cc:	2a 9a       	sbi	0x05, 2	; 5

	OCR2A = A2_number;
     4ce:	10 92 b3 00 	sts	0x00B3, r1
	OCR2B = B2_number - 7;
     4d2:	80 91 af 02 	lds	r24, 0x02AF
     4d6:	87 50       	subi	r24, 0x07	; 7
     4d8:	80 93 b4 00 	sts	0x00B4, r24
	PORTD |=  _BV(2);
     4dc:	5a 9a       	sbi	0x0b, 2	; 11
	PORTD |=  _BV(3);
     4de:	5b 9a       	sbi	0x0b, 3	; 11

//		debug_move(); //デバッグ

}
     4e0:	08 95       	ret

000004e2 <back_stop>:

void back_stop(){
	int i;

	A0_number = 0;
	B0_number = 255;
     4e2:	8f ef       	ldi	r24, 0xFF	; 255
     4e4:	90 e0       	ldi	r25, 0x00	; 0
     4e6:	90 93 da 02 	sts	0x02DA, r25
     4ea:	80 93 d9 02 	sts	0x02D9, r24
	A2_number = 0;
	B2_number = 255;
     4ee:	90 93 b0 02 	sts	0x02B0, r25
     4f2:	80 93 af 02 	sts	0x02AF, r24
     4f6:	20 e0       	ldi	r18, 0x00	; 0
     4f8:	30 e0       	ldi	r19, 0x00	; 0
     4fa:	40 e0       	ldi	r20, 0x00	; 0
     4fc:	50 e0       	ldi	r21, 0x00	; 0

		A0_number = A0_number + 2;
		A2_number = A2_number + 2;

		OCR0A = A0_number;
		OCR0B = B0_number;
     4fe:	ef ef       	ldi	r30, 0xFF	; 255
     500:	60 ea       	ldi	r22, 0xA0	; 160
     502:	7f e0       	ldi	r23, 0x0F	; 15

//		debug_move(); //デバッグ

}

void back_stop(){
     504:	4e 5f       	subi	r20, 0xFE	; 254
     506:	5f 4f       	sbci	r21, 0xFF	; 255
     508:	2e 5f       	subi	r18, 0xFE	; 254
     50a:	3f 4f       	sbci	r19, 0xFF	; 255
	for(i = 0; i < 126; i++){

		A0_number = A0_number + 2;
		A2_number = A2_number + 2;

		OCR0A = A0_number;
     50c:	47 bd       	out	0x27, r20	; 39
		OCR0B = B0_number;
     50e:	e8 bd       	out	0x28, r30	; 40
		PORTB &=  ~_BV(1);
     510:	29 98       	cbi	0x05, 1	; 5
		PORTB &=  ~_BV(2);
     512:	2a 98       	cbi	0x05, 2	; 5

		OCR2A = A2_number;
     514:	20 93 b3 00 	sts	0x00B3, r18
		OCR2B = B2_number;
     518:	e0 93 b4 00 	sts	0x00B4, r30
		PORTD &=  ~_BV(2);
     51c:	5a 98       	cbi	0x0b, 2	; 11
		PORTD &=  ~_BV(3);
     51e:	5b 98       	cbi	0x0b, 3	; 11
     520:	cb 01       	movw	r24, r22
     522:	01 97       	sbiw	r24, 0x01	; 1
     524:	f1 f7       	brne	.-4      	; 0x522 <back_stop+0x40>
	A0_number = 0;
	B0_number = 255;
	A2_number = 0;
	B2_number = 255;

	for(i = 0; i < 126; i++){
     526:	2c 3f       	cpi	r18, 0xFC	; 252
     528:	31 05       	cpc	r19, r1
     52a:	61 f7       	brne	.-40     	; 0x504 <back_stop+0x22>
     52c:	30 93 d0 02 	sts	0x02D0, r19
     530:	20 93 cf 02 	sts	0x02CF, r18
     534:	30 93 d2 02 	sts	0x02D2, r19
     538:	20 93 d1 02 	sts	0x02D1, r18

//	debug_move(); //デバッグ


	}
}
     53c:	08 95       	ret

0000053e <left0>:





void left0(int s, int t){
     53e:	9c 01       	movw	r18, r24
	int i;

	A0_number = s;
     540:	90 93 d2 02 	sts	0x02D2, r25
     544:	80 93 d1 02 	sts	0x02D1, r24
	B0_number = 0;
     548:	10 92 da 02 	sts	0x02DA, r1
     54c:	10 92 d9 02 	sts	0x02D9, r1
	A2_number = 0;
     550:	10 92 d0 02 	sts	0x02D0, r1
     554:	10 92 cf 02 	sts	0x02CF, r1
	B2_number = s;
     558:	90 93 b0 02 	sts	0x02B0, r25
     55c:	80 93 af 02 	sts	0x02AF, r24
     560:	ac 01       	movw	r20, r24
     562:	e0 e0       	ldi	r30, 0x00	; 0
     564:	f0 e0       	ldi	r31, 0x00	; 0
     566:	a0 ea       	ldi	r26, 0xA0	; 160
     568:	bf e0       	ldi	r27, 0x0F	; 15
     56a:	18 c0       	rjmp	.+48     	; 0x59c <left0+0x5e>





void left0(int s, int t){
     56c:	2f 5f       	subi	r18, 0xFF	; 255
     56e:	3f 4f       	sbci	r19, 0xFF	; 255
     570:	4f 5f       	subi	r20, 0xFF	; 255
     572:	5f 4f       	sbci	r21, 0xFF	; 255
	for(i = 0; i < t; i++){

		A0_number = A0_number + 1;
		B2_number = B2_number + 1;

		OCR0A = A0_number;
     574:	27 bd       	out	0x27, r18	; 39
		OCR0B = B0_number;
     576:	18 bc       	out	0x28, r1	; 40
		PORTB |=  _BV(1);
     578:	29 9a       	sbi	0x05, 1	; 5
		PORTB |=  _BV(2);
     57a:	2a 9a       	sbi	0x05, 2	; 5

		OCR2A = A2_number;
     57c:	10 92 b3 00 	sts	0x00B3, r1
		OCR2B = B2_number;
     580:	40 93 b4 00 	sts	0x00B4, r20
		PORTD |=  _BV(2);
     584:	5a 9a       	sbi	0x0b, 2	; 11
		PORTD |=  _BV(3);
     586:	5b 9a       	sbi	0x0b, 3	; 11
     588:	cd 01       	movw	r24, r26
     58a:	01 97       	sbiw	r24, 0x01	; 1
     58c:	f1 f7       	brne	.-4      	; 0x58a <left0+0x4c>
	return SwitchRecv[0] & _BV(PS_DOWN);
}

// 左キーが押されているか返す
inline bool ps_left(void){
	return SwitchRecv[0] & _BV(PS_LEFT);
     58e:	80 91 b5 02 	lds	r24, 0x02B5
     592:	90 91 b6 02 	lds	r25, 0x02B6
		OCR2B = B2_number;
		PORTD |=  _BV(2);
		PORTD |=  _BV(3);
		_delay_ms(2);

		if(!ps_left()){
     596:	87 ff       	sbrs	r24, 7
     598:	04 c0       	rjmp	.+8      	; 0x5a2 <left0+0x64>
	A0_number = s;
	B0_number = 0;
	A2_number = 0;
	B2_number = s;

	for(i = 0; i < t; i++){
     59a:	31 96       	adiw	r30, 0x01	; 1
     59c:	e6 17       	cp	r30, r22
     59e:	f7 07       	cpc	r31, r23
     5a0:	2c f3       	brlt	.-54     	; 0x56c <left0+0x2e>
     5a2:	50 93 b0 02 	sts	0x02B0, r21
     5a6:	40 93 af 02 	sts	0x02AF, r20
     5aa:	30 93 d2 02 	sts	0x02D2, r19
     5ae:	20 93 d1 02 	sts	0x02D1, r18
     5b2:	08 95       	ret

000005b4 <left1>:
	}
}

void left1(int s){

		A0_number = s;
     5b4:	80 93 d1 02 	sts	0x02D1, r24
     5b8:	90 93 d2 02 	sts	0x02D2, r25
		B0_number = 0;
     5bc:	10 92 da 02 	sts	0x02DA, r1
     5c0:	10 92 d9 02 	sts	0x02D9, r1
		A2_number = 0;
     5c4:	10 92 d0 02 	sts	0x02D0, r1
     5c8:	10 92 cf 02 	sts	0x02CF, r1
		B2_number = s;
     5cc:	80 93 af 02 	sts	0x02AF, r24
     5d0:	90 93 b0 02 	sts	0x02B0, r25

		OCR0A = A0_number;
     5d4:	87 bd       	out	0x27, r24	; 39
		OCR0B = B0_number;
     5d6:	18 bc       	out	0x28, r1	; 40
		PORTB |=  _BV(1);
     5d8:	29 9a       	sbi	0x05, 1	; 5
		PORTB |=  _BV(2);
     5da:	2a 9a       	sbi	0x05, 2	; 5

		OCR2A = A2_number;
     5dc:	10 92 b3 00 	sts	0x00B3, r1
		OCR2B = B2_number;
     5e0:	80 93 b4 00 	sts	0x00B4, r24
		PORTD |=  _BV(2);
     5e4:	5a 9a       	sbi	0x0b, 2	; 11
		PORTD |=  _BV(3);
     5e6:	5b 9a       	sbi	0x0b, 3	; 11

}
     5e8:	08 95       	ret

000005ea <left_stop>:

void left_stop(){
	int i;

	A0_number = 100;
     5ea:	84 e6       	ldi	r24, 0x64	; 100
     5ec:	90 e0       	ldi	r25, 0x00	; 0
     5ee:	90 93 d2 02 	sts	0x02D2, r25
     5f2:	80 93 d1 02 	sts	0x02D1, r24
	B0_number = 0;
	A2_number = 0;
	B2_number = 100;
     5f6:	90 93 b0 02 	sts	0x02B0, r25
     5fa:	80 93 af 02 	sts	0x02AF, r24
     5fe:	20 e0       	ldi	r18, 0x00	; 0
     600:	30 e0       	ldi	r19, 0x00	; 0
     602:	40 e0       	ldi	r20, 0x00	; 0
     604:	50 e0       	ldi	r21, 0x00	; 0
	for(i = 0; i < 100; i++){

		B0_number = B0_number + 1;
		A2_number = A2_number + 1;

		OCR0A = A0_number;
     606:	e4 e6       	ldi	r30, 0x64	; 100
     608:	60 ed       	ldi	r22, 0xD0	; 208
     60a:	77 e0       	ldi	r23, 0x07	; 7
		PORTD |=  _BV(2);
		PORTD |=  _BV(3);

}

void left_stop(){
     60c:	4f 5f       	subi	r20, 0xFF	; 255
     60e:	5f 4f       	sbci	r21, 0xFF	; 255
     610:	2f 5f       	subi	r18, 0xFF	; 255
     612:	3f 4f       	sbci	r19, 0xFF	; 255
	for(i = 0; i < 100; i++){

		B0_number = B0_number + 1;
		A2_number = A2_number + 1;

		OCR0A = A0_number;
     614:	e7 bd       	out	0x27, r30	; 39
		OCR0B = B0_number;
     616:	48 bd       	out	0x28, r20	; 40
		PORTB &=  ~_BV(1);
     618:	29 98       	cbi	0x05, 1	; 5
		PORTB &=  ~_BV(2);
     61a:	2a 98       	cbi	0x05, 2	; 5

		OCR2A = A2_number;
     61c:	20 93 b3 00 	sts	0x00B3, r18
		OCR2B = B2_number;
     620:	e0 93 b4 00 	sts	0x00B4, r30
		PORTD &=  ~_BV(2);
     624:	5a 98       	cbi	0x0b, 2	; 11
		PORTD &=  ~_BV(3);
     626:	5b 98       	cbi	0x0b, 3	; 11
     628:	cb 01       	movw	r24, r22
     62a:	01 97       	sbiw	r24, 0x01	; 1
     62c:	f1 f7       	brne	.-4      	; 0x62a <left_stop+0x40>
	A0_number = 100;
	B0_number = 0;
	A2_number = 0;
	B2_number = 100;

	for(i = 0; i < 100; i++){
     62e:	24 36       	cpi	r18, 0x64	; 100
     630:	31 05       	cpc	r19, r1
     632:	61 f7       	brne	.-40     	; 0x60c <left_stop+0x22>
     634:	30 93 d0 02 	sts	0x02D0, r19
     638:	20 93 cf 02 	sts	0x02CF, r18
     63c:	30 93 da 02 	sts	0x02DA, r19
     640:	20 93 d9 02 	sts	0x02D9, r18
		PORTD &=  ~_BV(2);
		PORTD &=  ~_BV(3);
		_delay_ms(1);

	}
}
     644:	08 95       	ret

00000646 <right0>:





void right0(int s, int t){
     646:	9c 01       	movw	r18, r24
	int i;

	A0_number = 0;
     648:	10 92 d2 02 	sts	0x02D2, r1
     64c:	10 92 d1 02 	sts	0x02D1, r1
	B0_number = s;
     650:	90 93 da 02 	sts	0x02DA, r25
     654:	80 93 d9 02 	sts	0x02D9, r24
	A2_number = s;
     658:	90 93 d0 02 	sts	0x02D0, r25
     65c:	80 93 cf 02 	sts	0x02CF, r24
	B2_number = 0;
     660:	10 92 b0 02 	sts	0x02B0, r1
     664:	10 92 af 02 	sts	0x02AF, r1
     668:	ac 01       	movw	r20, r24
     66a:	e0 e0       	ldi	r30, 0x00	; 0
     66c:	f0 e0       	ldi	r31, 0x00	; 0
     66e:	a0 ea       	ldi	r26, 0xA0	; 160
     670:	bf e0       	ldi	r27, 0x0F	; 15
     672:	18 c0       	rjmp	.+48     	; 0x6a4 <right0+0x5e>





void right0(int s, int t){
     674:	2f 5f       	subi	r18, 0xFF	; 255
     676:	3f 4f       	sbci	r19, 0xFF	; 255
     678:	4f 5f       	subi	r20, 0xFF	; 255
     67a:	5f 4f       	sbci	r21, 0xFF	; 255
	for(i = 0; i < t; i++){

		B0_number = B0_number + 1;
		A2_number = A2_number + 1;

		OCR0A = A0_number;
     67c:	17 bc       	out	0x27, r1	; 39
		OCR0B = B0_number;
     67e:	28 bd       	out	0x28, r18	; 40
		PORTB |=  _BV(1);
     680:	29 9a       	sbi	0x05, 1	; 5
		PORTB |=  _BV(2);
     682:	2a 9a       	sbi	0x05, 2	; 5

		OCR2A = A2_number;
     684:	40 93 b3 00 	sts	0x00B3, r20
		OCR2B = B2_number;
     688:	10 92 b4 00 	sts	0x00B4, r1
		PORTD |=  _BV(2);
     68c:	5a 9a       	sbi	0x0b, 2	; 11
		PORTD |=  _BV(3);
     68e:	5b 9a       	sbi	0x0b, 3	; 11
     690:	cd 01       	movw	r24, r26
     692:	01 97       	sbiw	r24, 0x01	; 1
     694:	f1 f7       	brne	.-4      	; 0x692 <right0+0x4c>
	return SwitchRecv[0] & _BV(PS_UP);
}

// 右キーが押されているか返す
inline bool ps_right(void){
	return SwitchRecv[0] & _BV(PS_RIGHT);
     696:	80 91 b5 02 	lds	r24, 0x02B5
     69a:	90 91 b6 02 	lds	r25, 0x02B6
		OCR2B = B2_number;
		PORTD |=  _BV(2);
		PORTD |=  _BV(3);
		_delay_ms(2);

		if(!ps_right()){
     69e:	85 ff       	sbrs	r24, 5
     6a0:	04 c0       	rjmp	.+8      	; 0x6aa <right0+0x64>
	A0_number = 0;
	B0_number = s;
	A2_number = s;
	B2_number = 0;

	for(i = 0; i < t; i++){
     6a2:	31 96       	adiw	r30, 0x01	; 1
     6a4:	e6 17       	cp	r30, r22
     6a6:	f7 07       	cpc	r31, r23
     6a8:	2c f3       	brlt	.-54     	; 0x674 <right0+0x2e>
     6aa:	50 93 d0 02 	sts	0x02D0, r21
     6ae:	40 93 cf 02 	sts	0x02CF, r20
     6b2:	30 93 da 02 	sts	0x02DA, r19
     6b6:	20 93 d9 02 	sts	0x02D9, r18
     6ba:	08 95       	ret

000006bc <right1>:
	}
}

void right1(int s){

		A0_number = 0;
     6bc:	10 92 d2 02 	sts	0x02D2, r1
     6c0:	10 92 d1 02 	sts	0x02D1, r1
		B0_number = s;
     6c4:	80 93 d9 02 	sts	0x02D9, r24
     6c8:	90 93 da 02 	sts	0x02DA, r25
		A2_number = s;
     6cc:	80 93 cf 02 	sts	0x02CF, r24
     6d0:	90 93 d0 02 	sts	0x02D0, r25
		B2_number = 0;
     6d4:	10 92 b0 02 	sts	0x02B0, r1
     6d8:	10 92 af 02 	sts	0x02AF, r1

		OCR0A = A0_number;
     6dc:	17 bc       	out	0x27, r1	; 39
		OCR0B = B0_number;
     6de:	88 bd       	out	0x28, r24	; 40
		PORTB |=  _BV(1);
     6e0:	29 9a       	sbi	0x05, 1	; 5
		PORTB |=  _BV(2);
     6e2:	2a 9a       	sbi	0x05, 2	; 5

		OCR2A = A2_number;
     6e4:	80 93 b3 00 	sts	0x00B3, r24
		OCR2B = B2_number;
     6e8:	10 92 b4 00 	sts	0x00B4, r1
		PORTD |=  _BV(2);
     6ec:	5a 9a       	sbi	0x0b, 2	; 11
		PORTD |=  _BV(3);
     6ee:	5b 9a       	sbi	0x0b, 3	; 11

}
     6f0:	08 95       	ret

000006f2 <right_stop>:

void right_stop(){
	int i;

	A0_number = 0;
	B0_number = 100;
     6f2:	84 e6       	ldi	r24, 0x64	; 100
     6f4:	90 e0       	ldi	r25, 0x00	; 0
     6f6:	90 93 da 02 	sts	0x02DA, r25
     6fa:	80 93 d9 02 	sts	0x02D9, r24
	A2_number = 100;
     6fe:	90 93 d0 02 	sts	0x02D0, r25
     702:	80 93 cf 02 	sts	0x02CF, r24
     706:	20 e0       	ldi	r18, 0x00	; 0
     708:	30 e0       	ldi	r19, 0x00	; 0
     70a:	40 e0       	ldi	r20, 0x00	; 0
     70c:	50 e0       	ldi	r21, 0x00	; 0

		A0_number = A0_number + 1;
		B2_number = B2_number + 1;

		OCR0A = A0_number;
		OCR0B = B0_number;
     70e:	e4 e6       	ldi	r30, 0x64	; 100
     710:	60 ed       	ldi	r22, 0xD0	; 208
     712:	77 e0       	ldi	r23, 0x07	; 7
		PORTD |=  _BV(2);
		PORTD |=  _BV(3);

}

void right_stop(){
     714:	4f 5f       	subi	r20, 0xFF	; 255
     716:	5f 4f       	sbci	r21, 0xFF	; 255
     718:	2f 5f       	subi	r18, 0xFF	; 255
     71a:	3f 4f       	sbci	r19, 0xFF	; 255
	for(i = 0; i < 100; i++){

		A0_number = A0_number + 1;
		B2_number = B2_number + 1;

		OCR0A = A0_number;
     71c:	47 bd       	out	0x27, r20	; 39
		OCR0B = B0_number;
     71e:	e8 bd       	out	0x28, r30	; 40
		PORTB &=  ~_BV(1);
     720:	29 98       	cbi	0x05, 1	; 5
		PORTB &=  ~_BV(2);
     722:	2a 98       	cbi	0x05, 2	; 5

		OCR2A = A2_number;
     724:	e0 93 b3 00 	sts	0x00B3, r30
		OCR2B = B2_number;
     728:	20 93 b4 00 	sts	0x00B4, r18
		PORTD &=  ~_BV(2);
     72c:	5a 98       	cbi	0x0b, 2	; 11
		PORTD &=  ~_BV(3);
     72e:	5b 98       	cbi	0x0b, 3	; 11
     730:	cb 01       	movw	r24, r22
     732:	01 97       	sbiw	r24, 0x01	; 1
     734:	f1 f7       	brne	.-4      	; 0x732 <right_stop+0x40>
	A0_number = 0;
	B0_number = 100;
	A2_number = 100;
	B2_number = 0;

	for(i = 0; i < 100; i++){
     736:	24 36       	cpi	r18, 0x64	; 100
     738:	31 05       	cpc	r19, r1
     73a:	61 f7       	brne	.-40     	; 0x714 <right_stop+0x22>
     73c:	30 93 b0 02 	sts	0x02B0, r19
     740:	20 93 af 02 	sts	0x02AF, r18
     744:	30 93 d2 02 	sts	0x02D2, r19
     748:	20 93 d1 02 	sts	0x02D1, r18
		PORTD &=  ~_BV(2);
		PORTD &=  ~_BV(3);
		_delay_ms(1);

	}
}
     74c:	08 95       	ret

0000074e <stop>:



void stop(){

	A0_number = 255;
     74e:	8f ef       	ldi	r24, 0xFF	; 255
     750:	90 e0       	ldi	r25, 0x00	; 0
     752:	90 93 d2 02 	sts	0x02D2, r25
     756:	80 93 d1 02 	sts	0x02D1, r24
	B0_number = 255;
     75a:	90 93 da 02 	sts	0x02DA, r25
     75e:	80 93 d9 02 	sts	0x02D9, r24
	A2_number = 255;
     762:	90 93 d0 02 	sts	0x02D0, r25
     766:	80 93 cf 02 	sts	0x02CF, r24
	B2_number = 255;
     76a:	90 93 b0 02 	sts	0x02B0, r25
     76e:	80 93 af 02 	sts	0x02AF, r24

	OCR0A = A0_number;
     772:	8f ef       	ldi	r24, 0xFF	; 255
     774:	87 bd       	out	0x27, r24	; 39
	OCR0B = B0_number;
     776:	88 bd       	out	0x28, r24	; 40
	PORTB &=  ~_BV(1);
     778:	29 98       	cbi	0x05, 1	; 5
	PORTB &=  ~_BV(2);
     77a:	2a 98       	cbi	0x05, 2	; 5


	OCR2A = A2_number;
     77c:	80 93 b3 00 	sts	0x00B3, r24
	OCR2B = B2_number;
     780:	80 93 b4 00 	sts	0x00B4, r24
	PORTD &=  ~_BV(2);
     784:	5a 98       	cbi	0x0b, 2	; 11
	PORTD &=  ~_BV(3);
     786:	5b 98       	cbi	0x0b, 3	; 11
}
     788:	08 95       	ret

0000078a <arm_one_strat0>:


/*--------------アームモータ関数---------------*/

// 中心モータ伸びる
void arm_one_strat0(int s, int t){
     78a:	9c 01       	movw	r18, r24
	int i;

	A1_number = 0;
     78c:	10 92 ce 02 	sts	0x02CE, r1
     790:	10 92 cd 02 	sts	0x02CD, r1
	B1_number = s;
     794:	90 93 ab 02 	sts	0x02AB, r25
     798:	80 93 aa 02 	sts	0x02AA, r24
     79c:	40 e0       	ldi	r20, 0x00	; 0
     79e:	50 e0       	ldi	r21, 0x00	; 0
     7a0:	e0 ed       	ldi	r30, 0xD0	; 208
     7a2:	f7 e0       	ldi	r31, 0x07	; 7
     7a4:	17 c0       	rjmp	.+46     	; 0x7d4 <arm_one_strat0+0x4a>


/*--------------アームモータ関数---------------*/

// 中心モータ伸びる
void arm_one_strat0(int s, int t){
     7a6:	2f 5f       	subi	r18, 0xFF	; 255
     7a8:	3f 4f       	sbci	r19, 0xFF	; 255

	for(i = 0; i < t; i++){

		B1_number = B1_number + 1;

		OCR1A = A1_number;
     7aa:	10 92 89 00 	sts	0x0089, r1
     7ae:	10 92 88 00 	sts	0x0088, r1
		OCR1B = B1_number;
     7b2:	30 93 8b 00 	sts	0x008B, r19
     7b6:	20 93 8a 00 	sts	0x008A, r18
		PORTC |= _BV(0);
     7ba:	40 9a       	sbi	0x08, 0	; 8
		PORTC |= _BV(1);
     7bc:	41 9a       	sbi	0x08, 1	; 8
     7be:	cf 01       	movw	r24, r30
     7c0:	01 97       	sbiw	r24, 0x01	; 1
     7c2:	f1 f7       	brne	.-4      	; 0x7c0 <arm_one_strat0+0x36>
	return SwitchRecv[1] & _BV(PS_R1);
}

// △キーが押されているか返す
inline bool ps_triangle(void){
	return SwitchRecv[1] & _BV(PS_TRIANGLE);
     7c4:	80 91 b7 02 	lds	r24, 0x02B7
     7c8:	90 91 b8 02 	lds	r25, 0x02B8
		PORTC |= _BV(0);
		PORTC |= _BV(1);

		_delay_ms(1);

		if(!ps_triangle()){
     7cc:	84 ff       	sbrs	r24, 4
     7ce:	05 c0       	rjmp	.+10     	; 0x7da <arm_one_strat0+0x50>
	int i;

	A1_number = 0;
	B1_number = s;

	for(i = 0; i < t; i++){
     7d0:	4f 5f       	subi	r20, 0xFF	; 255
     7d2:	5f 4f       	sbci	r21, 0xFF	; 255
     7d4:	46 17       	cp	r20, r22
     7d6:	57 07       	cpc	r21, r23
     7d8:	34 f3       	brlt	.-52     	; 0x7a6 <arm_one_strat0+0x1c>
     7da:	30 93 ab 02 	sts	0x02AB, r19
     7de:	20 93 aa 02 	sts	0x02AA, r18
     7e2:	08 95       	ret

000007e4 <arm_one_strat1>:
	}
}

void arm_one_strat1(int s){

	A1_number = 0;
     7e4:	10 92 ce 02 	sts	0x02CE, r1
     7e8:	10 92 cd 02 	sts	0x02CD, r1
	B1_number = s;
     7ec:	80 93 aa 02 	sts	0x02AA, r24
     7f0:	90 93 ab 02 	sts	0x02AB, r25

	OCR1A = A1_number;
     7f4:	10 92 89 00 	sts	0x0089, r1
     7f8:	10 92 88 00 	sts	0x0088, r1
	OCR1B = B1_number;
     7fc:	90 93 8b 00 	sts	0x008B, r25
     800:	80 93 8a 00 	sts	0x008A, r24
	PORTC |= _BV(0);
     804:	40 9a       	sbi	0x08, 0	; 8
	PORTC |= _BV(1);
     806:	41 9a       	sbi	0x08, 1	; 8
}
     808:	08 95       	ret

0000080a <arm_one_strat_stop>:

void arm_one_strat_stop(){
	int i;

	A1_number = 0;
	B1_number = 255;
     80a:	8f ef       	ldi	r24, 0xFF	; 255
     80c:	90 e0       	ldi	r25, 0x00	; 0
     80e:	90 93 ab 02 	sts	0x02AB, r25
     812:	80 93 aa 02 	sts	0x02AA, r24
     816:	20 e0       	ldi	r18, 0x00	; 0
     818:	30 e0       	ldi	r19, 0x00	; 0
	for(i = 0; i < 126; i++){

		A1_number = A1_number + 2;

		OCR1A = A1_number;
		OCR1B = B1_number;
     81a:	6f ef       	ldi	r22, 0xFF	; 255
     81c:	70 e0       	ldi	r23, 0x00	; 0
     81e:	40 ed       	ldi	r20, 0xD0	; 208
     820:	57 e0       	ldi	r21, 0x07	; 7
	OCR1B = B1_number;
	PORTC |= _BV(0);
	PORTC |= _BV(1);
}

void arm_one_strat_stop(){
     822:	2e 5f       	subi	r18, 0xFE	; 254
     824:	3f 4f       	sbci	r19, 0xFF	; 255

	for(i = 0; i < 126; i++){

		A1_number = A1_number + 2;

		OCR1A = A1_number;
     826:	30 93 89 00 	sts	0x0089, r19
     82a:	20 93 88 00 	sts	0x0088, r18
		OCR1B = B1_number;
     82e:	70 93 8b 00 	sts	0x008B, r23
     832:	60 93 8a 00 	sts	0x008A, r22
		PORTC &=  ~_BV(0);
     836:	40 98       	cbi	0x08, 0	; 8
		PORTC &=  ~_BV(1);
     838:	41 98       	cbi	0x08, 1	; 8
     83a:	ca 01       	movw	r24, r20
     83c:	01 97       	sbiw	r24, 0x01	; 1
     83e:	f1 f7       	brne	.-4      	; 0x83c <arm_one_strat_stop+0x32>
	int i;

	A1_number = 0;
	B1_number = 255;

	for(i = 0; i < 126; i++){
     840:	2c 3f       	cpi	r18, 0xFC	; 252
     842:	31 05       	cpc	r19, r1
     844:	71 f7       	brne	.-36     	; 0x822 <arm_one_strat_stop+0x18>
     846:	30 93 ce 02 	sts	0x02CE, r19
     84a:	20 93 cd 02 	sts	0x02CD, r18
		PORTC &=  ~_BV(1);

		_delay_ms(1);

	}
}
     84e:	08 95       	ret

00000850 <arm_one_back0>:




// 中心モータ縮む
void arm_one_back0(int s, int t){
     850:	9c 01       	movw	r18, r24
	int i;

	A1_number = s;
     852:	90 93 ce 02 	sts	0x02CE, r25
     856:	80 93 cd 02 	sts	0x02CD, r24
	B1_number = 0;
     85a:	10 92 ab 02 	sts	0x02AB, r1
     85e:	10 92 aa 02 	sts	0x02AA, r1
     862:	40 e0       	ldi	r20, 0x00	; 0
     864:	50 e0       	ldi	r21, 0x00	; 0
     866:	e0 ed       	ldi	r30, 0xD0	; 208
     868:	f7 e0       	ldi	r31, 0x07	; 7
     86a:	17 c0       	rjmp	.+46     	; 0x89a <arm_one_back0+0x4a>




// 中心モータ縮む
void arm_one_back0(int s, int t){
     86c:	2f 5f       	subi	r18, 0xFF	; 255
     86e:	3f 4f       	sbci	r19, 0xFF	; 255

	for(i = 0; i < t; i++){

		A1_number = A1_number + 1;

		OCR1A = A1_number;
     870:	30 93 89 00 	sts	0x0089, r19
     874:	20 93 88 00 	sts	0x0088, r18
		OCR1B = B1_number;
     878:	10 92 8b 00 	sts	0x008B, r1
     87c:	10 92 8a 00 	sts	0x008A, r1
		PORTC |= _BV(0);
     880:	40 9a       	sbi	0x08, 0	; 8
		PORTC |= _BV(1);
     882:	41 9a       	sbi	0x08, 1	; 8
     884:	cf 01       	movw	r24, r30
     886:	01 97       	sbiw	r24, 0x01	; 1
     888:	f1 f7       	brne	.-4      	; 0x886 <arm_one_back0+0x36>
	return SwitchRecv[1] & _BV(PS_TRIANGLE);
}

// ×キーが押されているか返す
inline bool ps_cross(void){
	return SwitchRecv[1] & _BV(PS_CROSS);
     88a:	80 91 b7 02 	lds	r24, 0x02B7
     88e:	90 91 b8 02 	lds	r25, 0x02B8
		PORTC |= _BV(0);
		PORTC |= _BV(1);

		_delay_ms(1);

		if(!ps_cross()){
     892:	86 ff       	sbrs	r24, 6
     894:	05 c0       	rjmp	.+10     	; 0x8a0 <arm_one_back0+0x50>
	int i;

	A1_number = s;
	B1_number = 0;

	for(i = 0; i < t; i++){
     896:	4f 5f       	subi	r20, 0xFF	; 255
     898:	5f 4f       	sbci	r21, 0xFF	; 255
     89a:	46 17       	cp	r20, r22
     89c:	57 07       	cpc	r21, r23
     89e:	34 f3       	brlt	.-52     	; 0x86c <arm_one_back0+0x1c>
     8a0:	30 93 ce 02 	sts	0x02CE, r19
     8a4:	20 93 cd 02 	sts	0x02CD, r18
     8a8:	08 95       	ret

000008aa <arm_one_back1>:
	}
}

void arm_one_back1(int s){

	A1_number = s;
     8aa:	80 93 cd 02 	sts	0x02CD, r24
     8ae:	90 93 ce 02 	sts	0x02CE, r25
	B1_number = 0;
     8b2:	10 92 ab 02 	sts	0x02AB, r1
     8b6:	10 92 aa 02 	sts	0x02AA, r1

	OCR1A = A1_number;
     8ba:	90 93 89 00 	sts	0x0089, r25
     8be:	80 93 88 00 	sts	0x0088, r24
	OCR1B = B1_number;
     8c2:	10 92 8b 00 	sts	0x008B, r1
     8c6:	10 92 8a 00 	sts	0x008A, r1
	PORTC |= _BV(0);
     8ca:	40 9a       	sbi	0x08, 0	; 8
	PORTC |= _BV(1);
     8cc:	41 9a       	sbi	0x08, 1	; 8

}
     8ce:	08 95       	ret

000008d0 <arm_one_back_stop>:

void arm_one_back_stop(){
	int i;

	A1_number = 255;
     8d0:	8f ef       	ldi	r24, 0xFF	; 255
     8d2:	90 e0       	ldi	r25, 0x00	; 0
     8d4:	90 93 ce 02 	sts	0x02CE, r25
     8d8:	80 93 cd 02 	sts	0x02CD, r24
     8dc:	20 e0       	ldi	r18, 0x00	; 0
     8de:	30 e0       	ldi	r19, 0x00	; 0

	for(i = 0; i < 126; i++){

		B1_number = B1_number + 2;

		OCR1A = A1_number;
     8e0:	6f ef       	ldi	r22, 0xFF	; 255
     8e2:	70 e0       	ldi	r23, 0x00	; 0
     8e4:	40 ed       	ldi	r20, 0xD0	; 208
     8e6:	57 e0       	ldi	r21, 0x07	; 7
	PORTC |= _BV(0);
	PORTC |= _BV(1);

}

void arm_one_back_stop(){
     8e8:	2e 5f       	subi	r18, 0xFE	; 254
     8ea:	3f 4f       	sbci	r19, 0xFF	; 255

	for(i = 0; i < 126; i++){

		B1_number = B1_number + 2;

		OCR1A = A1_number;
     8ec:	70 93 89 00 	sts	0x0089, r23
     8f0:	60 93 88 00 	sts	0x0088, r22
		OCR1B = B1_number;
     8f4:	30 93 8b 00 	sts	0x008B, r19
     8f8:	20 93 8a 00 	sts	0x008A, r18
		PORTC &=  ~_BV(0);
     8fc:	40 98       	cbi	0x08, 0	; 8
		PORTC &=  ~_BV(1);
     8fe:	41 98       	cbi	0x08, 1	; 8
     900:	ca 01       	movw	r24, r20
     902:	01 97       	sbiw	r24, 0x01	; 1
     904:	f1 f7       	brne	.-4      	; 0x902 <arm_one_back_stop+0x32>
	int i;

	A1_number = 255;
	B1_number = 0;

	for(i = 0; i < 126; i++){
     906:	2c 3f       	cpi	r18, 0xFC	; 252
     908:	31 05       	cpc	r19, r1
     90a:	71 f7       	brne	.-36     	; 0x8e8 <arm_one_back_stop+0x18>
     90c:	30 93 ab 02 	sts	0x02AB, r19
     910:	20 93 aa 02 	sts	0x02AA, r18
		PORTC &=  ~_BV(1);

		_delay_ms(1);

	}
}
     914:	08 95       	ret

00000916 <arm_one_stop>:

void arm_one_stop(){

	A1_number = 255;
     916:	8f ef       	ldi	r24, 0xFF	; 255
     918:	90 e0       	ldi	r25, 0x00	; 0
     91a:	90 93 ce 02 	sts	0x02CE, r25
     91e:	80 93 cd 02 	sts	0x02CD, r24
	B1_number = 255;
     922:	90 93 ab 02 	sts	0x02AB, r25
     926:	80 93 aa 02 	sts	0x02AA, r24

	OCR1A = A1_number;
     92a:	90 93 89 00 	sts	0x0089, r25
     92e:	80 93 88 00 	sts	0x0088, r24
	OCR1B = B1_number;
     932:	90 93 8b 00 	sts	0x008B, r25
     936:	80 93 8a 00 	sts	0x008A, r24
	PORTC &=  ~_BV(0);
     93a:	40 98       	cbi	0x08, 0	; 8
	PORTC &=  ~_BV(1);
     93c:	41 98       	cbi	0x08, 1	; 8

}
     93e:	08 95       	ret

00000940 <arm_twe_strat0>:


// ワイヤーモータ伸びる
void arm_twe_strat0(int s, int t){
     940:	9c 01       	movw	r18, r24
	int i;

	A3_number = 0;
     942:	10 92 a9 02 	sts	0x02A9, r1
     946:	10 92 a8 02 	sts	0x02A8, r1
	B3_number = s;
     94a:	90 93 ae 02 	sts	0x02AE, r25
     94e:	80 93 ad 02 	sts	0x02AD, r24
     952:	40 e0       	ldi	r20, 0x00	; 0
     954:	50 e0       	ldi	r21, 0x00	; 0
     956:	e0 ed       	ldi	r30, 0xD0	; 208
     958:	f7 e0       	ldi	r31, 0x07	; 7
     95a:	17 c0       	rjmp	.+46     	; 0x98a <arm_twe_strat0+0x4a>

}


// ワイヤーモータ伸びる
void arm_twe_strat0(int s, int t){
     95c:	2f 5f       	subi	r18, 0xFF	; 255
     95e:	3f 4f       	sbci	r19, 0xFF	; 255

	for(i = 0; i < t; i++){

		B3_number = B3_number + 1;

		OCR3A = A3_number;
     960:	10 92 99 00 	sts	0x0099, r1
     964:	10 92 98 00 	sts	0x0098, r1
		OCR3B = B3_number;
     968:	30 93 9b 00 	sts	0x009B, r19
     96c:	20 93 9a 00 	sts	0x009A, r18
		PORTC |= _BV(2);
     970:	42 9a       	sbi	0x08, 2	; 8
		PORTC |= _BV(3);
     972:	43 9a       	sbi	0x08, 3	; 8
     974:	cf 01       	movw	r24, r30
     976:	01 97       	sbiw	r24, 0x01	; 1
     978:	f1 f7       	brne	.-4      	; 0x976 <arm_twe_strat0+0x36>
	return SwitchRecv[1] & _BV(PS_R1);
}

// △キーが押されているか返す
inline bool ps_triangle(void){
	return SwitchRecv[1] & _BV(PS_TRIANGLE);
     97a:	80 91 b7 02 	lds	r24, 0x02B7
     97e:	90 91 b8 02 	lds	r25, 0x02B8
		PORTC |= _BV(2);
		PORTC |= _BV(3);

		_delay_ms(1);

		if(!ps_triangle()){
     982:	84 ff       	sbrs	r24, 4
     984:	05 c0       	rjmp	.+10     	; 0x990 <arm_twe_strat0+0x50>
	int i;

	A3_number = 0;
	B3_number = s;

	for(i = 0; i < t; i++){
     986:	4f 5f       	subi	r20, 0xFF	; 255
     988:	5f 4f       	sbci	r21, 0xFF	; 255
     98a:	46 17       	cp	r20, r22
     98c:	57 07       	cpc	r21, r23
     98e:	34 f3       	brlt	.-52     	; 0x95c <arm_twe_strat0+0x1c>
     990:	30 93 ae 02 	sts	0x02AE, r19
     994:	20 93 ad 02 	sts	0x02AD, r18
     998:	08 95       	ret

0000099a <arm_twe_strat1>:
	}
}

void arm_twe_strat1(int s){

	A3_number = 0;
     99a:	10 92 a9 02 	sts	0x02A9, r1
     99e:	10 92 a8 02 	sts	0x02A8, r1
	B3_number = s;
     9a2:	80 93 ad 02 	sts	0x02AD, r24
     9a6:	90 93 ae 02 	sts	0x02AE, r25

	OCR3A = A3_number;
     9aa:	10 92 99 00 	sts	0x0099, r1
     9ae:	10 92 98 00 	sts	0x0098, r1
	OCR3B = B3_number;
     9b2:	90 93 9b 00 	sts	0x009B, r25
     9b6:	80 93 9a 00 	sts	0x009A, r24
	PORTC |= _BV(2);
     9ba:	42 9a       	sbi	0x08, 2	; 8
	PORTC |= _BV(3);
     9bc:	43 9a       	sbi	0x08, 3	; 8
}
     9be:	08 95       	ret

000009c0 <arm_twe_strat_stop>:

void arm_twe_strat_stop(){
	int i;

	A3_number = 0;
	B3_number = 255;
     9c0:	8f ef       	ldi	r24, 0xFF	; 255
     9c2:	90 e0       	ldi	r25, 0x00	; 0
     9c4:	90 93 ae 02 	sts	0x02AE, r25
     9c8:	80 93 ad 02 	sts	0x02AD, r24
     9cc:	20 e0       	ldi	r18, 0x00	; 0
     9ce:	30 e0       	ldi	r19, 0x00	; 0
	for(i = 0; i < 126; i++){

		A3_number = A3_number + 2;

		OCR3A = A3_number;
		OCR3B = B3_number;
     9d0:	6f ef       	ldi	r22, 0xFF	; 255
     9d2:	70 e0       	ldi	r23, 0x00	; 0
     9d4:	40 ed       	ldi	r20, 0xD0	; 208
     9d6:	57 e0       	ldi	r21, 0x07	; 7
	OCR3B = B3_number;
	PORTC |= _BV(2);
	PORTC |= _BV(3);
}

void arm_twe_strat_stop(){
     9d8:	2e 5f       	subi	r18, 0xFE	; 254
     9da:	3f 4f       	sbci	r19, 0xFF	; 255

	for(i = 0; i < 126; i++){

		A3_number = A3_number + 2;

		OCR3A = A3_number;
     9dc:	30 93 99 00 	sts	0x0099, r19
     9e0:	20 93 98 00 	sts	0x0098, r18
		OCR3B = B3_number;
     9e4:	70 93 9b 00 	sts	0x009B, r23
     9e8:	60 93 9a 00 	sts	0x009A, r22
		PORTC &=  ~_BV(2);
     9ec:	42 98       	cbi	0x08, 2	; 8
		PORTC &=  ~_BV(3);
     9ee:	43 98       	cbi	0x08, 3	; 8
     9f0:	ca 01       	movw	r24, r20
     9f2:	01 97       	sbiw	r24, 0x01	; 1
     9f4:	f1 f7       	brne	.-4      	; 0x9f2 <arm_twe_strat_stop+0x32>
	int i;

	A3_number = 0;
	B3_number = 255;

	for(i = 0; i < 126; i++){
     9f6:	2c 3f       	cpi	r18, 0xFC	; 252
     9f8:	31 05       	cpc	r19, r1
     9fa:	71 f7       	brne	.-36     	; 0x9d8 <arm_twe_strat_stop+0x18>
     9fc:	30 93 a9 02 	sts	0x02A9, r19
     a00:	20 93 a8 02 	sts	0x02A8, r18
		PORTC &=  ~_BV(3);

		_delay_ms(1);

	}
}
     a04:	08 95       	ret

00000a06 <arm_twe_back0>:

// ワイヤーモータ縮む
void arm_twe_back0(int s, int t){
     a06:	9c 01       	movw	r18, r24
	int i;

	A3_number = s;
     a08:	90 93 a9 02 	sts	0x02A9, r25
     a0c:	80 93 a8 02 	sts	0x02A8, r24
	B3_number = 0;
     a10:	10 92 ae 02 	sts	0x02AE, r1
     a14:	10 92 ad 02 	sts	0x02AD, r1
     a18:	40 e0       	ldi	r20, 0x00	; 0
     a1a:	50 e0       	ldi	r21, 0x00	; 0
     a1c:	e0 ea       	ldi	r30, 0xA0	; 160
     a1e:	ff e0       	ldi	r31, 0x0F	; 15
     a20:	17 c0       	rjmp	.+46     	; 0xa50 <arm_twe_back0+0x4a>

	}
}

// ワイヤーモータ縮む
void arm_twe_back0(int s, int t){
     a22:	2f 5f       	subi	r18, 0xFF	; 255
     a24:	3f 4f       	sbci	r19, 0xFF	; 255

	for(i = 0; i < t; i++){

		A3_number = A3_number + 1;

		OCR3A = A3_number;
     a26:	30 93 99 00 	sts	0x0099, r19
     a2a:	20 93 98 00 	sts	0x0098, r18
		OCR3B = B3_number;
     a2e:	10 92 9b 00 	sts	0x009B, r1
     a32:	10 92 9a 00 	sts	0x009A, r1
		PORTC |= _BV(2);
     a36:	42 9a       	sbi	0x08, 2	; 8
		PORTC |= _BV(3);
     a38:	43 9a       	sbi	0x08, 3	; 8
     a3a:	cf 01       	movw	r24, r30
     a3c:	01 97       	sbiw	r24, 0x01	; 1
     a3e:	f1 f7       	brne	.-4      	; 0xa3c <arm_twe_back0+0x36>
	return SwitchRecv[1] & _BV(PS_TRIANGLE);
}

// ×キーが押されているか返す
inline bool ps_cross(void){
	return SwitchRecv[1] & _BV(PS_CROSS);
     a40:	80 91 b7 02 	lds	r24, 0x02B7
     a44:	90 91 b8 02 	lds	r25, 0x02B8
		PORTC |= _BV(2);
		PORTC |= _BV(3);

		_delay_ms(2);

		if(!ps_cross()){
     a48:	86 ff       	sbrs	r24, 6
     a4a:	05 c0       	rjmp	.+10     	; 0xa56 <arm_twe_back0+0x50>
	int i;

	A3_number = s;
	B3_number = 0;

	for(i = 0; i < t; i++){
     a4c:	4f 5f       	subi	r20, 0xFF	; 255
     a4e:	5f 4f       	sbci	r21, 0xFF	; 255
     a50:	46 17       	cp	r20, r22
     a52:	57 07       	cpc	r21, r23
     a54:	34 f3       	brlt	.-52     	; 0xa22 <arm_twe_back0+0x1c>
     a56:	30 93 a9 02 	sts	0x02A9, r19
     a5a:	20 93 a8 02 	sts	0x02A8, r18
     a5e:	08 95       	ret

00000a60 <arm_twe_back1>:
	}
}

void arm_twe_back1(int s){

	A3_number = s;
     a60:	80 93 a8 02 	sts	0x02A8, r24
     a64:	90 93 a9 02 	sts	0x02A9, r25
	B3_number = 0;
     a68:	10 92 ae 02 	sts	0x02AE, r1
     a6c:	10 92 ad 02 	sts	0x02AD, r1

	OCR3A = A3_number;
     a70:	90 93 99 00 	sts	0x0099, r25
     a74:	80 93 98 00 	sts	0x0098, r24
	OCR3B = B3_number;
     a78:	10 92 9b 00 	sts	0x009B, r1
     a7c:	10 92 9a 00 	sts	0x009A, r1
	PORTC |= _BV(2);
     a80:	42 9a       	sbi	0x08, 2	; 8
	PORTC |= _BV(3);
     a82:	43 9a       	sbi	0x08, 3	; 8

}
     a84:	08 95       	ret

00000a86 <arm_twe_back_stop>:

void arm_twe_back_stop(){
	int i;

	A3_number = 255;
     a86:	8f ef       	ldi	r24, 0xFF	; 255
     a88:	90 e0       	ldi	r25, 0x00	; 0
     a8a:	90 93 a9 02 	sts	0x02A9, r25
     a8e:	80 93 a8 02 	sts	0x02A8, r24
     a92:	20 e0       	ldi	r18, 0x00	; 0
     a94:	30 e0       	ldi	r19, 0x00	; 0

	for(i = 0; i < 126; i++){

		B3_number = B3_number + 2;

		OCR3A = A3_number;
     a96:	6f ef       	ldi	r22, 0xFF	; 255
     a98:	70 e0       	ldi	r23, 0x00	; 0
     a9a:	40 ed       	ldi	r20, 0xD0	; 208
     a9c:	57 e0       	ldi	r21, 0x07	; 7
	PORTC |= _BV(2);
	PORTC |= _BV(3);

}

void arm_twe_back_stop(){
     a9e:	2e 5f       	subi	r18, 0xFE	; 254
     aa0:	3f 4f       	sbci	r19, 0xFF	; 255

	for(i = 0; i < 126; i++){

		B3_number = B3_number + 2;

		OCR3A = A3_number;
     aa2:	70 93 99 00 	sts	0x0099, r23
     aa6:	60 93 98 00 	sts	0x0098, r22
		OCR3B = B3_number;
     aaa:	30 93 9b 00 	sts	0x009B, r19
     aae:	20 93 9a 00 	sts	0x009A, r18
		PORTC &=  ~_BV(2);
     ab2:	42 98       	cbi	0x08, 2	; 8
		PORTC &=  ~_BV(3);
     ab4:	43 98       	cbi	0x08, 3	; 8
     ab6:	ca 01       	movw	r24, r20
     ab8:	01 97       	sbiw	r24, 0x01	; 1
     aba:	f1 f7       	brne	.-4      	; 0xab8 <arm_twe_back_stop+0x32>
	int i;

	A3_number = 255;
	B3_number = 0;

	for(i = 0; i < 126; i++){
     abc:	2c 3f       	cpi	r18, 0xFC	; 252
     abe:	31 05       	cpc	r19, r1
     ac0:	71 f7       	brne	.-36     	; 0xa9e <arm_twe_back_stop+0x18>
     ac2:	30 93 ae 02 	sts	0x02AE, r19
     ac6:	20 93 ad 02 	sts	0x02AD, r18
		PORTC &=  ~_BV(3);

		_delay_ms(1);

	}
}
     aca:	08 95       	ret

00000acc <arm_twe_stop>:

void arm_twe_stop(){

	A3_number = 255;
     acc:	8f ef       	ldi	r24, 0xFF	; 255
     ace:	90 e0       	ldi	r25, 0x00	; 0
     ad0:	90 93 a9 02 	sts	0x02A9, r25
     ad4:	80 93 a8 02 	sts	0x02A8, r24
	B3_number = 255;
     ad8:	90 93 ae 02 	sts	0x02AE, r25
     adc:	80 93 ad 02 	sts	0x02AD, r24

	OCR3A = A3_number;
     ae0:	90 93 99 00 	sts	0x0099, r25
     ae4:	80 93 98 00 	sts	0x0098, r24
	OCR3B = B3_number;
     ae8:	90 93 9b 00 	sts	0x009B, r25
     aec:	80 93 9a 00 	sts	0x009A, r24
	PORTC &=  ~_BV(2);
     af0:	42 98       	cbi	0x08, 2	; 8
	PORTC &=  ~_BV(3);
     af2:	43 98       	cbi	0x08, 3	; 8

}
     af4:	08 95       	ret

00000af6 <stop2>:


void stop2(){

	A1_number = 255;
     af6:	8f ef       	ldi	r24, 0xFF	; 255
     af8:	90 e0       	ldi	r25, 0x00	; 0
     afa:	90 93 ce 02 	sts	0x02CE, r25
     afe:	80 93 cd 02 	sts	0x02CD, r24
	B1_number = 255;
     b02:	90 93 ab 02 	sts	0x02AB, r25
     b06:	80 93 aa 02 	sts	0x02AA, r24

	OCR1A = A1_number;
     b0a:	90 93 89 00 	sts	0x0089, r25
     b0e:	80 93 88 00 	sts	0x0088, r24
	OCR1B = B1_number;
     b12:	90 93 8b 00 	sts	0x008B, r25
     b16:	80 93 8a 00 	sts	0x008A, r24
	PORTC &=  ~_BV(0);
     b1a:	40 98       	cbi	0x08, 0	; 8
	PORTC &=  ~_BV(1);
     b1c:	41 98       	cbi	0x08, 1	; 8


	A3_number = 255;
     b1e:	90 93 a9 02 	sts	0x02A9, r25
     b22:	80 93 a8 02 	sts	0x02A8, r24
	B3_number = 255;
     b26:	90 93 ae 02 	sts	0x02AE, r25
     b2a:	80 93 ad 02 	sts	0x02AD, r24

	OCR3A = A3_number;
     b2e:	90 93 99 00 	sts	0x0099, r25
     b32:	80 93 98 00 	sts	0x0098, r24
	OCR3B = B3_number;
     b36:	90 93 9b 00 	sts	0x009B, r25
     b3a:	80 93 9a 00 	sts	0x009A, r24
	PORTC &=  ~_BV(2);
     b3e:	42 98       	cbi	0x08, 2	; 8
	PORTC &=  ~_BV(3);
     b40:	43 98       	cbi	0x08, 3	; 8

}
     b42:	08 95       	ret

00000b44 <strat0_srow>:


void strat0_srow(int t){
     b44:	fc 01       	movw	r30, r24

	int i;
//	A0_number = s;
	B0_number = 0;
     b46:	10 92 da 02 	sts	0x02DA, r1
     b4a:	10 92 d9 02 	sts	0x02D9, r1
//	A2_number = s;
	B2_number = 0;
     b4e:	10 92 b0 02 	sts	0x02B0, r1
     b52:	10 92 af 02 	sts	0x02AF, r1
     b56:	20 91 cf 02 	lds	r18, 0x02CF
     b5a:	30 91 d0 02 	lds	r19, 0x02D0
     b5e:	40 91 d1 02 	lds	r20, 0x02D1
     b62:	50 91 d2 02 	lds	r21, 0x02D2
     b66:	60 e0       	ldi	r22, 0x00	; 0
     b68:	70 e0       	ldi	r23, 0x00	; 0
     b6a:	a0 ea       	ldi	r26, 0xA0	; 160
     b6c:	bf e0       	ldi	r27, 0x0F	; 15
     b6e:	19 c0       	rjmp	.+50     	; 0xba2 <strat0_srow+0x5e>
	PORTC &=  ~_BV(3);

}


void strat0_srow(int t){
     b70:	41 50       	subi	r20, 0x01	; 1
     b72:	50 40       	sbci	r21, 0x00	; 0
     b74:	21 50       	subi	r18, 0x01	; 1
     b76:	30 40       	sbci	r19, 0x00	; 0
	for(i = 0; i < t; i++){

		A0_number = A0_number - 1;
		A2_number = A2_number - 1;

		OCR0A = A0_number;
     b78:	47 bd       	out	0x27, r20	; 39
		OCR0B = B0_number;
     b7a:	18 bc       	out	0x28, r1	; 40
		PORTB |=  _BV(1);
     b7c:	29 9a       	sbi	0x05, 1	; 5
		PORTB |=  _BV(2);
     b7e:	2a 9a       	sbi	0x05, 2	; 5

		OCR2A = A2_number;
     b80:	20 93 b3 00 	sts	0x00B3, r18
		OCR2B = B2_number;
     b84:	10 92 b4 00 	sts	0x00B4, r1
		PORTD |=  _BV(2);
     b88:	5a 9a       	sbi	0x0b, 2	; 11
		PORTD |=  _BV(3);
     b8a:	5b 9a       	sbi	0x0b, 3	; 11
     b8c:	cd 01       	movw	r24, r26
     b8e:	01 97       	sbiw	r24, 0x01	; 1
     b90:	f1 f7       	brne	.-4      	; 0xb8e <strat0_srow+0x4a>
#define sbi(BYTE,BIT) BYTE|=_BV(BIT) // BYTEの指定BITに1をセット
#define cbi(BYTE,BIT) BYTE&=~_BV(BIT) // BYTEの指定BITをクリア

// 上キーが押されているか返す
inline bool ps_top(void){
	return SwitchRecv[0] & _BV(PS_UP);
     b92:	80 91 b5 02 	lds	r24, 0x02B5
     b96:	90 91 b6 02 	lds	r25, 0x02B6
		OCR2B = B2_number;
		PORTD |=  _BV(2);
		PORTD |=  _BV(3);
		_delay_ms(2);

		if(!ps_top()){
     b9a:	84 ff       	sbrs	r24, 4
     b9c:	05 c0       	rjmp	.+10     	; 0xba8 <strat0_srow+0x64>
//	A0_number = s;
	B0_number = 0;
//	A2_number = s;
	B2_number = 0;

	for(i = 0; i < t; i++){
     b9e:	6f 5f       	subi	r22, 0xFF	; 255
     ba0:	7f 4f       	sbci	r23, 0xFF	; 255
     ba2:	6e 17       	cp	r22, r30
     ba4:	7f 07       	cpc	r23, r31
     ba6:	24 f3       	brlt	.-56     	; 0xb70 <strat0_srow+0x2c>
     ba8:	30 93 d0 02 	sts	0x02D0, r19
     bac:	20 93 cf 02 	sts	0x02CF, r18
     bb0:	50 93 d2 02 	sts	0x02D2, r21
     bb4:	40 93 d1 02 	sts	0x02D1, r20
     bb8:	08 95       	ret

00000bba <back0_srow>:
			break;
		}
	}
}

void back0_srow(int t){
     bba:	fc 01       	movw	r30, r24

	int i;

	A0_number = 0;
     bbc:	10 92 d2 02 	sts	0x02D2, r1
     bc0:	10 92 d1 02 	sts	0x02D1, r1
//	B0_number = 0;
	A2_number = 0;
     bc4:	10 92 d0 02 	sts	0x02D0, r1
     bc8:	10 92 cf 02 	sts	0x02CF, r1
     bcc:	20 91 af 02 	lds	r18, 0x02AF
     bd0:	30 91 b0 02 	lds	r19, 0x02B0
     bd4:	40 91 d9 02 	lds	r20, 0x02D9
     bd8:	50 91 da 02 	lds	r21, 0x02DA
     bdc:	60 e0       	ldi	r22, 0x00	; 0
     bde:	70 e0       	ldi	r23, 0x00	; 0
     be0:	a0 ea       	ldi	r26, 0xA0	; 160
     be2:	bf e0       	ldi	r27, 0x0F	; 15
     be4:	19 c0       	rjmp	.+50     	; 0xc18 <back0_srow+0x5e>
			break;
		}
	}
}

void back0_srow(int t){
     be6:	41 50       	subi	r20, 0x01	; 1
     be8:	50 40       	sbci	r21, 0x00	; 0
     bea:	21 50       	subi	r18, 0x01	; 1
     bec:	30 40       	sbci	r19, 0x00	; 0
	for(i = 0; i < t; i++){

		B0_number = B0_number - 1;
		B2_number = B2_number - 1;

		OCR0A = A0_number;
     bee:	17 bc       	out	0x27, r1	; 39
		OCR0B = B0_number;
     bf0:	48 bd       	out	0x28, r20	; 40
		PORTB |=  _BV(1);
     bf2:	29 9a       	sbi	0x05, 1	; 5
		PORTB |=  _BV(2);
     bf4:	2a 9a       	sbi	0x05, 2	; 5

		OCR2A = A2_number;
     bf6:	10 92 b3 00 	sts	0x00B3, r1
		OCR2B = B2_number;
     bfa:	20 93 b4 00 	sts	0x00B4, r18
		PORTD |=  _BV(2);
     bfe:	5a 9a       	sbi	0x0b, 2	; 11
		PORTD |=  _BV(3);
     c00:	5b 9a       	sbi	0x0b, 3	; 11
     c02:	cd 01       	movw	r24, r26
     c04:	01 97       	sbiw	r24, 0x01	; 1
     c06:	f1 f7       	brne	.-4      	; 0xc04 <back0_srow+0x4a>
	return SwitchRecv[0] & _BV(PS_RIGHT);
}

// 下キーが押されているか返す
inline bool ps_bottom(void){
	return SwitchRecv[0] & _BV(PS_DOWN);
     c08:	80 91 b5 02 	lds	r24, 0x02B5
     c0c:	90 91 b6 02 	lds	r25, 0x02B6
		OCR2B = B2_number;
		PORTD |=  _BV(2);
		PORTD |=  _BV(3);
		_delay_ms(2);

		if(!ps_bottom()){
     c10:	86 ff       	sbrs	r24, 6
     c12:	05 c0       	rjmp	.+10     	; 0xc1e <back0_srow+0x64>
	A0_number = 0;
//	B0_number = 0;
	A2_number = 0;
//	B2_number = 0;

	for(i = 0; i < t; i++){
     c14:	6f 5f       	subi	r22, 0xFF	; 255
     c16:	7f 4f       	sbci	r23, 0xFF	; 255
     c18:	6e 17       	cp	r22, r30
     c1a:	7f 07       	cpc	r23, r31
     c1c:	24 f3       	brlt	.-56     	; 0xbe6 <back0_srow+0x2c>
     c1e:	30 93 b0 02 	sts	0x02B0, r19
     c22:	20 93 af 02 	sts	0x02AF, r18
     c26:	50 93 da 02 	sts	0x02DA, r21
     c2a:	40 93 d9 02 	sts	0x02D9, r20
     c2e:	08 95       	ret

00000c30 <left0_srow>:
			break;
		}
	}
}

void left0_srow(int t){
     c30:	fc 01       	movw	r30, r24

	int i;

//	A0_number = 0;
	B0_number = 0;
     c32:	10 92 da 02 	sts	0x02DA, r1
     c36:	10 92 d9 02 	sts	0x02D9, r1
	A2_number = 0;
     c3a:	10 92 d0 02 	sts	0x02D0, r1
     c3e:	10 92 cf 02 	sts	0x02CF, r1
     c42:	20 91 af 02 	lds	r18, 0x02AF
     c46:	30 91 b0 02 	lds	r19, 0x02B0
     c4a:	40 91 d1 02 	lds	r20, 0x02D1
     c4e:	50 91 d2 02 	lds	r21, 0x02D2
     c52:	60 e0       	ldi	r22, 0x00	; 0
     c54:	70 e0       	ldi	r23, 0x00	; 0
     c56:	a0 ea       	ldi	r26, 0xA0	; 160
     c58:	bf e0       	ldi	r27, 0x0F	; 15
     c5a:	19 c0       	rjmp	.+50     	; 0xc8e <left0_srow+0x5e>
			break;
		}
	}
}

void left0_srow(int t){
     c5c:	41 50       	subi	r20, 0x01	; 1
     c5e:	50 40       	sbci	r21, 0x00	; 0
     c60:	21 50       	subi	r18, 0x01	; 1
     c62:	30 40       	sbci	r19, 0x00	; 0
	for(i = 0; i < t; i++){

		A0_number = A0_number - 1;
		B2_number = B2_number - 1;

		OCR0A = A0_number;
     c64:	47 bd       	out	0x27, r20	; 39
		OCR0B = B0_number;
     c66:	18 bc       	out	0x28, r1	; 40
		PORTB |=  _BV(1);
     c68:	29 9a       	sbi	0x05, 1	; 5
		PORTB |=  _BV(2);
     c6a:	2a 9a       	sbi	0x05, 2	; 5

		OCR2A = A2_number;
     c6c:	10 92 b3 00 	sts	0x00B3, r1
		OCR2B = B2_number;
     c70:	20 93 b4 00 	sts	0x00B4, r18
		PORTD |=  _BV(2);
     c74:	5a 9a       	sbi	0x0b, 2	; 11
		PORTD |=  _BV(3);
     c76:	5b 9a       	sbi	0x0b, 3	; 11
     c78:	cd 01       	movw	r24, r26
     c7a:	01 97       	sbiw	r24, 0x01	; 1
     c7c:	f1 f7       	brne	.-4      	; 0xc7a <left0_srow+0x4a>
	return SwitchRecv[0] & _BV(PS_DOWN);
}

// 左キーが押されているか返す
inline bool ps_left(void){
	return SwitchRecv[0] & _BV(PS_LEFT);
     c7e:	80 91 b5 02 	lds	r24, 0x02B5
     c82:	90 91 b6 02 	lds	r25, 0x02B6
		OCR2B = B2_number;
		PORTD |=  _BV(2);
		PORTD |=  _BV(3);
		_delay_ms(2);

		if(!ps_left()){
     c86:	87 ff       	sbrs	r24, 7
     c88:	05 c0       	rjmp	.+10     	; 0xc94 <left0_srow+0x64>
//	A0_number = 0;
	B0_number = 0;
	A2_number = 0;
//	B2_number = 0;

	for(i = 0; i < t; i++){
     c8a:	6f 5f       	subi	r22, 0xFF	; 255
     c8c:	7f 4f       	sbci	r23, 0xFF	; 255
     c8e:	6e 17       	cp	r22, r30
     c90:	7f 07       	cpc	r23, r31
     c92:	24 f3       	brlt	.-56     	; 0xc5c <left0_srow+0x2c>
     c94:	30 93 b0 02 	sts	0x02B0, r19
     c98:	20 93 af 02 	sts	0x02AF, r18
     c9c:	50 93 d2 02 	sts	0x02D2, r21
     ca0:	40 93 d1 02 	sts	0x02D1, r20
     ca4:	08 95       	ret

00000ca6 <right0_srow>:
			break;
		}
	}
}

void right0_srow(int t){
     ca6:	fc 01       	movw	r30, r24

	int i;

	A0_number = 0;
     ca8:	10 92 d2 02 	sts	0x02D2, r1
     cac:	10 92 d1 02 	sts	0x02D1, r1
//	B0_number = 0;
//	A2_number = 0;
	B2_number = 0;
     cb0:	10 92 b0 02 	sts	0x02B0, r1
     cb4:	10 92 af 02 	sts	0x02AF, r1
     cb8:	20 91 cf 02 	lds	r18, 0x02CF
     cbc:	30 91 d0 02 	lds	r19, 0x02D0
     cc0:	40 91 d9 02 	lds	r20, 0x02D9
     cc4:	50 91 da 02 	lds	r21, 0x02DA
     cc8:	60 e0       	ldi	r22, 0x00	; 0
     cca:	70 e0       	ldi	r23, 0x00	; 0
     ccc:	a0 ea       	ldi	r26, 0xA0	; 160
     cce:	bf e0       	ldi	r27, 0x0F	; 15
     cd0:	19 c0       	rjmp	.+50     	; 0xd04 <right0_srow+0x5e>
			break;
		}
	}
}

void right0_srow(int t){
     cd2:	41 50       	subi	r20, 0x01	; 1
     cd4:	50 40       	sbci	r21, 0x00	; 0
     cd6:	21 50       	subi	r18, 0x01	; 1
     cd8:	30 40       	sbci	r19, 0x00	; 0
	for(i = 0; i < t; i++){

		B0_number = B0_number - 1;
		A2_number = A2_number - 1;

		OCR0A = A0_number;
     cda:	17 bc       	out	0x27, r1	; 39
		OCR0B = B0_number;
     cdc:	48 bd       	out	0x28, r20	; 40
		PORTB |=  _BV(1);
     cde:	29 9a       	sbi	0x05, 1	; 5
		PORTB |=  _BV(2);
     ce0:	2a 9a       	sbi	0x05, 2	; 5

		OCR2A = A2_number;
     ce2:	20 93 b3 00 	sts	0x00B3, r18
		OCR2B = B2_number;
     ce6:	10 92 b4 00 	sts	0x00B4, r1
		PORTD |=  _BV(2);
     cea:	5a 9a       	sbi	0x0b, 2	; 11
		PORTD |=  _BV(3);
     cec:	5b 9a       	sbi	0x0b, 3	; 11
     cee:	cd 01       	movw	r24, r26
     cf0:	01 97       	sbiw	r24, 0x01	; 1
     cf2:	f1 f7       	brne	.-4      	; 0xcf0 <right0_srow+0x4a>
	return SwitchRecv[0] & _BV(PS_UP);
}

// 右キーが押されているか返す
inline bool ps_right(void){
	return SwitchRecv[0] & _BV(PS_RIGHT);
     cf4:	80 91 b5 02 	lds	r24, 0x02B5
     cf8:	90 91 b6 02 	lds	r25, 0x02B6
		OCR2B = B2_number;
		PORTD |=  _BV(2);
		PORTD |=  _BV(3);
		_delay_ms(2);

		if(!ps_right()){
     cfc:	85 ff       	sbrs	r24, 5
     cfe:	05 c0       	rjmp	.+10     	; 0xd0a <right0_srow+0x64>
	A0_number = 0;
//	B0_number = 0;
//	A2_number = 0;
	B2_number = 0;

	for(i = 0; i < t; i++){
     d00:	6f 5f       	subi	r22, 0xFF	; 255
     d02:	7f 4f       	sbci	r23, 0xFF	; 255
     d04:	6e 17       	cp	r22, r30
     d06:	7f 07       	cpc	r23, r31
     d08:	24 f3       	brlt	.-56     	; 0xcd2 <right0_srow+0x2c>
     d0a:	30 93 d0 02 	sts	0x02D0, r19
     d0e:	20 93 cf 02 	sts	0x02CF, r18
     d12:	50 93 da 02 	sts	0x02DA, r21
     d16:	40 93 d9 02 	sts	0x02D9, r20
     d1a:	08 95       	ret

00000d1c <leaf_one_on>:
		}
	}
}

void leaf_one_on(){
	PORTC |= _BV(7);
     d1c:	47 9a       	sbi	0x08, 7	; 8
     d1e:	88 ee       	ldi	r24, 0xE8	; 232
     d20:	93 e0       	ldi	r25, 0x03	; 3
     d22:	28 ec       	ldi	r18, 0xC8	; 200
     d24:	30 e0       	ldi	r19, 0x00	; 0
     d26:	f9 01       	movw	r30, r18
     d28:	31 97       	sbiw	r30, 0x01	; 1
     d2a:	f1 f7       	brne	.-4      	; 0xd28 <leaf_one_on+0xc>
		{
			// wait 1/10 ms
			_delay_loop_2(((F_CPU) / 4e3) / 10);
			__ticks --;
     d2c:	01 97       	sbiw	r24, 0x01	; 1
		__ticks = 1;
	else if (__tmp > 65535)
	{
		//	__ticks = requested delay in 1/10 ms
		__ticks = (uint16_t) (__ms * 10.0);
		while(__ticks)
     d2e:	d9 f7       	brne	.-10     	; 0xd26 <leaf_one_on+0xa>

	_delay_ms(100);

	PORTC &=~_BV(7);
     d30:	47 98       	cbi	0x08, 7	; 8
}
     d32:	08 95       	ret

00000d34 <leaf_one_off>:

void leaf_one_off(){
	PORTC |= _BV(6);
     d34:	46 9a       	sbi	0x08, 6	; 8
     d36:	88 ee       	ldi	r24, 0xE8	; 232
     d38:	93 e0       	ldi	r25, 0x03	; 3
     d3a:	28 ec       	ldi	r18, 0xC8	; 200
     d3c:	30 e0       	ldi	r19, 0x00	; 0
     d3e:	f9 01       	movw	r30, r18
     d40:	31 97       	sbiw	r30, 0x01	; 1
     d42:	f1 f7       	brne	.-4      	; 0xd40 <leaf_one_off+0xc>
		{
			// wait 1/10 ms
			_delay_loop_2(((F_CPU) / 4e3) / 10);
			__ticks --;
     d44:	01 97       	sbiw	r24, 0x01	; 1
		__ticks = 1;
	else if (__tmp > 65535)
	{
		//	__ticks = requested delay in 1/10 ms
		__ticks = (uint16_t) (__ms * 10.0);
		while(__ticks)
     d46:	d9 f7       	brne	.-10     	; 0xd3e <leaf_one_off+0xa>

	_delay_ms(100);

	PORTC &=~_BV(6);
     d48:	46 98       	cbi	0x08, 6	; 8
}
     d4a:	08 95       	ret

00000d4c <leaf_twe_on>:

void leaf_twe_on(){
	PORTA |= _BV(3);
     d4c:	13 9a       	sbi	0x02, 3	; 2
     d4e:	88 ee       	ldi	r24, 0xE8	; 232
     d50:	93 e0       	ldi	r25, 0x03	; 3
     d52:	28 ec       	ldi	r18, 0xC8	; 200
     d54:	30 e0       	ldi	r19, 0x00	; 0
     d56:	f9 01       	movw	r30, r18
     d58:	31 97       	sbiw	r30, 0x01	; 1
     d5a:	f1 f7       	brne	.-4      	; 0xd58 <leaf_twe_on+0xc>
		{
			// wait 1/10 ms
			_delay_loop_2(((F_CPU) / 4e3) / 10);
			__ticks --;
     d5c:	01 97       	sbiw	r24, 0x01	; 1
		__ticks = 1;
	else if (__tmp > 65535)
	{
		//	__ticks = requested delay in 1/10 ms
		__ticks = (uint16_t) (__ms * 10.0);
		while(__ticks)
     d5e:	d9 f7       	brne	.-10     	; 0xd56 <leaf_twe_on+0xa>

	_delay_ms(100);

	PORTA &=~_BV(3);
     d60:	13 98       	cbi	0x02, 3	; 2
}
     d62:	08 95       	ret

00000d64 <leaf_twe_off>:

void leaf_twe_off(){
	PORTA |= _BV(4);
     d64:	14 9a       	sbi	0x02, 4	; 2
     d66:	88 ee       	ldi	r24, 0xE8	; 232
     d68:	93 e0       	ldi	r25, 0x03	; 3
     d6a:	28 ec       	ldi	r18, 0xC8	; 200
     d6c:	30 e0       	ldi	r19, 0x00	; 0
     d6e:	f9 01       	movw	r30, r18
     d70:	31 97       	sbiw	r30, 0x01	; 1
     d72:	f1 f7       	brne	.-4      	; 0xd70 <leaf_twe_off+0xc>
		{
			// wait 1/10 ms
			_delay_loop_2(((F_CPU) / 4e3) / 10);
			__ticks --;
     d74:	01 97       	sbiw	r24, 0x01	; 1
		__ticks = 1;
	else if (__tmp > 65535)
	{
		//	__ticks = requested delay in 1/10 ms
		__ticks = (uint16_t) (__ms * 10.0);
		while(__ticks)
     d76:	d9 f7       	brne	.-10     	; 0xd6e <leaf_twe_off+0xa>

	_delay_ms(100);

	PORTA &=~_BV(4);
     d78:	14 98       	cbi	0x02, 4	; 2
}
     d7a:	08 95       	ret

00000d7c <leaf_up>:

void leaf_up(){
	PORTC |= _BV(5);
     d7c:	45 9a       	sbi	0x08, 5	; 8
     d7e:	88 ee       	ldi	r24, 0xE8	; 232
     d80:	93 e0       	ldi	r25, 0x03	; 3
     d82:	28 ec       	ldi	r18, 0xC8	; 200
     d84:	30 e0       	ldi	r19, 0x00	; 0
     d86:	f9 01       	movw	r30, r18
     d88:	31 97       	sbiw	r30, 0x01	; 1
     d8a:	f1 f7       	brne	.-4      	; 0xd88 <leaf_up+0xc>
		{
			// wait 1/10 ms
			_delay_loop_2(((F_CPU) / 4e3) / 10);
			__ticks --;
     d8c:	01 97       	sbiw	r24, 0x01	; 1
		__ticks = 1;
	else if (__tmp > 65535)
	{
		//	__ticks = requested delay in 1/10 ms
		__ticks = (uint16_t) (__ms * 10.0);
		while(__ticks)
     d8e:	d9 f7       	brne	.-10     	; 0xd86 <leaf_up+0xa>

	_delay_ms(100);

	PORTC &=~_BV(5);
     d90:	45 98       	cbi	0x08, 5	; 8
}
     d92:	08 95       	ret

00000d94 <leaf_down>:

void leaf_down(){
	PORTC |= _BV(4);
     d94:	44 9a       	sbi	0x08, 4	; 8
     d96:	88 ee       	ldi	r24, 0xE8	; 232
     d98:	93 e0       	ldi	r25, 0x03	; 3
     d9a:	28 ec       	ldi	r18, 0xC8	; 200
     d9c:	30 e0       	ldi	r19, 0x00	; 0
     d9e:	f9 01       	movw	r30, r18
     da0:	31 97       	sbiw	r30, 0x01	; 1
     da2:	f1 f7       	brne	.-4      	; 0xda0 <leaf_down+0xc>
		{
			// wait 1/10 ms
			_delay_loop_2(((F_CPU) / 4e3) / 10);
			__ticks --;
     da4:	01 97       	sbiw	r24, 0x01	; 1
		__ticks = 1;
	else if (__tmp > 65535)
	{
		//	__ticks = requested delay in 1/10 ms
		__ticks = (uint16_t) (__ms * 10.0);
		while(__ticks)
     da6:	d9 f7       	brne	.-10     	; 0xd9e <leaf_down+0xa>

	_delay_ms(100);

	PORTC &=~_BV(4);
     da8:	44 98       	cbi	0x08, 4	; 8
}
     daa:	08 95       	ret

00000dac <stone_on>:

void stone_on(){
	PORTA |= _BV(5);
     dac:	15 9a       	sbi	0x02, 5	; 2
     dae:	88 ee       	ldi	r24, 0xE8	; 232
     db0:	93 e0       	ldi	r25, 0x03	; 3
     db2:	28 ec       	ldi	r18, 0xC8	; 200
     db4:	30 e0       	ldi	r19, 0x00	; 0
     db6:	f9 01       	movw	r30, r18
     db8:	31 97       	sbiw	r30, 0x01	; 1
     dba:	f1 f7       	brne	.-4      	; 0xdb8 <stone_on+0xc>
		{
			// wait 1/10 ms
			_delay_loop_2(((F_CPU) / 4e3) / 10);
			__ticks --;
     dbc:	01 97       	sbiw	r24, 0x01	; 1
		__ticks = 1;
	else if (__tmp > 65535)
	{
		//	__ticks = requested delay in 1/10 ms
		__ticks = (uint16_t) (__ms * 10.0);
		while(__ticks)
     dbe:	d9 f7       	brne	.-10     	; 0xdb6 <stone_on+0xa>

	_delay_ms(100);

	PORTA &=~_BV(5);
     dc0:	15 98       	cbi	0x02, 5	; 2
}
     dc2:	08 95       	ret

00000dc4 <stone_off>:

void stone_off(){
	PORTA |= _BV(6);
     dc4:	16 9a       	sbi	0x02, 6	; 2
     dc6:	88 ee       	ldi	r24, 0xE8	; 232
     dc8:	93 e0       	ldi	r25, 0x03	; 3
     dca:	28 ec       	ldi	r18, 0xC8	; 200
     dcc:	30 e0       	ldi	r19, 0x00	; 0
     dce:	f9 01       	movw	r30, r18
     dd0:	31 97       	sbiw	r30, 0x01	; 1
     dd2:	f1 f7       	brne	.-4      	; 0xdd0 <stone_off+0xc>
		{
			// wait 1/10 ms
			_delay_loop_2(((F_CPU) / 4e3) / 10);
			__ticks --;
     dd4:	01 97       	sbiw	r24, 0x01	; 1
		__ticks = 1;
	else if (__tmp > 65535)
	{
		//	__ticks = requested delay in 1/10 ms
		__ticks = (uint16_t) (__ms * 10.0);
		while(__ticks)
     dd6:	d9 f7       	brne	.-10     	; 0xdce <stone_off+0xa>

	_delay_ms(100);

	PORTA &=~_BV(6);
     dd8:	16 98       	cbi	0x02, 6	; 2
}
     dda:	08 95       	ret

00000ddc <leaf>:

//	bool token1 = false; // トークン1をとっているか
	int stone = 1;
	

void leaf(){
     ddc:	cf 93       	push	r28
     dde:	df 93       	push	r29

		//下アームだけ動かす
		if(ps_circle()){ 
			if(token3 == 0){
				leaf_one_on(); //1閉じる
				token3 = 1;
     de0:	c1 e0       	ldi	r28, 0x01	; 1
     de2:	d0 e0       	ldi	r29, 0x00	; 0
     de4:	21 c0       	rjmp	.+66     	; 0xe28 <leaf+0x4c>
	return SwitchRecv[1] & _BV(PS_CROSS);
}

// ○キーが押されているか返す
inline bool ps_circle(void){
	return SwitchRecv[1] & _BV(PS_CIRCLE);
     de6:	80 91 b7 02 	lds	r24, 0x02B7
     dea:	90 91 b8 02 	lds	r25, 0x02B8
void leaf(){

	while(ps_r1() && ps_r2()){

		//下アームだけ動かす
		if(ps_circle()){ 
     dee:	85 ff       	sbrs	r24, 5
     df0:	1b c0       	rjmp	.+54     	; 0xe28 <leaf+0x4c>
			if(token3 == 0){
     df2:	80 91 94 02 	lds	r24, 0x0294
     df6:	90 91 95 02 	lds	r25, 0x0295
     dfa:	00 97       	sbiw	r24, 0x00	; 0
     dfc:	39 f4       	brne	.+14     	; 0xe0c <leaf+0x30>
				leaf_one_on(); //1閉じる
     dfe:	0e 94 8e 06 	call	0xd1c	; 0xd1c <leaf_one_on>
				token3 = 1;
     e02:	d0 93 95 02 	sts	0x0295, r29
     e06:	c0 93 94 02 	sts	0x0294, r28
     e0a:	08 c0       	rjmp	.+16     	; 0xe1c <leaf+0x40>
			}else if(token3 == 1){
     e0c:	01 97       	sbiw	r24, 0x01	; 1
     e0e:	31 f4       	brne	.+12     	; 0xe1c <leaf+0x40>
				leaf_one_off(); //1開ける
     e10:	0e 94 9a 06 	call	0xd34	; 0xd34 <leaf_one_off>
				token3 = 0;
     e14:	10 92 95 02 	sts	0x0295, r1
     e18:	10 92 94 02 	sts	0x0294, r1
	return SwitchRecv[1] & _BV(PS_CROSS);
}

// ○キーが押されているか返す
inline bool ps_circle(void){
	return SwitchRecv[1] & _BV(PS_CIRCLE);
     e1c:	80 91 b7 02 	lds	r24, 0x02B7
     e20:	90 91 b8 02 	lds	r25, 0x02B8
				token3 = 1;
			}else if(token3 == 1){
				leaf_one_off(); //1開ける
				token3 = 0;
			}
			while(ps_circle());
     e24:	85 fd       	sbrc	r24, 5
     e26:	fa cf       	rjmp	.-12     	; 0xe1c <leaf+0x40>
	return SwitchRecv[1] & _BV(PS_L1);
}

// R1 キーが押されているか返す
inline bool ps_r1(void){
	return SwitchRecv[1] & _BV(PS_R1);
     e28:	80 91 b7 02 	lds	r24, 0x02B7
     e2c:	90 91 b8 02 	lds	r25, 0x02B8
	int stone = 1;
	

void leaf(){

	while(ps_r1() && ps_r2()){
     e30:	83 ff       	sbrs	r24, 3
     e32:	06 c0       	rjmp	.+12     	; 0xe40 <leaf+0x64>
	return SwitchRecv[1] & _BV(PS_L2);
}

// R2 キーが押されているか返す
inline bool ps_r2(void){
	return SwitchRecv[1] & _BV(PS_R2);
     e34:	80 91 b7 02 	lds	r24, 0x02B7
     e38:	90 91 b8 02 	lds	r25, 0x02B8
	int stone = 1;
	

void leaf(){

	while(ps_r1() && ps_r2()){
     e3c:	81 fd       	sbrc	r24, 1
     e3e:	d3 cf       	rjmp	.-90     	; 0xde6 <leaf+0xa>
			}
			while(ps_circle());
		}
	}
	//全アーム開いて閉じる
	if(r3){ 	
     e40:	80 91 b5 02 	lds	r24, 0x02B5
     e44:	90 91 b6 02 	lds	r25, 0x02B6
     e48:	04 97       	sbiw	r24, 0x04	; 4
     e4a:	09 f0       	breq	.+2      	; 0xe4e <leaf+0x72>
     e4c:	4a c0       	rjmp	.+148    	; 0xee2 <leaf+0x106>
		if(token1 == 1 && token2 == 1 && token3 == 1){
     e4e:	80 91 90 02 	lds	r24, 0x0290
     e52:	90 91 91 02 	lds	r25, 0x0291
     e56:	81 30       	cpi	r24, 0x01	; 1
     e58:	91 05       	cpc	r25, r1
     e5a:	e9 f4       	brne	.+58     	; 0xe96 <leaf+0xba>
     e5c:	80 91 92 02 	lds	r24, 0x0292
     e60:	90 91 93 02 	lds	r25, 0x0293
     e64:	01 97       	sbiw	r24, 0x01	; 1
     e66:	b9 f5       	brne	.+110    	; 0xed6 <leaf+0xfa>
     e68:	80 91 94 02 	lds	r24, 0x0294
     e6c:	90 91 95 02 	lds	r25, 0x0295
     e70:	01 97       	sbiw	r24, 0x01	; 1
     e72:	89 f5       	brne	.+98     	; 0xed6 <leaf+0xfa>
			leaf_one_off(); //1開ける
     e74:	0e 94 9a 06 	call	0xd34	; 0xd34 <leaf_one_off>
			leaf_twe_off(); //2開ける
     e78:	0e 94 b2 06 	call	0xd64	; 0xd64 <leaf_twe_off>

			token1 = 0;
     e7c:	10 92 91 02 	sts	0x0291, r1
     e80:	10 92 90 02 	sts	0x0290, r1
			token2 = 0;
     e84:	10 92 93 02 	sts	0x0293, r1
     e88:	10 92 92 02 	sts	0x0292, r1
			token3 = 0;
     e8c:	10 92 95 02 	sts	0x0295, r1
     e90:	10 92 94 02 	sts	0x0294, r1
     e94:	20 c0       	rjmp	.+64     	; 0xed6 <leaf+0xfa>
		}else if(token1 == 0 && token2 == 0 && token3 == 0){
     e96:	89 2b       	or	r24, r25
     e98:	f1 f4       	brne	.+60     	; 0xed6 <leaf+0xfa>
     e9a:	80 91 92 02 	lds	r24, 0x0292
     e9e:	90 91 93 02 	lds	r25, 0x0293
     ea2:	89 2b       	or	r24, r25
     ea4:	c1 f4       	brne	.+48     	; 0xed6 <leaf+0xfa>
     ea6:	80 91 94 02 	lds	r24, 0x0294
     eaa:	90 91 95 02 	lds	r25, 0x0295
     eae:	89 2b       	or	r24, r25
     eb0:	91 f4       	brne	.+36     	; 0xed6 <leaf+0xfa>
			leaf_one_on(); //1閉じる
     eb2:	0e 94 8e 06 	call	0xd1c	; 0xd1c <leaf_one_on>
			leaf_twe_on(); //2閉じる
     eb6:	0e 94 a6 06 	call	0xd4c	; 0xd4c <leaf_twe_on>

			token1 = 1;
     eba:	81 e0       	ldi	r24, 0x01	; 1
     ebc:	90 e0       	ldi	r25, 0x00	; 0
     ebe:	90 93 91 02 	sts	0x0291, r25
     ec2:	80 93 90 02 	sts	0x0290, r24
			token2 = 1;
     ec6:	90 93 93 02 	sts	0x0293, r25
     eca:	80 93 92 02 	sts	0x0292, r24
			token3 = 1;	
     ece:	90 93 95 02 	sts	0x0295, r25
     ed2:	80 93 94 02 	sts	0x0294, r24
		}
		while(r3);
     ed6:	80 91 b5 02 	lds	r24, 0x02B5
     eda:	90 91 b6 02 	lds	r25, 0x02B6
     ede:	04 97       	sbiw	r24, 0x04	; 4
     ee0:	d1 f3       	breq	.-12     	; 0xed6 <leaf+0xfa>
	}

	//投石器
	if(l3){
     ee2:	80 91 b5 02 	lds	r24, 0x02B5
     ee6:	90 91 b6 02 	lds	r25, 0x02B6
     eea:	02 97       	sbiw	r24, 0x02	; 2
     eec:	e9 f4       	brne	.+58     	; 0xf28 <leaf+0x14c>
		if(stone == 0){
     eee:	80 91 85 01 	lds	r24, 0x0185
     ef2:	90 91 86 01 	lds	r25, 0x0186
     ef6:	00 97       	sbiw	r24, 0x00	; 0
     ef8:	49 f4       	brne	.+18     	; 0xf0c <leaf+0x130>
			stone_off();
     efa:	0e 94 e2 06 	call	0xdc4	; 0xdc4 <stone_off>
			stone = 1;
     efe:	81 e0       	ldi	r24, 0x01	; 1
     f00:	90 e0       	ldi	r25, 0x00	; 0
     f02:	90 93 86 01 	sts	0x0186, r25
     f06:	80 93 85 01 	sts	0x0185, r24
     f0a:	08 c0       	rjmp	.+16     	; 0xf1c <leaf+0x140>
		}else if(stone ==1){
     f0c:	01 97       	sbiw	r24, 0x01	; 1
     f0e:	31 f4       	brne	.+12     	; 0xf1c <leaf+0x140>
			stone_on();
     f10:	0e 94 d6 06 	call	0xdac	; 0xdac <stone_on>
			stone = 0;
     f14:	10 92 86 01 	sts	0x0186, r1
     f18:	10 92 85 01 	sts	0x0185, r1
		}
		while(l3);
     f1c:	80 91 b5 02 	lds	r24, 0x02B5
     f20:	90 91 b6 02 	lds	r25, 0x02B6
     f24:	02 97       	sbiw	r24, 0x02	; 2
     f26:	d1 f3       	breq	.-12     	; 0xf1c <leaf+0x140>
	return SwitchRecv[1] & _BV(PS_CIRCLE);
}

// □キーが押されているか返す
inline bool ps_square(void){
	return SwitchRecv[1] & _BV(PS_SQUARE);
     f28:	80 91 b7 02 	lds	r24, 0x02B7
     f2c:	90 91 b8 02 	lds	r25, 0x02B8
		while(l3);
	}


//葉っぱ落とすとき
	if(ps_square()){
     f30:	87 ff       	sbrs	r24, 7
     f32:	60 c0       	rjmp	.+192    	; 0xff4 <leaf+0x218>
		//三個持っている時
		if(token1 == 1 && token2 == 1 && token3 == 1){
     f34:	80 91 90 02 	lds	r24, 0x0290
     f38:	90 91 91 02 	lds	r25, 0x0291
     f3c:	01 97       	sbiw	r24, 0x01	; 1
     f3e:	09 f0       	breq	.+2      	; 0xf42 <leaf+0x166>
     f40:	4f c0       	rjmp	.+158    	; 0xfe0 <leaf+0x204>
     f42:	80 91 92 02 	lds	r24, 0x0292
     f46:	90 91 93 02 	lds	r25, 0x0293
     f4a:	81 30       	cpi	r24, 0x01	; 1
     f4c:	91 05       	cpc	r25, r1
     f4e:	61 f5       	brne	.+88     	; 0xfa8 <leaf+0x1cc>
     f50:	80 91 94 02 	lds	r24, 0x0294
     f54:	90 91 95 02 	lds	r25, 0x0295
     f58:	81 30       	cpi	r24, 0x01	; 1
     f5a:	91 05       	cpc	r25, r1
     f5c:	19 f4       	brne	.+6      	; 0xf64 <leaf+0x188>
			leaf_one_off(); //1開ける
     f5e:	0e 94 9a 06 	call	0xd34	; 0xd34 <leaf_one_off>
     f62:	3e c0       	rjmp	.+124    	; 0xfe0 <leaf+0x204>

			token3 = 0;
		}		
		//二個持っている時
		else if(token1 == 1 && token2 == 1 && token3 == 0){
     f64:	89 2b       	or	r24, r25
     f66:	09 f0       	breq	.+2      	; 0xf6a <leaf+0x18e>
     f68:	3b c0       	rjmp	.+118    	; 0xfe0 <leaf+0x204>
			leaf_down();	//下げる
     f6a:	0e 94 ca 06 	call	0xd94	; 0xd94 <leaf_down>
     f6e:	88 eb       	ldi	r24, 0xB8	; 184
     f70:	9b e0       	ldi	r25, 0x0B	; 11
     f72:	28 ec       	ldi	r18, 0xC8	; 200
     f74:	30 e0       	ldi	r19, 0x00	; 0
     f76:	f9 01       	movw	r30, r18
     f78:	31 97       	sbiw	r30, 0x01	; 1
     f7a:	f1 f7       	brne	.-4      	; 0xf78 <leaf+0x19c>
		{
			// wait 1/10 ms
			_delay_loop_2(((F_CPU) / 4e3) / 10);
			__ticks --;
     f7c:	01 97       	sbiw	r24, 0x01	; 1
		__ticks = 1;
	else if (__tmp > 65535)
	{
		//	__ticks = requested delay in 1/10 ms
		__ticks = (uint16_t) (__ms * 10.0);
		while(__ticks)
     f7e:	d9 f7       	brne	.-10     	; 0xf76 <leaf+0x19a>
			_delay_ms(300);
			leaf_twe_off(); //2開ける
     f80:	0e 94 b2 06 	call	0xd64	; 0xd64 <leaf_twe_off>
			leaf_up();	//上げる
     f84:	0e 94 be 06 	call	0xd7c	; 0xd7c <leaf_up>
     f88:	88 ee       	ldi	r24, 0xE8	; 232
     f8a:	93 e0       	ldi	r25, 0x03	; 3
     f8c:	28 ec       	ldi	r18, 0xC8	; 200
     f8e:	30 e0       	ldi	r19, 0x00	; 0
     f90:	f9 01       	movw	r30, r18
     f92:	31 97       	sbiw	r30, 0x01	; 1
     f94:	f1 f7       	brne	.-4      	; 0xf92 <leaf+0x1b6>
		{
			// wait 1/10 ms
			_delay_loop_2(((F_CPU) / 4e3) / 10);
			__ticks --;
     f96:	01 97       	sbiw	r24, 0x01	; 1
		__ticks = 1;
	else if (__tmp > 65535)
	{
		//	__ticks = requested delay in 1/10 ms
		__ticks = (uint16_t) (__ms * 10.0);
		while(__ticks)
     f98:	d9 f7       	brne	.-10     	; 0xf90 <leaf+0x1b4>
			_delay_ms(100);
			leaf_twe_on(); //2閉じる
     f9a:	0e 94 a6 06 	call	0xd4c	; 0xd4c <leaf_twe_on>

			token2 = 0;
     f9e:	10 92 93 02 	sts	0x0293, r1
     fa2:	10 92 92 02 	sts	0x0292, r1
     fa6:	20 c0       	rjmp	.+64     	; 0xfe8 <leaf+0x20c>

		}
		//一個持っている時
		else if(token1 == 1 && token2 == 0 && token3 == 0){
     fa8:	89 2b       	or	r24, r25
     faa:	d1 f4       	brne	.+52     	; 0xfe0 <leaf+0x204>
     fac:	80 91 94 02 	lds	r24, 0x0294
     fb0:	90 91 95 02 	lds	r25, 0x0295
     fb4:	89 2b       	or	r24, r25
     fb6:	a1 f4       	brne	.+40     	; 0xfe0 <leaf+0x204>
			leaf_down();	//下げる
     fb8:	0e 94 ca 06 	call	0xd94	; 0xd94 <leaf_down>
     fbc:	88 eb       	ldi	r24, 0xB8	; 184
     fbe:	9b e0       	ldi	r25, 0x0B	; 11
     fc0:	28 ec       	ldi	r18, 0xC8	; 200
     fc2:	30 e0       	ldi	r19, 0x00	; 0
     fc4:	f9 01       	movw	r30, r18
     fc6:	31 97       	sbiw	r30, 0x01	; 1
     fc8:	f1 f7       	brne	.-4      	; 0xfc6 <leaf+0x1ea>
		{
			// wait 1/10 ms
			_delay_loop_2(((F_CPU) / 4e3) / 10);
			__ticks --;
     fca:	01 97       	sbiw	r24, 0x01	; 1
		__ticks = 1;
	else if (__tmp > 65535)
	{
		//	__ticks = requested delay in 1/10 ms
		__ticks = (uint16_t) (__ms * 10.0);
		while(__ticks)
     fcc:	d9 f7       	brne	.-10     	; 0xfc4 <leaf+0x1e8>
			_delay_ms(300);
			leaf_twe_off(); //2開ける
     fce:	0e 94 b2 06 	call	0xd64	; 0xd64 <leaf_twe_off>
			leaf_up();	//上げる
     fd2:	0e 94 be 06 	call	0xd7c	; 0xd7c <leaf_up>

			token1 = 0;
     fd6:	10 92 91 02 	sts	0x0291, r1
     fda:	10 92 90 02 	sts	0x0290, r1
     fde:	04 c0       	rjmp	.+8      	; 0xfe8 <leaf+0x20c>
		}else {
			token3 = 0; //?
     fe0:	10 92 95 02 	sts	0x0295, r1
     fe4:	10 92 94 02 	sts	0x0294, r1
	return SwitchRecv[1] & _BV(PS_CIRCLE);
}

// □キーが押されているか返す
inline bool ps_square(void){
	return SwitchRecv[1] & _BV(PS_SQUARE);
     fe8:	80 91 b7 02 	lds	r24, 0x02B7
     fec:	90 91 b8 02 	lds	r25, 0x02B8
			token1 = 0;
		}else {
			token3 = 0; //?
		}

	while(ps_square());
     ff0:	87 fd       	sbrc	r24, 7
     ff2:	fa cf       	rjmp	.-12     	; 0xfe8 <leaf+0x20c>
	return SwitchRecv[1] & _BV(PS_CROSS);
}

// ○キーが押されているか返す
inline bool ps_circle(void){
	return SwitchRecv[1] & _BV(PS_CIRCLE);
     ff4:	80 91 b7 02 	lds	r24, 0x02B7
     ff8:	90 91 b8 02 	lds	r25, 0x02B8




//葉っぱとるとき
	if(ps_circle()){
     ffc:	85 ff       	sbrs	r24, 5
     ffe:	8d c0       	rjmp	.+282    	; 0x111a <leaf+0x33e>
		//持っていないとき
		if(token1 == 0 && token2 == 0 && token3 == 0){
    1000:	20 91 90 02 	lds	r18, 0x0290
    1004:	30 91 91 02 	lds	r19, 0x0291
    1008:	21 15       	cp	r18, r1
    100a:	31 05       	cpc	r19, r1
    100c:	a9 f5       	brne	.+106    	; 0x1078 <leaf+0x29c>
    100e:	80 91 92 02 	lds	r24, 0x0292
    1012:	90 91 93 02 	lds	r25, 0x0293
    1016:	89 2b       	or	r24, r25
    1018:	79 f5       	brne	.+94     	; 0x1078 <leaf+0x29c>
    101a:	80 91 94 02 	lds	r24, 0x0294
    101e:	90 91 95 02 	lds	r25, 0x0295
    1022:	89 2b       	or	r24, r25
    1024:	49 f5       	brne	.+82     	; 0x1078 <leaf+0x29c>
			leaf_one_off(); //1開ける
    1026:	0e 94 9a 06 	call	0xd34	; 0xd34 <leaf_one_off>
			leaf_twe_off(); //2開ける
    102a:	0e 94 b2 06 	call	0xd64	; 0xd64 <leaf_twe_off>
			leaf_down(); //下げる
    102e:	0e 94 ca 06 	call	0xd94	; 0xd94 <leaf_down>
    1032:	88 e8       	ldi	r24, 0x88	; 136
    1034:	93 e1       	ldi	r25, 0x13	; 19
    1036:	28 ec       	ldi	r18, 0xC8	; 200
    1038:	30 e0       	ldi	r19, 0x00	; 0
    103a:	f9 01       	movw	r30, r18
    103c:	31 97       	sbiw	r30, 0x01	; 1
    103e:	f1 f7       	brne	.-4      	; 0x103c <leaf+0x260>
		{
			// wait 1/10 ms
			_delay_loop_2(((F_CPU) / 4e3) / 10);
			__ticks --;
    1040:	01 97       	sbiw	r24, 0x01	; 1
		__ticks = 1;
	else if (__tmp > 65535)
	{
		//	__ticks = requested delay in 1/10 ms
		__ticks = (uint16_t) (__ms * 10.0);
		while(__ticks)
    1042:	d9 f7       	brne	.-10     	; 0x103a <leaf+0x25e>
			_delay_ms(500);
			leaf_twe_on(); //2閉じる
    1044:	0e 94 a6 06 	call	0xd4c	; 0xd4c <leaf_twe_on>
			leaf_up(); //持ち上げる
    1048:	0e 94 be 06 	call	0xd7c	; 0xd7c <leaf_up>
			arm_one_back1(100);
    104c:	84 e6       	ldi	r24, 0x64	; 100
    104e:	90 e0       	ldi	r25, 0x00	; 0
    1050:	0e 94 55 04 	call	0x8aa	; 0x8aa <arm_one_back1>
    1054:	80 ed       	ldi	r24, 0xD0	; 208
    1056:	97 e0       	ldi	r25, 0x07	; 7
    1058:	28 ec       	ldi	r18, 0xC8	; 200
    105a:	30 e0       	ldi	r19, 0x00	; 0
    105c:	f9 01       	movw	r30, r18
    105e:	31 97       	sbiw	r30, 0x01	; 1
    1060:	f1 f7       	brne	.-4      	; 0x105e <leaf+0x282>
		{
			// wait 1/10 ms
			_delay_loop_2(((F_CPU) / 4e3) / 10);
			__ticks --;
    1062:	01 97       	sbiw	r24, 0x01	; 1
		__ticks = 1;
	else if (__tmp > 65535)
	{
		//	__ticks = requested delay in 1/10 ms
		__ticks = (uint16_t) (__ms * 10.0);
		while(__ticks)
    1064:	d9 f7       	brne	.-10     	; 0x105c <leaf+0x280>
			_delay_ms(200);
			arm_one_stop();
    1066:	0e 94 8b 04 	call	0x916	; 0x916 <arm_one_stop>
			token1 = 1;
    106a:	81 e0       	ldi	r24, 0x01	; 1
    106c:	90 e0       	ldi	r25, 0x00	; 0
    106e:	90 93 91 02 	sts	0x0291, r25
    1072:	80 93 90 02 	sts	0x0290, r24
    1076:	4b c0       	rjmp	.+150    	; 0x110e <leaf+0x332>
		}
		//一個持っている時
		else if(token1 == 1 && token2 == 0 && token3 == 0){
    1078:	21 30       	cpi	r18, 0x01	; 1
    107a:	31 05       	cpc	r19, r1
    107c:	09 f0       	breq	.+2      	; 0x1080 <leaf+0x2a4>
    107e:	43 c0       	rjmp	.+134    	; 0x1106 <leaf+0x32a>
    1080:	c0 91 92 02 	lds	r28, 0x0292
    1084:	d0 91 93 02 	lds	r29, 0x0293
    1088:	20 97       	sbiw	r28, 0x00	; 0
    108a:	69 f5       	brne	.+90     	; 0x10e6 <leaf+0x30a>
    108c:	80 91 94 02 	lds	r24, 0x0294
    1090:	90 91 95 02 	lds	r25, 0x0295
    1094:	89 2b       	or	r24, r25
    1096:	39 f5       	brne	.+78     	; 0x10e6 <leaf+0x30a>
			leaf_twe_off(); //2開ける
    1098:	0e 94 b2 06 	call	0xd64	; 0xd64 <leaf_twe_off>
			leaf_down(); //下げる
    109c:	0e 94 ca 06 	call	0xd94	; 0xd94 <leaf_down>
    10a0:	88 e8       	ldi	r24, 0x88	; 136
    10a2:	93 e1       	ldi	r25, 0x13	; 19
    10a4:	28 ec       	ldi	r18, 0xC8	; 200
    10a6:	30 e0       	ldi	r19, 0x00	; 0
    10a8:	f9 01       	movw	r30, r18
    10aa:	31 97       	sbiw	r30, 0x01	; 1
    10ac:	f1 f7       	brne	.-4      	; 0x10aa <leaf+0x2ce>
		{
			// wait 1/10 ms
			_delay_loop_2(((F_CPU) / 4e3) / 10);
			__ticks --;
    10ae:	01 97       	sbiw	r24, 0x01	; 1
		__ticks = 1;
	else if (__tmp > 65535)
	{
		//	__ticks = requested delay in 1/10 ms
		__ticks = (uint16_t) (__ms * 10.0);
		while(__ticks)
    10b0:	d9 f7       	brne	.-10     	; 0x10a8 <leaf+0x2cc>
			_delay_ms(500);
			leaf_twe_on(); //2閉じる
    10b2:	0e 94 a6 06 	call	0xd4c	; 0xd4c <leaf_twe_on>
			leaf_up(); //持ち上げる
    10b6:	0e 94 be 06 	call	0xd7c	; 0xd7c <leaf_up>
			arm_one_back1(100);
    10ba:	84 e6       	ldi	r24, 0x64	; 100
    10bc:	90 e0       	ldi	r25, 0x00	; 0
    10be:	0e 94 55 04 	call	0x8aa	; 0x8aa <arm_one_back1>
    10c2:	80 ea       	ldi	r24, 0xA0	; 160
    10c4:	9f e0       	ldi	r25, 0x0F	; 15
    10c6:	28 ec       	ldi	r18, 0xC8	; 200
    10c8:	30 e0       	ldi	r19, 0x00	; 0
    10ca:	f9 01       	movw	r30, r18
    10cc:	31 97       	sbiw	r30, 0x01	; 1
    10ce:	f1 f7       	brne	.-4      	; 0x10cc <leaf+0x2f0>
		{
			// wait 1/10 ms
			_delay_loop_2(((F_CPU) / 4e3) / 10);
			__ticks --;
    10d0:	01 97       	sbiw	r24, 0x01	; 1
		__ticks = 1;
	else if (__tmp > 65535)
	{
		//	__ticks = requested delay in 1/10 ms
		__ticks = (uint16_t) (__ms * 10.0);
		while(__ticks)
    10d2:	d9 f7       	brne	.-10     	; 0x10ca <leaf+0x2ee>
			_delay_ms(400);
			token2 = 1;
    10d4:	81 e0       	ldi	r24, 0x01	; 1
    10d6:	90 e0       	ldi	r25, 0x00	; 0
    10d8:	90 93 93 02 	sts	0x0293, r25
    10dc:	80 93 92 02 	sts	0x0292, r24
			arm_one_stop();
    10e0:	0e 94 8b 04 	call	0x916	; 0x916 <arm_one_stop>
    10e4:	14 c0       	rjmp	.+40     	; 0x110e <leaf+0x332>
		}
		//二個持っている時
		else if(token1 == 1 && token2 == 1 && token3 == 0){
    10e6:	c1 30       	cpi	r28, 0x01	; 1
    10e8:	d1 05       	cpc	r29, r1
    10ea:	69 f4       	brne	.+26     	; 0x1106 <leaf+0x32a>
    10ec:	80 91 94 02 	lds	r24, 0x0294
    10f0:	90 91 95 02 	lds	r25, 0x0295
    10f4:	89 2b       	or	r24, r25
    10f6:	39 f4       	brne	.+14     	; 0x1106 <leaf+0x32a>
			leaf_one_on(); //1閉じる
    10f8:	0e 94 8e 06 	call	0xd1c	; 0xd1c <leaf_one_on>
			token3 = 1;
    10fc:	d0 93 95 02 	sts	0x0295, r29
    1100:	c0 93 94 02 	sts	0x0294, r28
    1104:	04 c0       	rjmp	.+8      	; 0x110e <leaf+0x332>

		}else {
			token3 = 0; //?
    1106:	10 92 95 02 	sts	0x0295, r1
    110a:	10 92 94 02 	sts	0x0294, r1
	return SwitchRecv[1] & _BV(PS_CROSS);
}

// ○キーが押されているか返す
inline bool ps_circle(void){
	return SwitchRecv[1] & _BV(PS_CIRCLE);
    110e:	80 91 b7 02 	lds	r24, 0x02B7
    1112:	90 91 b8 02 	lds	r25, 0x02B8
			token3 = 1;

		}else {
			token3 = 0; //?
		}
		while(ps_circle());
    1116:	85 fd       	sbrc	r24, 5
    1118:	fa cf       	rjmp	.-12     	; 0x110e <leaf+0x332>
	}
}
    111a:	df 91       	pop	r29
    111c:	cf 91       	pop	r28
    111e:	08 95       	ret

00001120 <slow_move>:

int flag_stop1 = 0;
int flag_stop2 = 0;

/*---------------------スロー足回り-----------------*/
void slow_move(){
    1120:	cf 93       	push	r28
    1122:	df 93       	push	r29
					break;
				}
			}

		}else {
			flag_stop1 = 1;
    1124:	c1 e0       	ldi	r28, 0x01	; 1
    1126:	d0 e0       	ldi	r29, 0x00	; 0
    1128:	38 c1       	rjmp	.+624    	; 0x139a <slow_move+0x27a>
/*---------------------スロー足回り-----------------*/
void slow_move(){
			
	while(ps_l1()){

		leaf();
    112a:	0e 94 ee 06 	call	0xddc	; 0xddc <leaf>
#define sbi(BYTE,BIT) BYTE|=_BV(BIT) // BYTEの指定BITに1をセット
#define cbi(BYTE,BIT) BYTE&=~_BV(BIT) // BYTEの指定BITをクリア

// 上キーが押されているか返す
inline bool ps_top(void){
	return SwitchRecv[0] & _BV(PS_UP);
    112e:	80 91 b5 02 	lds	r24, 0x02B5
    1132:	90 91 b6 02 	lds	r25, 0x02B6
			
	while(ps_l1()){

		leaf();

		if(ps_top()){
    1136:	84 ff       	sbrs	r24, 4
    1138:	47 c0       	rjmp	.+142    	; 0x11c8 <slow_move+0xa8>
			flag_stop1 = 0;
    113a:	10 92 97 02 	sts	0x0297, r1
    113e:	10 92 96 02 	sts	0x0296, r1
			if(A0_number == 255 && B0_number == 255){
    1142:	20 91 d1 02 	lds	r18, 0x02D1
    1146:	30 91 d2 02 	lds	r19, 0x02D2
    114a:	2f 3f       	cpi	r18, 0xFF	; 255
    114c:	31 05       	cpc	r19, r1
    114e:	61 f4       	brne	.+24     	; 0x1168 <slow_move+0x48>
    1150:	80 91 d9 02 	lds	r24, 0x02D9
    1154:	90 91 da 02 	lds	r25, 0x02DA
    1158:	8f 3f       	cpi	r24, 0xFF	; 255
    115a:	91 05       	cpc	r25, r1
    115c:	41 f4       	brne	.+16     	; 0x116e <slow_move+0x4e>
				strat0(30, 70);
    115e:	8e e1       	ldi	r24, 0x1E	; 30
    1160:	90 e0       	ldi	r25, 0x00	; 0
    1162:	66 e4       	ldi	r22, 0x46	; 70
    1164:	70 e0       	ldi	r23, 0x00	; 0
    1166:	14 c0       	rjmp	.+40     	; 0x1190 <slow_move+0x70>
			}else if(A0_number >= 100 && B0_number < 3){
    1168:	24 36       	cpi	r18, 0x64	; 100
    116a:	31 05       	cpc	r19, r1
    116c:	64 f0       	brlt	.+24     	; 0x1186 <slow_move+0x66>
    116e:	80 91 d9 02 	lds	r24, 0x02D9
    1172:	90 91 da 02 	lds	r25, 0x02DA
    1176:	03 97       	sbiw	r24, 0x03	; 3
    1178:	34 f4       	brge	.+12     	; 0x1186 <slow_move+0x66>

				strat0_srow(A0_number - 100);
    117a:	c9 01       	movw	r24, r18
    117c:	84 56       	subi	r24, 0x64	; 100
    117e:	90 40       	sbci	r25, 0x00	; 0
    1180:	0e 94 a2 05 	call	0xb44	; 0xb44 <strat0_srow>
    1184:	07 c0       	rjmp	.+14     	; 0x1194 <slow_move+0x74>
			}else{

				strat0(A0_number, 100 - A0_number); //(PWM初期値, カウンター)
    1186:	64 e6       	ldi	r22, 0x64	; 100
    1188:	70 e0       	ldi	r23, 0x00	; 0
    118a:	62 1b       	sub	r22, r18
    118c:	73 0b       	sbc	r23, r19
    118e:	c9 01       	movw	r24, r18
    1190:	0e 94 5e 01 	call	0x2bc	; 0x2bc <strat0>
			}

			while(1){

				strat1(100); //(PWM)
    1194:	84 e6       	ldi	r24, 0x64	; 100
    1196:	90 e0       	ldi	r25, 0x00	; 0
    1198:	0e 94 a7 01 	call	0x34e	; 0x34e <strat1>
#define sbi(BYTE,BIT) BYTE|=_BV(BIT) // BYTEの指定BITに1をセット
#define cbi(BYTE,BIT) BYTE&=~_BV(BIT) // BYTEの指定BITをクリア

// 上キーが押されているか返す
inline bool ps_top(void){
	return SwitchRecv[0] & _BV(PS_UP);
    119c:	80 91 b5 02 	lds	r24, 0x02B5
    11a0:	90 91 b6 02 	lds	r25, 0x02B6

			while(1){

				strat1(100); //(PWM)

				if(!ps_top()){
    11a4:	84 fd       	sbrc	r24, 4
    11a6:	03 c0       	rjmp	.+6      	; 0x11ae <slow_move+0x8e>
					strat_stop();
    11a8:	0e 94 d5 01 	call	0x3aa	; 0x3aa <strat_stop>
    11ac:	60 c0       	rjmp	.+192    	; 0x126e <slow_move+0x14e>
	return SwitchRecv[1] & _BV(PS_R2);
}

// L1 キーが押されているか返す
inline bool ps_l1(void){
	return SwitchRecv[1] & _BV(PS_L1);
    11ae:	80 91 b7 02 	lds	r24, 0x02B7
    11b2:	90 91 b8 02 	lds	r25, 0x02B8
				if(!ps_top()){
					strat_stop();
					break;
				}

				if(!ps_l1()){
    11b6:	82 fd       	sbrc	r24, 2
    11b8:	ed cf       	rjmp	.-38     	; 0x1194 <slow_move+0x74>
					strat0(100,154);
    11ba:	84 e6       	ldi	r24, 0x64	; 100
    11bc:	90 e0       	ldi	r25, 0x00	; 0
    11be:	6a e9       	ldi	r22, 0x9A	; 154
    11c0:	70 e0       	ldi	r23, 0x00	; 0
    11c2:	0e 94 5e 01 	call	0x2bc	; 0x2bc <strat0>
    11c6:	53 c0       	rjmp	.+166    	; 0x126e <slow_move+0x14e>
	return SwitchRecv[0] & _BV(PS_RIGHT);
}

// 下キーが押されているか返す
inline bool ps_bottom(void){
	return SwitchRecv[0] & _BV(PS_DOWN);
    11c8:	80 91 b5 02 	lds	r24, 0x02B5
    11cc:	90 91 b6 02 	lds	r25, 0x02B6
				if(!ps_l1()){
					strat0(100,154);
					break;
				}
			}
		}else if(ps_bottom()){
    11d0:	86 ff       	sbrs	r24, 6
    11d2:	49 c0       	rjmp	.+146    	; 0x1266 <slow_move+0x146>
			flag_stop1 = 0;
    11d4:	10 92 97 02 	sts	0x0297, r1
    11d8:	10 92 96 02 	sts	0x0296, r1

			if(A0_number == 255 && B0_number == 255){
    11dc:	80 91 d1 02 	lds	r24, 0x02D1
    11e0:	90 91 d2 02 	lds	r25, 0x02D2
    11e4:	8f 3f       	cpi	r24, 0xFF	; 255
    11e6:	91 05       	cpc	r25, r1
    11e8:	61 f4       	brne	.+24     	; 0x1202 <slow_move+0xe2>
    11ea:	80 91 d9 02 	lds	r24, 0x02D9
    11ee:	90 91 da 02 	lds	r25, 0x02DA
    11f2:	8f 3f       	cpi	r24, 0xFF	; 255
    11f4:	91 05       	cpc	r25, r1
    11f6:	99 f4       	brne	.+38     	; 0x121e <slow_move+0xfe>
				back0(30, 70);
    11f8:	8e e1       	ldi	r24, 0x1E	; 30
    11fa:	90 e0       	ldi	r25, 0x00	; 0
    11fc:	66 e4       	ldi	r22, 0x46	; 70
    11fe:	70 e0       	ldi	r23, 0x00	; 0
    1200:	16 c0       	rjmp	.+44     	; 0x122e <slow_move+0x10e>
			}else if(A0_number < 3 && B0_number >= 100){
    1202:	03 97       	sbiw	r24, 0x03	; 3
    1204:	64 f4       	brge	.+24     	; 0x121e <slow_move+0xfe>
    1206:	80 91 d9 02 	lds	r24, 0x02D9
    120a:	90 91 da 02 	lds	r25, 0x02DA
    120e:	84 36       	cpi	r24, 0x64	; 100
    1210:	91 05       	cpc	r25, r1
    1212:	2c f0       	brlt	.+10     	; 0x121e <slow_move+0xfe>
				back0_srow(B0_number - 100);
    1214:	84 56       	subi	r24, 0x64	; 100
    1216:	90 40       	sbci	r25, 0x00	; 0
    1218:	0e 94 dd 05 	call	0xbba	; 0xbba <back0_srow>
    121c:	0a c0       	rjmp	.+20     	; 0x1232 <slow_move+0x112>
			}else{
				back0(B0_number, 100 - B0_number); //(PWM初期値, カウンター)
    121e:	80 91 d9 02 	lds	r24, 0x02D9
    1222:	90 91 da 02 	lds	r25, 0x02DA
    1226:	64 e6       	ldi	r22, 0x64	; 100
    1228:	70 e0       	ldi	r23, 0x00	; 0
    122a:	68 1b       	sub	r22, r24
    122c:	79 0b       	sbc	r23, r25
    122e:	0e 94 03 02 	call	0x406	; 0x406 <back0>
			}

			while(1){
				back1(100); //(PWM)
    1232:	84 e6       	ldi	r24, 0x64	; 100
    1234:	90 e0       	ldi	r25, 0x00	; 0
    1236:	0e 94 3e 02 	call	0x47c	; 0x47c <back1>
	return SwitchRecv[0] & _BV(PS_RIGHT);
}

// 下キーが押されているか返す
inline bool ps_bottom(void){
	return SwitchRecv[0] & _BV(PS_DOWN);
    123a:	80 91 b5 02 	lds	r24, 0x02B5
    123e:	90 91 b6 02 	lds	r25, 0x02B6
			}

			while(1){
				back1(100); //(PWM)

				if(!ps_bottom()){
    1242:	86 fd       	sbrc	r24, 6
    1244:	03 c0       	rjmp	.+6      	; 0x124c <slow_move+0x12c>
					back_stop();
    1246:	0e 94 71 02 	call	0x4e2	; 0x4e2 <back_stop>
    124a:	11 c0       	rjmp	.+34     	; 0x126e <slow_move+0x14e>
	return SwitchRecv[1] & _BV(PS_R2);
}

// L1 キーが押されているか返す
inline bool ps_l1(void){
	return SwitchRecv[1] & _BV(PS_L1);
    124c:	80 91 b7 02 	lds	r24, 0x02B7
    1250:	90 91 b8 02 	lds	r25, 0x02B8
				if(!ps_bottom()){
					back_stop();
					break;
				}

				if(!ps_l1()){
    1254:	82 fd       	sbrc	r24, 2
    1256:	ed cf       	rjmp	.-38     	; 0x1232 <slow_move+0x112>
					back0(100,155);
    1258:	84 e6       	ldi	r24, 0x64	; 100
    125a:	90 e0       	ldi	r25, 0x00	; 0
    125c:	6b e9       	ldi	r22, 0x9B	; 155
    125e:	70 e0       	ldi	r23, 0x00	; 0
    1260:	0e 94 03 02 	call	0x406	; 0x406 <back0>
    1264:	04 c0       	rjmp	.+8      	; 0x126e <slow_move+0x14e>
					break;
				}
			}

		}else {
			flag_stop1 = 1;
    1266:	d0 93 97 02 	sts	0x0297, r29
    126a:	c0 93 96 02 	sts	0x0296, r28
	return SwitchRecv[0] & _BV(PS_DOWN);
}

// 左キーが押されているか返す
inline bool ps_left(void){
	return SwitchRecv[0] & _BV(PS_LEFT);
    126e:	80 91 b5 02 	lds	r24, 0x02B5
    1272:	90 91 b6 02 	lds	r25, 0x02B6
//			stop();
		}



		if(ps_left()){
    1276:	87 ff       	sbrs	r24, 7
    1278:	41 c0       	rjmp	.+130    	; 0x12fc <slow_move+0x1dc>
			flag_stop2 = 0;
    127a:	10 92 99 02 	sts	0x0299, r1
    127e:	10 92 98 02 	sts	0x0298, r1

			if(A0_number == 255 && B0_number == 255){
    1282:	20 91 d1 02 	lds	r18, 0x02D1
    1286:	30 91 d2 02 	lds	r19, 0x02D2
    128a:	2f 3f       	cpi	r18, 0xFF	; 255
    128c:	31 05       	cpc	r19, r1
    128e:	61 f4       	brne	.+24     	; 0x12a8 <slow_move+0x188>
    1290:	80 91 d9 02 	lds	r24, 0x02D9
    1294:	90 91 da 02 	lds	r25, 0x02DA
    1298:	8f 3f       	cpi	r24, 0xFF	; 255
    129a:	91 05       	cpc	r25, r1
    129c:	41 f4       	brne	.+16     	; 0x12ae <slow_move+0x18e>
				left0(0, 100);
    129e:	80 e0       	ldi	r24, 0x00	; 0
    12a0:	90 e0       	ldi	r25, 0x00	; 0
    12a2:	64 e6       	ldi	r22, 0x64	; 100
    12a4:	70 e0       	ldi	r23, 0x00	; 0
    12a6:	14 c0       	rjmp	.+40     	; 0x12d0 <slow_move+0x1b0>
			}else if(A0_number >= 100 && B0_number < 3){
    12a8:	24 36       	cpi	r18, 0x64	; 100
    12aa:	31 05       	cpc	r19, r1
    12ac:	64 f0       	brlt	.+24     	; 0x12c6 <slow_move+0x1a6>
    12ae:	80 91 d9 02 	lds	r24, 0x02D9
    12b2:	90 91 da 02 	lds	r25, 0x02DA
    12b6:	03 97       	sbiw	r24, 0x03	; 3
    12b8:	34 f4       	brge	.+12     	; 0x12c6 <slow_move+0x1a6>
				left0_srow(A0_number - 100);
    12ba:	c9 01       	movw	r24, r18
    12bc:	84 56       	subi	r24, 0x64	; 100
    12be:	90 40       	sbci	r25, 0x00	; 0
    12c0:	0e 94 18 06 	call	0xc30	; 0xc30 <left0_srow>
    12c4:	07 c0       	rjmp	.+14     	; 0x12d4 <slow_move+0x1b4>
			}else{
				left0(A0_number, 100 - A0_number); //(PWM初期値, カウンター)
    12c6:	64 e6       	ldi	r22, 0x64	; 100
    12c8:	70 e0       	ldi	r23, 0x00	; 0
    12ca:	62 1b       	sub	r22, r18
    12cc:	73 0b       	sbc	r23, r19
    12ce:	c9 01       	movw	r24, r18
    12d0:	0e 94 9f 02 	call	0x53e	; 0x53e <left0>
			}

			while(1){
				left1(100);
    12d4:	84 e6       	ldi	r24, 0x64	; 100
    12d6:	90 e0       	ldi	r25, 0x00	; 0
    12d8:	0e 94 da 02 	call	0x5b4	; 0x5b4 <left1>
	return SwitchRecv[0] & _BV(PS_DOWN);
}

// 左キーが押されているか返す
inline bool ps_left(void){
	return SwitchRecv[0] & _BV(PS_LEFT);
    12dc:	80 91 b5 02 	lds	r24, 0x02B5
    12e0:	90 91 b6 02 	lds	r25, 0x02B6
			}

			while(1){
				left1(100);

				if(!ps_left()){
    12e4:	87 fd       	sbrc	r24, 7
    12e6:	03 c0       	rjmp	.+6      	; 0x12ee <slow_move+0x1ce>
					left_stop();
    12e8:	0e 94 f5 02 	call	0x5ea	; 0x5ea <left_stop>
    12ec:	56 c0       	rjmp	.+172    	; 0x139a <slow_move+0x27a>
	return SwitchRecv[1] & _BV(PS_R2);
}

// L1 キーが押されているか返す
inline bool ps_l1(void){
	return SwitchRecv[1] & _BV(PS_L1);
    12ee:	80 91 b7 02 	lds	r24, 0x02B7
    12f2:	90 91 b8 02 	lds	r25, 0x02B8
				if(!ps_left()){
					left_stop();
					break;
				}

				if(!ps_l1()){
    12f6:	82 fd       	sbrc	r24, 2
    12f8:	ed cf       	rjmp	.-38     	; 0x12d4 <slow_move+0x1b4>
    12fa:	4f c0       	rjmp	.+158    	; 0x139a <slow_move+0x27a>
	return SwitchRecv[0] & _BV(PS_UP);
}

// 右キーが押されているか返す
inline bool ps_right(void){
	return SwitchRecv[0] & _BV(PS_RIGHT);
    12fc:	80 91 b5 02 	lds	r24, 0x02B5
    1300:	90 91 b6 02 	lds	r25, 0x02B6

				if(!ps_l1()){
					break;
				}
			}
		}else if(ps_right()){
    1304:	85 ff       	sbrs	r24, 5
    1306:	43 c0       	rjmp	.+134    	; 0x138e <slow_move+0x26e>
			flag_stop2 = 0;
    1308:	10 92 99 02 	sts	0x0299, r1
    130c:	10 92 98 02 	sts	0x0298, r1

			if(A0_number == 255 && B0_number == 255){
    1310:	80 91 d1 02 	lds	r24, 0x02D1
    1314:	90 91 d2 02 	lds	r25, 0x02D2
    1318:	8f 3f       	cpi	r24, 0xFF	; 255
    131a:	91 05       	cpc	r25, r1
    131c:	61 f4       	brne	.+24     	; 0x1336 <slow_move+0x216>
    131e:	80 91 d9 02 	lds	r24, 0x02D9
    1322:	90 91 da 02 	lds	r25, 0x02DA
    1326:	8f 3f       	cpi	r24, 0xFF	; 255
    1328:	91 05       	cpc	r25, r1
    132a:	99 f4       	brne	.+38     	; 0x1352 <slow_move+0x232>
				right0(0, 100);
    132c:	80 e0       	ldi	r24, 0x00	; 0
    132e:	90 e0       	ldi	r25, 0x00	; 0
    1330:	64 e6       	ldi	r22, 0x64	; 100
    1332:	70 e0       	ldi	r23, 0x00	; 0
    1334:	16 c0       	rjmp	.+44     	; 0x1362 <slow_move+0x242>
			}else if(A0_number < 3 && B0_number >= 100){
    1336:	03 97       	sbiw	r24, 0x03	; 3
    1338:	64 f4       	brge	.+24     	; 0x1352 <slow_move+0x232>
    133a:	80 91 d9 02 	lds	r24, 0x02D9
    133e:	90 91 da 02 	lds	r25, 0x02DA
    1342:	84 36       	cpi	r24, 0x64	; 100
    1344:	91 05       	cpc	r25, r1
    1346:	2c f0       	brlt	.+10     	; 0x1352 <slow_move+0x232>
				right0_srow(B0_number - 100);
    1348:	84 56       	subi	r24, 0x64	; 100
    134a:	90 40       	sbci	r25, 0x00	; 0
    134c:	0e 94 53 06 	call	0xca6	; 0xca6 <right0_srow>
    1350:	0a c0       	rjmp	.+20     	; 0x1366 <slow_move+0x246>
			}else{
				right0(B0_number, 100 - B0_number); //(PWM初期値, カウンター)
    1352:	80 91 d9 02 	lds	r24, 0x02D9
    1356:	90 91 da 02 	lds	r25, 0x02DA
    135a:	64 e6       	ldi	r22, 0x64	; 100
    135c:	70 e0       	ldi	r23, 0x00	; 0
    135e:	68 1b       	sub	r22, r24
    1360:	79 0b       	sbc	r23, r25
    1362:	0e 94 23 03 	call	0x646	; 0x646 <right0>
			}

			while(1){
				right1(100);
    1366:	84 e6       	ldi	r24, 0x64	; 100
    1368:	90 e0       	ldi	r25, 0x00	; 0
    136a:	0e 94 5e 03 	call	0x6bc	; 0x6bc <right1>
	return SwitchRecv[0] & _BV(PS_UP);
}

// 右キーが押されているか返す
inline bool ps_right(void){
	return SwitchRecv[0] & _BV(PS_RIGHT);
    136e:	80 91 b5 02 	lds	r24, 0x02B5
    1372:	90 91 b6 02 	lds	r25, 0x02B6
			}

			while(1){
				right1(100);

				if(!ps_right()){
    1376:	85 fd       	sbrc	r24, 5
    1378:	03 c0       	rjmp	.+6      	; 0x1380 <slow_move+0x260>
					right_stop();
    137a:	0e 94 79 03 	call	0x6f2	; 0x6f2 <right_stop>
    137e:	0d c0       	rjmp	.+26     	; 0x139a <slow_move+0x27a>
	return SwitchRecv[1] & _BV(PS_R2);
}

// L1 キーが押されているか返す
inline bool ps_l1(void){
	return SwitchRecv[1] & _BV(PS_L1);
    1380:	80 91 b7 02 	lds	r24, 0x02B7
    1384:	90 91 b8 02 	lds	r25, 0x02B8
				if(!ps_right()){
					right_stop();
					break;
				}

				if(!ps_l1()){
    1388:	82 fd       	sbrc	r24, 2
    138a:	ed cf       	rjmp	.-38     	; 0x1366 <slow_move+0x246>
    138c:	06 c0       	rjmp	.+12     	; 0x139a <slow_move+0x27a>
					break;
				}
			}
		}else {
			flag_stop2 = 1;
    138e:	d0 93 99 02 	sts	0x0299, r29
    1392:	c0 93 98 02 	sts	0x0298, r28
			stop();
    1396:	0e 94 a7 03 	call	0x74e	; 0x74e <stop>
	return SwitchRecv[1] & _BV(PS_R2);
}

// L1 キーが押されているか返す
inline bool ps_l1(void){
	return SwitchRecv[1] & _BV(PS_L1);
    139a:	80 91 b7 02 	lds	r24, 0x02B7
    139e:	90 91 b8 02 	lds	r25, 0x02B8
int flag_stop2 = 0;

/*---------------------スロー足回り-----------------*/
void slow_move(){
			
	while(ps_l1()){
    13a2:	82 fd       	sbrc	r24, 2
    13a4:	c2 ce       	rjmp	.-636    	; 0x112a <slow_move+0xa>
		}else {
			flag_stop2 = 1;
			stop();
		}
	}
}
    13a6:	df 91       	pop	r29
    13a8:	cf 91       	pop	r28
    13aa:	08 95       	ret

000013ac <count_angle>:
		}
		while(ps_circle());
	}
}

void count_angle(){
    13ac:	af 92       	push	r10
    13ae:	bf 92       	push	r11
    13b0:	cf 92       	push	r12
    13b2:	df 92       	push	r13
    13b4:	ef 92       	push	r14
    13b6:	ff 92       	push	r15
    13b8:	0f 93       	push	r16
    13ba:	1f 93       	push	r17
//			0度				90度
	double one_max = 595, one_min = 224;
	double twe_max = 455, twe_min = 728;
//			90度			0度

	angle_one = (one_max - adc_convert(0)) * (90/(one_max - one_min)); //アーム@の床からの角度
    13bc:	80 e0       	ldi	r24, 0x00	; 0
    13be:	0e 94 01 01 	call	0x202	; 0x202 <adc_convert>
    13c2:	aa 27       	eor	r26, r26
    13c4:	97 fd       	sbrc	r25, 7
    13c6:	a0 95       	com	r26
    13c8:	ba 2f       	mov	r27, r26
    13ca:	bc 01       	movw	r22, r24
    13cc:	cd 01       	movw	r24, r26
    13ce:	0e 94 07 15 	call	0x2a0e	; 0x2a0e <__floatsisf>
    13d2:	9b 01       	movw	r18, r22
    13d4:	ac 01       	movw	r20, r24
    13d6:	60 e0       	ldi	r22, 0x00	; 0
    13d8:	70 ec       	ldi	r23, 0xC0	; 192
    13da:	84 e1       	ldi	r24, 0x14	; 20
    13dc:	94 e4       	ldi	r25, 0x44	; 68
    13de:	0e 94 4f 13 	call	0x269e	; 0x269e <__subsf3>
    13e2:	22 ee       	ldi	r18, 0xE2	; 226
    13e4:	38 e6       	ldi	r19, 0x68	; 104
    13e6:	48 e7       	ldi	r20, 0x78	; 120
    13e8:	5e e3       	ldi	r21, 0x3E	; 62
    13ea:	0e 94 ad 13 	call	0x275a	; 0x275a <__mulsf3>
    13ee:	60 93 b1 02 	sts	0x02B1, r22
    13f2:	70 93 b2 02 	sts	0x02B2, r23
    13f6:	80 93 b3 02 	sts	0x02B3, r24
    13fa:	90 93 b4 02 	sts	0x02B4, r25
	angle_twe = (twe_min - adc_convert(1)) * (90/(twe_min - twe_max)); //アームAの垂直からの角度
    13fe:	81 e0       	ldi	r24, 0x01	; 1
    1400:	0e 94 01 01 	call	0x202	; 0x202 <adc_convert>
    1404:	aa 27       	eor	r26, r26
    1406:	97 fd       	sbrc	r25, 7
    1408:	a0 95       	com	r26
    140a:	ba 2f       	mov	r27, r26
    140c:	bc 01       	movw	r22, r24
    140e:	cd 01       	movw	r24, r26
    1410:	0e 94 07 15 	call	0x2a0e	; 0x2a0e <__floatsisf>
    1414:	9b 01       	movw	r18, r22
    1416:	ac 01       	movw	r20, r24
    1418:	60 e0       	ldi	r22, 0x00	; 0
    141a:	70 e0       	ldi	r23, 0x00	; 0
    141c:	86 e3       	ldi	r24, 0x36	; 54
    141e:	94 e4       	ldi	r25, 0x44	; 68
    1420:	0e 94 4f 13 	call	0x269e	; 0x269e <__subsf3>
    1424:	2d e8       	ldi	r18, 0x8D	; 141
    1426:	3a ec       	ldi	r19, 0xCA	; 202
    1428:	48 ea       	ldi	r20, 0xA8	; 168
    142a:	5e e3       	ldi	r21, 0x3E	; 62
    142c:	0e 94 ad 13 	call	0x275a	; 0x275a <__mulsf3>
    1430:	7b 01       	movw	r14, r22
    1432:	8c 01       	movw	r16, r24
    1434:	60 93 a4 02 	sts	0x02A4, r22
    1438:	70 93 a5 02 	sts	0x02A5, r23
    143c:	80 93 a6 02 	sts	0x02A6, r24
    1440:	90 93 a7 02 	sts	0x02A7, r25
	angle_apex = 90 - angle_one + angle_twe; //現在頂点角度
    1444:	a0 90 b1 02 	lds	r10, 0x02B1
    1448:	b0 90 b2 02 	lds	r11, 0x02B2
    144c:	c0 90 b3 02 	lds	r12, 0x02B3
    1450:	d0 90 b4 02 	lds	r13, 0x02B4
    1454:	60 e0       	ldi	r22, 0x00	; 0
    1456:	70 e0       	ldi	r23, 0x00	; 0
    1458:	84 eb       	ldi	r24, 0xB4	; 180
    145a:	92 e4       	ldi	r25, 0x42	; 66
    145c:	a6 01       	movw	r20, r12
    145e:	95 01       	movw	r18, r10
    1460:	0e 94 4f 13 	call	0x269e	; 0x269e <__subsf3>
    1464:	a8 01       	movw	r20, r16
    1466:	97 01       	movw	r18, r14
    1468:	0e 94 80 13 	call	0x2700	; 0x2700 <__addsf3>
    146c:	60 93 c5 02 	sts	0x02C5, r22
    1470:	70 93 c6 02 	sts	0x02C6, r23
    1474:	80 93 c7 02 	sts	0x02C7, r24
    1478:	90 93 c8 02 	sts	0x02C8, r25
	angle_apex_plan = 180 - angle_one * 1.9; //理想頂点角度
    147c:	c6 01       	movw	r24, r12
    147e:	b5 01       	movw	r22, r10
    1480:	23 e3       	ldi	r18, 0x33	; 51
    1482:	33 e3       	ldi	r19, 0x33	; 51
    1484:	43 ef       	ldi	r20, 0xF3	; 243
    1486:	5f eb       	ldi	r21, 0xBF	; 191
    1488:	0e 94 ad 13 	call	0x275a	; 0x275a <__mulsf3>
    148c:	20 e0       	ldi	r18, 0x00	; 0
    148e:	30 e0       	ldi	r19, 0x00	; 0
    1490:	44 e3       	ldi	r20, 0x34	; 52
    1492:	53 e4       	ldi	r21, 0x43	; 67
    1494:	0e 94 80 13 	call	0x2700	; 0x2700 <__addsf3>
    1498:	60 93 c9 02 	sts	0x02C9, r22
    149c:	70 93 ca 02 	sts	0x02CA, r23
    14a0:	80 93 cb 02 	sts	0x02CB, r24
    14a4:	90 93 cc 02 	sts	0x02CC, r25
									//	↑の値を2.0から大きくすればアーム低く, 小さくすれば高くなる
}
    14a8:	1f 91       	pop	r17
    14aa:	0f 91       	pop	r16
    14ac:	ff 90       	pop	r15
    14ae:	ef 90       	pop	r14
    14b0:	df 90       	pop	r13
    14b2:	cf 90       	pop	r12
    14b4:	bf 90       	pop	r11
    14b6:	af 90       	pop	r10
    14b8:	08 95       	ret

000014ba <debug_angle>:

void debug_angle(){
    14ba:	0f 93       	push	r16
    14bc:	1f 93       	push	r17

	usart_sendStr("1AD= ");
    14be:	80 e0       	ldi	r24, 0x00	; 0
    14c0:	91 e0       	ldi	r25, 0x01	; 1
    14c2:	0e 94 ee 00 	call	0x1dc	; 0x1dc <usart_sendStr>
	usart_sendStr(intToStr(adc_convert(0),buf));
    14c6:	80 e0       	ldi	r24, 0x00	; 0
    14c8:	0e 94 01 01 	call	0x202	; 0x202 <adc_convert>
    14cc:	03 ed       	ldi	r16, 0xD3	; 211
    14ce:	12 e0       	ldi	r17, 0x02	; 2
    14d0:	b8 01       	movw	r22, r16
    14d2:	0e 94 ae 00 	call	0x15c	; 0x15c <intToStr>
    14d6:	0e 94 ee 00 	call	0x1dc	; 0x1dc <usart_sendStr>
	usart_sendStr(", 2AD= ");
    14da:	86 e0       	ldi	r24, 0x06	; 6
    14dc:	91 e0       	ldi	r25, 0x01	; 1
    14de:	0e 94 ee 00 	call	0x1dc	; 0x1dc <usart_sendStr>
	usart_sendStr(intToStr(adc_convert(1),buf));
    14e2:	81 e0       	ldi	r24, 0x01	; 1
    14e4:	0e 94 01 01 	call	0x202	; 0x202 <adc_convert>
    14e8:	b8 01       	movw	r22, r16
    14ea:	0e 94 ae 00 	call	0x15c	; 0x15c <intToStr>
    14ee:	0e 94 ee 00 	call	0x1dc	; 0x1dc <usart_sendStr>
	usart_sendStr(", angle_one= ");
    14f2:	8e e0       	ldi	r24, 0x0E	; 14
    14f4:	91 e0       	ldi	r25, 0x01	; 1
    14f6:	0e 94 ee 00 	call	0x1dc	; 0x1dc <usart_sendStr>
	usart_sendStr(intToStr(angle_one,buf));
    14fa:	60 91 b1 02 	lds	r22, 0x02B1
    14fe:	70 91 b2 02 	lds	r23, 0x02B2
    1502:	80 91 b3 02 	lds	r24, 0x02B3
    1506:	90 91 b4 02 	lds	r25, 0x02B4
    150a:	0e 94 65 15 	call	0x2aca	; 0x2aca <__fixsfsi>
    150e:	dc 01       	movw	r26, r24
    1510:	cb 01       	movw	r24, r22
    1512:	b8 01       	movw	r22, r16
    1514:	0e 94 ae 00 	call	0x15c	; 0x15c <intToStr>
    1518:	0e 94 ee 00 	call	0x1dc	; 0x1dc <usart_sendStr>
	usart_sendStr(", angle_twe= ");
    151c:	8c e1       	ldi	r24, 0x1C	; 28
    151e:	91 e0       	ldi	r25, 0x01	; 1
    1520:	0e 94 ee 00 	call	0x1dc	; 0x1dc <usart_sendStr>
	usart_sendStr(intToStr(angle_twe,buf));
    1524:	60 91 a4 02 	lds	r22, 0x02A4
    1528:	70 91 a5 02 	lds	r23, 0x02A5
    152c:	80 91 a6 02 	lds	r24, 0x02A6
    1530:	90 91 a7 02 	lds	r25, 0x02A7
    1534:	0e 94 65 15 	call	0x2aca	; 0x2aca <__fixsfsi>
    1538:	dc 01       	movw	r26, r24
    153a:	cb 01       	movw	r24, r22
    153c:	b8 01       	movw	r22, r16
    153e:	0e 94 ae 00 	call	0x15c	; 0x15c <intToStr>
    1542:	0e 94 ee 00 	call	0x1dc	; 0x1dc <usart_sendStr>

	usart_sendStr(", angle_apex= ");
    1546:	8a e2       	ldi	r24, 0x2A	; 42
    1548:	91 e0       	ldi	r25, 0x01	; 1
    154a:	0e 94 ee 00 	call	0x1dc	; 0x1dc <usart_sendStr>
	usart_sendStr(intToStr(angle_apex,buf));
    154e:	60 91 c5 02 	lds	r22, 0x02C5
    1552:	70 91 c6 02 	lds	r23, 0x02C6
    1556:	80 91 c7 02 	lds	r24, 0x02C7
    155a:	90 91 c8 02 	lds	r25, 0x02C8
    155e:	0e 94 65 15 	call	0x2aca	; 0x2aca <__fixsfsi>
    1562:	dc 01       	movw	r26, r24
    1564:	cb 01       	movw	r24, r22
    1566:	b8 01       	movw	r22, r16
    1568:	0e 94 ae 00 	call	0x15c	; 0x15c <intToStr>
    156c:	0e 94 ee 00 	call	0x1dc	; 0x1dc <usart_sendStr>

	usart_sendStr(", kakudo= ");
    1570:	89 e3       	ldi	r24, 0x39	; 57
    1572:	91 e0       	ldi	r25, 0x01	; 1
    1574:	0e 94 ee 00 	call	0x1dc	; 0x1dc <usart_sendStr>
	usart_sendStr(intToStr(angle_apex_plan,buf));
    1578:	60 91 c9 02 	lds	r22, 0x02C9
    157c:	70 91 ca 02 	lds	r23, 0x02CA
    1580:	80 91 cb 02 	lds	r24, 0x02CB
    1584:	90 91 cc 02 	lds	r25, 0x02CC
    1588:	0e 94 65 15 	call	0x2aca	; 0x2aca <__fixsfsi>
    158c:	dc 01       	movw	r26, r24
    158e:	cb 01       	movw	r24, r22
    1590:	b8 01       	movw	r22, r16
    1592:	0e 94 ae 00 	call	0x15c	; 0x15c <intToStr>
    1596:	0e 94 ee 00 	call	0x1dc	; 0x1dc <usart_sendStr>
	usart_sendStr(", seki= ");
	usart_sendStr(intToStr(adc_convert(2),buf));

	usart_sendStr(", IIR= ");
	usart_sendStr(intToStr(IIR_y(adc_convert(2)),buf));
*/	usart_sendStr("\r\n"); // 改行
    159a:	84 e4       	ldi	r24, 0x44	; 68
    159c:	91 e0       	ldi	r25, 0x01	; 1
    159e:	0e 94 ee 00 	call	0x1dc	; 0x1dc <usart_sendStr>

}
    15a2:	1f 91       	pop	r17
    15a4:	0f 91       	pop	r16
    15a6:	08 95       	ret

000015a8 <debug_move>:

void debug_move(){
    15a8:	ef 92       	push	r14
    15aa:	ff 92       	push	r15
    15ac:	0f 93       	push	r16
    15ae:	1f 93       	push	r17
	usart_sendStr("  ");
    15b0:	07 e4       	ldi	r16, 0x47	; 71
    15b2:	11 e0       	ldi	r17, 0x01	; 1
    15b4:	c8 01       	movw	r24, r16
    15b6:	0e 94 ee 00 	call	0x1dc	; 0x1dc <usart_sendStr>
	usart_sendStr("0A:"); 
    15ba:	8a e4       	ldi	r24, 0x4A	; 74
    15bc:	91 e0       	ldi	r25, 0x01	; 1
    15be:	0e 94 ee 00 	call	0x1dc	; 0x1dc <usart_sendStr>
 	usart_sendStr(intToStr(OCR0A,buf)); 
    15c2:	87 b5       	in	r24, 0x27	; 39
    15c4:	93 ed       	ldi	r25, 0xD3	; 211
    15c6:	e9 2e       	mov	r14, r25
    15c8:	92 e0       	ldi	r25, 0x02	; 2
    15ca:	f9 2e       	mov	r15, r25
    15cc:	90 e0       	ldi	r25, 0x00	; 0
    15ce:	b7 01       	movw	r22, r14
    15d0:	0e 94 ae 00 	call	0x15c	; 0x15c <intToStr>
    15d4:	0e 94 ee 00 	call	0x1dc	; 0x1dc <usart_sendStr>
	usart_sendStr("  ");
    15d8:	c8 01       	movw	r24, r16
    15da:	0e 94 ee 00 	call	0x1dc	; 0x1dc <usart_sendStr>
	usart_sendStr("0B:"); 
    15de:	8e e4       	ldi	r24, 0x4E	; 78
    15e0:	91 e0       	ldi	r25, 0x01	; 1
    15e2:	0e 94 ee 00 	call	0x1dc	; 0x1dc <usart_sendStr>
 	usart_sendStr(intToStr(OCR0B,buf));
    15e6:	88 b5       	in	r24, 0x28	; 40
    15e8:	90 e0       	ldi	r25, 0x00	; 0
    15ea:	b7 01       	movw	r22, r14
    15ec:	0e 94 ae 00 	call	0x15c	; 0x15c <intToStr>
    15f0:	0e 94 ee 00 	call	0x1dc	; 0x1dc <usart_sendStr>
	usart_sendStr("  ");
    15f4:	c8 01       	movw	r24, r16
    15f6:	0e 94 ee 00 	call	0x1dc	; 0x1dc <usart_sendStr>
	usart_sendStr("2A:");
    15fa:	82 e5       	ldi	r24, 0x52	; 82
    15fc:	91 e0       	ldi	r25, 0x01	; 1
    15fe:	0e 94 ee 00 	call	0x1dc	; 0x1dc <usart_sendStr>
  	usart_sendStr(intToStr(OCR2A,buf));
    1602:	80 91 b3 00 	lds	r24, 0x00B3
    1606:	90 e0       	ldi	r25, 0x00	; 0
    1608:	b7 01       	movw	r22, r14
    160a:	0e 94 ae 00 	call	0x15c	; 0x15c <intToStr>
    160e:	0e 94 ee 00 	call	0x1dc	; 0x1dc <usart_sendStr>
	usart_sendStr("  "); 
    1612:	c8 01       	movw	r24, r16
    1614:	0e 94 ee 00 	call	0x1dc	; 0x1dc <usart_sendStr>
	usart_sendStr("2B:"); 
    1618:	86 e5       	ldi	r24, 0x56	; 86
    161a:	91 e0       	ldi	r25, 0x01	; 1
    161c:	0e 94 ee 00 	call	0x1dc	; 0x1dc <usart_sendStr>
	usart_sendStr(intToStr(OCR2B,buf));; 
    1620:	80 91 b4 00 	lds	r24, 0x00B4
    1624:	90 e0       	ldi	r25, 0x00	; 0
    1626:	b7 01       	movw	r22, r14
    1628:	0e 94 ae 00 	call	0x15c	; 0x15c <intToStr>
    162c:	0e 94 ee 00 	call	0x1dc	; 0x1dc <usart_sendStr>

	usart_sendStr("\r\n"); // 改行
    1630:	84 e4       	ldi	r24, 0x44	; 68
    1632:	91 e0       	ldi	r25, 0x01	; 1
    1634:	0e 94 ee 00 	call	0x1dc	; 0x1dc <usart_sendStr>
}
    1638:	1f 91       	pop	r17
    163a:	0f 91       	pop	r16
    163c:	ff 90       	pop	r15
    163e:	ef 90       	pop	r14
    1640:	08 95       	ret

00001642 <debug_pwm_angle>:

void debug_pwm_angle(){
    1642:	ef 92       	push	r14
    1644:	ff 92       	push	r15
    1646:	0f 93       	push	r16
    1648:	1f 93       	push	r17
	usart_sendStr("  ");
    164a:	07 e4       	ldi	r16, 0x47	; 71
    164c:	11 e0       	ldi	r17, 0x01	; 1
    164e:	c8 01       	movw	r24, r16
    1650:	0e 94 ee 00 	call	0x1dc	; 0x1dc <usart_sendStr>
	usart_sendStr("1A:"); 
    1654:	8a e5       	ldi	r24, 0x5A	; 90
    1656:	91 e0       	ldi	r25, 0x01	; 1
    1658:	0e 94 ee 00 	call	0x1dc	; 0x1dc <usart_sendStr>
 	usart_sendStr(intToStr(OCR1A,buf)); 
    165c:	80 91 88 00 	lds	r24, 0x0088
    1660:	90 91 89 00 	lds	r25, 0x0089
    1664:	23 ed       	ldi	r18, 0xD3	; 211
    1666:	e2 2e       	mov	r14, r18
    1668:	22 e0       	ldi	r18, 0x02	; 2
    166a:	f2 2e       	mov	r15, r18
    166c:	b7 01       	movw	r22, r14
    166e:	0e 94 ae 00 	call	0x15c	; 0x15c <intToStr>
    1672:	0e 94 ee 00 	call	0x1dc	; 0x1dc <usart_sendStr>
	usart_sendStr("  ");
    1676:	c8 01       	movw	r24, r16
    1678:	0e 94 ee 00 	call	0x1dc	; 0x1dc <usart_sendStr>
	usart_sendStr("1B:"); 
    167c:	8e e5       	ldi	r24, 0x5E	; 94
    167e:	91 e0       	ldi	r25, 0x01	; 1
    1680:	0e 94 ee 00 	call	0x1dc	; 0x1dc <usart_sendStr>
 	usart_sendStr(intToStr(OCR1B,buf));
    1684:	80 91 8a 00 	lds	r24, 0x008A
    1688:	90 91 8b 00 	lds	r25, 0x008B
    168c:	b7 01       	movw	r22, r14
    168e:	0e 94 ae 00 	call	0x15c	; 0x15c <intToStr>
    1692:	0e 94 ee 00 	call	0x1dc	; 0x1dc <usart_sendStr>
	usart_sendStr("  ");
    1696:	c8 01       	movw	r24, r16
    1698:	0e 94 ee 00 	call	0x1dc	; 0x1dc <usart_sendStr>
	usart_sendStr("3A:");
    169c:	82 e6       	ldi	r24, 0x62	; 98
    169e:	91 e0       	ldi	r25, 0x01	; 1
    16a0:	0e 94 ee 00 	call	0x1dc	; 0x1dc <usart_sendStr>
  	usart_sendStr(intToStr(OCR3A,buf));
    16a4:	80 91 98 00 	lds	r24, 0x0098
    16a8:	90 91 99 00 	lds	r25, 0x0099
    16ac:	b7 01       	movw	r22, r14
    16ae:	0e 94 ae 00 	call	0x15c	; 0x15c <intToStr>
    16b2:	0e 94 ee 00 	call	0x1dc	; 0x1dc <usart_sendStr>
	usart_sendStr("  "); 
    16b6:	c8 01       	movw	r24, r16
    16b8:	0e 94 ee 00 	call	0x1dc	; 0x1dc <usart_sendStr>
	usart_sendStr("3B:"); 
    16bc:	86 e6       	ldi	r24, 0x66	; 102
    16be:	91 e0       	ldi	r25, 0x01	; 1
    16c0:	0e 94 ee 00 	call	0x1dc	; 0x1dc <usart_sendStr>
	usart_sendStr(intToStr(OCR3B,buf));; 
    16c4:	80 91 9a 00 	lds	r24, 0x009A
    16c8:	90 91 9b 00 	lds	r25, 0x009B
    16cc:	b7 01       	movw	r22, r14
    16ce:	0e 94 ae 00 	call	0x15c	; 0x15c <intToStr>
    16d2:	0e 94 ee 00 	call	0x1dc	; 0x1dc <usart_sendStr>

	usart_sendStr("\r\n"); // 改行
    16d6:	84 e4       	ldi	r24, 0x44	; 68
    16d8:	91 e0       	ldi	r25, 0x01	; 1
    16da:	0e 94 ee 00 	call	0x1dc	; 0x1dc <usart_sendStr>
}
    16de:	1f 91       	pop	r17
    16e0:	0f 91       	pop	r16
    16e2:	ff 90       	pop	r15
    16e4:	ef 90       	pop	r14
    16e6:	08 95       	ret

000016e8 <IIR_y>:
	a2 = a2 << 12;
	
	b1 = b1 << 12;
	b2 = b2 << 12;
	
	n = n << 6;
    16e8:	9c 01       	movw	r18, r24
    16ea:	66 e0       	ldi	r22, 0x06	; 6
    16ec:	22 0f       	add	r18, r18
    16ee:	33 1f       	adc	r19, r19
    16f0:	6a 95       	dec	r22
    16f2:	e1 f7       	brne	.-8      	; 0x16ec <IIR_y+0x4>
	a0 = n << 6 * a0;
	
	b2 = (z[3] << 8) * b2;
	b1 = (z[2] << 8) * b1;
	
	z[1] = z[0];
    16f4:	ec e9       	ldi	r30, 0x9C	; 156
    16f6:	f2 e0       	ldi	r31, 0x02	; 2
    16f8:	92 91       	ld	r25, -Z
    16fa:	82 91       	ld	r24, -Z
    16fc:	90 93 9d 02 	sts	0x029D, r25
    1700:	80 93 9c 02 	sts	0x029C, r24
	z[0] = n >> 2;
    1704:	35 95       	asr	r19
    1706:	27 95       	ror	r18
    1708:	35 95       	asr	r19
    170a:	27 95       	ror	r18
    170c:	31 83       	std	Z+1, r19	; 0x01
    170e:	20 83       	st	Z, r18
	z[3] = z[2];
    1710:	80 91 9e 02 	lds	r24, 0x029E
    1714:	90 91 9f 02 	lds	r25, 0x029F
    1718:	90 93 a1 02 	sts	0x02A1, r25
    171c:	80 93 a0 02 	sts	0x02A0, r24
	z[2] = add[0];
    1720:	10 92 9f 02 	sts	0x029F, r1
    1724:	10 92 9e 02 	sts	0x029E, r1
    1728:	23 2f       	mov	r18, r19
    172a:	33 0f       	add	r19, r19
    172c:	33 0b       	sbc	r19, r19
    172e:	25 95       	asr	r18
    1730:	25 95       	asr	r18
	add[0] = add[0] >> 8;
	add[1] = (a1 >> 4) + b1 + add[2];
	add[2] = (a2 >> 4) - b2;
	
	return add[0];
}
    1732:	c9 01       	movw	r24, r18
    1734:	08 95       	ret

00001736 <arm_strat>:



void arm_strat(){
    1736:	af 92       	push	r10
    1738:	bf 92       	push	r11
    173a:	cf 92       	push	r12
    173c:	df 92       	push	r13
    173e:	ef 92       	push	r14
    1740:	ff 92       	push	r15
    1742:	0f 93       	push	r16
    1744:	1f 93       	push	r17
					count_angle(); //角度計算
    1746:	0e 94 d6 09 	call	0x13ac	; 0x13ac <count_angle>

					arm_one_strat1(255); //(PWM)
    174a:	8f ef       	ldi	r24, 0xFF	; 255
    174c:	90 e0       	ldi	r25, 0x00	; 0
    174e:	0e 94 f2 03 	call	0x7e4	; 0x7e4 <arm_one_strat1>
						arm_one_strat_stop();
						arm_twe_stop();
						break;
					}
*/
					if(angle_one < 4){ //アーム1が伸びきっているのでこの角度でストップ
    1752:	e0 90 b1 02 	lds	r14, 0x02B1
    1756:	f0 90 b2 02 	lds	r15, 0x02B2
    175a:	00 91 b3 02 	lds	r16, 0x02B3
    175e:	10 91 b4 02 	lds	r17, 0x02B4
    1762:	c8 01       	movw	r24, r16
    1764:	b7 01       	movw	r22, r14
    1766:	20 e0       	ldi	r18, 0x00	; 0
    1768:	30 e0       	ldi	r19, 0x00	; 0
    176a:	40 e8       	ldi	r20, 0x80	; 128
    176c:	50 e4       	ldi	r21, 0x40	; 64
    176e:	0e 94 d7 14 	call	0x29ae	; 0x29ae <__ltsf2>
    1772:	88 23       	and	r24, r24
    1774:	3c f5       	brge	.+78     	; 0x17c4 <arm_strat+0x8e>
						arm_one_stop();
    1776:	0e 94 8b 04 	call	0x916	; 0x916 <arm_one_stop>
						if(angle_twe < 75){ //アーム2が伸びきっていないのでこの角度まで伸ばす
    177a:	e0 90 a4 02 	lds	r14, 0x02A4
    177e:	f0 90 a5 02 	lds	r15, 0x02A5
    1782:	00 91 a6 02 	lds	r16, 0x02A6
    1786:	10 91 a7 02 	lds	r17, 0x02A7
    178a:	c8 01       	movw	r24, r16
    178c:	b7 01       	movw	r22, r14
    178e:	20 e0       	ldi	r18, 0x00	; 0
    1790:	30 e0       	ldi	r19, 0x00	; 0
    1792:	46 e9       	ldi	r20, 0x96	; 150
    1794:	52 e4       	ldi	r21, 0x42	; 66
    1796:	0e 94 d7 14 	call	0x29ae	; 0x29ae <__ltsf2>
    179a:	88 23       	and	r24, r24
    179c:	2c f4       	brge	.+10     	; 0x17a8 <arm_strat+0x72>
							arm_twe_strat0(70,70);
    179e:	86 e4       	ldi	r24, 0x46	; 70
    17a0:	90 e0       	ldi	r25, 0x00	; 0
    17a2:	66 e4       	ldi	r22, 0x46	; 70
    17a4:	70 e0       	ldi	r23, 0x00	; 0
    17a6:	92 c0       	rjmp	.+292    	; 0x18cc <arm_strat+0x196>

						}else if(angle_twe > 85){
    17a8:	c8 01       	movw	r24, r16
    17aa:	b7 01       	movw	r22, r14
    17ac:	20 e0       	ldi	r18, 0x00	; 0
    17ae:	30 e0       	ldi	r19, 0x00	; 0
    17b0:	4a ea       	ldi	r20, 0xAA	; 170
    17b2:	52 e4       	ldi	r21, 0x42	; 66
    17b4:	0e 94 a7 14 	call	0x294e	; 0x294e <__gtsf2>
    17b8:	18 16       	cp	r1, r24
    17ba:	0c f0       	brlt	.+2      	; 0x17be <arm_strat+0x88>
    17bc:	9f c0       	rjmp	.+318    	; 0x18fc <arm_strat+0x1c6>
							arm_twe_back0(70,70);
    17be:	86 e4       	ldi	r24, 0x46	; 70
    17c0:	90 e0       	ldi	r25, 0x00	; 0
    17c2:	97 c0       	rjmp	.+302    	; 0x18f2 <arm_strat+0x1bc>
							arm_twe_stop();
//							break;
						}
					}else {
						//最初引っかからないようにアーム2を少し伸ばす
						if(angle_one > 80){
    17c4:	c8 01       	movw	r24, r16
    17c6:	b7 01       	movw	r22, r14
    17c8:	20 e0       	ldi	r18, 0x00	; 0
    17ca:	30 e0       	ldi	r19, 0x00	; 0
    17cc:	40 ea       	ldi	r20, 0xA0	; 160
    17ce:	52 e4       	ldi	r21, 0x42	; 66
    17d0:	0e 94 a7 14 	call	0x294e	; 0x294e <__gtsf2>
    17d4:	18 16       	cp	r1, r24
    17d6:	4c f5       	brge	.+82     	; 0x182a <arm_strat+0xf4>
							if(angle_apex < 14){
    17d8:	60 91 c5 02 	lds	r22, 0x02C5
    17dc:	70 91 c6 02 	lds	r23, 0x02C6
    17e0:	80 91 c7 02 	lds	r24, 0x02C7
    17e4:	90 91 c8 02 	lds	r25, 0x02C8
    17e8:	20 e0       	ldi	r18, 0x00	; 0
    17ea:	30 e0       	ldi	r19, 0x00	; 0
    17ec:	40 e6       	ldi	r20, 0x60	; 96
    17ee:	51 e4       	ldi	r21, 0x41	; 65
    17f0:	0e 94 d7 14 	call	0x29ae	; 0x29ae <__ltsf2>
    17f4:	88 23       	and	r24, r24
    17f6:	cc f4       	brge	.+50     	; 0x182a <arm_strat+0xf4>
								arm_one_stop();
    17f8:	0e 94 8b 04 	call	0x916	; 0x916 <arm_one_stop>
								arm_twe_strat1(200);
    17fc:	88 ec       	ldi	r24, 0xC8	; 200
    17fe:	90 e0       	ldi	r25, 0x00	; 0
    1800:	0e 94 cd 04 	call	0x99a	; 0x99a <arm_twe_strat1>
    1804:	02 c0       	rjmp	.+4      	; 0x180a <arm_strat+0xd4>
								while(angle_twe < 15){
									count_angle(); //角度計算
    1806:	0e 94 d6 09 	call	0x13ac	; 0x13ac <count_angle>
						//最初引っかからないようにアーム2を少し伸ばす
						if(angle_one > 80){
							if(angle_apex < 14){
								arm_one_stop();
								arm_twe_strat1(200);
								while(angle_twe < 15){
    180a:	60 91 a4 02 	lds	r22, 0x02A4
    180e:	70 91 a5 02 	lds	r23, 0x02A5
    1812:	80 91 a6 02 	lds	r24, 0x02A6
    1816:	90 91 a7 02 	lds	r25, 0x02A7
    181a:	20 e0       	ldi	r18, 0x00	; 0
    181c:	30 e0       	ldi	r19, 0x00	; 0
    181e:	40 e7       	ldi	r20, 0x70	; 112
    1820:	51 e4       	ldi	r21, 0x41	; 65
    1822:	0e 94 d7 14 	call	0x29ae	; 0x29ae <__ltsf2>
    1826:	87 fd       	sbrc	r24, 7
    1828:	ee cf       	rjmp	.-36     	; 0x1806 <arm_strat+0xd0>
								}
							}
						}


						if(angle_apex_plan - angle_apex > 15){ //アーム2の角度がとても浅い時
    182a:	e0 90 c9 02 	lds	r14, 0x02C9
    182e:	f0 90 ca 02 	lds	r15, 0x02CA
    1832:	00 91 cb 02 	lds	r16, 0x02CB
    1836:	10 91 cc 02 	lds	r17, 0x02CC
    183a:	a0 90 c5 02 	lds	r10, 0x02C5
    183e:	b0 90 c6 02 	lds	r11, 0x02C6
    1842:	c0 90 c7 02 	lds	r12, 0x02C7
    1846:	d0 90 c8 02 	lds	r13, 0x02C8
    184a:	c8 01       	movw	r24, r16
    184c:	b7 01       	movw	r22, r14
    184e:	a6 01       	movw	r20, r12
    1850:	95 01       	movw	r18, r10
    1852:	0e 94 4f 13 	call	0x269e	; 0x269e <__subsf3>
    1856:	20 e0       	ldi	r18, 0x00	; 0
    1858:	30 e0       	ldi	r19, 0x00	; 0
    185a:	40 e7       	ldi	r20, 0x70	; 112
    185c:	51 e4       	ldi	r21, 0x41	; 65
    185e:	0e 94 a7 14 	call	0x294e	; 0x294e <__gtsf2>
    1862:	18 16       	cp	r1, r24
    1864:	bc f4       	brge	.+46     	; 0x1894 <arm_strat+0x15e>
							if(angle_twe > 65){ //この角度以上の時はアーム2ストップ
    1866:	60 91 a4 02 	lds	r22, 0x02A4
    186a:	70 91 a5 02 	lds	r23, 0x02A5
    186e:	80 91 a6 02 	lds	r24, 0x02A6
    1872:	90 91 a7 02 	lds	r25, 0x02A7
    1876:	20 e0       	ldi	r18, 0x00	; 0
    1878:	30 e0       	ldi	r19, 0x00	; 0
    187a:	42 e8       	ldi	r20, 0x82	; 130
    187c:	52 e4       	ldi	r21, 0x42	; 66
    187e:	0e 94 a7 14 	call	0x294e	; 0x294e <__gtsf2>
    1882:	18 16       	cp	r1, r24
    1884:	dc f1       	brlt	.+118    	; 0x18fc <arm_strat+0x1c6>
								arm_twe_stop();

							}else {

								arm_twe_strat1(200);
    1886:	88 ec       	ldi	r24, 0xC8	; 200
    1888:	90 e0       	ldi	r25, 0x00	; 0
    188a:	0e 94 cd 04 	call	0x99a	; 0x99a <arm_twe_strat1>
								arm_one_strat_stop();
    188e:	0e 94 05 04 	call	0x80a	; 0x80a <arm_one_strat_stop>
    1892:	36 c0       	rjmp	.+108    	; 0x1900 <arm_strat+0x1ca>
							}
						}else {
							if((angle_apex < angle_apex_plan) && (angle_twe < 85)){
    1894:	c6 01       	movw	r24, r12
    1896:	b5 01       	movw	r22, r10
    1898:	a8 01       	movw	r20, r16
    189a:	97 01       	movw	r18, r14
    189c:	0e 94 d7 14 	call	0x29ae	; 0x29ae <__ltsf2>
    18a0:	88 23       	and	r24, r24
    18a2:	bc f4       	brge	.+46     	; 0x18d2 <arm_strat+0x19c>
    18a4:	60 91 a4 02 	lds	r22, 0x02A4
    18a8:	70 91 a5 02 	lds	r23, 0x02A5
    18ac:	80 91 a6 02 	lds	r24, 0x02A6
    18b0:	90 91 a7 02 	lds	r25, 0x02A7
    18b4:	20 e0       	ldi	r18, 0x00	; 0
    18b6:	30 e0       	ldi	r19, 0x00	; 0
    18b8:	4a ea       	ldi	r20, 0xAA	; 170
    18ba:	52 e4       	ldi	r21, 0x42	; 66
    18bc:	0e 94 d7 14 	call	0x29ae	; 0x29ae <__ltsf2>
    18c0:	88 23       	and	r24, r24
    18c2:	3c f4       	brge	.+14     	; 0x18d2 <arm_strat+0x19c>
								arm_twe_strat0(100, 150); //角度小さいから伸ばす
    18c4:	84 e6       	ldi	r24, 0x64	; 100
    18c6:	90 e0       	ldi	r25, 0x00	; 0
    18c8:	66 e9       	ldi	r22, 0x96	; 150
    18ca:	70 e0       	ldi	r23, 0x00	; 0
    18cc:	0e 94 a0 04 	call	0x940	; 0x940 <arm_twe_strat0>
    18d0:	17 c0       	rjmp	.+46     	; 0x1900 <arm_strat+0x1ca>
						//		arm_twe_strat_stop();
							}
							else if(angle_twe > angle_apex_plan){
    18d2:	60 91 a4 02 	lds	r22, 0x02A4
    18d6:	70 91 a5 02 	lds	r23, 0x02A5
    18da:	80 91 a6 02 	lds	r24, 0x02A6
    18de:	90 91 a7 02 	lds	r25, 0x02A7
    18e2:	a8 01       	movw	r20, r16
    18e4:	97 01       	movw	r18, r14
    18e6:	0e 94 a7 14 	call	0x294e	; 0x294e <__gtsf2>
    18ea:	18 16       	cp	r1, r24
    18ec:	3c f4       	brge	.+14     	; 0x18fc <arm_strat+0x1c6>
								arm_twe_back0(80, 70); //角度大きいから縮む
    18ee:	80 e5       	ldi	r24, 0x50	; 80
    18f0:	90 e0       	ldi	r25, 0x00	; 0
    18f2:	66 e4       	ldi	r22, 0x46	; 70
    18f4:	70 e0       	ldi	r23, 0x00	; 0
    18f6:	0e 94 03 05 	call	0xa06	; 0xa06 <arm_twe_back0>
    18fa:	02 c0       	rjmp	.+4      	; 0x1900 <arm_strat+0x1ca>
						//		arm_twe_back_stop();
							}else {
								arm_twe_stop();
    18fc:	0e 94 66 05 	call	0xacc	; 0xacc <arm_twe_stop>
							}
						}
					}
}
    1900:	1f 91       	pop	r17
    1902:	0f 91       	pop	r16
    1904:	ff 90       	pop	r15
    1906:	ef 90       	pop	r14
    1908:	df 90       	pop	r13
    190a:	cf 90       	pop	r12
    190c:	bf 90       	pop	r11
    190e:	af 90       	pop	r10
    1910:	08 95       	ret

00001912 <arm_back>:

void arm_back(){
    1912:	af 92       	push	r10
    1914:	bf 92       	push	r11
    1916:	cf 92       	push	r12
    1918:	df 92       	push	r13
    191a:	ef 92       	push	r14
    191c:	ff 92       	push	r15
    191e:	0f 93       	push	r16
    1920:	1f 93       	push	r17

					count_angle(); //角度計算
    1922:	0e 94 d6 09 	call	0x13ac	; 0x13ac <count_angle>

					arm_one_back1(255); //(PWM)
    1926:	8f ef       	ldi	r24, 0xFF	; 255
    1928:	90 e0       	ldi	r25, 0x00	; 0
    192a:	0e 94 55 04 	call	0x8aa	; 0x8aa <arm_one_back1>
						arm_one_back_stop();
						arm_twe_stop();
						break;
					}
*/
					if(angle_one > 91){ //葉っぱを運ぶ位置へアームを移動
    192e:	60 91 b1 02 	lds	r22, 0x02B1
    1932:	70 91 b2 02 	lds	r23, 0x02B2
    1936:	80 91 b3 02 	lds	r24, 0x02B3
    193a:	90 91 b4 02 	lds	r25, 0x02B4
    193e:	20 e0       	ldi	r18, 0x00	; 0
    1940:	30 e0       	ldi	r19, 0x00	; 0
    1942:	46 eb       	ldi	r20, 0xB6	; 182
    1944:	52 e4       	ldi	r21, 0x42	; 66
    1946:	0e 94 a7 14 	call	0x294e	; 0x294e <__gtsf2>
    194a:	18 16       	cp	r1, r24
    194c:	5c f5       	brge	.+86     	; 0x19a4 <arm_back+0x92>
						arm_one_stop();
    194e:	0e 94 8b 04 	call	0x916	; 0x916 <arm_one_stop>
						if(angle_apex < 25){
    1952:	60 91 c5 02 	lds	r22, 0x02C5
    1956:	70 91 c6 02 	lds	r23, 0x02C6
    195a:	80 91 c7 02 	lds	r24, 0x02C7
    195e:	90 91 c8 02 	lds	r25, 0x02C8
    1962:	20 e0       	ldi	r18, 0x00	; 0
    1964:	30 e0       	ldi	r19, 0x00	; 0
    1966:	48 ec       	ldi	r20, 0xC8	; 200
    1968:	51 e4       	ldi	r21, 0x41	; 65
    196a:	0e 94 d7 14 	call	0x29ae	; 0x29ae <__ltsf2>
    196e:	88 23       	and	r24, r24
    1970:	0c f0       	brlt	.+2      	; 0x1974 <arm_back+0x62>
    1972:	55 c0       	rjmp	.+170    	; 0x1a1e <arm_back+0x10c>
							arm_twe_strat1(200);
    1974:	88 ec       	ldi	r24, 0xC8	; 200
    1976:	90 e0       	ldi	r25, 0x00	; 0
    1978:	0e 94 cd 04 	call	0x99a	; 0x99a <arm_twe_strat1>
    197c:	02 c0       	rjmp	.+4      	; 0x1982 <arm_back+0x70>

							while(angle_apex < 25){
								count_angle(); //角度計算
    197e:	0e 94 d6 09 	call	0x13ac	; 0x13ac <count_angle>
					if(angle_one > 91){ //葉っぱを運ぶ位置へアームを移動
						arm_one_stop();
						if(angle_apex < 25){
							arm_twe_strat1(200);

							while(angle_apex < 25){
    1982:	60 91 c5 02 	lds	r22, 0x02C5
    1986:	70 91 c6 02 	lds	r23, 0x02C6
    198a:	80 91 c7 02 	lds	r24, 0x02C7
    198e:	90 91 c8 02 	lds	r25, 0x02C8
    1992:	20 e0       	ldi	r18, 0x00	; 0
    1994:	30 e0       	ldi	r19, 0x00	; 0
    1996:	48 ec       	ldi	r20, 0xC8	; 200
    1998:	51 e4       	ldi	r21, 0x41	; 65
    199a:	0e 94 d7 14 	call	0x29ae	; 0x29ae <__ltsf2>
    199e:	87 fd       	sbrc	r24, 7
    19a0:	ee cf       	rjmp	.-36     	; 0x197e <arm_back+0x6c>
    19a2:	3d c0       	rjmp	.+122    	; 0x1a1e <arm_back+0x10c>
								count_angle(); //角度計算
							}
						}
						arm_twe_stop();
					}else {
						if(angle_apex < 55){ //葉っぱを運ぶ位置へアームを移動
    19a4:	e0 90 c5 02 	lds	r14, 0x02C5
    19a8:	f0 90 c6 02 	lds	r15, 0x02C6
    19ac:	00 91 c7 02 	lds	r16, 0x02C7
    19b0:	10 91 c8 02 	lds	r17, 0x02C8
    19b4:	c8 01       	movw	r24, r16
    19b6:	b7 01       	movw	r22, r14
    19b8:	20 e0       	ldi	r18, 0x00	; 0
    19ba:	30 e0       	ldi	r19, 0x00	; 0
    19bc:	4c e5       	ldi	r20, 0x5C	; 92
    19be:	52 e4       	ldi	r21, 0x42	; 66
    19c0:	0e 94 d7 14 	call	0x29ae	; 0x29ae <__ltsf2>
    19c4:	88 23       	and	r24, r24
    19c6:	2c f4       	brge	.+10     	; 0x19d2 <arm_back+0xc0>
					//		arm_one_back1(150);
							arm_twe_strat1(200);
    19c8:	88 ec       	ldi	r24, 0xC8	; 200
    19ca:	90 e0       	ldi	r25, 0x00	; 0
    19cc:	0e 94 cd 04 	call	0x99a	; 0x99a <arm_twe_strat1>
    19d0:	28 c0       	rjmp	.+80     	; 0x1a22 <arm_back+0x110>

						}else {
							if(angle_apex < angle_apex_plan){
    19d2:	a0 90 c9 02 	lds	r10, 0x02C9
    19d6:	b0 90 ca 02 	lds	r11, 0x02CA
    19da:	c0 90 cb 02 	lds	r12, 0x02CB
    19de:	d0 90 cc 02 	lds	r13, 0x02CC
    19e2:	c8 01       	movw	r24, r16
    19e4:	b7 01       	movw	r22, r14
    19e6:	a6 01       	movw	r20, r12
    19e8:	95 01       	movw	r18, r10
    19ea:	0e 94 d7 14 	call	0x29ae	; 0x29ae <__ltsf2>
    19ee:	88 23       	and	r24, r24
    19f0:	3c f4       	brge	.+14     	; 0x1a00 <arm_back+0xee>
								arm_twe_strat0(50, 80); //角度小さいから伸ばす
    19f2:	82 e3       	ldi	r24, 0x32	; 50
    19f4:	90 e0       	ldi	r25, 0x00	; 0
    19f6:	60 e5       	ldi	r22, 0x50	; 80
    19f8:	70 e0       	ldi	r23, 0x00	; 0
    19fa:	0e 94 a0 04 	call	0x940	; 0x940 <arm_twe_strat0>
    19fe:	11 c0       	rjmp	.+34     	; 0x1a22 <arm_back+0x110>

							}
							else if(angle_apex > angle_apex_plan){
    1a00:	c8 01       	movw	r24, r16
    1a02:	b7 01       	movw	r22, r14
    1a04:	a6 01       	movw	r20, r12
    1a06:	95 01       	movw	r18, r10
    1a08:	0e 94 a7 14 	call	0x294e	; 0x294e <__gtsf2>
    1a0c:	18 16       	cp	r1, r24
    1a0e:	3c f4       	brge	.+14     	; 0x1a1e <arm_back+0x10c>
								arm_twe_back0(80, 130); //角度大きいから縮む
    1a10:	80 e5       	ldi	r24, 0x50	; 80
    1a12:	90 e0       	ldi	r25, 0x00	; 0
    1a14:	62 e8       	ldi	r22, 0x82	; 130
    1a16:	70 e0       	ldi	r23, 0x00	; 0
    1a18:	0e 94 03 05 	call	0xa06	; 0xa06 <arm_twe_back0>
    1a1c:	02 c0       	rjmp	.+4      	; 0x1a22 <arm_back+0x110>

							}else {
								arm_twe_stop();
    1a1e:	0e 94 66 05 	call	0xacc	; 0xacc <arm_twe_stop>
							}
						}
					}

}
    1a22:	1f 91       	pop	r17
    1a24:	0f 91       	pop	r16
    1a26:	ff 90       	pop	r15
    1a28:	ef 90       	pop	r14
    1a2a:	df 90       	pop	r13
    1a2c:	cf 90       	pop	r12
    1a2e:	bf 90       	pop	r11
    1a30:	af 90       	pop	r10
    1a32:	08 95       	ret

00001a34 <r1_strat>:

void r1_strat(){
						count_angle(); //角度計算
    1a34:	0e 94 d6 09 	call	0x13ac	; 0x13ac <count_angle>

						if(adc_convert(0) <= 580){
    1a38:	80 e0       	ldi	r24, 0x00	; 0
    1a3a:	0e 94 01 01 	call	0x202	; 0x202 <adc_convert>
    1a3e:	85 54       	subi	r24, 0x45	; 69
    1a40:	92 40       	sbci	r25, 0x02	; 2
    1a42:	7c f4       	brge	.+30     	; 0x1a62 <r1_strat+0x2e>
    1a44:	80 e1       	ldi	r24, 0x10	; 16
    1a46:	97 e2       	ldi	r25, 0x27	; 39
    1a48:	01 97       	sbiw	r24, 0x01	; 1
    1a4a:	f1 f7       	brne	.-4      	; 0x1a48 <r1_strat+0x14>
							_delay_ms(5);
							if(adc_convert(0) <= 580){
    1a4c:	80 e0       	ldi	r24, 0x00	; 0
    1a4e:	0e 94 01 01 	call	0x202	; 0x202 <adc_convert>
    1a52:	85 54       	subi	r24, 0x45	; 69
    1a54:	92 40       	sbci	r25, 0x02	; 2
    1a56:	3c f4       	brge	.+14     	; 0x1a66 <r1_strat+0x32>
								arm_one_strat1(255); //(PWM)
    1a58:	8f ef       	ldi	r24, 0xFF	; 255
    1a5a:	90 e0       	ldi	r25, 0x00	; 0
    1a5c:	0e 94 f2 03 	call	0x7e4	; 0x7e4 <arm_one_strat1>
    1a60:	08 95       	ret
							}
						}else {
							arm_one_strat_stop();
    1a62:	0e 94 05 04 	call	0x80a	; 0x80a <arm_one_strat_stop>
    1a66:	08 95       	ret

00001a68 <r1_back>:

}

void r1_back(){

						count_angle(); //角度計算
    1a68:	0e 94 d6 09 	call	0x13ac	; 0x13ac <count_angle>

						if(adc_convert(0) > 192){
    1a6c:	80 e0       	ldi	r24, 0x00	; 0
    1a6e:	0e 94 01 01 	call	0x202	; 0x202 <adc_convert>
    1a72:	81 3c       	cpi	r24, 0xC1	; 193
    1a74:	91 05       	cpc	r25, r1
    1a76:	2c f0       	brlt	.+10     	; 0x1a82 <r1_back+0x1a>
//							_delay_ms(5);
//							if(adc_convert(0) > 290){
								arm_one_back1(250);
    1a78:	8a ef       	ldi	r24, 0xFA	; 250
    1a7a:	90 e0       	ldi	r25, 0x00	; 0
    1a7c:	0e 94 55 04 	call	0x8aa	; 0x8aa <arm_one_back1>
    1a80:	08 95       	ret
//							}
						}else {
							arm_one_stop();
    1a82:	0e 94 8b 04 	call	0x916	; 0x916 <arm_one_stop>
    1a86:	08 95       	ret

00001a88 <main>:
// PD6: ALS (左モーター)
// PD7: BLS (左モーター)


/**********メイン関数**********/
int main(){
    1a88:	8f 92       	push	r8
    1a8a:	9f 92       	push	r9
    1a8c:	af 92       	push	r10
    1a8e:	bf 92       	push	r11
    1a90:	cf 92       	push	r12
    1a92:	df 92       	push	r13
    1a94:	ef 92       	push	r14
    1a96:	ff 92       	push	r15
    1a98:	0f 93       	push	r16
    1a9a:	1f 93       	push	r17
    1a9c:	cf 93       	push	r28
    1a9e:	df 93       	push	r29

	DDRA = 0b01111000;
    1aa0:	88 e7       	ldi	r24, 0x78	; 120
    1aa2:	81 b9       	out	0x01, r24	; 1
	DDRB = 0b11111111;
    1aa4:	8f ef       	ldi	r24, 0xFF	; 255
    1aa6:	84 b9       	out	0x04, r24	; 4
	DDRD = 0b11111111;
    1aa8:	8a b9       	out	0x0a, r24	; 10
	DDRC = 0b11111111;
    1aaa:	87 b9       	out	0x07, r24	; 7
#define MYUBRR FOSC/16/BAUD-1 // UART分周率


/* USART設定 */
void usart_init(unsigned int ubrr){
  UBRR0H = (unsigned char)(ubrr>>8); // ボーレート上位8bit
    1aac:	10 92 c5 00 	sts	0x00C5, r1
  UBRR0L = (unsigned char)ubrr; // ボーレート下位8bit
    1ab0:	8c e0       	ldi	r24, 0x0C	; 12
    1ab2:	80 93 c4 00 	sts	0x00C4, r24
  UCSR0A = (0<<U2X0); // 等速
    1ab6:	10 92 c0 00 	sts	0x00C0, r1
  UCSR0B = (1<<RXEN0)|(1<<TXEN0)|(1<<RXCIE0); // 送受信許可、受信完了割り込み許可
    1aba:	88 e9       	ldi	r24, 0x98	; 152
    1abc:	80 93 c1 00 	sts	0x00C1, r24
  UCSR0C = (0<<UMSEL00)|(3<<UCSZ00)|(1<<USBS0)|(0<<UPM00);
    1ac0:	8e e0       	ldi	r24, 0x0E	; 14
    1ac2:	80 93 c2 00 	sts	0x00C2, r24
  }
}

/* ADコンバータ設定 */
void adc_init(void){
  ADMUX = (0<<REFS0); // 外部基準電圧
    1ac6:	10 92 7c 00 	sts	0x007C, r1
  ADCSRA =(1<<ADEN)|(1<<ADSC)|(0<<ADPS0);
    1aca:	80 ec       	ldi	r24, 0xC0	; 192
    1acc:	80 93 7a 00 	sts	0x007A, r24
	int center_l_x = 118;   //127 //125 //118 //131 //184    //コントローラーによって差がでるので微調整必要
	int center_l_y = 132;   //127 //127 //122 //132 //138　　//コントローラーによって差がでるので微調整必要
	int analog_l_up, analog_l_down, analog_l_right, analog_l_left;
	int analog_r_up, analog_r_down, analog_r_right, analog_r_left;
*/
	TCCR0A = 0b10100011;  // OCR0A OCR0B の設定
    1ad0:	33 ea       	ldi	r19, 0xA3	; 163
    1ad2:	34 bd       	out	0x24, r19	; 36
	TCCR0B = 0b00000001;	
    1ad4:	21 e0       	ldi	r18, 0x01	; 1
    1ad6:	25 bd       	out	0x25, r18	; 37
	TCCR1A = 0b10100001;  // OCR1A OCR1B の設定
    1ad8:	91 ea       	ldi	r25, 0xA1	; 161
    1ada:	90 93 80 00 	sts	0x0080, r25
	TCCR1B = 0b00000011;
    1ade:	83 e0       	ldi	r24, 0x03	; 3
    1ae0:	80 93 81 00 	sts	0x0081, r24
	TCCR2A = 0b10100011;  // OCR2A OCR2B の設定
    1ae4:	30 93 b0 00 	sts	0x00B0, r19
	TCCR2B = 0b00000001;
    1ae8:	20 93 b1 00 	sts	0x00B1, r18
	TCCR3A = 0b10100001;  // OCR3A OCR3B の設定
    1aec:	90 93 90 00 	sts	0x0090, r25
	TCCR3B = 0b00000011;
    1af0:	80 93 91 00 	sts	0x0091, r24

   	sei();    //割り込み許可(許可しないとPSコントローラーの信号が受けれない)
    1af4:	78 94       	sei
    1af6:	04 c0       	rjmp	.+8      	; 0x1b00 <main+0x78>

    //ANALOGが押されてないとノイズが乗るのでANALOGを押しスタートを押すまでは待機.
	while(analog_r_x == 0 || analog_r_y == 0)usart_sendStr("PUSH ANALOG\r\n");
    1af8:	8a e6       	ldi	r24, 0x6A	; 106
    1afa:	91 e0       	ldi	r25, 0x01	; 1
    1afc:	0e 94 ee 00 	call	0x1dc	; 0x1dc <usart_sendStr>
    1b00:	80 91 b9 02 	lds	r24, 0x02B9
    1b04:	90 91 ba 02 	lds	r25, 0x02BA
    1b08:	89 2b       	or	r24, r25
    1b0a:	b1 f3       	breq	.-20     	; 0x1af8 <main+0x70>
    1b0c:	80 91 bb 02 	lds	r24, 0x02BB
    1b10:	90 91 bc 02 	lds	r25, 0x02BC
    1b14:	89 2b       	or	r24, r25
    1b16:	81 f3       	breq	.-32     	; 0x1af8 <main+0x70>
    1b18:	04 c0       	rjmp	.+8      	; 0x1b22 <main+0x9a>
 	while(start == 0){
		usart_sendStr("PUSH START\r\n");
    1b1a:	88 e7       	ldi	r24, 0x78	; 120
    1b1c:	91 e0       	ldi	r25, 0x01	; 1
    1b1e:	0e 94 ee 00 	call	0x1dc	; 0x1dc <usart_sendStr>

   	sei();    //割り込み許可(許可しないとPSコントローラーの信号が受けれない)

    //ANALOGが押されてないとノイズが乗るのでANALOGを押しスタートを押すまでは待機.
	while(analog_r_x == 0 || analog_r_y == 0)usart_sendStr("PUSH ANALOG\r\n");
 	while(start == 0){
    1b22:	80 91 b5 02 	lds	r24, 0x02B5
    1b26:	90 91 b6 02 	lds	r25, 0x02B6
    1b2a:	08 97       	sbiw	r24, 0x08	; 8
    1b2c:	b1 f7       	brne	.-20     	; 0x1b1a <main+0x92>


	int flag_sro = 0, angle_twe_sample = 0;

//	token1 = false; // トークンをとっているか
	leaf_one_off(); //1開ける
    1b2e:	0e 94 9a 06 	call	0xd34	; 0xd34 <leaf_one_off>
	leaf_twe_off(); //2開ける
    1b32:	0e 94 b2 06 	call	0xd64	; 0xd64 <leaf_twe_off>
	stone_off();
    1b36:	0e 94 e2 06 	call	0xdc4	; 0xdc4 <stone_off>
    1b3a:	70 e1       	ldi	r23, 0x10	; 16
    1b3c:	87 2e       	mov	r8, r23
    1b3e:	77 e2       	ldi	r23, 0x27	; 39
    1b40:	97 2e       	mov	r9, r23
		flag_sro = 0;

		if(ps_l1()){
			flag_sro = 1;

			slow_move();// スロー
    1b42:	c1 e0       	ldi	r28, 0x01	; 1
    1b44:	d0 e0       	ldi	r29, 0x00	; 0


	while(1){


		leaf(); //アーム開閉
    1b46:	0e 94 ee 06 	call	0xddc	; 0xddc <leaf>
	return SwitchRecv[1] & _BV(PS_R1);
}

// △キーが押されているか返す
inline bool ps_triangle(void){
	return SwitchRecv[1] & _BV(PS_TRIANGLE);
    1b4a:	80 91 b7 02 	lds	r24, 0x02B7
    1b4e:	90 91 b8 02 	lds	r25, 0x02B8

		}

*/

		if(ps_triangle()){ //アーム伸ばす
    1b52:	84 ff       	sbrs	r24, 4
    1b54:	01 c1       	rjmp	.+514    	; 0x1d58 <main+0x2d0>

			if(angle_one > 3){
    1b56:	60 91 b1 02 	lds	r22, 0x02B1
    1b5a:	70 91 b2 02 	lds	r23, 0x02B2
    1b5e:	80 91 b3 02 	lds	r24, 0x02B3
    1b62:	90 91 b4 02 	lds	r25, 0x02B4
    1b66:	20 e0       	ldi	r18, 0x00	; 0
    1b68:	30 e0       	ldi	r19, 0x00	; 0
    1b6a:	40 e4       	ldi	r20, 0x40	; 64
    1b6c:	50 e4       	ldi	r21, 0x40	; 64
    1b6e:	0e 94 a7 14 	call	0x294e	; 0x294e <__gtsf2>
    1b72:	18 16       	cp	r1, r24
    1b74:	0c f0       	brlt	.+2      	; 0x1b78 <main+0xf0>
    1b76:	f8 c1       	rjmp	.+1008   	; 0x1f68 <main+0x4e0>

				arm_one_strat0(0, 200); //(PWM初期値, カウンター)
    1b78:	80 e0       	ldi	r24, 0x00	; 0
    1b7a:	90 e0       	ldi	r25, 0x00	; 0
    1b7c:	68 ec       	ldi	r22, 0xC8	; 200
    1b7e:	70 e0       	ldi	r23, 0x00	; 0
    1b80:	0e 94 c5 03 	call	0x78a	; 0x78a <arm_one_strat0>
    1b84:	e2 c0       	rjmp	.+452    	; 0x1d4a <main+0x2c2>

				while(ps_triangle()){

					count_angle(); //角度計算
    1b86:	0e 94 d6 09 	call	0x13ac	; 0x13ac <count_angle>

					arm_one_strat1(255); //(PWM)
    1b8a:	8f ef       	ldi	r24, 0xFF	; 255
    1b8c:	90 e0       	ldi	r25, 0x00	; 0
    1b8e:	0e 94 f2 03 	call	0x7e4	; 0x7e4 <arm_one_strat1>
						arm_one_strat_stop();
						arm_twe_stop();
						break;
					}
*/
					if(angle_one < 3){ //アーム1が伸びきっているのでこの角度でストップ
    1b92:	e0 90 b1 02 	lds	r14, 0x02B1
    1b96:	f0 90 b2 02 	lds	r15, 0x02B2
    1b9a:	00 91 b3 02 	lds	r16, 0x02B3
    1b9e:	10 91 b4 02 	lds	r17, 0x02B4
    1ba2:	c8 01       	movw	r24, r16
    1ba4:	b7 01       	movw	r22, r14
    1ba6:	20 e0       	ldi	r18, 0x00	; 0
    1ba8:	30 e0       	ldi	r19, 0x00	; 0
    1baa:	40 e4       	ldi	r20, 0x40	; 64
    1bac:	50 e4       	ldi	r21, 0x40	; 64
    1bae:	0e 94 d7 14 	call	0x29ae	; 0x29ae <__ltsf2>
    1bb2:	88 23       	and	r24, r24
    1bb4:	4c f5       	brge	.+82     	; 0x1c08 <main+0x180>
						arm_one_stop();
    1bb6:	0e 94 8b 04 	call	0x916	; 0x916 <arm_one_stop>
						if(angle_twe < 75){ //アーム2が伸びきっていないのでこの角度まで伸ばす
    1bba:	e0 90 a4 02 	lds	r14, 0x02A4
    1bbe:	f0 90 a5 02 	lds	r15, 0x02A5
    1bc2:	00 91 a6 02 	lds	r16, 0x02A6
    1bc6:	10 91 a7 02 	lds	r17, 0x02A7
    1bca:	c8 01       	movw	r24, r16
    1bcc:	b7 01       	movw	r22, r14
    1bce:	20 e0       	ldi	r18, 0x00	; 0
    1bd0:	30 e0       	ldi	r19, 0x00	; 0
    1bd2:	46 e9       	ldi	r20, 0x96	; 150
    1bd4:	52 e4       	ldi	r21, 0x42	; 66
    1bd6:	0e 94 d7 14 	call	0x29ae	; 0x29ae <__ltsf2>
    1bda:	88 23       	and	r24, r24
    1bdc:	2c f4       	brge	.+10     	; 0x1be8 <main+0x160>
							arm_twe_strat0(70,70);
    1bde:	86 e4       	ldi	r24, 0x46	; 70
    1be0:	90 e0       	ldi	r25, 0x00	; 0
    1be2:	66 e4       	ldi	r22, 0x46	; 70
    1be4:	70 e0       	ldi	r23, 0x00	; 0
    1be6:	97 c0       	rjmp	.+302    	; 0x1d16 <main+0x28e>

						}else if(angle_twe > 85){
    1be8:	c8 01       	movw	r24, r16
    1bea:	b7 01       	movw	r22, r14
    1bec:	20 e0       	ldi	r18, 0x00	; 0
    1bee:	30 e0       	ldi	r19, 0x00	; 0
    1bf0:	4a ea       	ldi	r20, 0xAA	; 170
    1bf2:	52 e4       	ldi	r21, 0x42	; 66
    1bf4:	0e 94 a7 14 	call	0x294e	; 0x294e <__gtsf2>
    1bf8:	18 16       	cp	r1, r24
    1bfa:	1c f4       	brge	.+6      	; 0x1c02 <main+0x17a>
							arm_twe_back0(70,70);
    1bfc:	86 e4       	ldi	r24, 0x46	; 70
    1bfe:	90 e0       	ldi	r25, 0x00	; 0
    1c00:	9d c0       	rjmp	.+314    	; 0x1d3c <main+0x2b4>
						}else {
							arm_twe_stop();
    1c02:	0e 94 66 05 	call	0xacc	; 0xacc <arm_twe_stop>
    1c06:	82 c1       	rjmp	.+772    	; 0x1f0c <main+0x484>
							break;
						}
					}else {
						//最初引っかからないようにアーム2を少し伸ばす
						if(angle_one > 80){
    1c08:	c8 01       	movw	r24, r16
    1c0a:	b7 01       	movw	r22, r14
    1c0c:	20 e0       	ldi	r18, 0x00	; 0
    1c0e:	30 e0       	ldi	r19, 0x00	; 0
    1c10:	40 ea       	ldi	r20, 0xA0	; 160
    1c12:	52 e4       	ldi	r21, 0x42	; 66
    1c14:	0e 94 a7 14 	call	0x294e	; 0x294e <__gtsf2>
    1c18:	18 16       	cp	r1, r24
    1c1a:	4c f5       	brge	.+82     	; 0x1c6e <main+0x1e6>
							if(angle_apex < 14){
    1c1c:	60 91 c5 02 	lds	r22, 0x02C5
    1c20:	70 91 c6 02 	lds	r23, 0x02C6
    1c24:	80 91 c7 02 	lds	r24, 0x02C7
    1c28:	90 91 c8 02 	lds	r25, 0x02C8
    1c2c:	20 e0       	ldi	r18, 0x00	; 0
    1c2e:	30 e0       	ldi	r19, 0x00	; 0
    1c30:	40 e6       	ldi	r20, 0x60	; 96
    1c32:	51 e4       	ldi	r21, 0x41	; 65
    1c34:	0e 94 d7 14 	call	0x29ae	; 0x29ae <__ltsf2>
    1c38:	88 23       	and	r24, r24
    1c3a:	cc f4       	brge	.+50     	; 0x1c6e <main+0x1e6>
								arm_one_stop();
    1c3c:	0e 94 8b 04 	call	0x916	; 0x916 <arm_one_stop>
								arm_twe_strat1(200);
    1c40:	88 ec       	ldi	r24, 0xC8	; 200
    1c42:	90 e0       	ldi	r25, 0x00	; 0
    1c44:	0e 94 cd 04 	call	0x99a	; 0x99a <arm_twe_strat1>
    1c48:	02 c0       	rjmp	.+4      	; 0x1c4e <main+0x1c6>
								while(angle_twe < 15){
									count_angle(); //角度計算
    1c4a:	0e 94 d6 09 	call	0x13ac	; 0x13ac <count_angle>
						//最初引っかからないようにアーム2を少し伸ばす
						if(angle_one > 80){
							if(angle_apex < 14){
								arm_one_stop();
								arm_twe_strat1(200);
								while(angle_twe < 15){
    1c4e:	60 91 a4 02 	lds	r22, 0x02A4
    1c52:	70 91 a5 02 	lds	r23, 0x02A5
    1c56:	80 91 a6 02 	lds	r24, 0x02A6
    1c5a:	90 91 a7 02 	lds	r25, 0x02A7
    1c5e:	20 e0       	ldi	r18, 0x00	; 0
    1c60:	30 e0       	ldi	r19, 0x00	; 0
    1c62:	40 e7       	ldi	r20, 0x70	; 112
    1c64:	51 e4       	ldi	r21, 0x41	; 65
    1c66:	0e 94 d7 14 	call	0x29ae	; 0x29ae <__ltsf2>
    1c6a:	87 fd       	sbrc	r24, 7
    1c6c:	ee cf       	rjmp	.-36     	; 0x1c4a <main+0x1c2>
								}
							}
						}


						if(angle_apex_plan - angle_apex > 2){ //アーム2の角度がとても浅い時
    1c6e:	e0 90 c9 02 	lds	r14, 0x02C9
    1c72:	f0 90 ca 02 	lds	r15, 0x02CA
    1c76:	00 91 cb 02 	lds	r16, 0x02CB
    1c7a:	10 91 cc 02 	lds	r17, 0x02CC
    1c7e:	a0 90 c5 02 	lds	r10, 0x02C5
    1c82:	b0 90 c6 02 	lds	r11, 0x02C6
    1c86:	c0 90 c7 02 	lds	r12, 0x02C7
    1c8a:	d0 90 c8 02 	lds	r13, 0x02C8
    1c8e:	c8 01       	movw	r24, r16
    1c90:	b7 01       	movw	r22, r14
    1c92:	a6 01       	movw	r20, r12
    1c94:	95 01       	movw	r18, r10
    1c96:	0e 94 4f 13 	call	0x269e	; 0x269e <__subsf3>
    1c9a:	20 e0       	ldi	r18, 0x00	; 0
    1c9c:	30 e0       	ldi	r19, 0x00	; 0
    1c9e:	40 e0       	ldi	r20, 0x00	; 0
    1ca0:	50 e4       	ldi	r21, 0x40	; 64
    1ca2:	0e 94 a7 14 	call	0x294e	; 0x294e <__gtsf2>
    1ca6:	18 16       	cp	r1, r24
    1ca8:	d4 f4       	brge	.+52     	; 0x1cde <main+0x256>
							if(angle_twe > 80){ //この角度以上の時はアーム2ストップ
    1caa:	60 91 a4 02 	lds	r22, 0x02A4
    1cae:	70 91 a5 02 	lds	r23, 0x02A5
    1cb2:	80 91 a6 02 	lds	r24, 0x02A6
    1cb6:	90 91 a7 02 	lds	r25, 0x02A7
    1cba:	20 e0       	ldi	r18, 0x00	; 0
    1cbc:	30 e0       	ldi	r19, 0x00	; 0
    1cbe:	40 ea       	ldi	r20, 0xA0	; 160
    1cc0:	52 e4       	ldi	r21, 0x42	; 66
    1cc2:	0e 94 a7 14 	call	0x294e	; 0x294e <__gtsf2>
    1cc6:	18 16       	cp	r1, r24
    1cc8:	0c f4       	brge	.+2      	; 0x1ccc <main+0x244>
    1cca:	3d c0       	rjmp	.+122    	; 0x1d46 <main+0x2be>
								arm_twe_stop();

							}else {
								arm_twe_strat1(150);
    1ccc:	86 e9       	ldi	r24, 0x96	; 150
    1cce:	90 e0       	ldi	r25, 0x00	; 0
    1cd0:	0e 94 cd 04 	call	0x99a	; 0x99a <arm_twe_strat1>
								arm_one_strat1(200);
    1cd4:	88 ec       	ldi	r24, 0xC8	; 200
    1cd6:	90 e0       	ldi	r25, 0x00	; 0
    1cd8:	0e 94 f2 03 	call	0x7e4	; 0x7e4 <arm_one_strat1>
    1cdc:	36 c0       	rjmp	.+108    	; 0x1d4a <main+0x2c2>
							}
						}else {
							if((angle_apex < angle_apex_plan) && (angle_twe < 85)){
    1cde:	c6 01       	movw	r24, r12
    1ce0:	b5 01       	movw	r22, r10
    1ce2:	a8 01       	movw	r20, r16
    1ce4:	97 01       	movw	r18, r14
    1ce6:	0e 94 d7 14 	call	0x29ae	; 0x29ae <__ltsf2>
    1cea:	88 23       	and	r24, r24
    1cec:	bc f4       	brge	.+46     	; 0x1d1c <main+0x294>
    1cee:	60 91 a4 02 	lds	r22, 0x02A4
    1cf2:	70 91 a5 02 	lds	r23, 0x02A5
    1cf6:	80 91 a6 02 	lds	r24, 0x02A6
    1cfa:	90 91 a7 02 	lds	r25, 0x02A7
    1cfe:	20 e0       	ldi	r18, 0x00	; 0
    1d00:	30 e0       	ldi	r19, 0x00	; 0
    1d02:	4a ea       	ldi	r20, 0xAA	; 170
    1d04:	52 e4       	ldi	r21, 0x42	; 66
    1d06:	0e 94 d7 14 	call	0x29ae	; 0x29ae <__ltsf2>
    1d0a:	88 23       	and	r24, r24
    1d0c:	3c f4       	brge	.+14     	; 0x1d1c <main+0x294>
								arm_twe_strat0(100, 150); //角度小さいから伸ばす
    1d0e:	84 e6       	ldi	r24, 0x64	; 100
    1d10:	90 e0       	ldi	r25, 0x00	; 0
    1d12:	66 e9       	ldi	r22, 0x96	; 150
    1d14:	70 e0       	ldi	r23, 0x00	; 0
    1d16:	0e 94 a0 04 	call	0x940	; 0x940 <arm_twe_strat0>
    1d1a:	17 c0       	rjmp	.+46     	; 0x1d4a <main+0x2c2>
						//		arm_twe_strat_stop();
							}
							else if(angle_twe > angle_apex_plan){
    1d1c:	60 91 a4 02 	lds	r22, 0x02A4
    1d20:	70 91 a5 02 	lds	r23, 0x02A5
    1d24:	80 91 a6 02 	lds	r24, 0x02A6
    1d28:	90 91 a7 02 	lds	r25, 0x02A7
    1d2c:	a8 01       	movw	r20, r16
    1d2e:	97 01       	movw	r18, r14
    1d30:	0e 94 a7 14 	call	0x294e	; 0x294e <__gtsf2>
    1d34:	18 16       	cp	r1, r24
    1d36:	3c f4       	brge	.+14     	; 0x1d46 <main+0x2be>
								arm_twe_back0(80, 70); //角度大きいから縮む
    1d38:	80 e5       	ldi	r24, 0x50	; 80
    1d3a:	90 e0       	ldi	r25, 0x00	; 0
    1d3c:	66 e4       	ldi	r22, 0x46	; 70
    1d3e:	70 e0       	ldi	r23, 0x00	; 0
    1d40:	0e 94 03 05 	call	0xa06	; 0xa06 <arm_twe_back0>
    1d44:	02 c0       	rjmp	.+4      	; 0x1d4a <main+0x2c2>
						//		arm_twe_back_stop();
							}else {
								arm_twe_stop();
    1d46:	0e 94 66 05 	call	0xacc	; 0xacc <arm_twe_stop>
	return SwitchRecv[1] & _BV(PS_R1);
}

// △キーが押されているか返す
inline bool ps_triangle(void){
	return SwitchRecv[1] & _BV(PS_TRIANGLE);
    1d4a:	80 91 b7 02 	lds	r24, 0x02B7
    1d4e:	90 91 b8 02 	lds	r25, 0x02B8

			if(angle_one > 3){

				arm_one_strat0(0, 200); //(PWM初期値, カウンター)

				while(ps_triangle()){
    1d52:	84 fd       	sbrc	r24, 4
    1d54:	18 cf       	rjmp	.-464    	; 0x1b86 <main+0xfe>
    1d56:	da c0       	rjmp	.+436    	; 0x1f0c <main+0x484>
	return SwitchRecv[1] & _BV(PS_TRIANGLE);
}

// ×キーが押されているか返す
inline bool ps_cross(void){
	return SwitchRecv[1] & _BV(PS_CROSS);
    1d58:	80 91 b7 02 	lds	r24, 0x02B7
    1d5c:	90 91 b8 02 	lds	r25, 0x02B8
			}else {
				arm_one_stop();
				arm_twe_stop();
			
			}
		}else if(ps_cross()){ //アーム縮める
    1d60:	86 ff       	sbrs	r24, 6
    1d62:	02 c1       	rjmp	.+516    	; 0x1f68 <main+0x4e0>
			if(angle_one < 85){
    1d64:	60 91 b1 02 	lds	r22, 0x02B1
    1d68:	70 91 b2 02 	lds	r23, 0x02B2
    1d6c:	80 91 b3 02 	lds	r24, 0x02B3
    1d70:	90 91 b4 02 	lds	r25, 0x02B4
    1d74:	20 e0       	ldi	r18, 0x00	; 0
    1d76:	30 e0       	ldi	r19, 0x00	; 0
    1d78:	4a ea       	ldi	r20, 0xAA	; 170
    1d7a:	52 e4       	ldi	r21, 0x42	; 66
    1d7c:	0e 94 d7 14 	call	0x29ae	; 0x29ae <__ltsf2>
    1d80:	88 23       	and	r24, r24
    1d82:	0c f0       	brlt	.+2      	; 0x1d86 <main+0x2fe>
    1d84:	f1 c0       	rjmp	.+482    	; 0x1f68 <main+0x4e0>

				arm_one_back0(0, 200); //(PWM初期値, カウンター)
    1d86:	80 e0       	ldi	r24, 0x00	; 0
    1d88:	90 e0       	ldi	r25, 0x00	; 0
    1d8a:	68 ec       	ldi	r22, 0xC8	; 200
    1d8c:	70 e0       	ldi	r23, 0x00	; 0
    1d8e:	0e 94 28 04 	call	0x850	; 0x850 <arm_one_back0>

				while(1){

					count_angle(); //角度計算
    1d92:	0e 94 d6 09 	call	0x13ac	; 0x13ac <count_angle>

					arm_one_back1(255); //(PWM)
    1d96:	8f ef       	ldi	r24, 0xFF	; 255
    1d98:	90 e0       	ldi	r25, 0x00	; 0
    1d9a:	0e 94 55 04 	call	0x8aa	; 0x8aa <arm_one_back1>
	return SwitchRecv[1] & _BV(PS_TRIANGLE);
}

// ×キーが押されているか返す
inline bool ps_cross(void){
	return SwitchRecv[1] & _BV(PS_CROSS);
    1d9e:	80 91 b7 02 	lds	r24, 0x02B7
    1da2:	90 91 b8 02 	lds	r25, 0x02B8

					count_angle(); //角度計算

					arm_one_back1(255); //(PWM)

					if(!ps_cross()){ //離された時止める
    1da6:	86 ff       	sbrs	r24, 6
    1da8:	dc c0       	rjmp	.+440    	; 0x1f62 <main+0x4da>
						arm_one_back_stop();
						arm_twe_stop();
						break;
					}

					if(angle_one > 91){ //葉っぱを運ぶ位置へアームを移動
    1daa:	60 91 b1 02 	lds	r22, 0x02B1
    1dae:	70 91 b2 02 	lds	r23, 0x02B2
    1db2:	80 91 b3 02 	lds	r24, 0x02B3
    1db6:	90 91 b4 02 	lds	r25, 0x02B4
    1dba:	20 e0       	ldi	r18, 0x00	; 0
    1dbc:	30 e0       	ldi	r19, 0x00	; 0
    1dbe:	46 eb       	ldi	r20, 0xB6	; 182
    1dc0:	52 e4       	ldi	r21, 0x42	; 66
    1dc2:	0e 94 a7 14 	call	0x294e	; 0x294e <__gtsf2>
    1dc6:	18 16       	cp	r1, r24
    1dc8:	5c f5       	brge	.+86     	; 0x1e20 <main+0x398>
						arm_one_stop();
    1dca:	0e 94 8b 04 	call	0x916	; 0x916 <arm_one_stop>
						if(angle_apex < 25){
    1dce:	60 91 c5 02 	lds	r22, 0x02C5
    1dd2:	70 91 c6 02 	lds	r23, 0x02C6
    1dd6:	80 91 c7 02 	lds	r24, 0x02C7
    1dda:	90 91 c8 02 	lds	r25, 0x02C8
    1dde:	20 e0       	ldi	r18, 0x00	; 0
    1de0:	30 e0       	ldi	r19, 0x00	; 0
    1de2:	48 ec       	ldi	r20, 0xC8	; 200
    1de4:	51 e4       	ldi	r21, 0x41	; 65
    1de6:	0e 94 d7 14 	call	0x29ae	; 0x29ae <__ltsf2>
    1dea:	88 23       	and	r24, r24
    1dec:	0c f0       	brlt	.+2      	; 0x1df0 <main+0x368>
    1dee:	55 c0       	rjmp	.+170    	; 0x1e9a <main+0x412>
							arm_twe_strat1(200);
    1df0:	88 ec       	ldi	r24, 0xC8	; 200
    1df2:	90 e0       	ldi	r25, 0x00	; 0
    1df4:	0e 94 cd 04 	call	0x99a	; 0x99a <arm_twe_strat1>
    1df8:	02 c0       	rjmp	.+4      	; 0x1dfe <main+0x376>

							while(angle_apex < 25){
								count_angle(); //角度計算
    1dfa:	0e 94 d6 09 	call	0x13ac	; 0x13ac <count_angle>
					if(angle_one > 91){ //葉っぱを運ぶ位置へアームを移動
						arm_one_stop();
						if(angle_apex < 25){
							arm_twe_strat1(200);

							while(angle_apex < 25){
    1dfe:	60 91 c5 02 	lds	r22, 0x02C5
    1e02:	70 91 c6 02 	lds	r23, 0x02C6
    1e06:	80 91 c7 02 	lds	r24, 0x02C7
    1e0a:	90 91 c8 02 	lds	r25, 0x02C8
    1e0e:	20 e0       	ldi	r18, 0x00	; 0
    1e10:	30 e0       	ldi	r19, 0x00	; 0
    1e12:	48 ec       	ldi	r20, 0xC8	; 200
    1e14:	51 e4       	ldi	r21, 0x41	; 65
    1e16:	0e 94 d7 14 	call	0x29ae	; 0x29ae <__ltsf2>
    1e1a:	87 fd       	sbrc	r24, 7
    1e1c:	ee cf       	rjmp	.-36     	; 0x1dfa <main+0x372>
    1e1e:	3d c0       	rjmp	.+122    	; 0x1e9a <main+0x412>
								count_angle(); //角度計算
							}
						}
						arm_twe_stop();
					}else {
						if(angle_apex < 55){ //葉っぱを運ぶ位置へアームを移動
    1e20:	e0 90 c5 02 	lds	r14, 0x02C5
    1e24:	f0 90 c6 02 	lds	r15, 0x02C6
    1e28:	00 91 c7 02 	lds	r16, 0x02C7
    1e2c:	10 91 c8 02 	lds	r17, 0x02C8
    1e30:	c8 01       	movw	r24, r16
    1e32:	b7 01       	movw	r22, r14
    1e34:	20 e0       	ldi	r18, 0x00	; 0
    1e36:	30 e0       	ldi	r19, 0x00	; 0
    1e38:	4c e5       	ldi	r20, 0x5C	; 92
    1e3a:	52 e4       	ldi	r21, 0x42	; 66
    1e3c:	0e 94 d7 14 	call	0x29ae	; 0x29ae <__ltsf2>
    1e40:	88 23       	and	r24, r24
    1e42:	2c f4       	brge	.+10     	; 0x1e4e <main+0x3c6>
					//		arm_one_back1(150);
							arm_twe_strat1(200);
    1e44:	88 ec       	ldi	r24, 0xC8	; 200
    1e46:	90 e0       	ldi	r25, 0x00	; 0
    1e48:	0e 94 cd 04 	call	0x99a	; 0x99a <arm_twe_strat1>
    1e4c:	a2 cf       	rjmp	.-188    	; 0x1d92 <main+0x30a>

						}else {
							if(angle_apex < angle_apex_plan){
    1e4e:	a0 90 c9 02 	lds	r10, 0x02C9
    1e52:	b0 90 ca 02 	lds	r11, 0x02CA
    1e56:	c0 90 cb 02 	lds	r12, 0x02CB
    1e5a:	d0 90 cc 02 	lds	r13, 0x02CC
    1e5e:	c8 01       	movw	r24, r16
    1e60:	b7 01       	movw	r22, r14
    1e62:	a6 01       	movw	r20, r12
    1e64:	95 01       	movw	r18, r10
    1e66:	0e 94 d7 14 	call	0x29ae	; 0x29ae <__ltsf2>
    1e6a:	88 23       	and	r24, r24
    1e6c:	3c f4       	brge	.+14     	; 0x1e7c <main+0x3f4>
								arm_twe_strat0(50, 80); //角度小さいから伸ばす
    1e6e:	82 e3       	ldi	r24, 0x32	; 50
    1e70:	90 e0       	ldi	r25, 0x00	; 0
    1e72:	60 e5       	ldi	r22, 0x50	; 80
    1e74:	70 e0       	ldi	r23, 0x00	; 0
    1e76:	0e 94 a0 04 	call	0x940	; 0x940 <arm_twe_strat0>
    1e7a:	8b cf       	rjmp	.-234    	; 0x1d92 <main+0x30a>

							}
							else if(angle_apex > angle_apex_plan){
    1e7c:	c8 01       	movw	r24, r16
    1e7e:	b7 01       	movw	r22, r14
    1e80:	a6 01       	movw	r20, r12
    1e82:	95 01       	movw	r18, r10
    1e84:	0e 94 a7 14 	call	0x294e	; 0x294e <__gtsf2>
    1e88:	18 16       	cp	r1, r24
    1e8a:	3c f4       	brge	.+14     	; 0x1e9a <main+0x412>
								arm_twe_back0(60, 150); //角度大きいから縮む
    1e8c:	8c e3       	ldi	r24, 0x3C	; 60
    1e8e:	90 e0       	ldi	r25, 0x00	; 0
    1e90:	66 e9       	ldi	r22, 0x96	; 150
    1e92:	70 e0       	ldi	r23, 0x00	; 0
    1e94:	0e 94 03 05 	call	0xa06	; 0xa06 <arm_twe_back0>
    1e98:	7c cf       	rjmp	.-264    	; 0x1d92 <main+0x30a>

							}else {
								arm_twe_stop();
    1e9a:	0e 94 66 05 	call	0xacc	; 0xacc <arm_twe_stop>
    1e9e:	79 cf       	rjmp	.-270    	; 0x1d92 <main+0x30a>

//								arm_one_back1(254);

	//R1を押しながら△Ｘを押すとアーム1だけ操作
		while(ps_r1()){
			leaf(); //アーム開閉
    1ea0:	0e 94 ee 06 	call	0xddc	; 0xddc <leaf>
			count_angle(); //角度計算
    1ea4:	0e 94 d6 09 	call	0x13ac	; 0x13ac <count_angle>
	return SwitchRecv[1] & _BV(PS_R1);
}

// △キーが押されているか返す
inline bool ps_triangle(void){
	return SwitchRecv[1] & _BV(PS_TRIANGLE);
    1ea8:	80 91 b7 02 	lds	r24, 0x02B7
    1eac:	90 91 b8 02 	lds	r25, 0x02B8
	//R1を押しながら△Ｘを押すとアーム1だけ操作
		while(ps_r1()){
			leaf(); //アーム開閉
			count_angle(); //角度計算

			if(ps_triangle()){
    1eb0:	84 ff       	sbrs	r24, 4
    1eb2:	2f c0       	rjmp	.+94     	; 0x1f12 <main+0x48a>
//				angle_twe_sample = angle_twe;

				if(adc_convert(0) <= 580){ //アーム1伸びる
    1eb4:	80 e0       	ldi	r24, 0x00	; 0
    1eb6:	0e 94 01 01 	call	0x202	; 0x202 <adc_convert>
    1eba:	85 54       	subi	r24, 0x45	; 69
    1ebc:	92 40       	sbci	r25, 0x02	; 2
    1ebe:	0c f0       	brlt	.+2      	; 0x1ec2 <main+0x43a>
    1ec0:	53 c0       	rjmp	.+166    	; 0x1f68 <main+0x4e0>

					arm_one_strat0(0, 255); //(PWM初期値, カウンター)
    1ec2:	80 e0       	ldi	r24, 0x00	; 0
    1ec4:	90 e0       	ldi	r25, 0x00	; 0
    1ec6:	6f ef       	ldi	r22, 0xFF	; 255
    1ec8:	70 e0       	ldi	r23, 0x00	; 0
    1eca:	0e 94 c5 03 	call	0x78a	; 0x78a <arm_one_strat0>

					while(1){
						count_angle(); //角度計算
    1ece:	0e 94 d6 09 	call	0x13ac	; 0x13ac <count_angle>

						if(adc_convert(0) <= 580){
    1ed2:	80 e0       	ldi	r24, 0x00	; 0
    1ed4:	0e 94 01 01 	call	0x202	; 0x202 <adc_convert>
    1ed8:	85 54       	subi	r24, 0x45	; 69
    1eda:	92 40       	sbci	r25, 0x02	; 2
    1edc:	74 f4       	brge	.+28     	; 0x1efa <main+0x472>
    1ede:	c4 01       	movw	r24, r8
    1ee0:	01 97       	sbiw	r24, 0x01	; 1
    1ee2:	f1 f7       	brne	.-4      	; 0x1ee0 <main+0x458>
							_delay_ms(5);
							if(adc_convert(0) <= 580){
    1ee4:	80 e0       	ldi	r24, 0x00	; 0
    1ee6:	0e 94 01 01 	call	0x202	; 0x202 <adc_convert>
    1eea:	85 54       	subi	r24, 0x45	; 69
    1eec:	92 40       	sbci	r25, 0x02	; 2
    1eee:	44 f4       	brge	.+16     	; 0x1f00 <main+0x478>
								arm_one_strat1(255); //(PWM)
    1ef0:	8f ef       	ldi	r24, 0xFF	; 255
    1ef2:	90 e0       	ldi	r25, 0x00	; 0
    1ef4:	0e 94 f2 03 	call	0x7e4	; 0x7e4 <arm_one_strat1>
    1ef8:	03 c0       	rjmp	.+6      	; 0x1f00 <main+0x478>
							}
						}else {
							arm_one_strat_stop();
    1efa:	0e 94 05 04 	call	0x80a	; 0x80a <arm_one_strat_stop>
    1efe:	38 c0       	rjmp	.+112    	; 0x1f70 <main+0x4e8>
	return SwitchRecv[1] & _BV(PS_R1);
}

// △キーが押されているか返す
inline bool ps_triangle(void){
	return SwitchRecv[1] & _BV(PS_TRIANGLE);
    1f00:	80 91 b7 02 	lds	r24, 0x02B7
    1f04:	90 91 b8 02 	lds	r25, 0x02B8
							arm_twe_back0(60, 80); //角度大きいから縮む
						}else{
							arm_twe_stop();
						}
*/
						if(!ps_triangle()){ //離された時止める
    1f08:	84 fd       	sbrc	r24, 4
    1f0a:	e1 cf       	rjmp	.-62     	; 0x1ece <main+0x446>
							arm_one_strat_stop();
    1f0c:	0e 94 05 04 	call	0x80a	; 0x80a <arm_one_strat_stop>
    1f10:	2d c0       	rjmp	.+90     	; 0x1f6c <main+0x4e4>
	return SwitchRecv[1] & _BV(PS_TRIANGLE);
}

// ×キーが押されているか返す
inline bool ps_cross(void){
	return SwitchRecv[1] & _BV(PS_CROSS);
    1f12:	80 91 b7 02 	lds	r24, 0x02B7
    1f16:	90 91 b8 02 	lds	r25, 0x02B8
				}else {
					arm_one_stop();//アーム1止まる
					arm_twe_stop();
				}

			}else if(ps_cross()){
    1f1a:	86 ff       	sbrs	r24, 6
    1f1c:	25 c0       	rjmp	.+74     	; 0x1f68 <main+0x4e0>
				if(adc_convert(0) > 192){//アーム1縮む
    1f1e:	80 e0       	ldi	r24, 0x00	; 0
    1f20:	0e 94 01 01 	call	0x202	; 0x202 <adc_convert>
    1f24:	81 3c       	cpi	r24, 0xC1	; 193
    1f26:	91 05       	cpc	r25, r1
    1f28:	fc f0       	brlt	.+62     	; 0x1f68 <main+0x4e0>
//					angle_twe_sample = angle_twe;

					arm_one_back0(0, 254);
    1f2a:	80 e0       	ldi	r24, 0x00	; 0
    1f2c:	90 e0       	ldi	r25, 0x00	; 0
    1f2e:	6e ef       	ldi	r22, 0xFE	; 254
    1f30:	70 e0       	ldi	r23, 0x00	; 0
    1f32:	0e 94 28 04 	call	0x850	; 0x850 <arm_one_back0>

					while(1){
						count_angle(); //角度計算
    1f36:	0e 94 d6 09 	call	0x13ac	; 0x13ac <count_angle>

						if(adc_convert(0) > 192){
    1f3a:	80 e0       	ldi	r24, 0x00	; 0
    1f3c:	0e 94 01 01 	call	0x202	; 0x202 <adc_convert>
    1f40:	81 3c       	cpi	r24, 0xC1	; 193
    1f42:	91 05       	cpc	r25, r1
    1f44:	5c f0       	brlt	.+22     	; 0x1f5c <main+0x4d4>
//							_delay_ms(5);
//							if(adc_convert(0) > 290){
								arm_one_back1(255);
    1f46:	8f ef       	ldi	r24, 0xFF	; 255
    1f48:	90 e0       	ldi	r25, 0x00	; 0
    1f4a:	0e 94 55 04 	call	0x8aa	; 0x8aa <arm_one_back1>
	return SwitchRecv[1] & _BV(PS_TRIANGLE);
}

// ×キーが押されているか返す
inline bool ps_cross(void){
	return SwitchRecv[1] & _BV(PS_CROSS);
    1f4e:	80 91 b7 02 	lds	r24, 0x02B7
    1f52:	90 91 b8 02 	lds	r25, 0x02B8
							arm_twe_back0(60, 80); //角度大きいから縮む
						}else {
							arm_twe_stop();
						}
*/
						if(!ps_cross()){ //離された時止める
    1f56:	86 fd       	sbrc	r24, 6
    1f58:	ee cf       	rjmp	.-36     	; 0x1f36 <main+0x4ae>
    1f5a:	03 c0       	rjmp	.+6      	; 0x1f62 <main+0x4da>
//							_delay_ms(5);
//							if(adc_convert(0) > 290){
								arm_one_back1(255);
//							}
						}else {
							arm_one_stop();
    1f5c:	0e 94 8b 04 	call	0x916	; 0x916 <arm_one_stop>
    1f60:	07 c0       	rjmp	.+14     	; 0x1f70 <main+0x4e8>
						}else {
							arm_twe_stop();
						}
*/
						if(!ps_cross()){ //離された時止める
							arm_one_back_stop();
    1f62:	0e 94 68 04 	call	0x8d0	; 0x8d0 <arm_one_back_stop>
    1f66:	02 c0       	rjmp	.+4      	; 0x1f6c <main+0x4e4>
				}else {
					arm_one_stop(); //アーム1止まる
					arm_twe_stop();
				}
			}else {
				arm_one_stop();
    1f68:	0e 94 8b 04 	call	0x916	; 0x916 <arm_one_stop>
				arm_twe_stop();
    1f6c:	0e 94 66 05 	call	0xacc	; 0xacc <arm_twe_stop>
	return SwitchRecv[1] & _BV(PS_L1);
}

// R1 キーが押されているか返す
inline bool ps_r1(void){
	return SwitchRecv[1] & _BV(PS_R1);
    1f70:	80 91 b7 02 	lds	r24, 0x02B7
    1f74:	90 91 b8 02 	lds	r25, 0x02B8


//								arm_one_back1(254);

	//R1を押しながら△Ｘを押すとアーム1だけ操作
		while(ps_r1()){
    1f78:	83 fd       	sbrc	r24, 3
    1f7a:	92 cf       	rjmp	.-220    	; 0x1ea0 <main+0x418>
    1f7c:	50 c0       	rjmp	.+160    	; 0x201e <main+0x596>
		}

	//R2を押しながら△Ｘを押すとアーム2だけ操作
		while(ps_r2()){

			leaf(); //アーム開閉
    1f7e:	0e 94 ee 06 	call	0xddc	; 0xddc <leaf>
	return SwitchRecv[1] & _BV(PS_R1);
}

// △キーが押されているか返す
inline bool ps_triangle(void){
	return SwitchRecv[1] & _BV(PS_TRIANGLE);
    1f82:	80 91 b7 02 	lds	r24, 0x02B7
    1f86:	90 91 b8 02 	lds	r25, 0x02B8
	//R2を押しながら△Ｘを押すとアーム2だけ操作
		while(ps_r2()){

			leaf(); //アーム開閉

			if(ps_triangle()){
    1f8a:	84 ff       	sbrs	r24, 4
    1f8c:	20 c0       	rjmp	.+64     	; 0x1fce <main+0x546>
				if(adc_convert(1) >= 451){
    1f8e:	81 e0       	ldi	r24, 0x01	; 1
    1f90:	0e 94 01 01 	call	0x202	; 0x202 <adc_convert>
    1f94:	83 5c       	subi	r24, 0xC3	; 195
    1f96:	91 40       	sbci	r25, 0x01	; 1
    1f98:	0c f4       	brge	.+2      	; 0x1f9c <main+0x514>
    1f9a:	3f c0       	rjmp	.+126    	; 0x201a <main+0x592>
					//アーム2伸びる
					arm_twe_strat0(0, 255); //(PWM初期値, カウンター)
    1f9c:	80 e0       	ldi	r24, 0x00	; 0
    1f9e:	90 e0       	ldi	r25, 0x00	; 0
    1fa0:	6f ef       	ldi	r22, 0xFF	; 255
    1fa2:	70 e0       	ldi	r23, 0x00	; 0
    1fa4:	0e 94 a0 04 	call	0x940	; 0x940 <arm_twe_strat0>

					while(1){
						if(adc_convert(1) >= 451){
    1fa8:	81 e0       	ldi	r24, 0x01	; 1
    1faa:	0e 94 01 01 	call	0x202	; 0x202 <adc_convert>
    1fae:	83 5c       	subi	r24, 0xC3	; 195
    1fb0:	91 40       	sbci	r25, 0x01	; 1
    1fb2:	54 f0       	brlt	.+20     	; 0x1fc8 <main+0x540>
							arm_twe_strat1(255); //(PWM)
    1fb4:	8f ef       	ldi	r24, 0xFF	; 255
    1fb6:	90 e0       	ldi	r25, 0x00	; 0
    1fb8:	0e 94 cd 04 	call	0x99a	; 0x99a <arm_twe_strat1>
	return SwitchRecv[1] & _BV(PS_R1);
}

// △キーが押されているか返す
inline bool ps_triangle(void){
	return SwitchRecv[1] & _BV(PS_TRIANGLE);
    1fbc:	80 91 b7 02 	lds	r24, 0x02B7
    1fc0:	90 91 b8 02 	lds	r25, 0x02B8
						}else {
							arm_twe_strat_stop();
							break;
						}

						if(!ps_triangle()){ //離された時止める
    1fc4:	84 fd       	sbrc	r24, 4
    1fc6:	f0 cf       	rjmp	.-32     	; 0x1fa8 <main+0x520>
							arm_twe_strat_stop();
    1fc8:	0e 94 e0 04 	call	0x9c0	; 0x9c0 <arm_twe_strat_stop>
    1fcc:	28 c0       	rjmp	.+80     	; 0x201e <main+0x596>
	return SwitchRecv[1] & _BV(PS_TRIANGLE);
}

// ×キーが押されているか返す
inline bool ps_cross(void){
	return SwitchRecv[1] & _BV(PS_CROSS);
    1fce:	80 91 b7 02 	lds	r24, 0x02B7
    1fd2:	90 91 b8 02 	lds	r25, 0x02B8

				}else {
					arm_twe_stop();
				}

			}else if(ps_cross()){
    1fd6:	86 ff       	sbrs	r24, 6
    1fd8:	20 c0       	rjmp	.+64     	; 0x201a <main+0x592>
				if(adc_convert(1) <= 660){
    1fda:	81 e0       	ldi	r24, 0x01	; 1
    1fdc:	0e 94 01 01 	call	0x202	; 0x202 <adc_convert>
    1fe0:	85 59       	subi	r24, 0x95	; 149
    1fe2:	92 40       	sbci	r25, 0x02	; 2
    1fe4:	d4 f4       	brge	.+52     	; 0x201a <main+0x592>
					//アーム2縮む
					arm_twe_back0(0, 255);
    1fe6:	80 e0       	ldi	r24, 0x00	; 0
    1fe8:	90 e0       	ldi	r25, 0x00	; 0
    1fea:	6f ef       	ldi	r22, 0xFF	; 255
    1fec:	70 e0       	ldi	r23, 0x00	; 0
    1fee:	0e 94 03 05 	call	0xa06	; 0xa06 <arm_twe_back0>

					while(1){
						if(adc_convert(1) <= 665){
    1ff2:	81 e0       	ldi	r24, 0x01	; 1
    1ff4:	0e 94 01 01 	call	0x202	; 0x202 <adc_convert>
    1ff8:	8a 59       	subi	r24, 0x9A	; 154
    1ffa:	92 40       	sbci	r25, 0x02	; 2
    1ffc:	5c f4       	brge	.+22     	; 0x2014 <main+0x58c>
							arm_twe_back1(255);
    1ffe:	8f ef       	ldi	r24, 0xFF	; 255
    2000:	90 e0       	ldi	r25, 0x00	; 0
    2002:	0e 94 30 05 	call	0xa60	; 0xa60 <arm_twe_back1>
	return SwitchRecv[1] & _BV(PS_TRIANGLE);
}

// ×キーが押されているか返す
inline bool ps_cross(void){
	return SwitchRecv[1] & _BV(PS_CROSS);
    2006:	80 91 b7 02 	lds	r24, 0x02B7
    200a:	90 91 b8 02 	lds	r25, 0x02B8
						}else {
							arm_twe_back_stop();
							break;
						}

						if(!ps_cross()){ //離された時止める
    200e:	86 fd       	sbrc	r24, 6
    2010:	f0 cf       	rjmp	.-32     	; 0x1ff2 <main+0x56a>
    2012:	03 c0       	rjmp	.+6      	; 0x201a <main+0x592>

					while(1){
						if(adc_convert(1) <= 665){
							arm_twe_back1(255);
						}else {
							arm_twe_back_stop();
    2014:	0e 94 43 05 	call	0xa86	; 0xa86 <arm_twe_back_stop>
    2018:	02 c0       	rjmp	.+4      	; 0x201e <main+0x596>
					//アーム2止まる
					arm_twe_stop();
				}

			}else {
				arm_twe_stop();		
    201a:	0e 94 66 05 	call	0xacc	; 0xacc <arm_twe_stop>
	return SwitchRecv[1] & _BV(PS_L2);
}

// R2 キーが押されているか返す
inline bool ps_r2(void){
	return SwitchRecv[1] & _BV(PS_R2);
    201e:	80 91 b7 02 	lds	r24, 0x02B7
    2022:	90 91 b8 02 	lds	r25, 0x02B8
				arm_twe_stop();
			}
		}

	//R2を押しながら△Ｘを押すとアーム2だけ操作
		while(ps_r2()){
    2026:	81 fd       	sbrc	r24, 1
    2028:	aa cf       	rjmp	.-172    	; 0x1f7e <main+0x4f6>
				arm_twe_stop();		
			}
		}


		count_angle(); //角度計算
    202a:	0e 94 d6 09 	call	0x13ac	; 0x13ac <count_angle>

		debug_angle(); //デバッグ
    202e:	0e 94 5d 0a 	call	0x14ba	; 0x14ba <debug_angle>
	return SwitchRecv[1] & _BV(PS_R2);
}

// L1 キーが押されているか返す
inline bool ps_l1(void){
	return SwitchRecv[1] & _BV(PS_L1);
    2032:	80 91 b7 02 	lds	r24, 0x02B7
    2036:	90 91 b8 02 	lds	r25, 0x02B8


/*-------------------MAX足回り------------------*/
		flag_sro = 0;

		if(ps_l1()){
    203a:	82 fd       	sbrc	r24, 2
    203c:	03 c0       	rjmp	.+6      	; 0x2044 <main+0x5bc>
    203e:	00 e0       	ldi	r16, 0x00	; 0
    2040:	10 e0       	ldi	r17, 0x00	; 0
    2042:	04 c0       	rjmp	.+8      	; 0x204c <main+0x5c4>
			flag_sro = 1;

			slow_move();// スロー
    2044:	0e 94 90 08 	call	0x1120	; 0x1120 <slow_move>
    2048:	01 e0       	ldi	r16, 0x01	; 1
    204a:	10 e0       	ldi	r17, 0x00	; 0
#define sbi(BYTE,BIT) BYTE|=_BV(BIT) // BYTEの指定BITに1をセット
#define cbi(BYTE,BIT) BYTE&=~_BV(BIT) // BYTEの指定BITをクリア

// 上キーが押されているか返す
inline bool ps_top(void){
	return SwitchRecv[0] & _BV(PS_UP);
    204c:	80 91 b5 02 	lds	r24, 0x02B5
    2050:	90 91 b6 02 	lds	r25, 0x02B6
			flag_sro = 1;

			slow_move();// スロー
		}

		if(ps_top()){
    2054:	84 ff       	sbrs	r24, 4
    2056:	83 c0       	rjmp	.+262    	; 0x215e <main+0x6d6>
			flag_stop1 = 0;		
    2058:	10 92 97 02 	sts	0x0297, r1
    205c:	10 92 96 02 	sts	0x0296, r1

			if(flag_sro == 0){
    2060:	01 15       	cp	r16, r1
    2062:	11 05       	cpc	r17, r1
    2064:	31 f4       	brne	.+12     	; 0x2072 <main+0x5ea>
				strat0(0,255); //(PWM初期値, カウンター)
    2066:	80 e0       	ldi	r24, 0x00	; 0
    2068:	90 e0       	ldi	r25, 0x00	; 0
    206a:	6f ef       	ldi	r22, 0xFF	; 255
    206c:	70 e0       	ldi	r23, 0x00	; 0
    206e:	0e 94 5e 01 	call	0x2bc	; 0x2bc <strat0>

			}

			while(1){
				count_angle(); //角度計算
    2072:	0e 94 d6 09 	call	0x13ac	; 0x13ac <count_angle>

				strat1(255); //(PWM数値)
    2076:	8f ef       	ldi	r24, 0xFF	; 255
    2078:	90 e0       	ldi	r25, 0x00	; 0
    207a:	0e 94 a7 01 	call	0x34e	; 0x34e <strat1>
#define sbi(BYTE,BIT) BYTE|=_BV(BIT) // BYTEの指定BITに1をセット
#define cbi(BYTE,BIT) BYTE&=~_BV(BIT) // BYTEの指定BITをクリア

// 上キーが押されているか返す
inline bool ps_top(void){
	return SwitchRecv[0] & _BV(PS_UP);
    207e:	80 91 b5 02 	lds	r24, 0x02B5
    2082:	90 91 b6 02 	lds	r25, 0x02B6
			while(1){
				count_angle(); //角度計算

				strat1(255); //(PWM数値)

				if(!ps_top()){
    2086:	84 fd       	sbrc	r24, 4
    2088:	03 c0       	rjmp	.+6      	; 0x2090 <main+0x608>
					strat_stop();
    208a:	0e 94 d5 01 	call	0x3aa	; 0x3aa <strat_stop>
    208e:	f2 c0       	rjmp	.+484    	; 0x2274 <main+0x7ec>
	return SwitchRecv[1] & _BV(PS_R2);
}

// L1 キーが押されているか返す
inline bool ps_l1(void){
	return SwitchRecv[1] & _BV(PS_L1);
    2090:	80 91 b7 02 	lds	r24, 0x02B7
    2094:	90 91 b8 02 	lds	r25, 0x02B8
				if(!ps_top()){
					strat_stop();
					break;
				}

				if(ps_l1()){
    2098:	82 ff       	sbrs	r24, 2
    209a:	02 c0       	rjmp	.+4      	; 0x20a0 <main+0x618>
					slow_move();
    209c:	0e 94 90 08 	call	0x1120	; 0x1120 <slow_move>
	return SwitchRecv[1] & _BV(PS_L1);
}

// R1 キーが押されているか返す
inline bool ps_r1(void){
	return SwitchRecv[1] & _BV(PS_R1);
    20a0:	80 91 b7 02 	lds	r24, 0x02B7
    20a4:	90 91 b8 02 	lds	r25, 0x02B8

				if(ps_l1()){
					slow_move();
				}
				//アーム制御(アーム1)
				if(ps_r1()){
    20a8:	83 ff       	sbrs	r24, 3
    20aa:	1f c0       	rjmp	.+62     	; 0x20ea <main+0x662>
	return SwitchRecv[1] & _BV(PS_R1);
}

// △キーが押されているか返す
inline bool ps_triangle(void){
	return SwitchRecv[1] & _BV(PS_TRIANGLE);
    20ac:	80 91 b7 02 	lds	r24, 0x02B7
    20b0:	90 91 b8 02 	lds	r25, 0x02B8
				if(ps_l1()){
					slow_move();
				}
				//アーム制御(アーム1)
				if(ps_r1()){
					if(ps_triangle()){
    20b4:	84 ff       	sbrs	r24, 4
    20b6:	0a c0       	rjmp	.+20     	; 0x20cc <main+0x644>
						if(adc_convert(0) <= 580){
    20b8:	80 e0       	ldi	r24, 0x00	; 0
    20ba:	0e 94 01 01 	call	0x202	; 0x202 <adc_convert>
    20be:	85 54       	subi	r24, 0x45	; 69
    20c0:	92 40       	sbci	r25, 0x02	; 2
    20c2:	0c f0       	brlt	.+2      	; 0x20c6 <main+0x63e>
    20c4:	44 c0       	rjmp	.+136    	; 0x214e <main+0x6c6>
							r1_strat();
    20c6:	0e 94 1a 0d 	call	0x1a34	; 0x1a34 <r1_strat>
    20ca:	d3 cf       	rjmp	.-90     	; 0x2072 <main+0x5ea>
	return SwitchRecv[1] & _BV(PS_TRIANGLE);
}

// ×キーが押されているか返す
inline bool ps_cross(void){
	return SwitchRecv[1] & _BV(PS_CROSS);
    20cc:	80 91 b7 02 	lds	r24, 0x02B7
    20d0:	90 91 b8 02 	lds	r25, 0x02B8
						if(adc_convert(0) <= 580){
							r1_strat();
						}else {
							arm_one_stop();
						}
					}else if(ps_cross()){
    20d4:	86 ff       	sbrs	r24, 6
    20d6:	3b c0       	rjmp	.+118    	; 0x214e <main+0x6c6>
						if(adc_convert(0) > 192){
    20d8:	80 e0       	ldi	r24, 0x00	; 0
    20da:	0e 94 01 01 	call	0x202	; 0x202 <adc_convert>
    20de:	81 3c       	cpi	r24, 0xC1	; 193
    20e0:	91 05       	cpc	r25, r1
    20e2:	ac f1       	brlt	.+106    	; 0x214e <main+0x6c6>
							r1_back();
    20e4:	0e 94 34 0d 	call	0x1a68	; 0x1a68 <r1_back>
    20e8:	c4 cf       	rjmp	.-120    	; 0x2072 <main+0x5ea>
	return SwitchRecv[1] & _BV(PS_R1);
}

// △キーが押されているか返す
inline bool ps_triangle(void){
	return SwitchRecv[1] & _BV(PS_TRIANGLE);
    20ea:	80 91 b7 02 	lds	r24, 0x02B7
    20ee:	90 91 b8 02 	lds	r25, 0x02B8
					}else {
						arm_one_stop();
					}
				}else {
					//アーム制御(前後)
					if(ps_triangle()){
    20f2:	84 ff       	sbrs	r24, 4
    20f4:	13 c0       	rjmp	.+38     	; 0x211c <main+0x694>
						if(angle_one > 3){
    20f6:	60 91 b1 02 	lds	r22, 0x02B1
    20fa:	70 91 b2 02 	lds	r23, 0x02B2
    20fe:	80 91 b3 02 	lds	r24, 0x02B3
    2102:	90 91 b4 02 	lds	r25, 0x02B4
    2106:	20 e0       	ldi	r18, 0x00	; 0
    2108:	30 e0       	ldi	r19, 0x00	; 0
    210a:	40 e4       	ldi	r20, 0x40	; 64
    210c:	50 e4       	ldi	r21, 0x40	; 64
    210e:	0e 94 a7 14 	call	0x294e	; 0x294e <__gtsf2>
    2112:	18 16       	cp	r1, r24
    2114:	e4 f4       	brge	.+56     	; 0x214e <main+0x6c6>
							arm_strat();
    2116:	0e 94 9b 0b 	call	0x1736	; 0x1736 <arm_strat>
    211a:	ab cf       	rjmp	.-170    	; 0x2072 <main+0x5ea>
	return SwitchRecv[1] & _BV(PS_TRIANGLE);
}

// ×キーが押されているか返す
inline bool ps_cross(void){
	return SwitchRecv[1] & _BV(PS_CROSS);
    211c:	80 91 b7 02 	lds	r24, 0x02B7
    2120:	90 91 b8 02 	lds	r25, 0x02B8
							arm_strat();
						}else {
							arm_one_stop();
					//		arm_twe_stop();
						}
					}else if(ps_cross()){
    2124:	86 ff       	sbrs	r24, 6
    2126:	16 c0       	rjmp	.+44     	; 0x2154 <main+0x6cc>
						if(angle_one < 85){
    2128:	60 91 b1 02 	lds	r22, 0x02B1
    212c:	70 91 b2 02 	lds	r23, 0x02B2
    2130:	80 91 b3 02 	lds	r24, 0x02B3
    2134:	90 91 b4 02 	lds	r25, 0x02B4
    2138:	20 e0       	ldi	r18, 0x00	; 0
    213a:	30 e0       	ldi	r19, 0x00	; 0
    213c:	4a ea       	ldi	r20, 0xAA	; 170
    213e:	52 e4       	ldi	r21, 0x42	; 66
    2140:	0e 94 d7 14 	call	0x29ae	; 0x29ae <__ltsf2>
    2144:	88 23       	and	r24, r24
    2146:	1c f4       	brge	.+6      	; 0x214e <main+0x6c6>
							arm_back();
    2148:	0e 94 89 0c 	call	0x1912	; 0x1912 <arm_back>
    214c:	92 cf       	rjmp	.-220    	; 0x2072 <main+0x5ea>
						}else {
							arm_one_stop();
    214e:	0e 94 8b 04 	call	0x916	; 0x916 <arm_one_stop>
    2152:	8f cf       	rjmp	.-226    	; 0x2072 <main+0x5ea>
					//		arm_twe_stop();
						}
					}else {
						arm_one_stop();
    2154:	0e 94 8b 04 	call	0x916	; 0x916 <arm_one_stop>
						arm_twe_stop();
    2158:	0e 94 66 05 	call	0xacc	; 0xacc <arm_twe_stop>
    215c:	8a cf       	rjmp	.-236    	; 0x2072 <main+0x5ea>
	return SwitchRecv[0] & _BV(PS_RIGHT);
}

// 下キーが押されているか返す
inline bool ps_bottom(void){
	return SwitchRecv[0] & _BV(PS_DOWN);
    215e:	80 91 b5 02 	lds	r24, 0x02B5
    2162:	90 91 b6 02 	lds	r25, 0x02B6

					}
				}
			}

		}else if(ps_bottom()){
    2166:	86 ff       	sbrs	r24, 6
    2168:	81 c0       	rjmp	.+258    	; 0x226c <main+0x7e4>
			flag_stop1 = 0;
    216a:	10 92 97 02 	sts	0x0297, r1
    216e:	10 92 96 02 	sts	0x0296, r1

			if(flag_sro == 0){
    2172:	01 15       	cp	r16, r1
    2174:	11 05       	cpc	r17, r1
    2176:	31 f4       	brne	.+12     	; 0x2184 <main+0x6fc>
				back0(0,255); //(PWM初期値, カウンター)
    2178:	80 e0       	ldi	r24, 0x00	; 0
    217a:	90 e0       	ldi	r25, 0x00	; 0
    217c:	6f ef       	ldi	r22, 0xFF	; 255
    217e:	70 e0       	ldi	r23, 0x00	; 0
    2180:	0e 94 03 02 	call	0x406	; 0x406 <back0>
			}

			while(1){
				back1(255);
    2184:	8f ef       	ldi	r24, 0xFF	; 255
    2186:	90 e0       	ldi	r25, 0x00	; 0
    2188:	0e 94 3e 02 	call	0x47c	; 0x47c <back1>
	return SwitchRecv[0] & _BV(PS_RIGHT);
}

// 下キーが押されているか返す
inline bool ps_bottom(void){
	return SwitchRecv[0] & _BV(PS_DOWN);
    218c:	80 91 b5 02 	lds	r24, 0x02B5
    2190:	90 91 b6 02 	lds	r25, 0x02B6
			}

			while(1){
				back1(255);

				if(!ps_bottom()){
    2194:	86 fd       	sbrc	r24, 6
    2196:	03 c0       	rjmp	.+6      	; 0x219e <main+0x716>
					back_stop();
    2198:	0e 94 71 02 	call	0x4e2	; 0x4e2 <back_stop>
    219c:	6b c0       	rjmp	.+214    	; 0x2274 <main+0x7ec>
	return SwitchRecv[1] & _BV(PS_R2);
}

// L1 キーが押されているか返す
inline bool ps_l1(void){
	return SwitchRecv[1] & _BV(PS_L1);
    219e:	80 91 b7 02 	lds	r24, 0x02B7
    21a2:	90 91 b8 02 	lds	r25, 0x02B8
				if(!ps_bottom()){
					back_stop();
					break;
				}

				if(ps_l1()){
    21a6:	82 ff       	sbrs	r24, 2
    21a8:	02 c0       	rjmp	.+4      	; 0x21ae <main+0x726>
					slow_move();
    21aa:	0e 94 90 08 	call	0x1120	; 0x1120 <slow_move>
	return SwitchRecv[1] & _BV(PS_L1);
}

// R1 キーが押されているか返す
inline bool ps_r1(void){
	return SwitchRecv[1] & _BV(PS_R1);
    21ae:	80 91 b7 02 	lds	r24, 0x02B7
    21b2:	90 91 b8 02 	lds	r25, 0x02B8
				if(ps_l1()){
					slow_move();
				}

				//アーム制御(アーム1)
				if(ps_r1()){
    21b6:	83 ff       	sbrs	r24, 3
    21b8:	1f c0       	rjmp	.+62     	; 0x21f8 <main+0x770>
	return SwitchRecv[1] & _BV(PS_R1);
}

// △キーが押されているか返す
inline bool ps_triangle(void){
	return SwitchRecv[1] & _BV(PS_TRIANGLE);
    21ba:	80 91 b7 02 	lds	r24, 0x02B7
    21be:	90 91 b8 02 	lds	r25, 0x02B8
					slow_move();
				}

				//アーム制御(アーム1)
				if(ps_r1()){
					if(ps_triangle()){
    21c2:	84 ff       	sbrs	r24, 4
    21c4:	0a c0       	rjmp	.+20     	; 0x21da <main+0x752>
						if(adc_convert(0) <= 580){
    21c6:	80 e0       	ldi	r24, 0x00	; 0
    21c8:	0e 94 01 01 	call	0x202	; 0x202 <adc_convert>
    21cc:	85 54       	subi	r24, 0x45	; 69
    21ce:	92 40       	sbci	r25, 0x02	; 2
    21d0:	0c f0       	brlt	.+2      	; 0x21d4 <main+0x74c>
    21d2:	44 c0       	rjmp	.+136    	; 0x225c <main+0x7d4>
							r1_strat();
    21d4:	0e 94 1a 0d 	call	0x1a34	; 0x1a34 <r1_strat>
    21d8:	d5 cf       	rjmp	.-86     	; 0x2184 <main+0x6fc>
	return SwitchRecv[1] & _BV(PS_TRIANGLE);
}

// ×キーが押されているか返す
inline bool ps_cross(void){
	return SwitchRecv[1] & _BV(PS_CROSS);
    21da:	80 91 b7 02 	lds	r24, 0x02B7
    21de:	90 91 b8 02 	lds	r25, 0x02B8
						if(adc_convert(0) <= 580){
							r1_strat();
						}else {
							arm_one_stop();
						}
					}else if(ps_cross()){
    21e2:	86 ff       	sbrs	r24, 6
    21e4:	3b c0       	rjmp	.+118    	; 0x225c <main+0x7d4>
						if(adc_convert(0) > 192){
    21e6:	80 e0       	ldi	r24, 0x00	; 0
    21e8:	0e 94 01 01 	call	0x202	; 0x202 <adc_convert>
    21ec:	81 3c       	cpi	r24, 0xC1	; 193
    21ee:	91 05       	cpc	r25, r1
    21f0:	ac f1       	brlt	.+106    	; 0x225c <main+0x7d4>
							r1_back();
    21f2:	0e 94 34 0d 	call	0x1a68	; 0x1a68 <r1_back>
    21f6:	c6 cf       	rjmp	.-116    	; 0x2184 <main+0x6fc>
	return SwitchRecv[1] & _BV(PS_R1);
}

// △キーが押されているか返す
inline bool ps_triangle(void){
	return SwitchRecv[1] & _BV(PS_TRIANGLE);
    21f8:	80 91 b7 02 	lds	r24, 0x02B7
    21fc:	90 91 b8 02 	lds	r25, 0x02B8
					}else {
						arm_one_stop();
					}
				}else {
					//アーム制御(前後)
					if(ps_triangle()){
    2200:	84 ff       	sbrs	r24, 4
    2202:	13 c0       	rjmp	.+38     	; 0x222a <main+0x7a2>
						if(angle_one > 3){
    2204:	60 91 b1 02 	lds	r22, 0x02B1
    2208:	70 91 b2 02 	lds	r23, 0x02B2
    220c:	80 91 b3 02 	lds	r24, 0x02B3
    2210:	90 91 b4 02 	lds	r25, 0x02B4
    2214:	20 e0       	ldi	r18, 0x00	; 0
    2216:	30 e0       	ldi	r19, 0x00	; 0
    2218:	40 e4       	ldi	r20, 0x40	; 64
    221a:	50 e4       	ldi	r21, 0x40	; 64
    221c:	0e 94 a7 14 	call	0x294e	; 0x294e <__gtsf2>
    2220:	18 16       	cp	r1, r24
    2222:	e4 f4       	brge	.+56     	; 0x225c <main+0x7d4>
							arm_strat();
    2224:	0e 94 9b 0b 	call	0x1736	; 0x1736 <arm_strat>
    2228:	ad cf       	rjmp	.-166    	; 0x2184 <main+0x6fc>
	return SwitchRecv[1] & _BV(PS_TRIANGLE);
}

// ×キーが押されているか返す
inline bool ps_cross(void){
	return SwitchRecv[1] & _BV(PS_CROSS);
    222a:	80 91 b7 02 	lds	r24, 0x02B7
    222e:	90 91 b8 02 	lds	r25, 0x02B8
							arm_strat();
						}else {
							arm_one_stop();
					//		arm_twe_stop();
						}
					}else if(ps_cross()){
    2232:	86 ff       	sbrs	r24, 6
    2234:	16 c0       	rjmp	.+44     	; 0x2262 <main+0x7da>
						if(angle_one < 85){
    2236:	60 91 b1 02 	lds	r22, 0x02B1
    223a:	70 91 b2 02 	lds	r23, 0x02B2
    223e:	80 91 b3 02 	lds	r24, 0x02B3
    2242:	90 91 b4 02 	lds	r25, 0x02B4
    2246:	20 e0       	ldi	r18, 0x00	; 0
    2248:	30 e0       	ldi	r19, 0x00	; 0
    224a:	4a ea       	ldi	r20, 0xAA	; 170
    224c:	52 e4       	ldi	r21, 0x42	; 66
    224e:	0e 94 d7 14 	call	0x29ae	; 0x29ae <__ltsf2>
    2252:	88 23       	and	r24, r24
    2254:	1c f4       	brge	.+6      	; 0x225c <main+0x7d4>
							arm_back();
    2256:	0e 94 89 0c 	call	0x1912	; 0x1912 <arm_back>
    225a:	94 cf       	rjmp	.-216    	; 0x2184 <main+0x6fc>
						}else {
							arm_one_stop();
    225c:	0e 94 8b 04 	call	0x916	; 0x916 <arm_one_stop>
    2260:	91 cf       	rjmp	.-222    	; 0x2184 <main+0x6fc>
					//		arm_twe_stop();
						}
					}else {
						arm_one_stop();
    2262:	0e 94 8b 04 	call	0x916	; 0x916 <arm_one_stop>
						arm_twe_stop();
    2266:	0e 94 66 05 	call	0xacc	; 0xacc <arm_twe_stop>
    226a:	8c cf       	rjmp	.-232    	; 0x2184 <main+0x6fc>
					}
				}
			}

		}else {
			flag_stop1 = 1;
    226c:	d0 93 97 02 	sts	0x0297, r29
    2270:	c0 93 96 02 	sts	0x0296, r28
	return SwitchRecv[0] & _BV(PS_DOWN);
}

// 左キーが押されているか返す
inline bool ps_left(void){
	return SwitchRecv[0] & _BV(PS_LEFT);
    2274:	80 91 b5 02 	lds	r24, 0x02B5
    2278:	90 91 b6 02 	lds	r25, 0x02B6
			flag_stop1 = 1;
		}



		if(ps_left()){
    227c:	87 ff       	sbrs	r24, 7
    227e:	5b c0       	rjmp	.+182    	; 0x2336 <main+0x8ae>

			flag_stop2 = 0;
    2280:	10 92 99 02 	sts	0x0299, r1
    2284:	10 92 98 02 	sts	0x0298, r1

			if(flag_sro == 0){
    2288:	01 2b       	or	r16, r17
    228a:	31 f4       	brne	.+12     	; 0x2298 <main+0x810>
				left0(0, 100);
    228c:	80 e0       	ldi	r24, 0x00	; 0
    228e:	90 e0       	ldi	r25, 0x00	; 0
    2290:	64 e6       	ldi	r22, 0x64	; 100
    2292:	70 e0       	ldi	r23, 0x00	; 0
    2294:	0e 94 9f 02 	call	0x53e	; 0x53e <left0>
			}
			while(1){
				left1(100);
    2298:	84 e6       	ldi	r24, 0x64	; 100
    229a:	90 e0       	ldi	r25, 0x00	; 0
    229c:	0e 94 da 02 	call	0x5b4	; 0x5b4 <left1>
	return SwitchRecv[0] & _BV(PS_DOWN);
}

// 左キーが押されているか返す
inline bool ps_left(void){
	return SwitchRecv[0] & _BV(PS_LEFT);
    22a0:	80 91 b5 02 	lds	r24, 0x02B5
    22a4:	90 91 b6 02 	lds	r25, 0x02B6
				left0(0, 100);
			}
			while(1){
				left1(100);

				if(!ps_left()){
    22a8:	87 fd       	sbrc	r24, 7
    22aa:	03 c0       	rjmp	.+6      	; 0x22b2 <main+0x82a>
					left_stop();
    22ac:	0e 94 f5 02 	call	0x5ea	; 0x5ea <left_stop>
    22b0:	4a cc       	rjmp	.-1900   	; 0x1b46 <main+0xbe>
	return SwitchRecv[1] & _BV(PS_R2);
}

// L1 キーが押されているか返す
inline bool ps_l1(void){
	return SwitchRecv[1] & _BV(PS_L1);
    22b2:	80 91 b7 02 	lds	r24, 0x02B7
    22b6:	90 91 b8 02 	lds	r25, 0x02B8
				if(!ps_left()){
					left_stop();
					break;
				}

				if(ps_l1()){
    22ba:	82 ff       	sbrs	r24, 2
    22bc:	02 c0       	rjmp	.+4      	; 0x22c2 <main+0x83a>
					slow_move();
    22be:	0e 94 90 08 	call	0x1120	; 0x1120 <slow_move>
	return SwitchRecv[1] & _BV(PS_R1);
}

// △キーが押されているか返す
inline bool ps_triangle(void){
	return SwitchRecv[1] & _BV(PS_TRIANGLE);
    22c2:	80 91 b7 02 	lds	r24, 0x02B7
    22c6:	90 91 b8 02 	lds	r25, 0x02B8

				if(ps_l1()){
					slow_move();
				}

				if(ps_triangle()){
    22ca:	84 ff       	sbrs	r24, 4
    22cc:	13 c0       	rjmp	.+38     	; 0x22f4 <main+0x86c>
					if(angle_one > 3){
    22ce:	60 91 b1 02 	lds	r22, 0x02B1
    22d2:	70 91 b2 02 	lds	r23, 0x02B2
    22d6:	80 91 b3 02 	lds	r24, 0x02B3
    22da:	90 91 b4 02 	lds	r25, 0x02B4
    22de:	20 e0       	ldi	r18, 0x00	; 0
    22e0:	30 e0       	ldi	r19, 0x00	; 0
    22e2:	40 e4       	ldi	r20, 0x40	; 64
    22e4:	50 e4       	ldi	r21, 0x40	; 64
    22e6:	0e 94 a7 14 	call	0x294e	; 0x294e <__gtsf2>
    22ea:	18 16       	cp	r1, r24
    22ec:	e4 f4       	brge	.+56     	; 0x2326 <main+0x89e>
						arm_strat();
    22ee:	0e 94 9b 0b 	call	0x1736	; 0x1736 <arm_strat>
    22f2:	d2 cf       	rjmp	.-92     	; 0x2298 <main+0x810>
	return SwitchRecv[1] & _BV(PS_TRIANGLE);
}

// ×キーが押されているか返す
inline bool ps_cross(void){
	return SwitchRecv[1] & _BV(PS_CROSS);
    22f4:	80 91 b7 02 	lds	r24, 0x02B7
    22f8:	90 91 b8 02 	lds	r25, 0x02B8
						arm_strat();
					}else {
						arm_one_stop();
				//		arm_twe_stop();
					}
				}else if(ps_cross()){
    22fc:	86 ff       	sbrs	r24, 6
    22fe:	16 c0       	rjmp	.+44     	; 0x232c <main+0x8a4>
					if(angle_one < 85){
    2300:	60 91 b1 02 	lds	r22, 0x02B1
    2304:	70 91 b2 02 	lds	r23, 0x02B2
    2308:	80 91 b3 02 	lds	r24, 0x02B3
    230c:	90 91 b4 02 	lds	r25, 0x02B4
    2310:	20 e0       	ldi	r18, 0x00	; 0
    2312:	30 e0       	ldi	r19, 0x00	; 0
    2314:	4a ea       	ldi	r20, 0xAA	; 170
    2316:	52 e4       	ldi	r21, 0x42	; 66
    2318:	0e 94 d7 14 	call	0x29ae	; 0x29ae <__ltsf2>
    231c:	88 23       	and	r24, r24
    231e:	1c f4       	brge	.+6      	; 0x2326 <main+0x89e>
						arm_back();
    2320:	0e 94 89 0c 	call	0x1912	; 0x1912 <arm_back>
    2324:	b9 cf       	rjmp	.-142    	; 0x2298 <main+0x810>
					}else {
						arm_one_stop();
    2326:	0e 94 8b 04 	call	0x916	; 0x916 <arm_one_stop>
    232a:	b6 cf       	rjmp	.-148    	; 0x2298 <main+0x810>
				//		arm_twe_stop();
					}
				}else {
					arm_one_stop();
    232c:	0e 94 8b 04 	call	0x916	; 0x916 <arm_one_stop>
					arm_twe_stop();
    2330:	0e 94 66 05 	call	0xacc	; 0xacc <arm_twe_stop>
    2334:	b1 cf       	rjmp	.-158    	; 0x2298 <main+0x810>
	return SwitchRecv[0] & _BV(PS_UP);
}

// 右キーが押されているか返す
inline bool ps_right(void){
	return SwitchRecv[0] & _BV(PS_RIGHT);
    2336:	80 91 b5 02 	lds	r24, 0x02B5
    233a:	90 91 b6 02 	lds	r25, 0x02B6

				}

			}

		}else if(ps_right()){
    233e:	85 ff       	sbrs	r24, 5
    2340:	5b c0       	rjmp	.+182    	; 0x23f8 <main+0x970>

			flag_stop2 = 0;
    2342:	10 92 99 02 	sts	0x0299, r1
    2346:	10 92 98 02 	sts	0x0298, r1

			if(flag_sro == 0){
    234a:	01 2b       	or	r16, r17
    234c:	31 f4       	brne	.+12     	; 0x235a <main+0x8d2>
				right0(0, 100);
    234e:	80 e0       	ldi	r24, 0x00	; 0
    2350:	90 e0       	ldi	r25, 0x00	; 0
    2352:	64 e6       	ldi	r22, 0x64	; 100
    2354:	70 e0       	ldi	r23, 0x00	; 0
    2356:	0e 94 23 03 	call	0x646	; 0x646 <right0>
			}
			while(1){
				right1(100);
    235a:	84 e6       	ldi	r24, 0x64	; 100
    235c:	90 e0       	ldi	r25, 0x00	; 0
    235e:	0e 94 5e 03 	call	0x6bc	; 0x6bc <right1>
	return SwitchRecv[0] & _BV(PS_UP);
}

// 右キーが押されているか返す
inline bool ps_right(void){
	return SwitchRecv[0] & _BV(PS_RIGHT);
    2362:	80 91 b5 02 	lds	r24, 0x02B5
    2366:	90 91 b6 02 	lds	r25, 0x02B6
				right0(0, 100);
			}
			while(1){
				right1(100);

				if(!ps_right()){
    236a:	85 fd       	sbrc	r24, 5
    236c:	03 c0       	rjmp	.+6      	; 0x2374 <main+0x8ec>
					right_stop();
    236e:	0e 94 79 03 	call	0x6f2	; 0x6f2 <right_stop>
    2372:	e9 cb       	rjmp	.-2094   	; 0x1b46 <main+0xbe>
	return SwitchRecv[1] & _BV(PS_R2);
}

// L1 キーが押されているか返す
inline bool ps_l1(void){
	return SwitchRecv[1] & _BV(PS_L1);
    2374:	80 91 b7 02 	lds	r24, 0x02B7
    2378:	90 91 b8 02 	lds	r25, 0x02B8
				if(!ps_right()){
					right_stop();
					break;
				}

				if(ps_l1()){
    237c:	82 ff       	sbrs	r24, 2
    237e:	02 c0       	rjmp	.+4      	; 0x2384 <main+0x8fc>
					slow_move();
    2380:	0e 94 90 08 	call	0x1120	; 0x1120 <slow_move>
	return SwitchRecv[1] & _BV(PS_R1);
}

// △キーが押されているか返す
inline bool ps_triangle(void){
	return SwitchRecv[1] & _BV(PS_TRIANGLE);
    2384:	80 91 b7 02 	lds	r24, 0x02B7
    2388:	90 91 b8 02 	lds	r25, 0x02B8

				if(ps_l1()){
					slow_move();
				}

				if(ps_triangle()){
    238c:	84 ff       	sbrs	r24, 4
    238e:	13 c0       	rjmp	.+38     	; 0x23b6 <main+0x92e>
					if(angle_one > 3){
    2390:	60 91 b1 02 	lds	r22, 0x02B1
    2394:	70 91 b2 02 	lds	r23, 0x02B2
    2398:	80 91 b3 02 	lds	r24, 0x02B3
    239c:	90 91 b4 02 	lds	r25, 0x02B4
    23a0:	20 e0       	ldi	r18, 0x00	; 0
    23a2:	30 e0       	ldi	r19, 0x00	; 0
    23a4:	40 e4       	ldi	r20, 0x40	; 64
    23a6:	50 e4       	ldi	r21, 0x40	; 64
    23a8:	0e 94 a7 14 	call	0x294e	; 0x294e <__gtsf2>
    23ac:	18 16       	cp	r1, r24
    23ae:	e4 f4       	brge	.+56     	; 0x23e8 <main+0x960>
						arm_strat();
    23b0:	0e 94 9b 0b 	call	0x1736	; 0x1736 <arm_strat>
    23b4:	d2 cf       	rjmp	.-92     	; 0x235a <main+0x8d2>
	return SwitchRecv[1] & _BV(PS_TRIANGLE);
}

// ×キーが押されているか返す
inline bool ps_cross(void){
	return SwitchRecv[1] & _BV(PS_CROSS);
    23b6:	80 91 b7 02 	lds	r24, 0x02B7
    23ba:	90 91 b8 02 	lds	r25, 0x02B8
						arm_strat();
					}else {
						arm_one_stop();
				//		arm_twe_stop();
					}
				}else if(ps_cross()){
    23be:	86 ff       	sbrs	r24, 6
    23c0:	16 c0       	rjmp	.+44     	; 0x23ee <main+0x966>
					if(angle_one < 85){
    23c2:	60 91 b1 02 	lds	r22, 0x02B1
    23c6:	70 91 b2 02 	lds	r23, 0x02B2
    23ca:	80 91 b3 02 	lds	r24, 0x02B3
    23ce:	90 91 b4 02 	lds	r25, 0x02B4
    23d2:	20 e0       	ldi	r18, 0x00	; 0
    23d4:	30 e0       	ldi	r19, 0x00	; 0
    23d6:	4a ea       	ldi	r20, 0xAA	; 170
    23d8:	52 e4       	ldi	r21, 0x42	; 66
    23da:	0e 94 d7 14 	call	0x29ae	; 0x29ae <__ltsf2>
    23de:	88 23       	and	r24, r24
    23e0:	1c f4       	brge	.+6      	; 0x23e8 <main+0x960>
						arm_back();
    23e2:	0e 94 89 0c 	call	0x1912	; 0x1912 <arm_back>
    23e6:	b9 cf       	rjmp	.-142    	; 0x235a <main+0x8d2>
					}else {
						arm_one_stop();
    23e8:	0e 94 8b 04 	call	0x916	; 0x916 <arm_one_stop>
    23ec:	b6 cf       	rjmp	.-148    	; 0x235a <main+0x8d2>
				//		arm_twe_stop();
					}
				}else {
					arm_one_stop();
    23ee:	0e 94 8b 04 	call	0x916	; 0x916 <arm_one_stop>
					arm_twe_stop();
    23f2:	0e 94 66 05 	call	0xacc	; 0xacc <arm_twe_stop>
    23f6:	b1 cf       	rjmp	.-158    	; 0x235a <main+0x8d2>


			}

		}else {
			flag_stop2 = 1;
    23f8:	d0 93 99 02 	sts	0x0299, r29
    23fc:	c0 93 98 02 	sts	0x0298, r28
			stop();
    2400:	0e 94 a7 03 	call	0x74e	; 0x74e <stop>
    2404:	a0 cb       	rjmp	.-2240   	; 0x1b46 <main+0xbe>

00002406 <_fpadd_parts>:
    2406:	a0 e0       	ldi	r26, 0x00	; 0
    2408:	b0 e0       	ldi	r27, 0x00	; 0
    240a:	e9 e0       	ldi	r30, 0x09	; 9
    240c:	f2 e1       	ldi	r31, 0x12	; 18
    240e:	0c 94 d5 17 	jmp	0x2faa	; 0x2faa <__prologue_saves__>
    2412:	dc 01       	movw	r26, r24
    2414:	2b 01       	movw	r4, r22
    2416:	fa 01       	movw	r30, r20
    2418:	9c 91       	ld	r25, X
    241a:	92 30       	cpi	r25, 0x02	; 2
    241c:	08 f4       	brcc	.+2      	; 0x2420 <_fpadd_parts+0x1a>
    241e:	39 c1       	rjmp	.+626    	; 0x2692 <_fpadd_parts+0x28c>
    2420:	eb 01       	movw	r28, r22
    2422:	88 81       	ld	r24, Y
    2424:	82 30       	cpi	r24, 0x02	; 2
    2426:	08 f4       	brcc	.+2      	; 0x242a <_fpadd_parts+0x24>
    2428:	33 c1       	rjmp	.+614    	; 0x2690 <_fpadd_parts+0x28a>
    242a:	94 30       	cpi	r25, 0x04	; 4
    242c:	69 f4       	brne	.+26     	; 0x2448 <_fpadd_parts+0x42>
    242e:	84 30       	cpi	r24, 0x04	; 4
    2430:	09 f0       	breq	.+2      	; 0x2434 <_fpadd_parts+0x2e>
    2432:	2f c1       	rjmp	.+606    	; 0x2692 <_fpadd_parts+0x28c>
    2434:	11 96       	adiw	r26, 0x01	; 1
    2436:	9c 91       	ld	r25, X
    2438:	11 97       	sbiw	r26, 0x01	; 1
    243a:	89 81       	ldd	r24, Y+1	; 0x01
    243c:	98 17       	cp	r25, r24
    243e:	09 f4       	brne	.+2      	; 0x2442 <_fpadd_parts+0x3c>
    2440:	28 c1       	rjmp	.+592    	; 0x2692 <_fpadd_parts+0x28c>
    2442:	a7 e8       	ldi	r26, 0x87	; 135
    2444:	b1 e0       	ldi	r27, 0x01	; 1
    2446:	25 c1       	rjmp	.+586    	; 0x2692 <_fpadd_parts+0x28c>
    2448:	84 30       	cpi	r24, 0x04	; 4
    244a:	09 f4       	brne	.+2      	; 0x244e <_fpadd_parts+0x48>
    244c:	21 c1       	rjmp	.+578    	; 0x2690 <_fpadd_parts+0x28a>
    244e:	82 30       	cpi	r24, 0x02	; 2
    2450:	a9 f4       	brne	.+42     	; 0x247c <_fpadd_parts+0x76>
    2452:	92 30       	cpi	r25, 0x02	; 2
    2454:	09 f0       	breq	.+2      	; 0x2458 <_fpadd_parts+0x52>
    2456:	1d c1       	rjmp	.+570    	; 0x2692 <_fpadd_parts+0x28c>
    2458:	9a 01       	movw	r18, r20
    245a:	ad 01       	movw	r20, r26
    245c:	88 e0       	ldi	r24, 0x08	; 8
    245e:	ea 01       	movw	r28, r20
    2460:	09 90       	ld	r0, Y+
    2462:	ae 01       	movw	r20, r28
    2464:	e9 01       	movw	r28, r18
    2466:	09 92       	st	Y+, r0
    2468:	9e 01       	movw	r18, r28
    246a:	81 50       	subi	r24, 0x01	; 1
    246c:	c1 f7       	brne	.-16     	; 0x245e <_fpadd_parts+0x58>
    246e:	e2 01       	movw	r28, r4
    2470:	89 81       	ldd	r24, Y+1	; 0x01
    2472:	11 96       	adiw	r26, 0x01	; 1
    2474:	9c 91       	ld	r25, X
    2476:	89 23       	and	r24, r25
    2478:	81 83       	std	Z+1, r24	; 0x01
    247a:	08 c1       	rjmp	.+528    	; 0x268c <_fpadd_parts+0x286>
    247c:	92 30       	cpi	r25, 0x02	; 2
    247e:	09 f4       	brne	.+2      	; 0x2482 <_fpadd_parts+0x7c>
    2480:	07 c1       	rjmp	.+526    	; 0x2690 <_fpadd_parts+0x28a>
    2482:	12 96       	adiw	r26, 0x02	; 2
    2484:	2d 90       	ld	r2, X+
    2486:	3c 90       	ld	r3, X
    2488:	13 97       	sbiw	r26, 0x03	; 3
    248a:	eb 01       	movw	r28, r22
    248c:	8a 81       	ldd	r24, Y+2	; 0x02
    248e:	9b 81       	ldd	r25, Y+3	; 0x03
    2490:	14 96       	adiw	r26, 0x04	; 4
    2492:	ad 90       	ld	r10, X+
    2494:	bd 90       	ld	r11, X+
    2496:	cd 90       	ld	r12, X+
    2498:	dc 90       	ld	r13, X
    249a:	17 97       	sbiw	r26, 0x07	; 7
    249c:	ec 80       	ldd	r14, Y+4	; 0x04
    249e:	fd 80       	ldd	r15, Y+5	; 0x05
    24a0:	0e 81       	ldd	r16, Y+6	; 0x06
    24a2:	1f 81       	ldd	r17, Y+7	; 0x07
    24a4:	91 01       	movw	r18, r2
    24a6:	28 1b       	sub	r18, r24
    24a8:	39 0b       	sbc	r19, r25
    24aa:	b9 01       	movw	r22, r18
    24ac:	37 ff       	sbrs	r19, 7
    24ae:	04 c0       	rjmp	.+8      	; 0x24b8 <_fpadd_parts+0xb2>
    24b0:	66 27       	eor	r22, r22
    24b2:	77 27       	eor	r23, r23
    24b4:	62 1b       	sub	r22, r18
    24b6:	73 0b       	sbc	r23, r19
    24b8:	60 32       	cpi	r22, 0x20	; 32
    24ba:	71 05       	cpc	r23, r1
    24bc:	0c f0       	brlt	.+2      	; 0x24c0 <_fpadd_parts+0xba>
    24be:	61 c0       	rjmp	.+194    	; 0x2582 <_fpadd_parts+0x17c>
    24c0:	12 16       	cp	r1, r18
    24c2:	13 06       	cpc	r1, r19
    24c4:	6c f5       	brge	.+90     	; 0x2520 <_fpadd_parts+0x11a>
    24c6:	37 01       	movw	r6, r14
    24c8:	48 01       	movw	r8, r16
    24ca:	06 2e       	mov	r0, r22
    24cc:	04 c0       	rjmp	.+8      	; 0x24d6 <_fpadd_parts+0xd0>
    24ce:	96 94       	lsr	r9
    24d0:	87 94       	ror	r8
    24d2:	77 94       	ror	r7
    24d4:	67 94       	ror	r6
    24d6:	0a 94       	dec	r0
    24d8:	d2 f7       	brpl	.-12     	; 0x24ce <_fpadd_parts+0xc8>
    24da:	21 e0       	ldi	r18, 0x01	; 1
    24dc:	30 e0       	ldi	r19, 0x00	; 0
    24de:	40 e0       	ldi	r20, 0x00	; 0
    24e0:	50 e0       	ldi	r21, 0x00	; 0
    24e2:	04 c0       	rjmp	.+8      	; 0x24ec <_fpadd_parts+0xe6>
    24e4:	22 0f       	add	r18, r18
    24e6:	33 1f       	adc	r19, r19
    24e8:	44 1f       	adc	r20, r20
    24ea:	55 1f       	adc	r21, r21
    24ec:	6a 95       	dec	r22
    24ee:	d2 f7       	brpl	.-12     	; 0x24e4 <_fpadd_parts+0xde>
    24f0:	21 50       	subi	r18, 0x01	; 1
    24f2:	30 40       	sbci	r19, 0x00	; 0
    24f4:	40 40       	sbci	r20, 0x00	; 0
    24f6:	50 40       	sbci	r21, 0x00	; 0
    24f8:	2e 21       	and	r18, r14
    24fa:	3f 21       	and	r19, r15
    24fc:	40 23       	and	r20, r16
    24fe:	51 23       	and	r21, r17
    2500:	21 15       	cp	r18, r1
    2502:	31 05       	cpc	r19, r1
    2504:	41 05       	cpc	r20, r1
    2506:	51 05       	cpc	r21, r1
    2508:	21 f0       	breq	.+8      	; 0x2512 <_fpadd_parts+0x10c>
    250a:	21 e0       	ldi	r18, 0x01	; 1
    250c:	30 e0       	ldi	r19, 0x00	; 0
    250e:	40 e0       	ldi	r20, 0x00	; 0
    2510:	50 e0       	ldi	r21, 0x00	; 0
    2512:	79 01       	movw	r14, r18
    2514:	8a 01       	movw	r16, r20
    2516:	e6 28       	or	r14, r6
    2518:	f7 28       	or	r15, r7
    251a:	08 29       	or	r16, r8
    251c:	19 29       	or	r17, r9
    251e:	3c c0       	rjmp	.+120    	; 0x2598 <_fpadd_parts+0x192>
    2520:	23 2b       	or	r18, r19
    2522:	d1 f1       	breq	.+116    	; 0x2598 <_fpadd_parts+0x192>
    2524:	26 0e       	add	r2, r22
    2526:	37 1e       	adc	r3, r23
    2528:	35 01       	movw	r6, r10
    252a:	46 01       	movw	r8, r12
    252c:	06 2e       	mov	r0, r22
    252e:	04 c0       	rjmp	.+8      	; 0x2538 <_fpadd_parts+0x132>
    2530:	96 94       	lsr	r9
    2532:	87 94       	ror	r8
    2534:	77 94       	ror	r7
    2536:	67 94       	ror	r6
    2538:	0a 94       	dec	r0
    253a:	d2 f7       	brpl	.-12     	; 0x2530 <_fpadd_parts+0x12a>
    253c:	21 e0       	ldi	r18, 0x01	; 1
    253e:	30 e0       	ldi	r19, 0x00	; 0
    2540:	40 e0       	ldi	r20, 0x00	; 0
    2542:	50 e0       	ldi	r21, 0x00	; 0
    2544:	04 c0       	rjmp	.+8      	; 0x254e <_fpadd_parts+0x148>
    2546:	22 0f       	add	r18, r18
    2548:	33 1f       	adc	r19, r19
    254a:	44 1f       	adc	r20, r20
    254c:	55 1f       	adc	r21, r21
    254e:	6a 95       	dec	r22
    2550:	d2 f7       	brpl	.-12     	; 0x2546 <_fpadd_parts+0x140>
    2552:	21 50       	subi	r18, 0x01	; 1
    2554:	30 40       	sbci	r19, 0x00	; 0
    2556:	40 40       	sbci	r20, 0x00	; 0
    2558:	50 40       	sbci	r21, 0x00	; 0
    255a:	2a 21       	and	r18, r10
    255c:	3b 21       	and	r19, r11
    255e:	4c 21       	and	r20, r12
    2560:	5d 21       	and	r21, r13
    2562:	21 15       	cp	r18, r1
    2564:	31 05       	cpc	r19, r1
    2566:	41 05       	cpc	r20, r1
    2568:	51 05       	cpc	r21, r1
    256a:	21 f0       	breq	.+8      	; 0x2574 <_fpadd_parts+0x16e>
    256c:	21 e0       	ldi	r18, 0x01	; 1
    256e:	30 e0       	ldi	r19, 0x00	; 0
    2570:	40 e0       	ldi	r20, 0x00	; 0
    2572:	50 e0       	ldi	r21, 0x00	; 0
    2574:	59 01       	movw	r10, r18
    2576:	6a 01       	movw	r12, r20
    2578:	a6 28       	or	r10, r6
    257a:	b7 28       	or	r11, r7
    257c:	c8 28       	or	r12, r8
    257e:	d9 28       	or	r13, r9
    2580:	0b c0       	rjmp	.+22     	; 0x2598 <_fpadd_parts+0x192>
    2582:	82 15       	cp	r24, r2
    2584:	93 05       	cpc	r25, r3
    2586:	2c f0       	brlt	.+10     	; 0x2592 <_fpadd_parts+0x18c>
    2588:	1c 01       	movw	r2, r24
    258a:	aa 24       	eor	r10, r10
    258c:	bb 24       	eor	r11, r11
    258e:	65 01       	movw	r12, r10
    2590:	03 c0       	rjmp	.+6      	; 0x2598 <_fpadd_parts+0x192>
    2592:	ee 24       	eor	r14, r14
    2594:	ff 24       	eor	r15, r15
    2596:	87 01       	movw	r16, r14
    2598:	11 96       	adiw	r26, 0x01	; 1
    259a:	9c 91       	ld	r25, X
    259c:	d2 01       	movw	r26, r4
    259e:	11 96       	adiw	r26, 0x01	; 1
    25a0:	8c 91       	ld	r24, X
    25a2:	98 17       	cp	r25, r24
    25a4:	09 f4       	brne	.+2      	; 0x25a8 <_fpadd_parts+0x1a2>
    25a6:	45 c0       	rjmp	.+138    	; 0x2632 <_fpadd_parts+0x22c>
    25a8:	99 23       	and	r25, r25
    25aa:	39 f0       	breq	.+14     	; 0x25ba <_fpadd_parts+0x1b4>
    25ac:	a8 01       	movw	r20, r16
    25ae:	97 01       	movw	r18, r14
    25b0:	2a 19       	sub	r18, r10
    25b2:	3b 09       	sbc	r19, r11
    25b4:	4c 09       	sbc	r20, r12
    25b6:	5d 09       	sbc	r21, r13
    25b8:	06 c0       	rjmp	.+12     	; 0x25c6 <_fpadd_parts+0x1c0>
    25ba:	a6 01       	movw	r20, r12
    25bc:	95 01       	movw	r18, r10
    25be:	2e 19       	sub	r18, r14
    25c0:	3f 09       	sbc	r19, r15
    25c2:	40 0b       	sbc	r20, r16
    25c4:	51 0b       	sbc	r21, r17
    25c6:	57 fd       	sbrc	r21, 7
    25c8:	08 c0       	rjmp	.+16     	; 0x25da <_fpadd_parts+0x1d4>
    25ca:	11 82       	std	Z+1, r1	; 0x01
    25cc:	33 82       	std	Z+3, r3	; 0x03
    25ce:	22 82       	std	Z+2, r2	; 0x02
    25d0:	24 83       	std	Z+4, r18	; 0x04
    25d2:	35 83       	std	Z+5, r19	; 0x05
    25d4:	46 83       	std	Z+6, r20	; 0x06
    25d6:	57 83       	std	Z+7, r21	; 0x07
    25d8:	1d c0       	rjmp	.+58     	; 0x2614 <_fpadd_parts+0x20e>
    25da:	81 e0       	ldi	r24, 0x01	; 1
    25dc:	81 83       	std	Z+1, r24	; 0x01
    25de:	33 82       	std	Z+3, r3	; 0x03
    25e0:	22 82       	std	Z+2, r2	; 0x02
    25e2:	88 27       	eor	r24, r24
    25e4:	99 27       	eor	r25, r25
    25e6:	dc 01       	movw	r26, r24
    25e8:	82 1b       	sub	r24, r18
    25ea:	93 0b       	sbc	r25, r19
    25ec:	a4 0b       	sbc	r26, r20
    25ee:	b5 0b       	sbc	r27, r21
    25f0:	84 83       	std	Z+4, r24	; 0x04
    25f2:	95 83       	std	Z+5, r25	; 0x05
    25f4:	a6 83       	std	Z+6, r26	; 0x06
    25f6:	b7 83       	std	Z+7, r27	; 0x07
    25f8:	0d c0       	rjmp	.+26     	; 0x2614 <_fpadd_parts+0x20e>
    25fa:	22 0f       	add	r18, r18
    25fc:	33 1f       	adc	r19, r19
    25fe:	44 1f       	adc	r20, r20
    2600:	55 1f       	adc	r21, r21
    2602:	24 83       	std	Z+4, r18	; 0x04
    2604:	35 83       	std	Z+5, r19	; 0x05
    2606:	46 83       	std	Z+6, r20	; 0x06
    2608:	57 83       	std	Z+7, r21	; 0x07
    260a:	82 81       	ldd	r24, Z+2	; 0x02
    260c:	93 81       	ldd	r25, Z+3	; 0x03
    260e:	01 97       	sbiw	r24, 0x01	; 1
    2610:	93 83       	std	Z+3, r25	; 0x03
    2612:	82 83       	std	Z+2, r24	; 0x02
    2614:	24 81       	ldd	r18, Z+4	; 0x04
    2616:	35 81       	ldd	r19, Z+5	; 0x05
    2618:	46 81       	ldd	r20, Z+6	; 0x06
    261a:	57 81       	ldd	r21, Z+7	; 0x07
    261c:	da 01       	movw	r26, r20
    261e:	c9 01       	movw	r24, r18
    2620:	01 97       	sbiw	r24, 0x01	; 1
    2622:	a1 09       	sbc	r26, r1
    2624:	b1 09       	sbc	r27, r1
    2626:	8f 5f       	subi	r24, 0xFF	; 255
    2628:	9f 4f       	sbci	r25, 0xFF	; 255
    262a:	af 4f       	sbci	r26, 0xFF	; 255
    262c:	bf 43       	sbci	r27, 0x3F	; 63
    262e:	28 f3       	brcs	.-54     	; 0x25fa <_fpadd_parts+0x1f4>
    2630:	0b c0       	rjmp	.+22     	; 0x2648 <_fpadd_parts+0x242>
    2632:	91 83       	std	Z+1, r25	; 0x01
    2634:	33 82       	std	Z+3, r3	; 0x03
    2636:	22 82       	std	Z+2, r2	; 0x02
    2638:	ea 0c       	add	r14, r10
    263a:	fb 1c       	adc	r15, r11
    263c:	0c 1d       	adc	r16, r12
    263e:	1d 1d       	adc	r17, r13
    2640:	e4 82       	std	Z+4, r14	; 0x04
    2642:	f5 82       	std	Z+5, r15	; 0x05
    2644:	06 83       	std	Z+6, r16	; 0x06
    2646:	17 83       	std	Z+7, r17	; 0x07
    2648:	83 e0       	ldi	r24, 0x03	; 3
    264a:	80 83       	st	Z, r24
    264c:	24 81       	ldd	r18, Z+4	; 0x04
    264e:	35 81       	ldd	r19, Z+5	; 0x05
    2650:	46 81       	ldd	r20, Z+6	; 0x06
    2652:	57 81       	ldd	r21, Z+7	; 0x07
    2654:	57 ff       	sbrs	r21, 7
    2656:	1a c0       	rjmp	.+52     	; 0x268c <_fpadd_parts+0x286>
    2658:	c9 01       	movw	r24, r18
    265a:	aa 27       	eor	r26, r26
    265c:	97 fd       	sbrc	r25, 7
    265e:	a0 95       	com	r26
    2660:	ba 2f       	mov	r27, r26
    2662:	81 70       	andi	r24, 0x01	; 1
    2664:	90 70       	andi	r25, 0x00	; 0
    2666:	a0 70       	andi	r26, 0x00	; 0
    2668:	b0 70       	andi	r27, 0x00	; 0
    266a:	56 95       	lsr	r21
    266c:	47 95       	ror	r20
    266e:	37 95       	ror	r19
    2670:	27 95       	ror	r18
    2672:	82 2b       	or	r24, r18
    2674:	93 2b       	or	r25, r19
    2676:	a4 2b       	or	r26, r20
    2678:	b5 2b       	or	r27, r21
    267a:	84 83       	std	Z+4, r24	; 0x04
    267c:	95 83       	std	Z+5, r25	; 0x05
    267e:	a6 83       	std	Z+6, r26	; 0x06
    2680:	b7 83       	std	Z+7, r27	; 0x07
    2682:	82 81       	ldd	r24, Z+2	; 0x02
    2684:	93 81       	ldd	r25, Z+3	; 0x03
    2686:	01 96       	adiw	r24, 0x01	; 1
    2688:	93 83       	std	Z+3, r25	; 0x03
    268a:	82 83       	std	Z+2, r24	; 0x02
    268c:	df 01       	movw	r26, r30
    268e:	01 c0       	rjmp	.+2      	; 0x2692 <_fpadd_parts+0x28c>
    2690:	d2 01       	movw	r26, r4
    2692:	cd 01       	movw	r24, r26
    2694:	cd b7       	in	r28, 0x3d	; 61
    2696:	de b7       	in	r29, 0x3e	; 62
    2698:	e2 e1       	ldi	r30, 0x12	; 18
    269a:	0c 94 f1 17 	jmp	0x2fe2	; 0x2fe2 <__epilogue_restores__>

0000269e <__subsf3>:
    269e:	a0 e2       	ldi	r26, 0x20	; 32
    26a0:	b0 e0       	ldi	r27, 0x00	; 0
    26a2:	e5 e5       	ldi	r30, 0x55	; 85
    26a4:	f3 e1       	ldi	r31, 0x13	; 19
    26a6:	0c 94 e1 17 	jmp	0x2fc2	; 0x2fc2 <__prologue_saves__+0x18>
    26aa:	69 83       	std	Y+1, r22	; 0x01
    26ac:	7a 83       	std	Y+2, r23	; 0x02
    26ae:	8b 83       	std	Y+3, r24	; 0x03
    26b0:	9c 83       	std	Y+4, r25	; 0x04
    26b2:	2d 83       	std	Y+5, r18	; 0x05
    26b4:	3e 83       	std	Y+6, r19	; 0x06
    26b6:	4f 83       	std	Y+7, r20	; 0x07
    26b8:	58 87       	std	Y+8, r21	; 0x08
    26ba:	e9 e0       	ldi	r30, 0x09	; 9
    26bc:	ee 2e       	mov	r14, r30
    26be:	f1 2c       	mov	r15, r1
    26c0:	ec 0e       	add	r14, r28
    26c2:	fd 1e       	adc	r15, r29
    26c4:	ce 01       	movw	r24, r28
    26c6:	01 96       	adiw	r24, 0x01	; 1
    26c8:	b7 01       	movw	r22, r14
    26ca:	0e 94 dd 16 	call	0x2dba	; 0x2dba <__unpack_f>
    26ce:	8e 01       	movw	r16, r28
    26d0:	0f 5e       	subi	r16, 0xEF	; 239
    26d2:	1f 4f       	sbci	r17, 0xFF	; 255
    26d4:	ce 01       	movw	r24, r28
    26d6:	05 96       	adiw	r24, 0x05	; 5
    26d8:	b8 01       	movw	r22, r16
    26da:	0e 94 dd 16 	call	0x2dba	; 0x2dba <__unpack_f>
    26de:	8a 89       	ldd	r24, Y+18	; 0x12
    26e0:	91 e0       	ldi	r25, 0x01	; 1
    26e2:	89 27       	eor	r24, r25
    26e4:	8a 8b       	std	Y+18, r24	; 0x12
    26e6:	c7 01       	movw	r24, r14
    26e8:	b8 01       	movw	r22, r16
    26ea:	ae 01       	movw	r20, r28
    26ec:	47 5e       	subi	r20, 0xE7	; 231
    26ee:	5f 4f       	sbci	r21, 0xFF	; 255
    26f0:	0e 94 03 12 	call	0x2406	; 0x2406 <_fpadd_parts>
    26f4:	0e 94 08 16 	call	0x2c10	; 0x2c10 <__pack_f>
    26f8:	a0 96       	adiw	r28, 0x20	; 32
    26fa:	e6 e0       	ldi	r30, 0x06	; 6
    26fc:	0c 94 fd 17 	jmp	0x2ffa	; 0x2ffa <__epilogue_restores__+0x18>

00002700 <__addsf3>:
    2700:	a0 e2       	ldi	r26, 0x20	; 32
    2702:	b0 e0       	ldi	r27, 0x00	; 0
    2704:	e6 e8       	ldi	r30, 0x86	; 134
    2706:	f3 e1       	ldi	r31, 0x13	; 19
    2708:	0c 94 e1 17 	jmp	0x2fc2	; 0x2fc2 <__prologue_saves__+0x18>
    270c:	69 83       	std	Y+1, r22	; 0x01
    270e:	7a 83       	std	Y+2, r23	; 0x02
    2710:	8b 83       	std	Y+3, r24	; 0x03
    2712:	9c 83       	std	Y+4, r25	; 0x04
    2714:	2d 83       	std	Y+5, r18	; 0x05
    2716:	3e 83       	std	Y+6, r19	; 0x06
    2718:	4f 83       	std	Y+7, r20	; 0x07
    271a:	58 87       	std	Y+8, r21	; 0x08
    271c:	f9 e0       	ldi	r31, 0x09	; 9
    271e:	ef 2e       	mov	r14, r31
    2720:	f1 2c       	mov	r15, r1
    2722:	ec 0e       	add	r14, r28
    2724:	fd 1e       	adc	r15, r29
    2726:	ce 01       	movw	r24, r28
    2728:	01 96       	adiw	r24, 0x01	; 1
    272a:	b7 01       	movw	r22, r14
    272c:	0e 94 dd 16 	call	0x2dba	; 0x2dba <__unpack_f>
    2730:	8e 01       	movw	r16, r28
    2732:	0f 5e       	subi	r16, 0xEF	; 239
    2734:	1f 4f       	sbci	r17, 0xFF	; 255
    2736:	ce 01       	movw	r24, r28
    2738:	05 96       	adiw	r24, 0x05	; 5
    273a:	b8 01       	movw	r22, r16
    273c:	0e 94 dd 16 	call	0x2dba	; 0x2dba <__unpack_f>
    2740:	c7 01       	movw	r24, r14
    2742:	b8 01       	movw	r22, r16
    2744:	ae 01       	movw	r20, r28
    2746:	47 5e       	subi	r20, 0xE7	; 231
    2748:	5f 4f       	sbci	r21, 0xFF	; 255
    274a:	0e 94 03 12 	call	0x2406	; 0x2406 <_fpadd_parts>
    274e:	0e 94 08 16 	call	0x2c10	; 0x2c10 <__pack_f>
    2752:	a0 96       	adiw	r28, 0x20	; 32
    2754:	e6 e0       	ldi	r30, 0x06	; 6
    2756:	0c 94 fd 17 	jmp	0x2ffa	; 0x2ffa <__epilogue_restores__+0x18>

0000275a <__mulsf3>:
    275a:	a0 e2       	ldi	r26, 0x20	; 32
    275c:	b0 e0       	ldi	r27, 0x00	; 0
    275e:	e3 eb       	ldi	r30, 0xB3	; 179
    2760:	f3 e1       	ldi	r31, 0x13	; 19
    2762:	0c 94 d5 17 	jmp	0x2faa	; 0x2faa <__prologue_saves__>
    2766:	69 83       	std	Y+1, r22	; 0x01
    2768:	7a 83       	std	Y+2, r23	; 0x02
    276a:	8b 83       	std	Y+3, r24	; 0x03
    276c:	9c 83       	std	Y+4, r25	; 0x04
    276e:	2d 83       	std	Y+5, r18	; 0x05
    2770:	3e 83       	std	Y+6, r19	; 0x06
    2772:	4f 83       	std	Y+7, r20	; 0x07
    2774:	58 87       	std	Y+8, r21	; 0x08
    2776:	ce 01       	movw	r24, r28
    2778:	01 96       	adiw	r24, 0x01	; 1
    277a:	be 01       	movw	r22, r28
    277c:	67 5f       	subi	r22, 0xF7	; 247
    277e:	7f 4f       	sbci	r23, 0xFF	; 255
    2780:	0e 94 dd 16 	call	0x2dba	; 0x2dba <__unpack_f>
    2784:	ce 01       	movw	r24, r28
    2786:	05 96       	adiw	r24, 0x05	; 5
    2788:	be 01       	movw	r22, r28
    278a:	6f 5e       	subi	r22, 0xEF	; 239
    278c:	7f 4f       	sbci	r23, 0xFF	; 255
    278e:	0e 94 dd 16 	call	0x2dba	; 0x2dba <__unpack_f>
    2792:	99 85       	ldd	r25, Y+9	; 0x09
    2794:	92 30       	cpi	r25, 0x02	; 2
    2796:	88 f0       	brcs	.+34     	; 0x27ba <__mulsf3+0x60>
    2798:	89 89       	ldd	r24, Y+17	; 0x11
    279a:	82 30       	cpi	r24, 0x02	; 2
    279c:	c8 f0       	brcs	.+50     	; 0x27d0 <__mulsf3+0x76>
    279e:	94 30       	cpi	r25, 0x04	; 4
    27a0:	19 f4       	brne	.+6      	; 0x27a8 <__mulsf3+0x4e>
    27a2:	82 30       	cpi	r24, 0x02	; 2
    27a4:	51 f4       	brne	.+20     	; 0x27ba <__mulsf3+0x60>
    27a6:	04 c0       	rjmp	.+8      	; 0x27b0 <__mulsf3+0x56>
    27a8:	84 30       	cpi	r24, 0x04	; 4
    27aa:	29 f4       	brne	.+10     	; 0x27b6 <__mulsf3+0x5c>
    27ac:	92 30       	cpi	r25, 0x02	; 2
    27ae:	81 f4       	brne	.+32     	; 0x27d0 <__mulsf3+0x76>
    27b0:	87 e8       	ldi	r24, 0x87	; 135
    27b2:	91 e0       	ldi	r25, 0x01	; 1
    27b4:	c6 c0       	rjmp	.+396    	; 0x2942 <__mulsf3+0x1e8>
    27b6:	92 30       	cpi	r25, 0x02	; 2
    27b8:	49 f4       	brne	.+18     	; 0x27cc <__mulsf3+0x72>
    27ba:	20 e0       	ldi	r18, 0x00	; 0
    27bc:	9a 85       	ldd	r25, Y+10	; 0x0a
    27be:	8a 89       	ldd	r24, Y+18	; 0x12
    27c0:	98 13       	cpse	r25, r24
    27c2:	21 e0       	ldi	r18, 0x01	; 1
    27c4:	2a 87       	std	Y+10, r18	; 0x0a
    27c6:	ce 01       	movw	r24, r28
    27c8:	09 96       	adiw	r24, 0x09	; 9
    27ca:	bb c0       	rjmp	.+374    	; 0x2942 <__mulsf3+0x1e8>
    27cc:	82 30       	cpi	r24, 0x02	; 2
    27ce:	49 f4       	brne	.+18     	; 0x27e2 <__mulsf3+0x88>
    27d0:	20 e0       	ldi	r18, 0x00	; 0
    27d2:	9a 85       	ldd	r25, Y+10	; 0x0a
    27d4:	8a 89       	ldd	r24, Y+18	; 0x12
    27d6:	98 13       	cpse	r25, r24
    27d8:	21 e0       	ldi	r18, 0x01	; 1
    27da:	2a 8b       	std	Y+18, r18	; 0x12
    27dc:	ce 01       	movw	r24, r28
    27de:	41 96       	adiw	r24, 0x11	; 17
    27e0:	b0 c0       	rjmp	.+352    	; 0x2942 <__mulsf3+0x1e8>
    27e2:	2d 84       	ldd	r2, Y+13	; 0x0d
    27e4:	3e 84       	ldd	r3, Y+14	; 0x0e
    27e6:	4f 84       	ldd	r4, Y+15	; 0x0f
    27e8:	58 88       	ldd	r5, Y+16	; 0x10
    27ea:	6d 88       	ldd	r6, Y+21	; 0x15
    27ec:	7e 88       	ldd	r7, Y+22	; 0x16
    27ee:	8f 88       	ldd	r8, Y+23	; 0x17
    27f0:	98 8c       	ldd	r9, Y+24	; 0x18
    27f2:	ee 24       	eor	r14, r14
    27f4:	ff 24       	eor	r15, r15
    27f6:	87 01       	movw	r16, r14
    27f8:	aa 24       	eor	r10, r10
    27fa:	bb 24       	eor	r11, r11
    27fc:	65 01       	movw	r12, r10
    27fe:	40 e0       	ldi	r20, 0x00	; 0
    2800:	50 e0       	ldi	r21, 0x00	; 0
    2802:	60 e0       	ldi	r22, 0x00	; 0
    2804:	70 e0       	ldi	r23, 0x00	; 0
    2806:	e0 e0       	ldi	r30, 0x00	; 0
    2808:	f0 e0       	ldi	r31, 0x00	; 0
    280a:	c1 01       	movw	r24, r2
    280c:	81 70       	andi	r24, 0x01	; 1
    280e:	90 70       	andi	r25, 0x00	; 0
    2810:	89 2b       	or	r24, r25
    2812:	e9 f0       	breq	.+58     	; 0x284e <__mulsf3+0xf4>
    2814:	e6 0c       	add	r14, r6
    2816:	f7 1c       	adc	r15, r7
    2818:	08 1d       	adc	r16, r8
    281a:	19 1d       	adc	r17, r9
    281c:	9a 01       	movw	r18, r20
    281e:	ab 01       	movw	r20, r22
    2820:	2a 0d       	add	r18, r10
    2822:	3b 1d       	adc	r19, r11
    2824:	4c 1d       	adc	r20, r12
    2826:	5d 1d       	adc	r21, r13
    2828:	80 e0       	ldi	r24, 0x00	; 0
    282a:	90 e0       	ldi	r25, 0x00	; 0
    282c:	a0 e0       	ldi	r26, 0x00	; 0
    282e:	b0 e0       	ldi	r27, 0x00	; 0
    2830:	e6 14       	cp	r14, r6
    2832:	f7 04       	cpc	r15, r7
    2834:	08 05       	cpc	r16, r8
    2836:	19 05       	cpc	r17, r9
    2838:	20 f4       	brcc	.+8      	; 0x2842 <__mulsf3+0xe8>
    283a:	81 e0       	ldi	r24, 0x01	; 1
    283c:	90 e0       	ldi	r25, 0x00	; 0
    283e:	a0 e0       	ldi	r26, 0x00	; 0
    2840:	b0 e0       	ldi	r27, 0x00	; 0
    2842:	ba 01       	movw	r22, r20
    2844:	a9 01       	movw	r20, r18
    2846:	48 0f       	add	r20, r24
    2848:	59 1f       	adc	r21, r25
    284a:	6a 1f       	adc	r22, r26
    284c:	7b 1f       	adc	r23, r27
    284e:	aa 0c       	add	r10, r10
    2850:	bb 1c       	adc	r11, r11
    2852:	cc 1c       	adc	r12, r12
    2854:	dd 1c       	adc	r13, r13
    2856:	97 fe       	sbrs	r9, 7
    2858:	08 c0       	rjmp	.+16     	; 0x286a <__mulsf3+0x110>
    285a:	81 e0       	ldi	r24, 0x01	; 1
    285c:	90 e0       	ldi	r25, 0x00	; 0
    285e:	a0 e0       	ldi	r26, 0x00	; 0
    2860:	b0 e0       	ldi	r27, 0x00	; 0
    2862:	a8 2a       	or	r10, r24
    2864:	b9 2a       	or	r11, r25
    2866:	ca 2a       	or	r12, r26
    2868:	db 2a       	or	r13, r27
    286a:	31 96       	adiw	r30, 0x01	; 1
    286c:	e0 32       	cpi	r30, 0x20	; 32
    286e:	f1 05       	cpc	r31, r1
    2870:	49 f0       	breq	.+18     	; 0x2884 <__mulsf3+0x12a>
    2872:	66 0c       	add	r6, r6
    2874:	77 1c       	adc	r7, r7
    2876:	88 1c       	adc	r8, r8
    2878:	99 1c       	adc	r9, r9
    287a:	56 94       	lsr	r5
    287c:	47 94       	ror	r4
    287e:	37 94       	ror	r3
    2880:	27 94       	ror	r2
    2882:	c3 cf       	rjmp	.-122    	; 0x280a <__mulsf3+0xb0>
    2884:	fa 85       	ldd	r31, Y+10	; 0x0a
    2886:	ea 89       	ldd	r30, Y+18	; 0x12
    2888:	2b 89       	ldd	r18, Y+19	; 0x13
    288a:	3c 89       	ldd	r19, Y+20	; 0x14
    288c:	8b 85       	ldd	r24, Y+11	; 0x0b
    288e:	9c 85       	ldd	r25, Y+12	; 0x0c
    2890:	28 0f       	add	r18, r24
    2892:	39 1f       	adc	r19, r25
    2894:	2e 5f       	subi	r18, 0xFE	; 254
    2896:	3f 4f       	sbci	r19, 0xFF	; 255
    2898:	17 c0       	rjmp	.+46     	; 0x28c8 <__mulsf3+0x16e>
    289a:	ca 01       	movw	r24, r20
    289c:	81 70       	andi	r24, 0x01	; 1
    289e:	90 70       	andi	r25, 0x00	; 0
    28a0:	89 2b       	or	r24, r25
    28a2:	61 f0       	breq	.+24     	; 0x28bc <__mulsf3+0x162>
    28a4:	16 95       	lsr	r17
    28a6:	07 95       	ror	r16
    28a8:	f7 94       	ror	r15
    28aa:	e7 94       	ror	r14
    28ac:	80 e0       	ldi	r24, 0x00	; 0
    28ae:	90 e0       	ldi	r25, 0x00	; 0
    28b0:	a0 e0       	ldi	r26, 0x00	; 0
    28b2:	b0 e8       	ldi	r27, 0x80	; 128
    28b4:	e8 2a       	or	r14, r24
    28b6:	f9 2a       	or	r15, r25
    28b8:	0a 2b       	or	r16, r26
    28ba:	1b 2b       	or	r17, r27
    28bc:	76 95       	lsr	r23
    28be:	67 95       	ror	r22
    28c0:	57 95       	ror	r21
    28c2:	47 95       	ror	r20
    28c4:	2f 5f       	subi	r18, 0xFF	; 255
    28c6:	3f 4f       	sbci	r19, 0xFF	; 255
    28c8:	77 fd       	sbrc	r23, 7
    28ca:	e7 cf       	rjmp	.-50     	; 0x289a <__mulsf3+0x140>
    28cc:	0c c0       	rjmp	.+24     	; 0x28e6 <__mulsf3+0x18c>
    28ce:	44 0f       	add	r20, r20
    28d0:	55 1f       	adc	r21, r21
    28d2:	66 1f       	adc	r22, r22
    28d4:	77 1f       	adc	r23, r23
    28d6:	17 fd       	sbrc	r17, 7
    28d8:	41 60       	ori	r20, 0x01	; 1
    28da:	ee 0c       	add	r14, r14
    28dc:	ff 1c       	adc	r15, r15
    28de:	00 1f       	adc	r16, r16
    28e0:	11 1f       	adc	r17, r17
    28e2:	21 50       	subi	r18, 0x01	; 1
    28e4:	30 40       	sbci	r19, 0x00	; 0
    28e6:	40 30       	cpi	r20, 0x00	; 0
    28e8:	90 e0       	ldi	r25, 0x00	; 0
    28ea:	59 07       	cpc	r21, r25
    28ec:	90 e0       	ldi	r25, 0x00	; 0
    28ee:	69 07       	cpc	r22, r25
    28f0:	90 e4       	ldi	r25, 0x40	; 64
    28f2:	79 07       	cpc	r23, r25
    28f4:	60 f3       	brcs	.-40     	; 0x28ce <__mulsf3+0x174>
    28f6:	2b 8f       	std	Y+27, r18	; 0x1b
    28f8:	3c 8f       	std	Y+28, r19	; 0x1c
    28fa:	db 01       	movw	r26, r22
    28fc:	ca 01       	movw	r24, r20
    28fe:	8f 77       	andi	r24, 0x7F	; 127
    2900:	90 70       	andi	r25, 0x00	; 0
    2902:	a0 70       	andi	r26, 0x00	; 0
    2904:	b0 70       	andi	r27, 0x00	; 0
    2906:	80 34       	cpi	r24, 0x40	; 64
    2908:	91 05       	cpc	r25, r1
    290a:	a1 05       	cpc	r26, r1
    290c:	b1 05       	cpc	r27, r1
    290e:	61 f4       	brne	.+24     	; 0x2928 <__mulsf3+0x1ce>
    2910:	47 fd       	sbrc	r20, 7
    2912:	0a c0       	rjmp	.+20     	; 0x2928 <__mulsf3+0x1ce>
    2914:	e1 14       	cp	r14, r1
    2916:	f1 04       	cpc	r15, r1
    2918:	01 05       	cpc	r16, r1
    291a:	11 05       	cpc	r17, r1
    291c:	29 f0       	breq	.+10     	; 0x2928 <__mulsf3+0x1ce>
    291e:	40 5c       	subi	r20, 0xC0	; 192
    2920:	5f 4f       	sbci	r21, 0xFF	; 255
    2922:	6f 4f       	sbci	r22, 0xFF	; 255
    2924:	7f 4f       	sbci	r23, 0xFF	; 255
    2926:	40 78       	andi	r20, 0x80	; 128
    2928:	1a 8e       	std	Y+26, r1	; 0x1a
    292a:	fe 17       	cp	r31, r30
    292c:	11 f0       	breq	.+4      	; 0x2932 <__mulsf3+0x1d8>
    292e:	81 e0       	ldi	r24, 0x01	; 1
    2930:	8a 8f       	std	Y+26, r24	; 0x1a
    2932:	4d 8f       	std	Y+29, r20	; 0x1d
    2934:	5e 8f       	std	Y+30, r21	; 0x1e
    2936:	6f 8f       	std	Y+31, r22	; 0x1f
    2938:	78 a3       	std	Y+32, r23	; 0x20
    293a:	83 e0       	ldi	r24, 0x03	; 3
    293c:	89 8f       	std	Y+25, r24	; 0x19
    293e:	ce 01       	movw	r24, r28
    2940:	49 96       	adiw	r24, 0x19	; 25
    2942:	0e 94 08 16 	call	0x2c10	; 0x2c10 <__pack_f>
    2946:	a0 96       	adiw	r28, 0x20	; 32
    2948:	e2 e1       	ldi	r30, 0x12	; 18
    294a:	0c 94 f1 17 	jmp	0x2fe2	; 0x2fe2 <__epilogue_restores__>

0000294e <__gtsf2>:
    294e:	a8 e1       	ldi	r26, 0x18	; 24
    2950:	b0 e0       	ldi	r27, 0x00	; 0
    2952:	ed ea       	ldi	r30, 0xAD	; 173
    2954:	f4 e1       	ldi	r31, 0x14	; 20
    2956:	0c 94 e1 17 	jmp	0x2fc2	; 0x2fc2 <__prologue_saves__+0x18>
    295a:	69 83       	std	Y+1, r22	; 0x01
    295c:	7a 83       	std	Y+2, r23	; 0x02
    295e:	8b 83       	std	Y+3, r24	; 0x03
    2960:	9c 83       	std	Y+4, r25	; 0x04
    2962:	2d 83       	std	Y+5, r18	; 0x05
    2964:	3e 83       	std	Y+6, r19	; 0x06
    2966:	4f 83       	std	Y+7, r20	; 0x07
    2968:	58 87       	std	Y+8, r21	; 0x08
    296a:	89 e0       	ldi	r24, 0x09	; 9
    296c:	e8 2e       	mov	r14, r24
    296e:	f1 2c       	mov	r15, r1
    2970:	ec 0e       	add	r14, r28
    2972:	fd 1e       	adc	r15, r29
    2974:	ce 01       	movw	r24, r28
    2976:	01 96       	adiw	r24, 0x01	; 1
    2978:	b7 01       	movw	r22, r14
    297a:	0e 94 dd 16 	call	0x2dba	; 0x2dba <__unpack_f>
    297e:	8e 01       	movw	r16, r28
    2980:	0f 5e       	subi	r16, 0xEF	; 239
    2982:	1f 4f       	sbci	r17, 0xFF	; 255
    2984:	ce 01       	movw	r24, r28
    2986:	05 96       	adiw	r24, 0x05	; 5
    2988:	b8 01       	movw	r22, r16
    298a:	0e 94 dd 16 	call	0x2dba	; 0x2dba <__unpack_f>
    298e:	89 85       	ldd	r24, Y+9	; 0x09
    2990:	82 30       	cpi	r24, 0x02	; 2
    2992:	40 f0       	brcs	.+16     	; 0x29a4 <__gtsf2+0x56>
    2994:	89 89       	ldd	r24, Y+17	; 0x11
    2996:	82 30       	cpi	r24, 0x02	; 2
    2998:	28 f0       	brcs	.+10     	; 0x29a4 <__gtsf2+0x56>
    299a:	c7 01       	movw	r24, r14
    299c:	b8 01       	movw	r22, r16
    299e:	0e 94 55 17 	call	0x2eaa	; 0x2eaa <__fpcmp_parts_f>
    29a2:	01 c0       	rjmp	.+2      	; 0x29a6 <__gtsf2+0x58>
    29a4:	8f ef       	ldi	r24, 0xFF	; 255
    29a6:	68 96       	adiw	r28, 0x18	; 24
    29a8:	e6 e0       	ldi	r30, 0x06	; 6
    29aa:	0c 94 fd 17 	jmp	0x2ffa	; 0x2ffa <__epilogue_restores__+0x18>

000029ae <__ltsf2>:
    29ae:	a8 e1       	ldi	r26, 0x18	; 24
    29b0:	b0 e0       	ldi	r27, 0x00	; 0
    29b2:	ed ed       	ldi	r30, 0xDD	; 221
    29b4:	f4 e1       	ldi	r31, 0x14	; 20
    29b6:	0c 94 e1 17 	jmp	0x2fc2	; 0x2fc2 <__prologue_saves__+0x18>
    29ba:	69 83       	std	Y+1, r22	; 0x01
    29bc:	7a 83       	std	Y+2, r23	; 0x02
    29be:	8b 83       	std	Y+3, r24	; 0x03
    29c0:	9c 83       	std	Y+4, r25	; 0x04
    29c2:	2d 83       	std	Y+5, r18	; 0x05
    29c4:	3e 83       	std	Y+6, r19	; 0x06
    29c6:	4f 83       	std	Y+7, r20	; 0x07
    29c8:	58 87       	std	Y+8, r21	; 0x08
    29ca:	89 e0       	ldi	r24, 0x09	; 9
    29cc:	e8 2e       	mov	r14, r24
    29ce:	f1 2c       	mov	r15, r1
    29d0:	ec 0e       	add	r14, r28
    29d2:	fd 1e       	adc	r15, r29
    29d4:	ce 01       	movw	r24, r28
    29d6:	01 96       	adiw	r24, 0x01	; 1
    29d8:	b7 01       	movw	r22, r14
    29da:	0e 94 dd 16 	call	0x2dba	; 0x2dba <__unpack_f>
    29de:	8e 01       	movw	r16, r28
    29e0:	0f 5e       	subi	r16, 0xEF	; 239
    29e2:	1f 4f       	sbci	r17, 0xFF	; 255
    29e4:	ce 01       	movw	r24, r28
    29e6:	05 96       	adiw	r24, 0x05	; 5
    29e8:	b8 01       	movw	r22, r16
    29ea:	0e 94 dd 16 	call	0x2dba	; 0x2dba <__unpack_f>
    29ee:	89 85       	ldd	r24, Y+9	; 0x09
    29f0:	82 30       	cpi	r24, 0x02	; 2
    29f2:	40 f0       	brcs	.+16     	; 0x2a04 <__ltsf2+0x56>
    29f4:	89 89       	ldd	r24, Y+17	; 0x11
    29f6:	82 30       	cpi	r24, 0x02	; 2
    29f8:	28 f0       	brcs	.+10     	; 0x2a04 <__ltsf2+0x56>
    29fa:	c7 01       	movw	r24, r14
    29fc:	b8 01       	movw	r22, r16
    29fe:	0e 94 55 17 	call	0x2eaa	; 0x2eaa <__fpcmp_parts_f>
    2a02:	01 c0       	rjmp	.+2      	; 0x2a06 <__ltsf2+0x58>
    2a04:	81 e0       	ldi	r24, 0x01	; 1
    2a06:	68 96       	adiw	r28, 0x18	; 24
    2a08:	e6 e0       	ldi	r30, 0x06	; 6
    2a0a:	0c 94 fd 17 	jmp	0x2ffa	; 0x2ffa <__epilogue_restores__+0x18>

00002a0e <__floatsisf>:
    2a0e:	a8 e0       	ldi	r26, 0x08	; 8
    2a10:	b0 e0       	ldi	r27, 0x00	; 0
    2a12:	ed e0       	ldi	r30, 0x0D	; 13
    2a14:	f5 e1       	ldi	r31, 0x15	; 21
    2a16:	0c 94 de 17 	jmp	0x2fbc	; 0x2fbc <__prologue_saves__+0x12>
    2a1a:	9b 01       	movw	r18, r22
    2a1c:	ac 01       	movw	r20, r24
    2a1e:	83 e0       	ldi	r24, 0x03	; 3
    2a20:	89 83       	std	Y+1, r24	; 0x01
    2a22:	da 01       	movw	r26, r20
    2a24:	c9 01       	movw	r24, r18
    2a26:	88 27       	eor	r24, r24
    2a28:	b7 fd       	sbrc	r27, 7
    2a2a:	83 95       	inc	r24
    2a2c:	99 27       	eor	r25, r25
    2a2e:	aa 27       	eor	r26, r26
    2a30:	bb 27       	eor	r27, r27
    2a32:	b8 2e       	mov	r11, r24
    2a34:	21 15       	cp	r18, r1
    2a36:	31 05       	cpc	r19, r1
    2a38:	41 05       	cpc	r20, r1
    2a3a:	51 05       	cpc	r21, r1
    2a3c:	19 f4       	brne	.+6      	; 0x2a44 <__floatsisf+0x36>
    2a3e:	82 e0       	ldi	r24, 0x02	; 2
    2a40:	89 83       	std	Y+1, r24	; 0x01
    2a42:	3a c0       	rjmp	.+116    	; 0x2ab8 <__floatsisf+0xaa>
    2a44:	88 23       	and	r24, r24
    2a46:	a9 f0       	breq	.+42     	; 0x2a72 <__floatsisf+0x64>
    2a48:	20 30       	cpi	r18, 0x00	; 0
    2a4a:	80 e0       	ldi	r24, 0x00	; 0
    2a4c:	38 07       	cpc	r19, r24
    2a4e:	80 e0       	ldi	r24, 0x00	; 0
    2a50:	48 07       	cpc	r20, r24
    2a52:	80 e8       	ldi	r24, 0x80	; 128
    2a54:	58 07       	cpc	r21, r24
    2a56:	29 f4       	brne	.+10     	; 0x2a62 <__floatsisf+0x54>
    2a58:	60 e0       	ldi	r22, 0x00	; 0
    2a5a:	70 e0       	ldi	r23, 0x00	; 0
    2a5c:	80 e0       	ldi	r24, 0x00	; 0
    2a5e:	9f ec       	ldi	r25, 0xCF	; 207
    2a60:	30 c0       	rjmp	.+96     	; 0x2ac2 <__floatsisf+0xb4>
    2a62:	ee 24       	eor	r14, r14
    2a64:	ff 24       	eor	r15, r15
    2a66:	87 01       	movw	r16, r14
    2a68:	e2 1a       	sub	r14, r18
    2a6a:	f3 0a       	sbc	r15, r19
    2a6c:	04 0b       	sbc	r16, r20
    2a6e:	15 0b       	sbc	r17, r21
    2a70:	02 c0       	rjmp	.+4      	; 0x2a76 <__floatsisf+0x68>
    2a72:	79 01       	movw	r14, r18
    2a74:	8a 01       	movw	r16, r20
    2a76:	8e e1       	ldi	r24, 0x1E	; 30
    2a78:	c8 2e       	mov	r12, r24
    2a7a:	d1 2c       	mov	r13, r1
    2a7c:	dc 82       	std	Y+4, r13	; 0x04
    2a7e:	cb 82       	std	Y+3, r12	; 0x03
    2a80:	ed 82       	std	Y+5, r14	; 0x05
    2a82:	fe 82       	std	Y+6, r15	; 0x06
    2a84:	0f 83       	std	Y+7, r16	; 0x07
    2a86:	18 87       	std	Y+8, r17	; 0x08
    2a88:	c8 01       	movw	r24, r16
    2a8a:	b7 01       	movw	r22, r14
    2a8c:	0e 94 b9 15 	call	0x2b72	; 0x2b72 <__clzsi2>
    2a90:	01 97       	sbiw	r24, 0x01	; 1
    2a92:	18 16       	cp	r1, r24
    2a94:	19 06       	cpc	r1, r25
    2a96:	84 f4       	brge	.+32     	; 0x2ab8 <__floatsisf+0xaa>
    2a98:	08 2e       	mov	r0, r24
    2a9a:	04 c0       	rjmp	.+8      	; 0x2aa4 <__floatsisf+0x96>
    2a9c:	ee 0c       	add	r14, r14
    2a9e:	ff 1c       	adc	r15, r15
    2aa0:	00 1f       	adc	r16, r16
    2aa2:	11 1f       	adc	r17, r17
    2aa4:	0a 94       	dec	r0
    2aa6:	d2 f7       	brpl	.-12     	; 0x2a9c <__floatsisf+0x8e>
    2aa8:	ed 82       	std	Y+5, r14	; 0x05
    2aaa:	fe 82       	std	Y+6, r15	; 0x06
    2aac:	0f 83       	std	Y+7, r16	; 0x07
    2aae:	18 87       	std	Y+8, r17	; 0x08
    2ab0:	c8 1a       	sub	r12, r24
    2ab2:	d9 0a       	sbc	r13, r25
    2ab4:	dc 82       	std	Y+4, r13	; 0x04
    2ab6:	cb 82       	std	Y+3, r12	; 0x03
    2ab8:	ba 82       	std	Y+2, r11	; 0x02
    2aba:	ce 01       	movw	r24, r28
    2abc:	01 96       	adiw	r24, 0x01	; 1
    2abe:	0e 94 08 16 	call	0x2c10	; 0x2c10 <__pack_f>
    2ac2:	28 96       	adiw	r28, 0x08	; 8
    2ac4:	e9 e0       	ldi	r30, 0x09	; 9
    2ac6:	0c 94 fa 17 	jmp	0x2ff4	; 0x2ff4 <__epilogue_restores__+0x12>

00002aca <__fixsfsi>:
    2aca:	ac e0       	ldi	r26, 0x0C	; 12
    2acc:	b0 e0       	ldi	r27, 0x00	; 0
    2ace:	eb e6       	ldi	r30, 0x6B	; 107
    2ad0:	f5 e1       	ldi	r31, 0x15	; 21
    2ad2:	0c 94 e5 17 	jmp	0x2fca	; 0x2fca <__prologue_saves__+0x20>
    2ad6:	69 83       	std	Y+1, r22	; 0x01
    2ad8:	7a 83       	std	Y+2, r23	; 0x02
    2ada:	8b 83       	std	Y+3, r24	; 0x03
    2adc:	9c 83       	std	Y+4, r25	; 0x04
    2ade:	ce 01       	movw	r24, r28
    2ae0:	01 96       	adiw	r24, 0x01	; 1
    2ae2:	be 01       	movw	r22, r28
    2ae4:	6b 5f       	subi	r22, 0xFB	; 251
    2ae6:	7f 4f       	sbci	r23, 0xFF	; 255
    2ae8:	0e 94 dd 16 	call	0x2dba	; 0x2dba <__unpack_f>
    2aec:	8d 81       	ldd	r24, Y+5	; 0x05
    2aee:	82 30       	cpi	r24, 0x02	; 2
    2af0:	61 f1       	breq	.+88     	; 0x2b4a <__fixsfsi+0x80>
    2af2:	82 30       	cpi	r24, 0x02	; 2
    2af4:	50 f1       	brcs	.+84     	; 0x2b4a <__fixsfsi+0x80>
    2af6:	84 30       	cpi	r24, 0x04	; 4
    2af8:	21 f4       	brne	.+8      	; 0x2b02 <__fixsfsi+0x38>
    2afa:	8e 81       	ldd	r24, Y+6	; 0x06
    2afc:	88 23       	and	r24, r24
    2afe:	51 f1       	breq	.+84     	; 0x2b54 <__fixsfsi+0x8a>
    2b00:	2e c0       	rjmp	.+92     	; 0x2b5e <__fixsfsi+0x94>
    2b02:	2f 81       	ldd	r18, Y+7	; 0x07
    2b04:	38 85       	ldd	r19, Y+8	; 0x08
    2b06:	37 fd       	sbrc	r19, 7
    2b08:	20 c0       	rjmp	.+64     	; 0x2b4a <__fixsfsi+0x80>
    2b0a:	6e 81       	ldd	r22, Y+6	; 0x06
    2b0c:	2f 31       	cpi	r18, 0x1F	; 31
    2b0e:	31 05       	cpc	r19, r1
    2b10:	1c f0       	brlt	.+6      	; 0x2b18 <__fixsfsi+0x4e>
    2b12:	66 23       	and	r22, r22
    2b14:	f9 f0       	breq	.+62     	; 0x2b54 <__fixsfsi+0x8a>
    2b16:	23 c0       	rjmp	.+70     	; 0x2b5e <__fixsfsi+0x94>
    2b18:	8e e1       	ldi	r24, 0x1E	; 30
    2b1a:	90 e0       	ldi	r25, 0x00	; 0
    2b1c:	82 1b       	sub	r24, r18
    2b1e:	93 0b       	sbc	r25, r19
    2b20:	29 85       	ldd	r18, Y+9	; 0x09
    2b22:	3a 85       	ldd	r19, Y+10	; 0x0a
    2b24:	4b 85       	ldd	r20, Y+11	; 0x0b
    2b26:	5c 85       	ldd	r21, Y+12	; 0x0c
    2b28:	04 c0       	rjmp	.+8      	; 0x2b32 <__fixsfsi+0x68>
    2b2a:	56 95       	lsr	r21
    2b2c:	47 95       	ror	r20
    2b2e:	37 95       	ror	r19
    2b30:	27 95       	ror	r18
    2b32:	8a 95       	dec	r24
    2b34:	d2 f7       	brpl	.-12     	; 0x2b2a <__fixsfsi+0x60>
    2b36:	66 23       	and	r22, r22
    2b38:	b1 f0       	breq	.+44     	; 0x2b66 <__fixsfsi+0x9c>
    2b3a:	50 95       	com	r21
    2b3c:	40 95       	com	r20
    2b3e:	30 95       	com	r19
    2b40:	21 95       	neg	r18
    2b42:	3f 4f       	sbci	r19, 0xFF	; 255
    2b44:	4f 4f       	sbci	r20, 0xFF	; 255
    2b46:	5f 4f       	sbci	r21, 0xFF	; 255
    2b48:	0e c0       	rjmp	.+28     	; 0x2b66 <__fixsfsi+0x9c>
    2b4a:	20 e0       	ldi	r18, 0x00	; 0
    2b4c:	30 e0       	ldi	r19, 0x00	; 0
    2b4e:	40 e0       	ldi	r20, 0x00	; 0
    2b50:	50 e0       	ldi	r21, 0x00	; 0
    2b52:	09 c0       	rjmp	.+18     	; 0x2b66 <__fixsfsi+0x9c>
    2b54:	2f ef       	ldi	r18, 0xFF	; 255
    2b56:	3f ef       	ldi	r19, 0xFF	; 255
    2b58:	4f ef       	ldi	r20, 0xFF	; 255
    2b5a:	5f e7       	ldi	r21, 0x7F	; 127
    2b5c:	04 c0       	rjmp	.+8      	; 0x2b66 <__fixsfsi+0x9c>
    2b5e:	20 e0       	ldi	r18, 0x00	; 0
    2b60:	30 e0       	ldi	r19, 0x00	; 0
    2b62:	40 e0       	ldi	r20, 0x00	; 0
    2b64:	50 e8       	ldi	r21, 0x80	; 128
    2b66:	b9 01       	movw	r22, r18
    2b68:	ca 01       	movw	r24, r20
    2b6a:	2c 96       	adiw	r28, 0x0c	; 12
    2b6c:	e2 e0       	ldi	r30, 0x02	; 2
    2b6e:	0c 94 01 18 	jmp	0x3002	; 0x3002 <__epilogue_restores__+0x20>

00002b72 <__clzsi2>:
    2b72:	ef 92       	push	r14
    2b74:	ff 92       	push	r15
    2b76:	0f 93       	push	r16
    2b78:	1f 93       	push	r17
    2b7a:	7b 01       	movw	r14, r22
    2b7c:	8c 01       	movw	r16, r24
    2b7e:	80 e0       	ldi	r24, 0x00	; 0
    2b80:	e8 16       	cp	r14, r24
    2b82:	80 e0       	ldi	r24, 0x00	; 0
    2b84:	f8 06       	cpc	r15, r24
    2b86:	81 e0       	ldi	r24, 0x01	; 1
    2b88:	08 07       	cpc	r16, r24
    2b8a:	80 e0       	ldi	r24, 0x00	; 0
    2b8c:	18 07       	cpc	r17, r24
    2b8e:	88 f4       	brcc	.+34     	; 0x2bb2 <__clzsi2+0x40>
    2b90:	8f ef       	ldi	r24, 0xFF	; 255
    2b92:	e8 16       	cp	r14, r24
    2b94:	f1 04       	cpc	r15, r1
    2b96:	01 05       	cpc	r16, r1
    2b98:	11 05       	cpc	r17, r1
    2b9a:	31 f0       	breq	.+12     	; 0x2ba8 <__clzsi2+0x36>
    2b9c:	28 f0       	brcs	.+10     	; 0x2ba8 <__clzsi2+0x36>
    2b9e:	88 e0       	ldi	r24, 0x08	; 8
    2ba0:	90 e0       	ldi	r25, 0x00	; 0
    2ba2:	a0 e0       	ldi	r26, 0x00	; 0
    2ba4:	b0 e0       	ldi	r27, 0x00	; 0
    2ba6:	17 c0       	rjmp	.+46     	; 0x2bd6 <__clzsi2+0x64>
    2ba8:	80 e0       	ldi	r24, 0x00	; 0
    2baa:	90 e0       	ldi	r25, 0x00	; 0
    2bac:	a0 e0       	ldi	r26, 0x00	; 0
    2bae:	b0 e0       	ldi	r27, 0x00	; 0
    2bb0:	12 c0       	rjmp	.+36     	; 0x2bd6 <__clzsi2+0x64>
    2bb2:	80 e0       	ldi	r24, 0x00	; 0
    2bb4:	e8 16       	cp	r14, r24
    2bb6:	80 e0       	ldi	r24, 0x00	; 0
    2bb8:	f8 06       	cpc	r15, r24
    2bba:	80 e0       	ldi	r24, 0x00	; 0
    2bbc:	08 07       	cpc	r16, r24
    2bbe:	81 e0       	ldi	r24, 0x01	; 1
    2bc0:	18 07       	cpc	r17, r24
    2bc2:	28 f0       	brcs	.+10     	; 0x2bce <__clzsi2+0x5c>
    2bc4:	88 e1       	ldi	r24, 0x18	; 24
    2bc6:	90 e0       	ldi	r25, 0x00	; 0
    2bc8:	a0 e0       	ldi	r26, 0x00	; 0
    2bca:	b0 e0       	ldi	r27, 0x00	; 0
    2bcc:	04 c0       	rjmp	.+8      	; 0x2bd6 <__clzsi2+0x64>
    2bce:	80 e1       	ldi	r24, 0x10	; 16
    2bd0:	90 e0       	ldi	r25, 0x00	; 0
    2bd2:	a0 e0       	ldi	r26, 0x00	; 0
    2bd4:	b0 e0       	ldi	r27, 0x00	; 0
    2bd6:	20 e2       	ldi	r18, 0x20	; 32
    2bd8:	30 e0       	ldi	r19, 0x00	; 0
    2bda:	40 e0       	ldi	r20, 0x00	; 0
    2bdc:	50 e0       	ldi	r21, 0x00	; 0
    2bde:	28 1b       	sub	r18, r24
    2be0:	39 0b       	sbc	r19, r25
    2be2:	4a 0b       	sbc	r20, r26
    2be4:	5b 0b       	sbc	r21, r27
    2be6:	04 c0       	rjmp	.+8      	; 0x2bf0 <__clzsi2+0x7e>
    2be8:	16 95       	lsr	r17
    2bea:	07 95       	ror	r16
    2bec:	f7 94       	ror	r15
    2bee:	e7 94       	ror	r14
    2bf0:	8a 95       	dec	r24
    2bf2:	d2 f7       	brpl	.-12     	; 0x2be8 <__clzsi2+0x76>
    2bf4:	f7 01       	movw	r30, r14
    2bf6:	e1 57       	subi	r30, 0x71	; 113
    2bf8:	fe 4f       	sbci	r31, 0xFE	; 254
    2bfa:	80 81       	ld	r24, Z
    2bfc:	28 1b       	sub	r18, r24
    2bfe:	31 09       	sbc	r19, r1
    2c00:	41 09       	sbc	r20, r1
    2c02:	51 09       	sbc	r21, r1
    2c04:	c9 01       	movw	r24, r18
    2c06:	1f 91       	pop	r17
    2c08:	0f 91       	pop	r16
    2c0a:	ff 90       	pop	r15
    2c0c:	ef 90       	pop	r14
    2c0e:	08 95       	ret

00002c10 <__pack_f>:
    2c10:	df 92       	push	r13
    2c12:	ef 92       	push	r14
    2c14:	ff 92       	push	r15
    2c16:	0f 93       	push	r16
    2c18:	1f 93       	push	r17
    2c1a:	fc 01       	movw	r30, r24
    2c1c:	e4 80       	ldd	r14, Z+4	; 0x04
    2c1e:	f5 80       	ldd	r15, Z+5	; 0x05
    2c20:	06 81       	ldd	r16, Z+6	; 0x06
    2c22:	17 81       	ldd	r17, Z+7	; 0x07
    2c24:	d1 80       	ldd	r13, Z+1	; 0x01
    2c26:	80 81       	ld	r24, Z
    2c28:	82 30       	cpi	r24, 0x02	; 2
    2c2a:	48 f4       	brcc	.+18     	; 0x2c3e <__pack_f+0x2e>
    2c2c:	80 e0       	ldi	r24, 0x00	; 0
    2c2e:	90 e0       	ldi	r25, 0x00	; 0
    2c30:	a0 e1       	ldi	r26, 0x10	; 16
    2c32:	b0 e0       	ldi	r27, 0x00	; 0
    2c34:	e8 2a       	or	r14, r24
    2c36:	f9 2a       	or	r15, r25
    2c38:	0a 2b       	or	r16, r26
    2c3a:	1b 2b       	or	r17, r27
    2c3c:	a5 c0       	rjmp	.+330    	; 0x2d88 <__pack_f+0x178>
    2c3e:	84 30       	cpi	r24, 0x04	; 4
    2c40:	09 f4       	brne	.+2      	; 0x2c44 <__pack_f+0x34>
    2c42:	9f c0       	rjmp	.+318    	; 0x2d82 <__pack_f+0x172>
    2c44:	82 30       	cpi	r24, 0x02	; 2
    2c46:	21 f4       	brne	.+8      	; 0x2c50 <__pack_f+0x40>
    2c48:	ee 24       	eor	r14, r14
    2c4a:	ff 24       	eor	r15, r15
    2c4c:	87 01       	movw	r16, r14
    2c4e:	05 c0       	rjmp	.+10     	; 0x2c5a <__pack_f+0x4a>
    2c50:	e1 14       	cp	r14, r1
    2c52:	f1 04       	cpc	r15, r1
    2c54:	01 05       	cpc	r16, r1
    2c56:	11 05       	cpc	r17, r1
    2c58:	19 f4       	brne	.+6      	; 0x2c60 <__pack_f+0x50>
    2c5a:	e0 e0       	ldi	r30, 0x00	; 0
    2c5c:	f0 e0       	ldi	r31, 0x00	; 0
    2c5e:	96 c0       	rjmp	.+300    	; 0x2d8c <__pack_f+0x17c>
    2c60:	62 81       	ldd	r22, Z+2	; 0x02
    2c62:	73 81       	ldd	r23, Z+3	; 0x03
    2c64:	9f ef       	ldi	r25, 0xFF	; 255
    2c66:	62 38       	cpi	r22, 0x82	; 130
    2c68:	79 07       	cpc	r23, r25
    2c6a:	0c f0       	brlt	.+2      	; 0x2c6e <__pack_f+0x5e>
    2c6c:	5b c0       	rjmp	.+182    	; 0x2d24 <__pack_f+0x114>
    2c6e:	22 e8       	ldi	r18, 0x82	; 130
    2c70:	3f ef       	ldi	r19, 0xFF	; 255
    2c72:	26 1b       	sub	r18, r22
    2c74:	37 0b       	sbc	r19, r23
    2c76:	2a 31       	cpi	r18, 0x1A	; 26
    2c78:	31 05       	cpc	r19, r1
    2c7a:	2c f0       	brlt	.+10     	; 0x2c86 <__pack_f+0x76>
    2c7c:	20 e0       	ldi	r18, 0x00	; 0
    2c7e:	30 e0       	ldi	r19, 0x00	; 0
    2c80:	40 e0       	ldi	r20, 0x00	; 0
    2c82:	50 e0       	ldi	r21, 0x00	; 0
    2c84:	2a c0       	rjmp	.+84     	; 0x2cda <__pack_f+0xca>
    2c86:	b8 01       	movw	r22, r16
    2c88:	a7 01       	movw	r20, r14
    2c8a:	02 2e       	mov	r0, r18
    2c8c:	04 c0       	rjmp	.+8      	; 0x2c96 <__pack_f+0x86>
    2c8e:	76 95       	lsr	r23
    2c90:	67 95       	ror	r22
    2c92:	57 95       	ror	r21
    2c94:	47 95       	ror	r20
    2c96:	0a 94       	dec	r0
    2c98:	d2 f7       	brpl	.-12     	; 0x2c8e <__pack_f+0x7e>
    2c9a:	81 e0       	ldi	r24, 0x01	; 1
    2c9c:	90 e0       	ldi	r25, 0x00	; 0
    2c9e:	a0 e0       	ldi	r26, 0x00	; 0
    2ca0:	b0 e0       	ldi	r27, 0x00	; 0
    2ca2:	04 c0       	rjmp	.+8      	; 0x2cac <__pack_f+0x9c>
    2ca4:	88 0f       	add	r24, r24
    2ca6:	99 1f       	adc	r25, r25
    2ca8:	aa 1f       	adc	r26, r26
    2caa:	bb 1f       	adc	r27, r27
    2cac:	2a 95       	dec	r18
    2cae:	d2 f7       	brpl	.-12     	; 0x2ca4 <__pack_f+0x94>
    2cb0:	01 97       	sbiw	r24, 0x01	; 1
    2cb2:	a1 09       	sbc	r26, r1
    2cb4:	b1 09       	sbc	r27, r1
    2cb6:	8e 21       	and	r24, r14
    2cb8:	9f 21       	and	r25, r15
    2cba:	a0 23       	and	r26, r16
    2cbc:	b1 23       	and	r27, r17
    2cbe:	00 97       	sbiw	r24, 0x00	; 0
    2cc0:	a1 05       	cpc	r26, r1
    2cc2:	b1 05       	cpc	r27, r1
    2cc4:	21 f0       	breq	.+8      	; 0x2cce <__pack_f+0xbe>
    2cc6:	81 e0       	ldi	r24, 0x01	; 1
    2cc8:	90 e0       	ldi	r25, 0x00	; 0
    2cca:	a0 e0       	ldi	r26, 0x00	; 0
    2ccc:	b0 e0       	ldi	r27, 0x00	; 0
    2cce:	9a 01       	movw	r18, r20
    2cd0:	ab 01       	movw	r20, r22
    2cd2:	28 2b       	or	r18, r24
    2cd4:	39 2b       	or	r19, r25
    2cd6:	4a 2b       	or	r20, r26
    2cd8:	5b 2b       	or	r21, r27
    2cda:	da 01       	movw	r26, r20
    2cdc:	c9 01       	movw	r24, r18
    2cde:	8f 77       	andi	r24, 0x7F	; 127
    2ce0:	90 70       	andi	r25, 0x00	; 0
    2ce2:	a0 70       	andi	r26, 0x00	; 0
    2ce4:	b0 70       	andi	r27, 0x00	; 0
    2ce6:	80 34       	cpi	r24, 0x40	; 64
    2ce8:	91 05       	cpc	r25, r1
    2cea:	a1 05       	cpc	r26, r1
    2cec:	b1 05       	cpc	r27, r1
    2cee:	39 f4       	brne	.+14     	; 0x2cfe <__pack_f+0xee>
    2cf0:	27 ff       	sbrs	r18, 7
    2cf2:	09 c0       	rjmp	.+18     	; 0x2d06 <__pack_f+0xf6>
    2cf4:	20 5c       	subi	r18, 0xC0	; 192
    2cf6:	3f 4f       	sbci	r19, 0xFF	; 255
    2cf8:	4f 4f       	sbci	r20, 0xFF	; 255
    2cfa:	5f 4f       	sbci	r21, 0xFF	; 255
    2cfc:	04 c0       	rjmp	.+8      	; 0x2d06 <__pack_f+0xf6>
    2cfe:	21 5c       	subi	r18, 0xC1	; 193
    2d00:	3f 4f       	sbci	r19, 0xFF	; 255
    2d02:	4f 4f       	sbci	r20, 0xFF	; 255
    2d04:	5f 4f       	sbci	r21, 0xFF	; 255
    2d06:	e0 e0       	ldi	r30, 0x00	; 0
    2d08:	f0 e0       	ldi	r31, 0x00	; 0
    2d0a:	20 30       	cpi	r18, 0x00	; 0
    2d0c:	a0 e0       	ldi	r26, 0x00	; 0
    2d0e:	3a 07       	cpc	r19, r26
    2d10:	a0 e0       	ldi	r26, 0x00	; 0
    2d12:	4a 07       	cpc	r20, r26
    2d14:	a0 e4       	ldi	r26, 0x40	; 64
    2d16:	5a 07       	cpc	r21, r26
    2d18:	10 f0       	brcs	.+4      	; 0x2d1e <__pack_f+0x10e>
    2d1a:	e1 e0       	ldi	r30, 0x01	; 1
    2d1c:	f0 e0       	ldi	r31, 0x00	; 0
    2d1e:	79 01       	movw	r14, r18
    2d20:	8a 01       	movw	r16, r20
    2d22:	27 c0       	rjmp	.+78     	; 0x2d72 <__pack_f+0x162>
    2d24:	60 38       	cpi	r22, 0x80	; 128
    2d26:	71 05       	cpc	r23, r1
    2d28:	64 f5       	brge	.+88     	; 0x2d82 <__pack_f+0x172>
    2d2a:	fb 01       	movw	r30, r22
    2d2c:	e1 58       	subi	r30, 0x81	; 129
    2d2e:	ff 4f       	sbci	r31, 0xFF	; 255
    2d30:	d8 01       	movw	r26, r16
    2d32:	c7 01       	movw	r24, r14
    2d34:	8f 77       	andi	r24, 0x7F	; 127
    2d36:	90 70       	andi	r25, 0x00	; 0
    2d38:	a0 70       	andi	r26, 0x00	; 0
    2d3a:	b0 70       	andi	r27, 0x00	; 0
    2d3c:	80 34       	cpi	r24, 0x40	; 64
    2d3e:	91 05       	cpc	r25, r1
    2d40:	a1 05       	cpc	r26, r1
    2d42:	b1 05       	cpc	r27, r1
    2d44:	39 f4       	brne	.+14     	; 0x2d54 <__pack_f+0x144>
    2d46:	e7 fe       	sbrs	r14, 7
    2d48:	0d c0       	rjmp	.+26     	; 0x2d64 <__pack_f+0x154>
    2d4a:	80 e4       	ldi	r24, 0x40	; 64
    2d4c:	90 e0       	ldi	r25, 0x00	; 0
    2d4e:	a0 e0       	ldi	r26, 0x00	; 0
    2d50:	b0 e0       	ldi	r27, 0x00	; 0
    2d52:	04 c0       	rjmp	.+8      	; 0x2d5c <__pack_f+0x14c>
    2d54:	8f e3       	ldi	r24, 0x3F	; 63
    2d56:	90 e0       	ldi	r25, 0x00	; 0
    2d58:	a0 e0       	ldi	r26, 0x00	; 0
    2d5a:	b0 e0       	ldi	r27, 0x00	; 0
    2d5c:	e8 0e       	add	r14, r24
    2d5e:	f9 1e       	adc	r15, r25
    2d60:	0a 1f       	adc	r16, r26
    2d62:	1b 1f       	adc	r17, r27
    2d64:	17 ff       	sbrs	r17, 7
    2d66:	05 c0       	rjmp	.+10     	; 0x2d72 <__pack_f+0x162>
    2d68:	16 95       	lsr	r17
    2d6a:	07 95       	ror	r16
    2d6c:	f7 94       	ror	r15
    2d6e:	e7 94       	ror	r14
    2d70:	31 96       	adiw	r30, 0x01	; 1
    2d72:	87 e0       	ldi	r24, 0x07	; 7
    2d74:	16 95       	lsr	r17
    2d76:	07 95       	ror	r16
    2d78:	f7 94       	ror	r15
    2d7a:	e7 94       	ror	r14
    2d7c:	8a 95       	dec	r24
    2d7e:	d1 f7       	brne	.-12     	; 0x2d74 <__pack_f+0x164>
    2d80:	05 c0       	rjmp	.+10     	; 0x2d8c <__pack_f+0x17c>
    2d82:	ee 24       	eor	r14, r14
    2d84:	ff 24       	eor	r15, r15
    2d86:	87 01       	movw	r16, r14
    2d88:	ef ef       	ldi	r30, 0xFF	; 255
    2d8a:	f0 e0       	ldi	r31, 0x00	; 0
    2d8c:	6e 2f       	mov	r22, r30
    2d8e:	67 95       	ror	r22
    2d90:	66 27       	eor	r22, r22
    2d92:	67 95       	ror	r22
    2d94:	90 2f       	mov	r25, r16
    2d96:	9f 77       	andi	r25, 0x7F	; 127
    2d98:	d7 94       	ror	r13
    2d9a:	dd 24       	eor	r13, r13
    2d9c:	d7 94       	ror	r13
    2d9e:	8e 2f       	mov	r24, r30
    2da0:	86 95       	lsr	r24
    2da2:	49 2f       	mov	r20, r25
    2da4:	46 2b       	or	r20, r22
    2da6:	58 2f       	mov	r21, r24
    2da8:	5d 29       	or	r21, r13
    2daa:	b7 01       	movw	r22, r14
    2dac:	ca 01       	movw	r24, r20
    2dae:	1f 91       	pop	r17
    2db0:	0f 91       	pop	r16
    2db2:	ff 90       	pop	r15
    2db4:	ef 90       	pop	r14
    2db6:	df 90       	pop	r13
    2db8:	08 95       	ret

00002dba <__unpack_f>:
    2dba:	fc 01       	movw	r30, r24
    2dbc:	db 01       	movw	r26, r22
    2dbe:	40 81       	ld	r20, Z
    2dc0:	51 81       	ldd	r21, Z+1	; 0x01
    2dc2:	22 81       	ldd	r18, Z+2	; 0x02
    2dc4:	62 2f       	mov	r22, r18
    2dc6:	6f 77       	andi	r22, 0x7F	; 127
    2dc8:	70 e0       	ldi	r23, 0x00	; 0
    2dca:	22 1f       	adc	r18, r18
    2dcc:	22 27       	eor	r18, r18
    2dce:	22 1f       	adc	r18, r18
    2dd0:	93 81       	ldd	r25, Z+3	; 0x03
    2dd2:	89 2f       	mov	r24, r25
    2dd4:	88 0f       	add	r24, r24
    2dd6:	82 2b       	or	r24, r18
    2dd8:	28 2f       	mov	r18, r24
    2dda:	30 e0       	ldi	r19, 0x00	; 0
    2ddc:	99 1f       	adc	r25, r25
    2dde:	99 27       	eor	r25, r25
    2de0:	99 1f       	adc	r25, r25
    2de2:	11 96       	adiw	r26, 0x01	; 1
    2de4:	9c 93       	st	X, r25
    2de6:	11 97       	sbiw	r26, 0x01	; 1
    2de8:	21 15       	cp	r18, r1
    2dea:	31 05       	cpc	r19, r1
    2dec:	a9 f5       	brne	.+106    	; 0x2e58 <__unpack_f+0x9e>
    2dee:	41 15       	cp	r20, r1
    2df0:	51 05       	cpc	r21, r1
    2df2:	61 05       	cpc	r22, r1
    2df4:	71 05       	cpc	r23, r1
    2df6:	11 f4       	brne	.+4      	; 0x2dfc <__unpack_f+0x42>
    2df8:	82 e0       	ldi	r24, 0x02	; 2
    2dfa:	37 c0       	rjmp	.+110    	; 0x2e6a <__unpack_f+0xb0>
    2dfc:	82 e8       	ldi	r24, 0x82	; 130
    2dfe:	9f ef       	ldi	r25, 0xFF	; 255
    2e00:	13 96       	adiw	r26, 0x03	; 3
    2e02:	9c 93       	st	X, r25
    2e04:	8e 93       	st	-X, r24
    2e06:	12 97       	sbiw	r26, 0x02	; 2
    2e08:	9a 01       	movw	r18, r20
    2e0a:	ab 01       	movw	r20, r22
    2e0c:	67 e0       	ldi	r22, 0x07	; 7
    2e0e:	22 0f       	add	r18, r18
    2e10:	33 1f       	adc	r19, r19
    2e12:	44 1f       	adc	r20, r20
    2e14:	55 1f       	adc	r21, r21
    2e16:	6a 95       	dec	r22
    2e18:	d1 f7       	brne	.-12     	; 0x2e0e <__unpack_f+0x54>
    2e1a:	83 e0       	ldi	r24, 0x03	; 3
    2e1c:	8c 93       	st	X, r24
    2e1e:	0d c0       	rjmp	.+26     	; 0x2e3a <__unpack_f+0x80>
    2e20:	22 0f       	add	r18, r18
    2e22:	33 1f       	adc	r19, r19
    2e24:	44 1f       	adc	r20, r20
    2e26:	55 1f       	adc	r21, r21
    2e28:	12 96       	adiw	r26, 0x02	; 2
    2e2a:	8d 91       	ld	r24, X+
    2e2c:	9c 91       	ld	r25, X
    2e2e:	13 97       	sbiw	r26, 0x03	; 3
    2e30:	01 97       	sbiw	r24, 0x01	; 1
    2e32:	13 96       	adiw	r26, 0x03	; 3
    2e34:	9c 93       	st	X, r25
    2e36:	8e 93       	st	-X, r24
    2e38:	12 97       	sbiw	r26, 0x02	; 2
    2e3a:	20 30       	cpi	r18, 0x00	; 0
    2e3c:	80 e0       	ldi	r24, 0x00	; 0
    2e3e:	38 07       	cpc	r19, r24
    2e40:	80 e0       	ldi	r24, 0x00	; 0
    2e42:	48 07       	cpc	r20, r24
    2e44:	80 e4       	ldi	r24, 0x40	; 64
    2e46:	58 07       	cpc	r21, r24
    2e48:	58 f3       	brcs	.-42     	; 0x2e20 <__unpack_f+0x66>
    2e4a:	14 96       	adiw	r26, 0x04	; 4
    2e4c:	2d 93       	st	X+, r18
    2e4e:	3d 93       	st	X+, r19
    2e50:	4d 93       	st	X+, r20
    2e52:	5c 93       	st	X, r21
    2e54:	17 97       	sbiw	r26, 0x07	; 7
    2e56:	08 95       	ret
    2e58:	2f 3f       	cpi	r18, 0xFF	; 255
    2e5a:	31 05       	cpc	r19, r1
    2e5c:	79 f4       	brne	.+30     	; 0x2e7c <__unpack_f+0xc2>
    2e5e:	41 15       	cp	r20, r1
    2e60:	51 05       	cpc	r21, r1
    2e62:	61 05       	cpc	r22, r1
    2e64:	71 05       	cpc	r23, r1
    2e66:	19 f4       	brne	.+6      	; 0x2e6e <__unpack_f+0xb4>
    2e68:	84 e0       	ldi	r24, 0x04	; 4
    2e6a:	8c 93       	st	X, r24
    2e6c:	08 95       	ret
    2e6e:	64 ff       	sbrs	r22, 4
    2e70:	03 c0       	rjmp	.+6      	; 0x2e78 <__unpack_f+0xbe>
    2e72:	81 e0       	ldi	r24, 0x01	; 1
    2e74:	8c 93       	st	X, r24
    2e76:	12 c0       	rjmp	.+36     	; 0x2e9c <__unpack_f+0xe2>
    2e78:	1c 92       	st	X, r1
    2e7a:	10 c0       	rjmp	.+32     	; 0x2e9c <__unpack_f+0xe2>
    2e7c:	2f 57       	subi	r18, 0x7F	; 127
    2e7e:	30 40       	sbci	r19, 0x00	; 0
    2e80:	13 96       	adiw	r26, 0x03	; 3
    2e82:	3c 93       	st	X, r19
    2e84:	2e 93       	st	-X, r18
    2e86:	12 97       	sbiw	r26, 0x02	; 2
    2e88:	83 e0       	ldi	r24, 0x03	; 3
    2e8a:	8c 93       	st	X, r24
    2e8c:	87 e0       	ldi	r24, 0x07	; 7
    2e8e:	44 0f       	add	r20, r20
    2e90:	55 1f       	adc	r21, r21
    2e92:	66 1f       	adc	r22, r22
    2e94:	77 1f       	adc	r23, r23
    2e96:	8a 95       	dec	r24
    2e98:	d1 f7       	brne	.-12     	; 0x2e8e <__unpack_f+0xd4>
    2e9a:	70 64       	ori	r23, 0x40	; 64
    2e9c:	14 96       	adiw	r26, 0x04	; 4
    2e9e:	4d 93       	st	X+, r20
    2ea0:	5d 93       	st	X+, r21
    2ea2:	6d 93       	st	X+, r22
    2ea4:	7c 93       	st	X, r23
    2ea6:	17 97       	sbiw	r26, 0x07	; 7
    2ea8:	08 95       	ret

00002eaa <__fpcmp_parts_f>:
    2eaa:	1f 93       	push	r17
    2eac:	dc 01       	movw	r26, r24
    2eae:	fb 01       	movw	r30, r22
    2eb0:	9c 91       	ld	r25, X
    2eb2:	92 30       	cpi	r25, 0x02	; 2
    2eb4:	08 f4       	brcc	.+2      	; 0x2eb8 <__fpcmp_parts_f+0xe>
    2eb6:	47 c0       	rjmp	.+142    	; 0x2f46 <__fpcmp_parts_f+0x9c>
    2eb8:	80 81       	ld	r24, Z
    2eba:	82 30       	cpi	r24, 0x02	; 2
    2ebc:	08 f4       	brcc	.+2      	; 0x2ec0 <__fpcmp_parts_f+0x16>
    2ebe:	43 c0       	rjmp	.+134    	; 0x2f46 <__fpcmp_parts_f+0x9c>
    2ec0:	94 30       	cpi	r25, 0x04	; 4
    2ec2:	51 f4       	brne	.+20     	; 0x2ed8 <__fpcmp_parts_f+0x2e>
    2ec4:	11 96       	adiw	r26, 0x01	; 1
    2ec6:	1c 91       	ld	r17, X
    2ec8:	84 30       	cpi	r24, 0x04	; 4
    2eca:	99 f5       	brne	.+102    	; 0x2f32 <__fpcmp_parts_f+0x88>
    2ecc:	81 81       	ldd	r24, Z+1	; 0x01
    2ece:	68 2f       	mov	r22, r24
    2ed0:	70 e0       	ldi	r23, 0x00	; 0
    2ed2:	61 1b       	sub	r22, r17
    2ed4:	71 09       	sbc	r23, r1
    2ed6:	3f c0       	rjmp	.+126    	; 0x2f56 <__fpcmp_parts_f+0xac>
    2ed8:	84 30       	cpi	r24, 0x04	; 4
    2eda:	21 f0       	breq	.+8      	; 0x2ee4 <__fpcmp_parts_f+0x3a>
    2edc:	92 30       	cpi	r25, 0x02	; 2
    2ede:	31 f4       	brne	.+12     	; 0x2eec <__fpcmp_parts_f+0x42>
    2ee0:	82 30       	cpi	r24, 0x02	; 2
    2ee2:	b9 f1       	breq	.+110    	; 0x2f52 <__fpcmp_parts_f+0xa8>
    2ee4:	81 81       	ldd	r24, Z+1	; 0x01
    2ee6:	88 23       	and	r24, r24
    2ee8:	89 f1       	breq	.+98     	; 0x2f4c <__fpcmp_parts_f+0xa2>
    2eea:	2d c0       	rjmp	.+90     	; 0x2f46 <__fpcmp_parts_f+0x9c>
    2eec:	11 96       	adiw	r26, 0x01	; 1
    2eee:	1c 91       	ld	r17, X
    2ef0:	11 97       	sbiw	r26, 0x01	; 1
    2ef2:	82 30       	cpi	r24, 0x02	; 2
    2ef4:	f1 f0       	breq	.+60     	; 0x2f32 <__fpcmp_parts_f+0x88>
    2ef6:	81 81       	ldd	r24, Z+1	; 0x01
    2ef8:	18 17       	cp	r17, r24
    2efa:	d9 f4       	brne	.+54     	; 0x2f32 <__fpcmp_parts_f+0x88>
    2efc:	12 96       	adiw	r26, 0x02	; 2
    2efe:	2d 91       	ld	r18, X+
    2f00:	3c 91       	ld	r19, X
    2f02:	13 97       	sbiw	r26, 0x03	; 3
    2f04:	82 81       	ldd	r24, Z+2	; 0x02
    2f06:	93 81       	ldd	r25, Z+3	; 0x03
    2f08:	82 17       	cp	r24, r18
    2f0a:	93 07       	cpc	r25, r19
    2f0c:	94 f0       	brlt	.+36     	; 0x2f32 <__fpcmp_parts_f+0x88>
    2f0e:	28 17       	cp	r18, r24
    2f10:	39 07       	cpc	r19, r25
    2f12:	bc f0       	brlt	.+46     	; 0x2f42 <__fpcmp_parts_f+0x98>
    2f14:	14 96       	adiw	r26, 0x04	; 4
    2f16:	8d 91       	ld	r24, X+
    2f18:	9d 91       	ld	r25, X+
    2f1a:	0d 90       	ld	r0, X+
    2f1c:	bc 91       	ld	r27, X
    2f1e:	a0 2d       	mov	r26, r0
    2f20:	24 81       	ldd	r18, Z+4	; 0x04
    2f22:	35 81       	ldd	r19, Z+5	; 0x05
    2f24:	46 81       	ldd	r20, Z+6	; 0x06
    2f26:	57 81       	ldd	r21, Z+7	; 0x07
    2f28:	28 17       	cp	r18, r24
    2f2a:	39 07       	cpc	r19, r25
    2f2c:	4a 07       	cpc	r20, r26
    2f2e:	5b 07       	cpc	r21, r27
    2f30:	18 f4       	brcc	.+6      	; 0x2f38 <__fpcmp_parts_f+0x8e>
    2f32:	11 23       	and	r17, r17
    2f34:	41 f0       	breq	.+16     	; 0x2f46 <__fpcmp_parts_f+0x9c>
    2f36:	0a c0       	rjmp	.+20     	; 0x2f4c <__fpcmp_parts_f+0xa2>
    2f38:	82 17       	cp	r24, r18
    2f3a:	93 07       	cpc	r25, r19
    2f3c:	a4 07       	cpc	r26, r20
    2f3e:	b5 07       	cpc	r27, r21
    2f40:	40 f4       	brcc	.+16     	; 0x2f52 <__fpcmp_parts_f+0xa8>
    2f42:	11 23       	and	r17, r17
    2f44:	19 f0       	breq	.+6      	; 0x2f4c <__fpcmp_parts_f+0xa2>
    2f46:	61 e0       	ldi	r22, 0x01	; 1
    2f48:	70 e0       	ldi	r23, 0x00	; 0
    2f4a:	05 c0       	rjmp	.+10     	; 0x2f56 <__fpcmp_parts_f+0xac>
    2f4c:	6f ef       	ldi	r22, 0xFF	; 255
    2f4e:	7f ef       	ldi	r23, 0xFF	; 255
    2f50:	02 c0       	rjmp	.+4      	; 0x2f56 <__fpcmp_parts_f+0xac>
    2f52:	60 e0       	ldi	r22, 0x00	; 0
    2f54:	70 e0       	ldi	r23, 0x00	; 0
    2f56:	cb 01       	movw	r24, r22
    2f58:	1f 91       	pop	r17
    2f5a:	08 95       	ret

00002f5c <__divmodhi4>:
    2f5c:	97 fb       	bst	r25, 7
    2f5e:	09 2e       	mov	r0, r25
    2f60:	07 26       	eor	r0, r23
    2f62:	0a d0       	rcall	.+20     	; 0x2f78 <__divmodhi4_neg1>
    2f64:	77 fd       	sbrc	r23, 7
    2f66:	04 d0       	rcall	.+8      	; 0x2f70 <__divmodhi4_neg2>
    2f68:	0c d0       	rcall	.+24     	; 0x2f82 <__udivmodhi4>
    2f6a:	06 d0       	rcall	.+12     	; 0x2f78 <__divmodhi4_neg1>
    2f6c:	00 20       	and	r0, r0
    2f6e:	1a f4       	brpl	.+6      	; 0x2f76 <__divmodhi4_exit>

00002f70 <__divmodhi4_neg2>:
    2f70:	70 95       	com	r23
    2f72:	61 95       	neg	r22
    2f74:	7f 4f       	sbci	r23, 0xFF	; 255

00002f76 <__divmodhi4_exit>:
    2f76:	08 95       	ret

00002f78 <__divmodhi4_neg1>:
    2f78:	f6 f7       	brtc	.-4      	; 0x2f76 <__divmodhi4_exit>
    2f7a:	90 95       	com	r25
    2f7c:	81 95       	neg	r24
    2f7e:	9f 4f       	sbci	r25, 0xFF	; 255
    2f80:	08 95       	ret

00002f82 <__udivmodhi4>:
    2f82:	aa 1b       	sub	r26, r26
    2f84:	bb 1b       	sub	r27, r27
    2f86:	51 e1       	ldi	r21, 0x11	; 17
    2f88:	07 c0       	rjmp	.+14     	; 0x2f98 <__udivmodhi4_ep>

00002f8a <__udivmodhi4_loop>:
    2f8a:	aa 1f       	adc	r26, r26
    2f8c:	bb 1f       	adc	r27, r27
    2f8e:	a6 17       	cp	r26, r22
    2f90:	b7 07       	cpc	r27, r23
    2f92:	10 f0       	brcs	.+4      	; 0x2f98 <__udivmodhi4_ep>
    2f94:	a6 1b       	sub	r26, r22
    2f96:	b7 0b       	sbc	r27, r23

00002f98 <__udivmodhi4_ep>:
    2f98:	88 1f       	adc	r24, r24
    2f9a:	99 1f       	adc	r25, r25
    2f9c:	5a 95       	dec	r21
    2f9e:	a9 f7       	brne	.-22     	; 0x2f8a <__udivmodhi4_loop>
    2fa0:	80 95       	com	r24
    2fa2:	90 95       	com	r25
    2fa4:	bc 01       	movw	r22, r24
    2fa6:	cd 01       	movw	r24, r26
    2fa8:	08 95       	ret

00002faa <__prologue_saves__>:
    2faa:	2f 92       	push	r2
    2fac:	3f 92       	push	r3
    2fae:	4f 92       	push	r4
    2fb0:	5f 92       	push	r5
    2fb2:	6f 92       	push	r6
    2fb4:	7f 92       	push	r7
    2fb6:	8f 92       	push	r8
    2fb8:	9f 92       	push	r9
    2fba:	af 92       	push	r10
    2fbc:	bf 92       	push	r11
    2fbe:	cf 92       	push	r12
    2fc0:	df 92       	push	r13
    2fc2:	ef 92       	push	r14
    2fc4:	ff 92       	push	r15
    2fc6:	0f 93       	push	r16
    2fc8:	1f 93       	push	r17
    2fca:	cf 93       	push	r28
    2fcc:	df 93       	push	r29
    2fce:	cd b7       	in	r28, 0x3d	; 61
    2fd0:	de b7       	in	r29, 0x3e	; 62
    2fd2:	ca 1b       	sub	r28, r26
    2fd4:	db 0b       	sbc	r29, r27
    2fd6:	0f b6       	in	r0, 0x3f	; 63
    2fd8:	f8 94       	cli
    2fda:	de bf       	out	0x3e, r29	; 62
    2fdc:	0f be       	out	0x3f, r0	; 63
    2fde:	cd bf       	out	0x3d, r28	; 61
    2fe0:	09 94       	ijmp

00002fe2 <__epilogue_restores__>:
    2fe2:	2a 88       	ldd	r2, Y+18	; 0x12
    2fe4:	39 88       	ldd	r3, Y+17	; 0x11
    2fe6:	48 88       	ldd	r4, Y+16	; 0x10
    2fe8:	5f 84       	ldd	r5, Y+15	; 0x0f
    2fea:	6e 84       	ldd	r6, Y+14	; 0x0e
    2fec:	7d 84       	ldd	r7, Y+13	; 0x0d
    2fee:	8c 84       	ldd	r8, Y+12	; 0x0c
    2ff0:	9b 84       	ldd	r9, Y+11	; 0x0b
    2ff2:	aa 84       	ldd	r10, Y+10	; 0x0a
    2ff4:	b9 84       	ldd	r11, Y+9	; 0x09
    2ff6:	c8 84       	ldd	r12, Y+8	; 0x08
    2ff8:	df 80       	ldd	r13, Y+7	; 0x07
    2ffa:	ee 80       	ldd	r14, Y+6	; 0x06
    2ffc:	fd 80       	ldd	r15, Y+5	; 0x05
    2ffe:	0c 81       	ldd	r16, Y+4	; 0x04
    3000:	1b 81       	ldd	r17, Y+3	; 0x03
    3002:	aa 81       	ldd	r26, Y+2	; 0x02
    3004:	b9 81       	ldd	r27, Y+1	; 0x01
    3006:	ce 0f       	add	r28, r30
    3008:	d1 1d       	adc	r29, r1
    300a:	0f b6       	in	r0, 0x3f	; 63
    300c:	f8 94       	cli
    300e:	de bf       	out	0x3e, r29	; 62
    3010:	0f be       	out	0x3f, r0	; 63
    3012:	cd bf       	out	0x3d, r28	; 61
    3014:	ed 01       	movw	r28, r26
    3016:	08 95       	ret

00003018 <_exit>:
    3018:	f8 94       	cli

0000301a <__stop_program>:
    301a:	ff cf       	rjmp	.-2      	; 0x301a <__stop_program>
