ARM GAS  C:\Users\MATSUD~1\AppData\Local\Temp\ccLjdAaK.s 			page 1


   1              		.syntax unified
   2              		.cpu cortex-m3
   3              		.fpu softvfp
   4              		.eabi_attribute 20, 1
   5              		.eabi_attribute 21, 1
   6              		.eabi_attribute 23, 3
   7              		.eabi_attribute 24, 1
   8              		.eabi_attribute 25, 1
   9              		.eabi_attribute 26, 1
  10              		.eabi_attribute 30, 6
  11              		.eabi_attribute 34, 1
  12              		.eabi_attribute 18, 4
  13              		.thumb
  14              		.file	"LIN_1.c"
  15              		.text
  16              	.Ltext0:
  17              		.cfi_sections	.debug_frame
  18              		.bss
  19              	LIN_1_periodCounter:
  20 0000 00       		.space	1
  21              	LIN_1_status:
  22 0001 00       		.space	1
  23              	LIN_1_syncCounts:
  24 0002 00       		.space	1
  25              	LIN_1_auxStatus:
  26 0003 00       		.space	1
  27              		.align	1
  28              	LIN_1_ioctlStatus:
  29 0004 0000     		.space	2
  30              		.align	1
  31              	LIN_1_ifcStatus:
  32 0006 0000     		.space	2
  33              	LIN_1_uartFsmState:
  34 0008 00       		.space	1
  35              	LIN_1_fsmFlags:
  36 0009 00       		.space	1
  37              		.align	1
  38              	LIN_1_initialClockDivider:
  39 000a 0000     		.space	2
  40              		.align	2
  41              	LIN_1_statusFlagArray:
  42 000c 0000     		.space	2
  43 000e 0000     		.align	2
  44              	LIN_1_volatileConfig:
  45 0010 0000     		.space	2
  46              		.section	.rodata
  47              		.align	2
  48              		.type	LIN_1_LinSlaveConfig, %object
  49              		.size	LIN_1_LinSlaveConfig, 2
  50              	LIN_1_LinSlaveConfig:
  51 0000 C1       		.byte	-63
  52 0001 03       		.byte	3
  53              		.data
  54              		.align	2
  55              		.type	LIN_1_Buffer_Frame1, %object
  56              		.size	LIN_1_Buffer_Frame1, 1
  57              	LIN_1_Buffer_Frame1:
ARM GAS  C:\Users\MATSUD~1\AppData\Local\Temp\ccLjdAaK.s 			page 2


  58 0000 FB       		.byte	-5
  59 0001 000000   		.align	2
  60              		.type	LIN_1_Buffer_Frame2, %object
  61              		.size	LIN_1_Buffer_Frame2, 1
  62              	LIN_1_Buffer_Frame2:
  63 0004 3F       		.byte	63
  64 0005 000000   		.section	.text.LIN_1_Start,"ax",%progbits
  65              		.align	2
  66              		.global	LIN_1_Start
  67              		.thumb
  68              		.thumb_func
  69              		.type	LIN_1_Start, %function
  70              	LIN_1_Start:
  71              	.LFB0:
  72              		.file 1 ".\\Generated_Source\\PSoC5\\LIN_1.c"
   1:.\Generated_Source\PSoC5/LIN_1.c **** /*******************************************************************************
   2:.\Generated_Source\PSoC5/LIN_1.c **** * File Name: LIN_1.c
   3:.\Generated_Source\PSoC5/LIN_1.c **** * Version 1.30
   4:.\Generated_Source\PSoC5/LIN_1.c **** *
   5:.\Generated_Source\PSoC5/LIN_1.c **** * Description:
   6:.\Generated_Source\PSoC5/LIN_1.c **** *  This file contains implementation of LIN Slave component.
   7:.\Generated_Source\PSoC5/LIN_1.c **** *
   8:.\Generated_Source\PSoC5/LIN_1.c **** ********************************************************************************
   9:.\Generated_Source\PSoC5/LIN_1.c **** * Copyright 2011-2013, Cypress Semiconductor Corporation.  All rights reserved.
  10:.\Generated_Source\PSoC5/LIN_1.c **** * You may use this file only in accordance with the license, terms, conditions,
  11:.\Generated_Source\PSoC5/LIN_1.c **** * disclaimers, and limitations in the end user license agreement accompanying
  12:.\Generated_Source\PSoC5/LIN_1.c **** * the software package with which this file was provided.
  13:.\Generated_Source\PSoC5/LIN_1.c **** *******************************************************************************/
  14:.\Generated_Source\PSoC5/LIN_1.c **** 
  15:.\Generated_Source\PSoC5/LIN_1.c **** #include "LIN_1.h"
  16:.\Generated_Source\PSoC5/LIN_1.c **** 
  17:.\Generated_Source\PSoC5/LIN_1.c **** 
  18:.\Generated_Source\PSoC5/LIN_1.c **** /*******************************************************************************
  19:.\Generated_Source\PSoC5/LIN_1.c **** *  Place your includes, defines and variable declarations here
  20:.\Generated_Source\PSoC5/LIN_1.c **** *******************************************************************************/
  21:.\Generated_Source\PSoC5/LIN_1.c **** /* `#START LIN_1_DECLARATIONS` */
  22:.\Generated_Source\PSoC5/LIN_1.c **** 
  23:.\Generated_Source\PSoC5/LIN_1.c **** /* `#END` */
  24:.\Generated_Source\PSoC5/LIN_1.c **** 
  25:.\Generated_Source\PSoC5/LIN_1.c **** /* Internal APIs */
  26:.\Generated_Source\PSoC5/LIN_1.c **** static l_u8    LIN_1_FindPidIndex(l_u8 pid);
  27:.\Generated_Source\PSoC5/LIN_1.c **** static void    LIN_1_EndFrame(l_u8 status);
  28:.\Generated_Source\PSoC5/LIN_1.c **** static void    LIN_1_SetAssociatedFlags(l_u8 pIndex);
  29:.\Generated_Source\PSoC5/LIN_1.c **** 
  30:.\Generated_Source\PSoC5/LIN_1.c **** /* SAE J2602 is disabled */
  31:.\Generated_Source\PSoC5/LIN_1.c **** #if(0u == LIN_1_SAE_J2602)
  32:.\Generated_Source\PSoC5/LIN_1.c **** 
  33:.\Generated_Source\PSoC5/LIN_1.c ****     static l_bool  LIN_1_GetEtFlagValue(l_u8 pidIndex);
  34:.\Generated_Source\PSoC5/LIN_1.c ****     static void    LIN_1_ClearEtFlagValue(l_u8 pidIndex);
  35:.\Generated_Source\PSoC5/LIN_1.c **** 
  36:.\Generated_Source\PSoC5/LIN_1.c **** #endif /* (0u == LIN_1_SAE_J2602) */
  37:.\Generated_Source\PSoC5/LIN_1.c **** 
  38:.\Generated_Source\PSoC5/LIN_1.c **** #if(1u == LIN_1_TL_ENABLED)
  39:.\Generated_Source\PSoC5/LIN_1.c **** 
  40:.\Generated_Source\PSoC5/LIN_1.c ****     static void LIN_1_ProcessMrf(l_u8 frame[]);
  41:.\Generated_Source\PSoC5/LIN_1.c **** 
  42:.\Generated_Source\PSoC5/LIN_1.c ****     #if(1u == LIN_1_CS_ENABLED)
ARM GAS  C:\Users\MATSUD~1\AppData\Local\Temp\ccLjdAaK.s 			page 3


  43:.\Generated_Source\PSoC5/LIN_1.c ****     
  44:.\Generated_Source\PSoC5/LIN_1.c ****         #if((0u != (LIN_1_CS_SEL_SERVICES01 & LIN_1_NCS_0xB0_SEL)) || \
  45:.\Generated_Source\PSoC5/LIN_1.c ****             (0u != (LIN_1_CS_SEL_SERVICES01 & LIN_1_NCS_0xB2_SEL)))
  46:.\Generated_Source\PSoC5/LIN_1.c **** 
  47:.\Generated_Source\PSoC5/LIN_1.c ****             static l_bool LIN_1_LinProductId(volatile const l_u8 frameData[]);
  48:.\Generated_Source\PSoC5/LIN_1.c ****             
  49:.\Generated_Source\PSoC5/LIN_1.c ****         #endif /*((0u != (LIN_1_CS_SEL_SERVICES01 & LIN_1_NCS_0xB0_SEL)) || \
  50:.\Generated_Source\PSoC5/LIN_1.c ****                * (0u != (LIN_1_CS_SEL_SERVICES01 & LIN_1_NCS_0xB2_SEL)))
  51:.\Generated_Source\PSoC5/LIN_1.c ****                */
  52:.\Generated_Source\PSoC5/LIN_1.c ****                
  53:.\Generated_Source\PSoC5/LIN_1.c ****         #if(0u != (LIN_1_CS_SEL_SERVICES01 & LIN_1_NCS_0xB1_SEL))
  54:.\Generated_Source\PSoC5/LIN_1.c ****             #if(1u == LIN_1_LIN_2_0)
  55:.\Generated_Source\PSoC5/LIN_1.c **** 
  56:.\Generated_Source\PSoC5/LIN_1.c ****                 static l_u8 LIN_1_MessageId(volatile const l_u8* frameData);
  57:.\Generated_Source\PSoC5/LIN_1.c **** 
  58:.\Generated_Source\PSoC5/LIN_1.c ****             #endif /* (1u == LIN_1_LIN_2_0) */
  59:.\Generated_Source\PSoC5/LIN_1.c ****         #endif /* (0u != (LIN_1_CS_SEL_SERVICES01 & LIN_1_NCS_0xB1_SEL)) */
  60:.\Generated_Source\PSoC5/LIN_1.c **** 
  61:.\Generated_Source\PSoC5/LIN_1.c ****     #endif /* (1u == LIN_1_CS_ENABLED) */
  62:.\Generated_Source\PSoC5/LIN_1.c **** 
  63:.\Generated_Source\PSoC5/LIN_1.c ****     /* RAM copy of the slave NAD */
  64:.\Generated_Source\PSoC5/LIN_1.c ****     static volatile l_u8 LIN_1_nad;
  65:.\Generated_Source\PSoC5/LIN_1.c **** 
  66:.\Generated_Source\PSoC5/LIN_1.c **** #endif /* (1u == LIN_1_TL_ENABLED) */
  67:.\Generated_Source\PSoC5/LIN_1.c **** 
  68:.\Generated_Source\PSoC5/LIN_1.c **** #if(1u == LIN_1_TL_ENABLED)
  69:.\Generated_Source\PSoC5/LIN_1.c **** 
  70:.\Generated_Source\PSoC5/LIN_1.c ****     #if(1u == LIN_1_LIN_2_0)
  71:.\Generated_Source\PSoC5/LIN_1.c ****         #if(0u != (LIN_1_CS_SEL_SERVICES01 & (LIN_1_NCS_0xB2_SEL | \
  72:.\Generated_Source\PSoC5/LIN_1.c ****                 LIN_1_NCS_0xB1_SEL)))
  73:.\Generated_Source\PSoC5/LIN_1.c **** 
  74:.\Generated_Source\PSoC5/LIN_1.c ****         
  75:.\Generated_Source\PSoC5/LIN_1.c **** 
  76:.\Generated_Source\PSoC5/LIN_1.c ****         #endif /* (0u != (LIN_1_CS_SEL_SERVICES01 & (LIN_1_NCS_0xB2_SEL |
  77:.\Generated_Source\PSoC5/LIN_1.c ****                * LIN_1_NCS_0xB1_SEL)))
  78:.\Generated_Source\PSoC5/LIN_1.c ****                */
  79:.\Generated_Source\PSoC5/LIN_1.c **** 
  80:.\Generated_Source\PSoC5/LIN_1.c ****     #endif /* (1u == LIN_1_LIN_2_0) */
  81:.\Generated_Source\PSoC5/LIN_1.c **** 
  82:.\Generated_Source\PSoC5/LIN_1.c **** #endif /* (1u == LIN_1_TL_ENABLED) */
  83:.\Generated_Source\PSoC5/LIN_1.c **** 
  84:.\Generated_Source\PSoC5/LIN_1.c **** #if(1u == LIN_1_INACTIVITY_ENABLED)
  85:.\Generated_Source\PSoC5/LIN_1.c **** 
  86:.\Generated_Source\PSoC5/LIN_1.c ****     /* Free-running timer */
  87:.\Generated_Source\PSoC5/LIN_1.c ****     static l_u8    LIN_1_periodCounter;
  88:.\Generated_Source\PSoC5/LIN_1.c **** 
  89:.\Generated_Source\PSoC5/LIN_1.c **** #endif /* (1u == LIN_1_INACTIVITY_ENABLED) */
  90:.\Generated_Source\PSoC5/LIN_1.c **** 
  91:.\Generated_Source\PSoC5/LIN_1.c **** static volatile l_u8  LIN_1_status;       /* Internal Status                  */
  92:.\Generated_Source\PSoC5/LIN_1.c **** static volatile l_u8  LIN_1_syncCounts;   /* Sync Field Timer Counts          */
  93:.\Generated_Source\PSoC5/LIN_1.c **** static volatile l_u8  LIN_1_auxStatus;    /* Internal AUX ISR shadow status   */
  94:.\Generated_Source\PSoC5/LIN_1.c **** static volatile l_u16 LIN_1_ioctlStatus;  /* Status used by l_ifc_ioctl()     */
  95:.\Generated_Source\PSoC5/LIN_1.c **** static volatile l_u16 LIN_1_ifcStatus;    /* Interface communication status   */
  96:.\Generated_Source\PSoC5/LIN_1.c **** static volatile l_u8  LIN_1_uartFsmState; /* Current state of the UART ISR    */
  97:.\Generated_Source\PSoC5/LIN_1.c **** static volatile l_u8  LIN_1_fsmFlags;
  98:.\Generated_Source\PSoC5/LIN_1.c **** 
  99:.\Generated_Source\PSoC5/LIN_1.c **** #if(1u == LIN_1_AUTO_BAUD_RATE_SYNC)
ARM GAS  C:\Users\MATSUD~1\AppData\Local\Temp\ccLjdAaK.s 			page 4


 100:.\Generated_Source\PSoC5/LIN_1.c **** 
 101:.\Generated_Source\PSoC5/LIN_1.c ****     /* Initial clock divider */
 102:.\Generated_Source\PSoC5/LIN_1.c ****     static l_u16   LIN_1_initialClockDivider;
 103:.\Generated_Source\PSoC5/LIN_1.c **** 
 104:.\Generated_Source\PSoC5/LIN_1.c **** #endif  /* (1u == LIN_1_AUTO_BAUD_RATE_SYNC) */
 105:.\Generated_Source\PSoC5/LIN_1.c **** 
 106:.\Generated_Source\PSoC5/LIN_1.c **** #if(1u == LIN_1_SAE_J2602)
 107:.\Generated_Source\PSoC5/LIN_1.c **** 
 108:.\Generated_Source\PSoC5/LIN_1.c ****     /* J2602 status variable */
 109:.\Generated_Source\PSoC5/LIN_1.c ****     static l_u8 LIN_1_j2602Status;
 110:.\Generated_Source\PSoC5/LIN_1.c **** 
 111:.\Generated_Source\PSoC5/LIN_1.c **** #endif  /* (1u == LIN_1_SAE_J2602) */
 112:.\Generated_Source\PSoC5/LIN_1.c **** 
 113:.\Generated_Source\PSoC5/LIN_1.c **** /* Notification API statuses */
 114:.\Generated_Source\PSoC5/LIN_1.c **** static l_u8 LIN_1_statusFlagArray[LIN_1_SIG_FRAME_FLAGS_SIZE];
 115:.\Generated_Source\PSoC5/LIN_1.c **** 
 116:.\Generated_Source\PSoC5/LIN_1.c **** /* SAE J2602 is disabled */
 117:.\Generated_Source\PSoC5/LIN_1.c **** #if(0u == LIN_1_SAE_J2602)
 118:.\Generated_Source\PSoC5/LIN_1.c **** 
 119:.\Generated_Source\PSoC5/LIN_1.c ****     #if (0u != LIN_1_NUM_ET_FRAMES)
 120:.\Generated_Source\PSoC5/LIN_1.c ****         static l_u8 LIN_1_etFrameFlags[LIN_1_ET_FRAMES_FLAGS_SIZE];
 121:.\Generated_Source\PSoC5/LIN_1.c ****     #endif /* (0u != LIN_1_NUM_ET_FRAMES) */
 122:.\Generated_Source\PSoC5/LIN_1.c **** 
 123:.\Generated_Source\PSoC5/LIN_1.c **** #endif /* (0u == LIN_1_SAE_J2602) */
 124:.\Generated_Source\PSoC5/LIN_1.c **** 
 125:.\Generated_Source\PSoC5/LIN_1.c **** /* RAM copy of the slave configuration data */
 126:.\Generated_Source\PSoC5/LIN_1.c **** static volatile l_u8 LIN_1_volatileConfig[LIN_1_NUM_FRAMES];
 127:.\Generated_Source\PSoC5/LIN_1.c **** 
 128:.\Generated_Source\PSoC5/LIN_1.c **** 
 129:.\Generated_Source\PSoC5/LIN_1.c **** /****************************************************
 130:.\Generated_Source\PSoC5/LIN_1.c **** *   Transport Layer API
 131:.\Generated_Source\PSoC5/LIN_1.c **** *****************************************************/
 132:.\Generated_Source\PSoC5/LIN_1.c **** #if(1u == LIN_1_TL_ENABLED)
 133:.\Generated_Source\PSoC5/LIN_1.c **** 
 134:.\Generated_Source\PSoC5/LIN_1.c ****     #if(1u == LIN_1_CS_ENABLED)
 135:.\Generated_Source\PSoC5/LIN_1.c ****         
 136:.\Generated_Source\PSoC5/LIN_1.c ****         #if(0u != (LIN_1_CS_SEL_SERVICES01 & (LIN_1_NCS_0xB0_SEL | LIN_1_NCS_0xB1_SEL \
 137:.\Generated_Source\PSoC5/LIN_1.c ****                     | LIN_1_NCS_0xB2_SEL | LIN_1_NCS_0xB3_SEL)))
 138:.\Generated_Source\PSoC5/LIN_1.c ****         
 139:.\Generated_Source\PSoC5/LIN_1.c ****             /* LIN Slave Identification */
 140:.\Generated_Source\PSoC5/LIN_1.c ****             static const LIN_1_SLAVE_ID CYCODE LIN_1_slaveId =
 141:.\Generated_Source\PSoC5/LIN_1.c ****             {
 142:.\Generated_Source\PSoC5/LIN_1.c ****                 LIN_1_CS_SUPPLIER_ID,
 143:.\Generated_Source\PSoC5/LIN_1.c ****                 LIN_1_CS_FUNCTION_ID,
 144:.\Generated_Source\PSoC5/LIN_1.c ****                 LIN_1_CS_VARIANT
 145:.\Generated_Source\PSoC5/LIN_1.c ****             };
 146:.\Generated_Source\PSoC5/LIN_1.c ****             
 147:.\Generated_Source\PSoC5/LIN_1.c ****         #endif /*(0u != (LIN_1_CS_SEL_SERVICES01 & (LIN_1_NCS_0xB0_SEL 
 148:.\Generated_Source\PSoC5/LIN_1.c ****                * | LIN_1_NCS_0xB1_SEL | LIN_1_NCS_0xB2_SEL | 
 149:.\Generated_Source\PSoC5/LIN_1.c ****                * LIN_1_NCS_0xB3_SEL))
 150:.\Generated_Source\PSoC5/LIN_1.c ****                */
 151:.\Generated_Source\PSoC5/LIN_1.c **** 
 152:.\Generated_Source\PSoC5/LIN_1.c **** 
 153:.\Generated_Source\PSoC5/LIN_1.c ****         /* Serial Number */
 154:.\Generated_Source\PSoC5/LIN_1.c ****         static l_u8* LIN_1_serialNumber;
 155:.\Generated_Source\PSoC5/LIN_1.c **** 
 156:.\Generated_Source\PSoC5/LIN_1.c ****     #endif /* (1u == LIN_1_CS_ENABLED) */
ARM GAS  C:\Users\MATSUD~1\AppData\Local\Temp\ccLjdAaK.s 			page 5


 157:.\Generated_Source\PSoC5/LIN_1.c **** 
 158:.\Generated_Source\PSoC5/LIN_1.c ****     /* SRF buffer */
 159:.\Generated_Source\PSoC5/LIN_1.c ****     static volatile l_u8 LIN_1_srfBuffer[LIN_1_FRAME_BUFF_LEN];
 160:.\Generated_Source\PSoC5/LIN_1.c **** 
 161:.\Generated_Source\PSoC5/LIN_1.c ****     /* Transport Layer Rx and Tx Statuses */
 162:.\Generated_Source\PSoC5/LIN_1.c ****     static volatile l_u8   LIN_1_txTlStatus;
 163:.\Generated_Source\PSoC5/LIN_1.c ****     static volatile l_u8   LIN_1_rxTlStatus;
 164:.\Generated_Source\PSoC5/LIN_1.c **** 
 165:.\Generated_Source\PSoC5/LIN_1.c ****     /* Flags that are used for Transport Layer */
 166:.\Generated_Source\PSoC5/LIN_1.c ****     static volatile l_u8   LIN_1_tlFlags;
 167:.\Generated_Source\PSoC5/LIN_1.c **** 
 168:.\Generated_Source\PSoC5/LIN_1.c ****     #if(1u == LIN_1_TL_API_FORMAT)
 169:.\Generated_Source\PSoC5/LIN_1.c **** 
 170:.\Generated_Source\PSoC5/LIN_1.c ****         /* Internal variable used to store the PCI of the previous frame */
 171:.\Generated_Source\PSoC5/LIN_1.c ****         static l_u8 LIN_1_prevPci;
 172:.\Generated_Source\PSoC5/LIN_1.c ****     
 173:.\Generated_Source\PSoC5/LIN_1.c ****         static const    l_u8*   LIN_1_txTlDataPointer     = NULL;
 174:.\Generated_Source\PSoC5/LIN_1.c ****         static volatile l_u16   LIN_1_txTlDataCount;
 175:.\Generated_Source\PSoC5/LIN_1.c ****         static volatile l_u8*   LIN_1_rxTlDataPointer     = NULL;
 176:.\Generated_Source\PSoC5/LIN_1.c ****         static volatile l_u8*   LIN_1_rxTlInitDataPointer = NULL;
 177:.\Generated_Source\PSoC5/LIN_1.c ****         static volatile l_u8*   LIN_1_tlNadPointer      = NULL;
 178:.\Generated_Source\PSoC5/LIN_1.c ****         static volatile l_u16*  LIN_1_tlLengthPointer   = NULL;
 179:.\Generated_Source\PSoC5/LIN_1.c **** 
 180:.\Generated_Source\PSoC5/LIN_1.c ****         static volatile l_u16   LIN_1_txMessageLength = 0u;
 181:.\Generated_Source\PSoC5/LIN_1.c ****         static volatile l_u16   LIN_1_rxMessageLength = 0u;
 182:.\Generated_Source\PSoC5/LIN_1.c **** 
 183:.\Generated_Source\PSoC5/LIN_1.c ****         static volatile l_u8 LIN_1_txFrameCounter = 0u;
 184:.\Generated_Source\PSoC5/LIN_1.c ****         static l_u8 LIN_1_rxFrameCounter = 0u;
 185:.\Generated_Source\PSoC5/LIN_1.c ****         static volatile l_u8 LIN_1_tlTimeoutCnt   = 0u;
 186:.\Generated_Source\PSoC5/LIN_1.c **** 
 187:.\Generated_Source\PSoC5/LIN_1.c ****     #else
 188:.\Generated_Source\PSoC5/LIN_1.c **** 
 189:.\Generated_Source\PSoC5/LIN_1.c ****         /* Internal variables for buffer indexing */
 190:.\Generated_Source\PSoC5/LIN_1.c ****         static l_u8 LIN_1_txBufDepth;
 191:.\Generated_Source\PSoC5/LIN_1.c ****         static l_u8 LIN_1_rxBufDepth;
 192:.\Generated_Source\PSoC5/LIN_1.c **** 
 193:.\Generated_Source\PSoC5/LIN_1.c ****         /* The Master Request Frame (MRF) buffer */
 194:.\Generated_Source\PSoC5/LIN_1.c ****         static volatile l_u8 LIN_1_rawRxQueue[LIN_1_TL_RX_QUEUE_LEN];
 195:.\Generated_Source\PSoC5/LIN_1.c **** 
 196:.\Generated_Source\PSoC5/LIN_1.c ****         /* The Slave Response Frame (SRF) buffer */
 197:.\Generated_Source\PSoC5/LIN_1.c ****         static volatile l_u8 LIN_1_rawTxQueue[LIN_1_TL_TX_QUEUE_LEN];
 198:.\Generated_Source\PSoC5/LIN_1.c **** 
 199:.\Generated_Source\PSoC5/LIN_1.c ****         /* TX buffer indexes */
 200:.\Generated_Source\PSoC5/LIN_1.c ****         static volatile l_u16 LIN_1_txWrIndex;
 201:.\Generated_Source\PSoC5/LIN_1.c ****         static volatile l_u16 LIN_1_txRdIndex;
 202:.\Generated_Source\PSoC5/LIN_1.c **** 
 203:.\Generated_Source\PSoC5/LIN_1.c ****         /* RX buffer indexes */
 204:.\Generated_Source\PSoC5/LIN_1.c ****         static volatile l_u16 LIN_1_rxWrIndex;
 205:.\Generated_Source\PSoC5/LIN_1.c ****         static volatile l_u16 LIN_1_rxRdIndex;
 206:.\Generated_Source\PSoC5/LIN_1.c **** 
 207:.\Generated_Source\PSoC5/LIN_1.c ****     #endif /* (1u == LIN_1_TL_API_FORMAT) */
 208:.\Generated_Source\PSoC5/LIN_1.c **** 
 209:.\Generated_Source\PSoC5/LIN_1.c **** #endif /* (1u == LIN_1_TL_ENABLED) */
 210:.\Generated_Source\PSoC5/LIN_1.c **** 
 211:.\Generated_Source\PSoC5/LIN_1.c **** 
 212:.\Generated_Source\PSoC5/LIN_1.c **** /* LIN slave configuration data */
 213:.\Generated_Source\PSoC5/LIN_1.c **** static LIN_1_SLAVE_CONFIG const CYCODE LIN_1_LinSlaveConfig = {
ARM GAS  C:\Users\MATSUD~1\AppData\Local\Temp\ccLjdAaK.s 			page 6


 214:.\Generated_Source\PSoC5/LIN_1.c ****     /* Frame PID Table */
 215:.\Generated_Source\PSoC5/LIN_1.c ****     {0xC1u, 0x03u}
 216:.\Generated_Source\PSoC5/LIN_1.c **** };
 217:.\Generated_Source\PSoC5/LIN_1.c **** 
 218:.\Generated_Source\PSoC5/LIN_1.c **** 
 219:.\Generated_Source\PSoC5/LIN_1.c **** /* Frames declaration with initial signals values */
 220:.\Generated_Source\PSoC5/LIN_1.c **** static volatile l_u8  LIN_1_Buffer_Frame1[1u] = {0xFBu};
 221:.\Generated_Source\PSoC5/LIN_1.c **** static volatile l_u8  LIN_1_Buffer_Frame2[1u] = {0x3Fu};
 222:.\Generated_Source\PSoC5/LIN_1.c **** 
 223:.\Generated_Source\PSoC5/LIN_1.c **** 
 224:.\Generated_Source\PSoC5/LIN_1.c **** 
 225:.\Generated_Source\PSoC5/LIN_1.c **** /*******************************************************************************
 226:.\Generated_Source\PSoC5/LIN_1.c **** *  Place your code here
 227:.\Generated_Source\PSoC5/LIN_1.c **** *******************************************************************************/
 228:.\Generated_Source\PSoC5/LIN_1.c **** /* `#START LIN_1_CODE` */
 229:.\Generated_Source\PSoC5/LIN_1.c **** 
 230:.\Generated_Source\PSoC5/LIN_1.c **** /* `#END` */
 231:.\Generated_Source\PSoC5/LIN_1.c **** 
 232:.\Generated_Source\PSoC5/LIN_1.c **** 
 233:.\Generated_Source\PSoC5/LIN_1.c **** /*******************************************************************************
 234:.\Generated_Source\PSoC5/LIN_1.c **** * Function Name: LIN_1_Start
 235:.\Generated_Source\PSoC5/LIN_1.c **** ********************************************************************************
 236:.\Generated_Source\PSoC5/LIN_1.c **** *
 237:.\Generated_Source\PSoC5/LIN_1.c **** * Summary:
 238:.\Generated_Source\PSoC5/LIN_1.c **** *  Starts the component operation. This function is not required to be used.
 239:.\Generated_Source\PSoC5/LIN_1.c **** *
 240:.\Generated_Source\PSoC5/LIN_1.c **** * Parameters:
 241:.\Generated_Source\PSoC5/LIN_1.c **** *  None
 242:.\Generated_Source\PSoC5/LIN_1.c **** *
 243:.\Generated_Source\PSoC5/LIN_1.c **** * Return:
 244:.\Generated_Source\PSoC5/LIN_1.c **** *  Zero     - if the initialization succeeded.
 245:.\Generated_Source\PSoC5/LIN_1.c **** *  Non-zero - if the initialization failed.
 246:.\Generated_Source\PSoC5/LIN_1.c **** *
 247:.\Generated_Source\PSoC5/LIN_1.c **** * Reentrant:
 248:.\Generated_Source\PSoC5/LIN_1.c **** *  No
 249:.\Generated_Source\PSoC5/LIN_1.c **** *
 250:.\Generated_Source\PSoC5/LIN_1.c **** *******************************************************************************/
 251:.\Generated_Source\PSoC5/LIN_1.c **** l_bool LIN_1_Start(void) 
 252:.\Generated_Source\PSoC5/LIN_1.c **** {
  73              		.loc 1 252 0
  74              		.cfi_startproc
  75              		@ args = 0, pretend = 0, frame = 8
  76              		@ frame_needed = 1, uses_anonymous_args = 0
  77 0000 80B5     		push	{r7, lr}
  78              	.LCFI0:
  79              		.cfi_def_cfa_offset 8
  80              		.cfi_offset 7, -8
  81              		.cfi_offset 14, -4
  82 0002 82B0     		sub	sp, sp, #8
  83              	.LCFI1:
  84              		.cfi_def_cfa_offset 16
  85 0004 00AF     		add	r7, sp, #0
  86              	.LCFI2:
  87              		.cfi_def_cfa_register 7
 253:.\Generated_Source\PSoC5/LIN_1.c ****     l_bool returnValue;
 254:.\Generated_Source\PSoC5/LIN_1.c **** 
 255:.\Generated_Source\PSoC5/LIN_1.c ****     /* Call initialization function */
ARM GAS  C:\Users\MATSUD~1\AppData\Local\Temp\ccLjdAaK.s 			page 7


 256:.\Generated_Source\PSoC5/LIN_1.c ****     returnValue = l_sys_init();
  88              		.loc 1 256 0
  89 0006 FFF7FEFF 		bl	l_sys_init
  90 000a 0346     		mov	r3, r0
  91 000c FB71     		strb	r3, [r7, #7]
 257:.\Generated_Source\PSoC5/LIN_1.c **** 
 258:.\Generated_Source\PSoC5/LIN_1.c ****     /* Start LIN components. Ignore the return value. */
 259:.\Generated_Source\PSoC5/LIN_1.c ****     (void) l_ifc_init_LIN_1();
  92              		.loc 1 259 0
  93 000e FFF7FEFF 		bl	l_ifc_init_LIN_1
 260:.\Generated_Source\PSoC5/LIN_1.c **** 
 261:.\Generated_Source\PSoC5/LIN_1.c ****     return (returnValue);
  94              		.loc 1 261 0
  95 0012 FB79     		ldrb	r3, [r7, #7]	@ zero_extendqisi2
 262:.\Generated_Source\PSoC5/LIN_1.c **** }
  96              		.loc 1 262 0
  97 0014 1846     		mov	r0, r3
  98 0016 07F10807 		add	r7, r7, #8
  99 001a BD46     		mov	sp, r7
 100 001c 80BD     		pop	{r7, pc}
 101              		.cfi_endproc
 102              	.LFE0:
 103              		.size	LIN_1_Start, .-LIN_1_Start
 104 001e 00BF     		.section	.text.LIN_1_Stop,"ax",%progbits
 105              		.align	2
 106              		.global	LIN_1_Stop
 107              		.thumb
 108              		.thumb_func
 109              		.type	LIN_1_Stop, %function
 110              	LIN_1_Stop:
 111              	.LFB1:
 263:.\Generated_Source\PSoC5/LIN_1.c **** 
 264:.\Generated_Source\PSoC5/LIN_1.c **** 
 265:.\Generated_Source\PSoC5/LIN_1.c **** /*******************************************************************************
 266:.\Generated_Source\PSoC5/LIN_1.c **** * Function Name: LIN_1_Stop
 267:.\Generated_Source\PSoC5/LIN_1.c **** ********************************************************************************
 268:.\Generated_Source\PSoC5/LIN_1.c **** *
 269:.\Generated_Source\PSoC5/LIN_1.c **** * Summary:
 270:.\Generated_Source\PSoC5/LIN_1.c **** *  Starts the component operation. This function is not required to be used.
 271:.\Generated_Source\PSoC5/LIN_1.c **** *
 272:.\Generated_Source\PSoC5/LIN_1.c **** * Parameters:
 273:.\Generated_Source\PSoC5/LIN_1.c **** *  None
 274:.\Generated_Source\PSoC5/LIN_1.c **** *
 275:.\Generated_Source\PSoC5/LIN_1.c **** * Return:
 276:.\Generated_Source\PSoC5/LIN_1.c **** *  None
 277:.\Generated_Source\PSoC5/LIN_1.c **** *
 278:.\Generated_Source\PSoC5/LIN_1.c **** *******************************************************************************/
 279:.\Generated_Source\PSoC5/LIN_1.c **** l_u8 LIN_1_Stop(void) 
 280:.\Generated_Source\PSoC5/LIN_1.c **** {
 112              		.loc 1 280 0
 113              		.cfi_startproc
 114              		@ args = 0, pretend = 0, frame = 0
 115              		@ frame_needed = 1, uses_anonymous_args = 0
 116 0000 80B5     		push	{r7, lr}
 117              	.LCFI3:
 118              		.cfi_def_cfa_offset 8
 119              		.cfi_offset 7, -8
ARM GAS  C:\Users\MATSUD~1\AppData\Local\Temp\ccLjdAaK.s 			page 8


 120              		.cfi_offset 14, -4
 121 0002 00AF     		add	r7, sp, #0
 122              	.LCFI4:
 123              		.cfi_def_cfa_register 7
 281:.\Generated_Source\PSoC5/LIN_1.c ****     /* Stop UART */
 282:.\Generated_Source\PSoC5/LIN_1.c ****     LIN_1_UART_Stop();
 124              		.loc 1 282 0
 125 0004 FFF7FEFF 		bl	LIN_1_UART_Stop
 283:.\Generated_Source\PSoC5/LIN_1.c **** 
 284:.\Generated_Source\PSoC5/LIN_1.c ****     /* Disable hardware blocks operation */
 285:.\Generated_Source\PSoC5/LIN_1.c ****     LIN_1_CONTROL_REG &= (l_u8) ~LIN_1_CONTROL_ENABLE;
 126              		.loc 1 285 0
 127 0008 46F27643 		movw	r3, #25718
 128 000c C4F20003 		movt	r3, 16384
 129 0010 46F27642 		movw	r2, #25718
 130 0014 C4F20002 		movt	r2, 16384
 131 0018 1278     		ldrb	r2, [r2, #0]
 132 001a D2B2     		uxtb	r2, r2
 133 001c 22F00102 		bic	r2, r2, #1
 134 0020 D2B2     		uxtb	r2, r2
 135 0022 1A70     		strb	r2, [r3, #0]
 286:.\Generated_Source\PSoC5/LIN_1.c **** 
 287:.\Generated_Source\PSoC5/LIN_1.c ****     /* Disable interrupts */
 288:.\Generated_Source\PSoC5/LIN_1.c ****     return(l_sys_irq_disable());
 136              		.loc 1 288 0
 137 0024 FFF7FEFF 		bl	l_sys_irq_disable
 138 0028 0346     		mov	r3, r0
 289:.\Generated_Source\PSoC5/LIN_1.c **** }
 139              		.loc 1 289 0
 140 002a 1846     		mov	r0, r3
 141 002c 80BD     		pop	{r7, pc}
 142              		.cfi_endproc
 143              	.LFE1:
 144              		.size	LIN_1_Stop, .-LIN_1_Stop
 145 002e 00BF     		.section	.text.l_sys_init,"ax",%progbits
 146              		.align	2
 147              		.global	l_sys_init
 148              		.thumb
 149              		.thumb_func
 150              		.type	l_sys_init, %function
 151              	l_sys_init:
 152              	.LFB2:
 290:.\Generated_Source\PSoC5/LIN_1.c **** 
 291:.\Generated_Source\PSoC5/LIN_1.c **** 
 292:.\Generated_Source\PSoC5/LIN_1.c **** /*******************************************************************************
 293:.\Generated_Source\PSoC5/LIN_1.c **** * Function Name: l_sys_init
 294:.\Generated_Source\PSoC5/LIN_1.c **** ********************************************************************************
 295:.\Generated_Source\PSoC5/LIN_1.c **** *
 296:.\Generated_Source\PSoC5/LIN_1.c **** * Summary:
 297:.\Generated_Source\PSoC5/LIN_1.c **** *  Performs the initialization of the LIN core. This function does nothing and
 298:.\Generated_Source\PSoC5/LIN_1.c **** *  and always returns zero.
 299:.\Generated_Source\PSoC5/LIN_1.c **** *
 300:.\Generated_Source\PSoC5/LIN_1.c **** * Parameters:
 301:.\Generated_Source\PSoC5/LIN_1.c **** *  None
 302:.\Generated_Source\PSoC5/LIN_1.c **** *
 303:.\Generated_Source\PSoC5/LIN_1.c **** * Return:
 304:.\Generated_Source\PSoC5/LIN_1.c **** *  Zero     - if the initialization succeeded.
ARM GAS  C:\Users\MATSUD~1\AppData\Local\Temp\ccLjdAaK.s 			page 9


 305:.\Generated_Source\PSoC5/LIN_1.c **** *  Non-zero - if the initialization failed.
 306:.\Generated_Source\PSoC5/LIN_1.c **** *
 307:.\Generated_Source\PSoC5/LIN_1.c **** *******************************************************************************/
 308:.\Generated_Source\PSoC5/LIN_1.c **** l_bool l_sys_init(void)  
 309:.\Generated_Source\PSoC5/LIN_1.c **** {
 153              		.loc 1 309 0
 154              		.cfi_startproc
 155              		@ args = 0, pretend = 0, frame = 0
 156              		@ frame_needed = 1, uses_anonymous_args = 0
 157              		@ link register save eliminated.
 158 0000 80B4     		push	{r7}
 159              	.LCFI5:
 160              		.cfi_def_cfa_offset 4
 161              		.cfi_offset 7, -4
 162 0002 00AF     		add	r7, sp, #0
 163              	.LCFI6:
 164              		.cfi_def_cfa_register 7
 310:.\Generated_Source\PSoC5/LIN_1.c ****     return (LIN_1_FALSE);
 165              		.loc 1 310 0
 166 0004 4FF00003 		mov	r3, #0
 311:.\Generated_Source\PSoC5/LIN_1.c **** }
 167              		.loc 1 311 0
 168 0008 1846     		mov	r0, r3
 169 000a BD46     		mov	sp, r7
 170 000c 80BC     		pop	{r7}
 171 000e 7047     		bx	lr
 172              		.cfi_endproc
 173              	.LFE2:
 174              		.size	l_sys_init, .-l_sys_init
 175              		.section	.text.l_u8_rd,"ax",%progbits
 176              		.align	2
 177              		.global	l_u8_rd
 178              		.thumb
 179              		.thumb_func
 180              		.type	l_u8_rd, %function
 181              	l_u8_rd:
 182              	.LFB3:
 312:.\Generated_Source\PSoC5/LIN_1.c **** 
 313:.\Generated_Source\PSoC5/LIN_1.c **** 
 314:.\Generated_Source\PSoC5/LIN_1.c **** /* Signal interaction and notification API */
 315:.\Generated_Source\PSoC5/LIN_1.c **** 
 316:.\Generated_Source\PSoC5/LIN_1.c **** 
 317:.\Generated_Source\PSoC5/LIN_1.c **** /*******************************************************************************
 318:.\Generated_Source\PSoC5/LIN_1.c **** * Function Name: l_u8_rd
 319:.\Generated_Source\PSoC5/LIN_1.c **** ********************************************************************************
 320:.\Generated_Source\PSoC5/LIN_1.c **** *
 321:.\Generated_Source\PSoC5/LIN_1.c **** * Summary:
 322:.\Generated_Source\PSoC5/LIN_1.c **** *  Reads and returns the current value of the signal for signals of the size
 323:.\Generated_Source\PSoC5/LIN_1.c **** *  2 - 8 bits. If an invalid signal handle is passed into the function, no
 324:.\Generated_Source\PSoC5/LIN_1.c **** *  action is done.
 325:.\Generated_Source\PSoC5/LIN_1.c **** *
 326:.\Generated_Source\PSoC5/LIN_1.c **** * Parameters:
 327:.\Generated_Source\PSoC5/LIN_1.c **** *  sss - signal handle of the signal to read.
 328:.\Generated_Source\PSoC5/LIN_1.c **** *
 329:.\Generated_Source\PSoC5/LIN_1.c **** * Return:
 330:.\Generated_Source\PSoC5/LIN_1.c **** *  Returns current value of signal.
 331:.\Generated_Source\PSoC5/LIN_1.c **** *
ARM GAS  C:\Users\MATSUD~1\AppData\Local\Temp\ccLjdAaK.s 			page 10


 332:.\Generated_Source\PSoC5/LIN_1.c **** *******************************************************************************/
 333:.\Generated_Source\PSoC5/LIN_1.c **** l_u8 l_u8_rd(l_signal_handle sss) 
 334:.\Generated_Source\PSoC5/LIN_1.c **** {
 183              		.loc 1 334 0
 184              		.cfi_startproc
 185              		@ args = 0, pretend = 0, frame = 16
 186              		@ frame_needed = 1, uses_anonymous_args = 0
 187 0000 80B5     		push	{r7, lr}
 188              	.LCFI7:
 189              		.cfi_def_cfa_offset 8
 190              		.cfi_offset 7, -8
 191              		.cfi_offset 14, -4
 192 0002 84B0     		sub	sp, sp, #16
 193              	.LCFI8:
 194              		.cfi_def_cfa_offset 24
 195 0004 00AF     		add	r7, sp, #0
 196              	.LCFI9:
 197              		.cfi_def_cfa_register 7
 198 0006 0346     		mov	r3, r0
 199 0008 FB71     		strb	r3, [r7, #7]
 335:.\Generated_Source\PSoC5/LIN_1.c ****     l_u8 returnValue;
 336:.\Generated_Source\PSoC5/LIN_1.c **** 
 337:.\Generated_Source\PSoC5/LIN_1.c ****     switch(sss)
 200              		.loc 1 337 0
 201 000a FB79     		ldrb	r3, [r7, #7]	@ zero_extendqisi2
 202 000c 012B     		cmp	r3, #1
 203 000e 04D1     		bne	.L12
 204              	.L9:
 338:.\Generated_Source\PSoC5/LIN_1.c ****     {
 339:.\Generated_Source\PSoC5/LIN_1.c ****         case arm_SIGNAL_HANDLE:
 340:.\Generated_Source\PSoC5/LIN_1.c ****             returnValue = l_u8_rd_arm();
 205              		.loc 1 340 0
 206 0010 FFF7FEFF 		bl	l_u8_rd_arm
 207 0014 0346     		mov	r3, r0
 208 0016 FB73     		strb	r3, [r7, #15]
 341:.\Generated_Source\PSoC5/LIN_1.c ****         break;
 209              		.loc 1 341 0
 210 0018 03E0     		b	.L10
 211              	.L12:
 342:.\Generated_Source\PSoC5/LIN_1.c **** 
 343:.\Generated_Source\PSoC5/LIN_1.c ****         default:
 344:.\Generated_Source\PSoC5/LIN_1.c ****             returnValue = (l_u8) 0xFFu;
 212              		.loc 1 344 0
 213 001a 4FF0FF03 		mov	r3, #255
 214 001e FB73     		strb	r3, [r7, #15]
 345:.\Generated_Source\PSoC5/LIN_1.c ****         break;
 215              		.loc 1 345 0
 216 0020 00BF     		nop
 217              	.L10:
 346:.\Generated_Source\PSoC5/LIN_1.c ****     }
 347:.\Generated_Source\PSoC5/LIN_1.c **** 
 348:.\Generated_Source\PSoC5/LIN_1.c ****     return(returnValue);
 218              		.loc 1 348 0
 219 0022 FB7B     		ldrb	r3, [r7, #15]	@ zero_extendqisi2
 349:.\Generated_Source\PSoC5/LIN_1.c **** }
 220              		.loc 1 349 0
 221 0024 1846     		mov	r0, r3
ARM GAS  C:\Users\MATSUD~1\AppData\Local\Temp\ccLjdAaK.s 			page 11


 222 0026 07F11007 		add	r7, r7, #16
 223 002a BD46     		mov	sp, r7
 224 002c 80BD     		pop	{r7, pc}
 225              		.cfi_endproc
 226              	.LFE3:
 227              		.size	l_u8_rd, .-l_u8_rd
 228 002e 00BF     		.section	.text.l_u8_rd_arm,"ax",%progbits
 229              		.align	2
 230              		.global	l_u8_rd_arm
 231              		.thumb
 232              		.thumb_func
 233              		.type	l_u8_rd_arm, %function
 234              	l_u8_rd_arm:
 235              	.LFB4:
 350:.\Generated_Source\PSoC5/LIN_1.c **** 
 351:.\Generated_Source\PSoC5/LIN_1.c **** 
 352:.\Generated_Source\PSoC5/LIN_1.c **** /*******************************************************************************
 353:.\Generated_Source\PSoC5/LIN_1.c **** * Function Name: l_u8_rd_arm
 354:.\Generated_Source\PSoC5/LIN_1.c **** ********************************************************************************
 355:.\Generated_Source\PSoC5/LIN_1.c **** *
 356:.\Generated_Source\PSoC5/LIN_1.c **** * Summary:
 357:.\Generated_Source\PSoC5/LIN_1.c **** *  Reads and returns the current value of the signal for signals of the size
 358:.\Generated_Source\PSoC5/LIN_1.c **** *  2 - 8 bits.
 359:.\Generated_Source\PSoC5/LIN_1.c **** *
 360:.\Generated_Source\PSoC5/LIN_1.c **** * Parameters:
 361:.\Generated_Source\PSoC5/LIN_1.c **** *  None
 362:.\Generated_Source\PSoC5/LIN_1.c **** *
 363:.\Generated_Source\PSoC5/LIN_1.c **** * Return:
 364:.\Generated_Source\PSoC5/LIN_1.c **** *  Returns current value of signal.
 365:.\Generated_Source\PSoC5/LIN_1.c **** *
 366:.\Generated_Source\PSoC5/LIN_1.c **** *******************************************************************************/
 367:.\Generated_Source\PSoC5/LIN_1.c **** l_u8 l_u8_rd_arm(void) 
 368:.\Generated_Source\PSoC5/LIN_1.c **** {
 236              		.loc 1 368 0
 237              		.cfi_startproc
 238              		@ args = 0, pretend = 0, frame = 0
 239              		@ frame_needed = 1, uses_anonymous_args = 0
 240              		@ link register save eliminated.
 241 0000 80B4     		push	{r7}
 242              	.LCFI10:
 243              		.cfi_def_cfa_offset 4
 244              		.cfi_offset 7, -4
 245 0002 00AF     		add	r7, sp, #0
 246              	.LCFI11:
 247              		.cfi_def_cfa_register 7
 369:.\Generated_Source\PSoC5/LIN_1.c ****     /* Get one byte signal from the LSB, shift for correction and mask off unnecessary bit */
 370:.\Generated_Source\PSoC5/LIN_1.c ****     return((LIN_1_Buffer_Frame2[LIN_1_arm_Frame2_SIG_BYTE_OFFSET] & ((l_u8) ~LIN_1_arm_Frame2_SIG_M
 248              		.loc 1 370 0
 249 0004 40F20003 		movw	r3, #:lower16:LIN_1_Buffer_Frame2
 250 0008 C0F20003 		movt	r3, #:upper16:LIN_1_Buffer_Frame2
 251 000c 1B78     		ldrb	r3, [r3, #0]
 252 000e DBB2     		uxtb	r3, r3
 253 0010 03F00303 		and	r3, r3, #3
 254 0014 DBB2     		uxtb	r3, r3
 371:.\Generated_Source\PSoC5/LIN_1.c ****                 LIN_1_arm_Frame2_SIG_BIT_SHIFT);
 372:.\Generated_Source\PSoC5/LIN_1.c **** }
 255              		.loc 1 372 0
ARM GAS  C:\Users\MATSUD~1\AppData\Local\Temp\ccLjdAaK.s 			page 12


 256 0016 1846     		mov	r0, r3
 257 0018 BD46     		mov	sp, r7
 258 001a 80BC     		pop	{r7}
 259 001c 7047     		bx	lr
 260              		.cfi_endproc
 261              	.LFE4:
 262              		.size	l_u8_rd_arm, .-l_u8_rd_arm
 263 001e 00BF     		.section	.text.l_bool_wr,"ax",%progbits
 264              		.align	2
 265              		.global	l_bool_wr
 266              		.thumb
 267              		.thumb_func
 268              		.type	l_bool_wr, %function
 269              	l_bool_wr:
 270              	.LFB5:
 373:.\Generated_Source\PSoC5/LIN_1.c **** 
 374:.\Generated_Source\PSoC5/LIN_1.c **** 
 375:.\Generated_Source\PSoC5/LIN_1.c **** 
 376:.\Generated_Source\PSoC5/LIN_1.c **** 
 377:.\Generated_Source\PSoC5/LIN_1.c **** 
 378:.\Generated_Source\PSoC5/LIN_1.c **** 
 379:.\Generated_Source\PSoC5/LIN_1.c **** 
 380:.\Generated_Source\PSoC5/LIN_1.c **** 
 381:.\Generated_Source\PSoC5/LIN_1.c **** 
 382:.\Generated_Source\PSoC5/LIN_1.c **** 
 383:.\Generated_Source\PSoC5/LIN_1.c **** /*******************************************************************************
 384:.\Generated_Source\PSoC5/LIN_1.c **** * Function Name: l_bool_wr
 385:.\Generated_Source\PSoC5/LIN_1.c **** ********************************************************************************
 386:.\Generated_Source\PSoC5/LIN_1.c **** *
 387:.\Generated_Source\PSoC5/LIN_1.c **** * Summary:
 388:.\Generated_Source\PSoC5/LIN_1.c **** *  Sets the current value of the signal for one bit signals to "v".
 389:.\Generated_Source\PSoC5/LIN_1.c **** *  If an invalid signal handle is passed into the function, no action is done. 
 390:.\Generated_Source\PSoC5/LIN_1.c **** *
 391:.\Generated_Source\PSoC5/LIN_1.c **** * Parameters:
 392:.\Generated_Source\PSoC5/LIN_1.c **** *  sss - signal handle of the signal to be set.
 393:.\Generated_Source\PSoC5/LIN_1.c **** *  v - value of the signal to be set.
 394:.\Generated_Source\PSoC5/LIN_1.c **** *
 395:.\Generated_Source\PSoC5/LIN_1.c **** * Return:
 396:.\Generated_Source\PSoC5/LIN_1.c **** *  None
 397:.\Generated_Source\PSoC5/LIN_1.c **** *
 398:.\Generated_Source\PSoC5/LIN_1.c **** * Reentrant:
 399:.\Generated_Source\PSoC5/LIN_1.c **** *  No
 400:.\Generated_Source\PSoC5/LIN_1.c **** *
 401:.\Generated_Source\PSoC5/LIN_1.c **** *******************************************************************************/
 402:.\Generated_Source\PSoC5/LIN_1.c **** void l_bool_wr(l_signal_handle sss, l_bool v)
 403:.\Generated_Source\PSoC5/LIN_1.c **** {
 271              		.loc 1 403 0
 272              		.cfi_startproc
 273              		@ args = 0, pretend = 0, frame = 8
 274              		@ frame_needed = 1, uses_anonymous_args = 0
 275 0000 80B5     		push	{r7, lr}
 276              	.LCFI12:
 277              		.cfi_def_cfa_offset 8
 278              		.cfi_offset 7, -8
 279              		.cfi_offset 14, -4
 280 0002 82B0     		sub	sp, sp, #8
 281              	.LCFI13:
ARM GAS  C:\Users\MATSUD~1\AppData\Local\Temp\ccLjdAaK.s 			page 13


 282              		.cfi_def_cfa_offset 16
 283 0004 00AF     		add	r7, sp, #0
 284              	.LCFI14:
 285              		.cfi_def_cfa_register 7
 286 0006 0246     		mov	r2, r0
 287 0008 0B46     		mov	r3, r1
 288 000a FA71     		strb	r2, [r7, #7]
 289 000c BB71     		strb	r3, [r7, #6]
 404:.\Generated_Source\PSoC5/LIN_1.c ****     switch(sss)
 290              		.loc 1 404 0
 291 000e FB79     		ldrb	r3, [r7, #7]	@ zero_extendqisi2
 292 0010 002B     		cmp	r3, #0
 293 0012 04D1     		bne	.L19
 294              	.L17:
 405:.\Generated_Source\PSoC5/LIN_1.c ****     {
 406:.\Generated_Source\PSoC5/LIN_1.c ****         case Response_Error_SIGNAL_HANDLE:
 407:.\Generated_Source\PSoC5/LIN_1.c ****             l_bool_wr_Response_Error(v);
 295              		.loc 1 407 0
 296 0014 BB79     		ldrb	r3, [r7, #6]	@ zero_extendqisi2
 297 0016 1846     		mov	r0, r3
 298 0018 FFF7FEFF 		bl	l_bool_wr_Response_Error
 408:.\Generated_Source\PSoC5/LIN_1.c ****         break;
 299              		.loc 1 408 0
 300 001c 00E0     		b	.L15
 301              	.L19:
 409:.\Generated_Source\PSoC5/LIN_1.c **** 
 410:.\Generated_Source\PSoC5/LIN_1.c ****         default:
 411:.\Generated_Source\PSoC5/LIN_1.c ****         break;
 302              		.loc 1 411 0
 303 001e 00BF     		nop
 304              	.L15:
 412:.\Generated_Source\PSoC5/LIN_1.c ****     }
 413:.\Generated_Source\PSoC5/LIN_1.c **** }
 305              		.loc 1 413 0
 306 0020 07F10807 		add	r7, r7, #8
 307 0024 BD46     		mov	sp, r7
 308 0026 80BD     		pop	{r7, pc}
 309              		.cfi_endproc
 310              	.LFE5:
 311              		.size	l_bool_wr, .-l_bool_wr
 312              		.section	.text.l_bool_wr_Response_Error,"ax",%progbits
 313              		.align	2
 314              		.global	l_bool_wr_Response_Error
 315              		.thumb
 316              		.thumb_func
 317              		.type	l_bool_wr_Response_Error, %function
 318              	l_bool_wr_Response_Error:
 319              	.LFB6:
 414:.\Generated_Source\PSoC5/LIN_1.c **** 
 415:.\Generated_Source\PSoC5/LIN_1.c **** 
 416:.\Generated_Source\PSoC5/LIN_1.c **** /*******************************************************************************
 417:.\Generated_Source\PSoC5/LIN_1.c **** * Function Name: l_bool_wr_Response_Error
 418:.\Generated_Source\PSoC5/LIN_1.c **** ********************************************************************************
 419:.\Generated_Source\PSoC5/LIN_1.c **** *
 420:.\Generated_Source\PSoC5/LIN_1.c **** * Summary:
 421:.\Generated_Source\PSoC5/LIN_1.c **** *  Sets the current value of the signal for one bit signals to v.
 422:.\Generated_Source\PSoC5/LIN_1.c **** *
ARM GAS  C:\Users\MATSUD~1\AppData\Local\Temp\ccLjdAaK.s 			page 14


 423:.\Generated_Source\PSoC5/LIN_1.c **** * Parameters:
 424:.\Generated_Source\PSoC5/LIN_1.c **** *  v - value of the signal to be set.
 425:.\Generated_Source\PSoC5/LIN_1.c **** *
 426:.\Generated_Source\PSoC5/LIN_1.c **** * Return:
 427:.\Generated_Source\PSoC5/LIN_1.c **** *  None
 428:.\Generated_Source\PSoC5/LIN_1.c **** *
 429:.\Generated_Source\PSoC5/LIN_1.c **** * Reentrant:
 430:.\Generated_Source\PSoC5/LIN_1.c **** *  No
 431:.\Generated_Source\PSoC5/LIN_1.c **** *
 432:.\Generated_Source\PSoC5/LIN_1.c **** *******************************************************************************/
 433:.\Generated_Source\PSoC5/LIN_1.c **** void l_bool_wr_Response_Error(l_bool v)
 434:.\Generated_Source\PSoC5/LIN_1.c **** {
 320              		.loc 1 434 0
 321              		.cfi_startproc
 322              		@ args = 0, pretend = 0, frame = 16
 323              		@ frame_needed = 1, uses_anonymous_args = 0
 324 0000 80B5     		push	{r7, lr}
 325              	.LCFI15:
 326              		.cfi_def_cfa_offset 8
 327              		.cfi_offset 7, -8
 328              		.cfi_offset 14, -4
 329 0002 84B0     		sub	sp, sp, #16
 330              	.LCFI16:
 331              		.cfi_def_cfa_offset 24
 332 0004 00AF     		add	r7, sp, #0
 333              	.LCFI17:
 334              		.cfi_def_cfa_register 7
 335 0006 0346     		mov	r3, r0
 336 0008 FB71     		strb	r3, [r7, #7]
 435:.\Generated_Source\PSoC5/LIN_1.c ****     uint8 interruptState;
 436:.\Generated_Source\PSoC5/LIN_1.c **** 
 437:.\Generated_Source\PSoC5/LIN_1.c ****     /* Save current global interrupt enable and disable it */
 438:.\Generated_Source\PSoC5/LIN_1.c ****     interruptState = CyEnterCriticalSection();
 337              		.loc 1 438 0
 338 000a FFF7FEFF 		bl	CyEnterCriticalSection
 339 000e 0346     		mov	r3, r0
 340 0010 FB73     		strb	r3, [r7, #15]
 439:.\Generated_Source\PSoC5/LIN_1.c **** 
 440:.\Generated_Source\PSoC5/LIN_1.c ****     if(0u != v)
 341              		.loc 1 440 0
 342 0012 FB79     		ldrb	r3, [r7, #7]	@ zero_extendqisi2
 343 0014 002B     		cmp	r3, #0
 344 0016 0ED0     		beq	.L21
 441:.\Generated_Source\PSoC5/LIN_1.c ****     {
 442:.\Generated_Source\PSoC5/LIN_1.c ****         LIN_1_Buffer_Frame1[LIN_1_Response_Error_Frame1_SIG_BYTE_OFFSET] |= 
 345              		.loc 1 442 0
 346 0018 40F20003 		movw	r3, #:lower16:LIN_1_Buffer_Frame1
 347 001c C0F20003 		movt	r3, #:upper16:LIN_1_Buffer_Frame1
 348 0020 1B78     		ldrb	r3, [r3, #0]
 349 0022 DBB2     		uxtb	r3, r3
 350 0024 43F00403 		orr	r3, r3, #4
 351 0028 DAB2     		uxtb	r2, r3
 352 002a 40F20003 		movw	r3, #:lower16:LIN_1_Buffer_Frame1
 353 002e C0F20003 		movt	r3, #:upper16:LIN_1_Buffer_Frame1
 354 0032 1A70     		strb	r2, [r3, #0]
 355 0034 0DE0     		b	.L22
 356              	.L21:
ARM GAS  C:\Users\MATSUD~1\AppData\Local\Temp\ccLjdAaK.s 			page 15


 443:.\Generated_Source\PSoC5/LIN_1.c ****                             LIN_1_Response_Error_Frame1_SIG_MASK_0;
 444:.\Generated_Source\PSoC5/LIN_1.c ****     }
 445:.\Generated_Source\PSoC5/LIN_1.c ****     else
 446:.\Generated_Source\PSoC5/LIN_1.c ****     {
 447:.\Generated_Source\PSoC5/LIN_1.c ****         LIN_1_Buffer_Frame1[LIN_1_Response_Error_Frame1_SIG_BYTE_OFFSET] &= 
 357              		.loc 1 447 0
 358 0036 40F20003 		movw	r3, #:lower16:LIN_1_Buffer_Frame1
 359 003a C0F20003 		movt	r3, #:upper16:LIN_1_Buffer_Frame1
 360 003e 1B78     		ldrb	r3, [r3, #0]
 361 0040 DBB2     		uxtb	r3, r3
 362 0042 23F00403 		bic	r3, r3, #4
 363 0046 DAB2     		uxtb	r2, r3
 364 0048 40F20003 		movw	r3, #:lower16:LIN_1_Buffer_Frame1
 365 004c C0F20003 		movt	r3, #:upper16:LIN_1_Buffer_Frame1
 366 0050 1A70     		strb	r2, [r3, #0]
 367              	.L22:
 448:.\Generated_Source\PSoC5/LIN_1.c ****                             (l_u8) ~LIN_1_Response_Error_Frame1_SIG_MASK_0;
 449:.\Generated_Source\PSoC5/LIN_1.c ****     }
 450:.\Generated_Source\PSoC5/LIN_1.c **** 
 451:.\Generated_Source\PSoC5/LIN_1.c ****     /* Restore global interrupt enable state */
 452:.\Generated_Source\PSoC5/LIN_1.c ****     CyExitCriticalSection(interruptState);
 368              		.loc 1 452 0
 369 0052 FB7B     		ldrb	r3, [r7, #15]	@ zero_extendqisi2
 370 0054 1846     		mov	r0, r3
 371 0056 FFF7FEFF 		bl	CyExitCriticalSection
 453:.\Generated_Source\PSoC5/LIN_1.c **** }
 372              		.loc 1 453 0
 373 005a 07F11007 		add	r7, r7, #16
 374 005e BD46     		mov	sp, r7
 375 0060 80BD     		pop	{r7, pc}
 376              		.cfi_endproc
 377              	.LFE6:
 378              		.size	l_bool_wr_Response_Error, .-l_bool_wr_Response_Error
 379 0062 00BF     		.section	.text.l_flg_tst,"ax",%progbits
 380              		.align	2
 381              		.global	l_flg_tst
 382              		.thumb
 383              		.thumb_func
 384              		.type	l_flg_tst, %function
 385              	l_flg_tst:
 386              	.LFB7:
 454:.\Generated_Source\PSoC5/LIN_1.c **** 
 455:.\Generated_Source\PSoC5/LIN_1.c **** 
 456:.\Generated_Source\PSoC5/LIN_1.c **** 
 457:.\Generated_Source\PSoC5/LIN_1.c **** 
 458:.\Generated_Source\PSoC5/LIN_1.c **** 
 459:.\Generated_Source\PSoC5/LIN_1.c **** 
 460:.\Generated_Source\PSoC5/LIN_1.c **** 
 461:.\Generated_Source\PSoC5/LIN_1.c **** 
 462:.\Generated_Source\PSoC5/LIN_1.c **** 
 463:.\Generated_Source\PSoC5/LIN_1.c **** 
 464:.\Generated_Source\PSoC5/LIN_1.c **** 
 465:.\Generated_Source\PSoC5/LIN_1.c **** /*******************************************************************************
 466:.\Generated_Source\PSoC5/LIN_1.c **** * Function Name: l_flg_tst
 467:.\Generated_Source\PSoC5/LIN_1.c **** ********************************************************************************
 468:.\Generated_Source\PSoC5/LIN_1.c **** *
 469:.\Generated_Source\PSoC5/LIN_1.c **** * Summary:
ARM GAS  C:\Users\MATSUD~1\AppData\Local\Temp\ccLjdAaK.s 			page 16


 470:.\Generated_Source\PSoC5/LIN_1.c **** *  Returns a C boolean indicating the current state of the flag specified by
 471:.\Generated_Source\PSoC5/LIN_1.c **** *  the name fff, i.e. returns zero if the flag is cleared, non-zero otherwise.
 472:.\Generated_Source\PSoC5/LIN_1.c **** *
 473:.\Generated_Source\PSoC5/LIN_1.c **** * Parameters:
 474:.\Generated_Source\PSoC5/LIN_1.c **** *  fff - is the name of the flag handle.
 475:.\Generated_Source\PSoC5/LIN_1.c **** *
 476:.\Generated_Source\PSoC5/LIN_1.c **** * Return:
 477:.\Generated_Source\PSoC5/LIN_1.c **** *  Returns a C boolean indicating the current state of the flag specified by
 478:.\Generated_Source\PSoC5/LIN_1.c **** *  the name fff:
 479:.\Generated_Source\PSoC5/LIN_1.c **** *  False - if the flag is cleared;
 480:.\Generated_Source\PSoC5/LIN_1.c **** *  True - if the flag is not cleared.
 481:.\Generated_Source\PSoC5/LIN_1.c **** *
 482:.\Generated_Source\PSoC5/LIN_1.c **** *******************************************************************************/
 483:.\Generated_Source\PSoC5/LIN_1.c **** l_bool l_flg_tst(l_flag_handle fff)
 484:.\Generated_Source\PSoC5/LIN_1.c **** {
 387              		.loc 1 484 0
 388              		.cfi_startproc
 389              		@ args = 0, pretend = 0, frame = 16
 390              		@ frame_needed = 1, uses_anonymous_args = 0
 391 0000 80B5     		push	{r7, lr}
 392              	.LCFI18:
 393              		.cfi_def_cfa_offset 8
 394              		.cfi_offset 7, -8
 395              		.cfi_offset 14, -4
 396 0002 84B0     		sub	sp, sp, #16
 397              	.LCFI19:
 398              		.cfi_def_cfa_offset 24
 399 0004 00AF     		add	r7, sp, #0
 400              	.LCFI20:
 401              		.cfi_def_cfa_register 7
 402 0006 0346     		mov	r3, r0
 403 0008 FB71     		strb	r3, [r7, #7]
 485:.\Generated_Source\PSoC5/LIN_1.c ****     l_bool returnValue;
 486:.\Generated_Source\PSoC5/LIN_1.c **** 
 487:.\Generated_Source\PSoC5/LIN_1.c ****     switch(fff)
 404              		.loc 1 487 0
 405 000a FB79     		ldrb	r3, [r7, #7]	@ zero_extendqisi2
 406 000c 012B     		cmp	r3, #1
 407 000e 08D0     		beq	.L26
 408 0010 022B     		cmp	r3, #2
 409 0012 0BD0     		beq	.L27
 410 0014 002B     		cmp	r3, #0
 411 0016 0ED1     		bne	.L30
 412              	.L25:
 488:.\Generated_Source\PSoC5/LIN_1.c ****     {
 489:.\Generated_Source\PSoC5/LIN_1.c ****         case arm_FLAG_HANDLE:
 490:.\Generated_Source\PSoC5/LIN_1.c ****             returnValue = l_flg_tst_arm();
 413              		.loc 1 490 0
 414 0018 FFF7FEFF 		bl	l_flg_tst_arm
 415 001c 0346     		mov	r3, r0
 416 001e FB73     		strb	r3, [r7, #15]
 491:.\Generated_Source\PSoC5/LIN_1.c ****         break;
 417              		.loc 1 491 0
 418 0020 0DE0     		b	.L28
 419              	.L26:
 492:.\Generated_Source\PSoC5/LIN_1.c **** 
 493:.\Generated_Source\PSoC5/LIN_1.c ****         case Frame1_FLAG_HANDLE:
ARM GAS  C:\Users\MATSUD~1\AppData\Local\Temp\ccLjdAaK.s 			page 17


 494:.\Generated_Source\PSoC5/LIN_1.c ****             returnValue = l_flg_tst_Frame1();
 420              		.loc 1 494 0
 421 0022 FFF7FEFF 		bl	l_flg_tst_Frame1
 422 0026 0346     		mov	r3, r0
 423 0028 FB73     		strb	r3, [r7, #15]
 495:.\Generated_Source\PSoC5/LIN_1.c ****         break;
 424              		.loc 1 495 0
 425 002a 08E0     		b	.L28
 426              	.L27:
 496:.\Generated_Source\PSoC5/LIN_1.c **** 
 497:.\Generated_Source\PSoC5/LIN_1.c ****         case Frame2_FLAG_HANDLE:
 498:.\Generated_Source\PSoC5/LIN_1.c ****             returnValue = l_flg_tst_Frame2();
 427              		.loc 1 498 0
 428 002c FFF7FEFF 		bl	l_flg_tst_Frame2
 429 0030 0346     		mov	r3, r0
 430 0032 FB73     		strb	r3, [r7, #15]
 499:.\Generated_Source\PSoC5/LIN_1.c ****         break;
 431              		.loc 1 499 0
 432 0034 03E0     		b	.L28
 433              	.L30:
 500:.\Generated_Source\PSoC5/LIN_1.c **** 
 501:.\Generated_Source\PSoC5/LIN_1.c ****         default:
 502:.\Generated_Source\PSoC5/LIN_1.c ****             returnValue = LIN_1_TRUE;
 434              		.loc 1 502 0
 435 0036 4FF00103 		mov	r3, #1
 436 003a FB73     		strb	r3, [r7, #15]
 503:.\Generated_Source\PSoC5/LIN_1.c ****         break;
 437              		.loc 1 503 0
 438 003c 00BF     		nop
 439              	.L28:
 504:.\Generated_Source\PSoC5/LIN_1.c ****     }
 505:.\Generated_Source\PSoC5/LIN_1.c **** 
 506:.\Generated_Source\PSoC5/LIN_1.c ****     return(returnValue);
 440              		.loc 1 506 0
 441 003e FB7B     		ldrb	r3, [r7, #15]	@ zero_extendqisi2
 507:.\Generated_Source\PSoC5/LIN_1.c **** }
 442              		.loc 1 507 0
 443 0040 1846     		mov	r0, r3
 444 0042 07F11007 		add	r7, r7, #16
 445 0046 BD46     		mov	sp, r7
 446 0048 80BD     		pop	{r7, pc}
 447              		.cfi_endproc
 448              	.LFE7:
 449              		.size	l_flg_tst, .-l_flg_tst
 450 004a 00BF     		.section	.text.l_flg_tst_arm,"ax",%progbits
 451              		.align	2
 452              		.global	l_flg_tst_arm
 453              		.thumb
 454              		.thumb_func
 455              		.type	l_flg_tst_arm, %function
 456              	l_flg_tst_arm:
 457              	.LFB8:
 508:.\Generated_Source\PSoC5/LIN_1.c **** 
 509:.\Generated_Source\PSoC5/LIN_1.c **** 
 510:.\Generated_Source\PSoC5/LIN_1.c **** /*******************************************************************************
 511:.\Generated_Source\PSoC5/LIN_1.c **** * Function Name: l_flg_tst_arm
 512:.\Generated_Source\PSoC5/LIN_1.c **** ********************************************************************************
ARM GAS  C:\Users\MATSUD~1\AppData\Local\Temp\ccLjdAaK.s 			page 18


 513:.\Generated_Source\PSoC5/LIN_1.c **** *
 514:.\Generated_Source\PSoC5/LIN_1.c **** * Summary:
 515:.\Generated_Source\PSoC5/LIN_1.c **** *  Returns a C boolean indicating the current state of the flag specified by
 516:.\Generated_Source\PSoC5/LIN_1.c **** *  the name fff, i.e. returns zero if the flag is cleared, non-zero otherwise.
 517:.\Generated_Source\PSoC5/LIN_1.c **** *
 518:.\Generated_Source\PSoC5/LIN_1.c **** * Parameters:
 519:.\Generated_Source\PSoC5/LIN_1.c **** *  None
 520:.\Generated_Source\PSoC5/LIN_1.c **** *
 521:.\Generated_Source\PSoC5/LIN_1.c **** * Return:
 522:.\Generated_Source\PSoC5/LIN_1.c **** *  Returns a C boolean indicating the current state of the flag specified by
 523:.\Generated_Source\PSoC5/LIN_1.c **** *  the name fff:
 524:.\Generated_Source\PSoC5/LIN_1.c **** *  False - if the flag is cleared;
 525:.\Generated_Source\PSoC5/LIN_1.c **** *  True - if the flag is not cleared.
 526:.\Generated_Source\PSoC5/LIN_1.c **** *
 527:.\Generated_Source\PSoC5/LIN_1.c **** *******************************************************************************/
 528:.\Generated_Source\PSoC5/LIN_1.c **** l_bool l_flg_tst_arm(void)
 529:.\Generated_Source\PSoC5/LIN_1.c **** {
 458              		.loc 1 529 0
 459              		.cfi_startproc
 460              		@ args = 0, pretend = 0, frame = 8
 461              		@ frame_needed = 1, uses_anonymous_args = 0
 462              		@ link register save eliminated.
 463 0000 80B4     		push	{r7}
 464              	.LCFI21:
 465              		.cfi_def_cfa_offset 4
 466              		.cfi_offset 7, -4
 467 0002 83B0     		sub	sp, sp, #12
 468              	.LCFI22:
 469              		.cfi_def_cfa_offset 16
 470 0004 00AF     		add	r7, sp, #0
 471              	.LCFI23:
 472              		.cfi_def_cfa_register 7
 530:.\Generated_Source\PSoC5/LIN_1.c ****     l_bool result = LIN_1_FALSE;
 473              		.loc 1 530 0
 474 0006 4FF00003 		mov	r3, #0
 475 000a FB71     		strb	r3, [r7, #7]
 531:.\Generated_Source\PSoC5/LIN_1.c **** 
 532:.\Generated_Source\PSoC5/LIN_1.c ****     if(0u != (LIN_1_statusFlagArray[LIN_1_arm_FRAME_FLAG_BYTE_OFFSET_0] &
 476              		.loc 1 532 0
 477 000c 40F20003 		movw	r3, #:lower16:LIN_1_statusFlagArray
 478 0010 C0F20003 		movt	r3, #:upper16:LIN_1_statusFlagArray
 479 0014 1B78     		ldrb	r3, [r3, #0]	@ zero_extendqisi2
 480 0016 03F00103 		and	r3, r3, #1
 481 001a 002B     		cmp	r3, #0
 482 001c 02D0     		beq	.L32
 533:.\Generated_Source\PSoC5/LIN_1.c ****     LIN_1_arm_FRAME_FLAG_MASK_0))
 534:.\Generated_Source\PSoC5/LIN_1.c ****     {
 535:.\Generated_Source\PSoC5/LIN_1.c ****         result = LIN_1_TRUE;
 483              		.loc 1 535 0
 484 001e 4FF00103 		mov	r3, #1
 485 0022 FB71     		strb	r3, [r7, #7]
 486              	.L32:
 536:.\Generated_Source\PSoC5/LIN_1.c ****     }
 537:.\Generated_Source\PSoC5/LIN_1.c **** 
 538:.\Generated_Source\PSoC5/LIN_1.c ****     return(result);
 487              		.loc 1 538 0
 488 0024 FB79     		ldrb	r3, [r7, #7]	@ zero_extendqisi2
ARM GAS  C:\Users\MATSUD~1\AppData\Local\Temp\ccLjdAaK.s 			page 19


 539:.\Generated_Source\PSoC5/LIN_1.c **** }
 489              		.loc 1 539 0
 490 0026 1846     		mov	r0, r3
 491 0028 07F10C07 		add	r7, r7, #12
 492 002c BD46     		mov	sp, r7
 493 002e 80BC     		pop	{r7}
 494 0030 7047     		bx	lr
 495              		.cfi_endproc
 496              	.LFE8:
 497              		.size	l_flg_tst_arm, .-l_flg_tst_arm
 498 0032 00BF     		.section	.text.l_flg_tst_Frame1,"ax",%progbits
 499              		.align	2
 500              		.global	l_flg_tst_Frame1
 501              		.thumb
 502              		.thumb_func
 503              		.type	l_flg_tst_Frame1, %function
 504              	l_flg_tst_Frame1:
 505              	.LFB9:
 540:.\Generated_Source\PSoC5/LIN_1.c **** 
 541:.\Generated_Source\PSoC5/LIN_1.c **** /*******************************************************************************
 542:.\Generated_Source\PSoC5/LIN_1.c **** * Function Name: l_flg_tst_Frame1
 543:.\Generated_Source\PSoC5/LIN_1.c **** ********************************************************************************
 544:.\Generated_Source\PSoC5/LIN_1.c **** *
 545:.\Generated_Source\PSoC5/LIN_1.c **** * Summary:
 546:.\Generated_Source\PSoC5/LIN_1.c **** *  Returns a C boolean indicating the current state of the flag specified by
 547:.\Generated_Source\PSoC5/LIN_1.c **** *  the name fff, i.e. returns zero if the flag is cleared, non-zero otherwise.
 548:.\Generated_Source\PSoC5/LIN_1.c **** *
 549:.\Generated_Source\PSoC5/LIN_1.c **** * Parameters:
 550:.\Generated_Source\PSoC5/LIN_1.c **** *  None
 551:.\Generated_Source\PSoC5/LIN_1.c **** *
 552:.\Generated_Source\PSoC5/LIN_1.c **** * Return:
 553:.\Generated_Source\PSoC5/LIN_1.c **** *  Returns a C boolean indicating the current state of the flag specified by
 554:.\Generated_Source\PSoC5/LIN_1.c **** *  the name fff:
 555:.\Generated_Source\PSoC5/LIN_1.c **** *  False - if the flag is cleared;
 556:.\Generated_Source\PSoC5/LIN_1.c **** *  True - if the flag is not cleared.
 557:.\Generated_Source\PSoC5/LIN_1.c **** *
 558:.\Generated_Source\PSoC5/LIN_1.c **** *******************************************************************************/
 559:.\Generated_Source\PSoC5/LIN_1.c **** l_bool l_flg_tst_Frame1(void)
 560:.\Generated_Source\PSoC5/LIN_1.c **** {
 506              		.loc 1 560 0
 507              		.cfi_startproc
 508              		@ args = 0, pretend = 0, frame = 8
 509              		@ frame_needed = 1, uses_anonymous_args = 0
 510              		@ link register save eliminated.
 511 0000 80B4     		push	{r7}
 512              	.LCFI24:
 513              		.cfi_def_cfa_offset 4
 514              		.cfi_offset 7, -4
 515 0002 83B0     		sub	sp, sp, #12
 516              	.LCFI25:
 517              		.cfi_def_cfa_offset 16
 518 0004 00AF     		add	r7, sp, #0
 519              	.LCFI26:
 520              		.cfi_def_cfa_register 7
 561:.\Generated_Source\PSoC5/LIN_1.c ****     l_bool result = LIN_1_FALSE;
 521              		.loc 1 561 0
 522 0006 4FF00003 		mov	r3, #0
ARM GAS  C:\Users\MATSUD~1\AppData\Local\Temp\ccLjdAaK.s 			page 20


 523 000a FB71     		strb	r3, [r7, #7]
 562:.\Generated_Source\PSoC5/LIN_1.c **** 
 563:.\Generated_Source\PSoC5/LIN_1.c ****     if(0u != (LIN_1_statusFlagArray[LIN_1_Frame1_FRAME_FLAG_BYTE_OFFSET_0] &
 524              		.loc 1 563 0
 525 000c 40F20003 		movw	r3, #:lower16:LIN_1_statusFlagArray
 526 0010 C0F20003 		movt	r3, #:upper16:LIN_1_statusFlagArray
 527 0014 1B78     		ldrb	r3, [r3, #0]	@ zero_extendqisi2
 528 0016 03F00203 		and	r3, r3, #2
 529 001a 002B     		cmp	r3, #0
 530 001c 02D0     		beq	.L35
 564:.\Generated_Source\PSoC5/LIN_1.c ****     LIN_1_Frame1_FRAME_FLAG_MASK_0))
 565:.\Generated_Source\PSoC5/LIN_1.c ****     {
 566:.\Generated_Source\PSoC5/LIN_1.c ****         result = LIN_1_TRUE;
 531              		.loc 1 566 0
 532 001e 4FF00103 		mov	r3, #1
 533 0022 FB71     		strb	r3, [r7, #7]
 534              	.L35:
 567:.\Generated_Source\PSoC5/LIN_1.c ****     }
 568:.\Generated_Source\PSoC5/LIN_1.c **** 
 569:.\Generated_Source\PSoC5/LIN_1.c ****     return(result);
 535              		.loc 1 569 0
 536 0024 FB79     		ldrb	r3, [r7, #7]	@ zero_extendqisi2
 570:.\Generated_Source\PSoC5/LIN_1.c **** }
 537              		.loc 1 570 0
 538 0026 1846     		mov	r0, r3
 539 0028 07F10C07 		add	r7, r7, #12
 540 002c BD46     		mov	sp, r7
 541 002e 80BC     		pop	{r7}
 542 0030 7047     		bx	lr
 543              		.cfi_endproc
 544              	.LFE9:
 545              		.size	l_flg_tst_Frame1, .-l_flg_tst_Frame1
 546 0032 00BF     		.section	.text.l_flg_tst_Frame2,"ax",%progbits
 547              		.align	2
 548              		.global	l_flg_tst_Frame2
 549              		.thumb
 550              		.thumb_func
 551              		.type	l_flg_tst_Frame2, %function
 552              	l_flg_tst_Frame2:
 553              	.LFB10:
 571:.\Generated_Source\PSoC5/LIN_1.c **** 
 572:.\Generated_Source\PSoC5/LIN_1.c **** /*******************************************************************************
 573:.\Generated_Source\PSoC5/LIN_1.c **** * Function Name: l_flg_tst_Frame2
 574:.\Generated_Source\PSoC5/LIN_1.c **** ********************************************************************************
 575:.\Generated_Source\PSoC5/LIN_1.c **** *
 576:.\Generated_Source\PSoC5/LIN_1.c **** * Summary:
 577:.\Generated_Source\PSoC5/LIN_1.c **** *  Returns a C boolean indicating the current state of the flag specified by
 578:.\Generated_Source\PSoC5/LIN_1.c **** *  the name fff, i.e. returns zero if the flag is cleared, non-zero otherwise.
 579:.\Generated_Source\PSoC5/LIN_1.c **** *
 580:.\Generated_Source\PSoC5/LIN_1.c **** * Parameters:
 581:.\Generated_Source\PSoC5/LIN_1.c **** *  None
 582:.\Generated_Source\PSoC5/LIN_1.c **** *
 583:.\Generated_Source\PSoC5/LIN_1.c **** * Return:
 584:.\Generated_Source\PSoC5/LIN_1.c **** *  Returns a C boolean indicating the current state of the flag specified by
 585:.\Generated_Source\PSoC5/LIN_1.c **** *  the name fff:
 586:.\Generated_Source\PSoC5/LIN_1.c **** *  False - if the flag is cleared;
 587:.\Generated_Source\PSoC5/LIN_1.c **** *  True - if the flag is not cleared.
ARM GAS  C:\Users\MATSUD~1\AppData\Local\Temp\ccLjdAaK.s 			page 21


 588:.\Generated_Source\PSoC5/LIN_1.c **** *
 589:.\Generated_Source\PSoC5/LIN_1.c **** *******************************************************************************/
 590:.\Generated_Source\PSoC5/LIN_1.c **** l_bool l_flg_tst_Frame2(void)
 591:.\Generated_Source\PSoC5/LIN_1.c **** {
 554              		.loc 1 591 0
 555              		.cfi_startproc
 556              		@ args = 0, pretend = 0, frame = 8
 557              		@ frame_needed = 1, uses_anonymous_args = 0
 558              		@ link register save eliminated.
 559 0000 80B4     		push	{r7}
 560              	.LCFI27:
 561              		.cfi_def_cfa_offset 4
 562              		.cfi_offset 7, -4
 563 0002 83B0     		sub	sp, sp, #12
 564              	.LCFI28:
 565              		.cfi_def_cfa_offset 16
 566 0004 00AF     		add	r7, sp, #0
 567              	.LCFI29:
 568              		.cfi_def_cfa_register 7
 592:.\Generated_Source\PSoC5/LIN_1.c ****     l_bool result = LIN_1_FALSE;
 569              		.loc 1 592 0
 570 0006 4FF00003 		mov	r3, #0
 571 000a FB71     		strb	r3, [r7, #7]
 593:.\Generated_Source\PSoC5/LIN_1.c **** 
 594:.\Generated_Source\PSoC5/LIN_1.c ****     if(0u != (LIN_1_statusFlagArray[LIN_1_Frame2_FRAME_FLAG_BYTE_OFFSET_0] &
 572              		.loc 1 594 0
 573 000c 40F20003 		movw	r3, #:lower16:LIN_1_statusFlagArray
 574 0010 C0F20003 		movt	r3, #:upper16:LIN_1_statusFlagArray
 575 0014 1B78     		ldrb	r3, [r3, #0]	@ zero_extendqisi2
 576 0016 03F00403 		and	r3, r3, #4
 577 001a 002B     		cmp	r3, #0
 578 001c 02D0     		beq	.L38
 595:.\Generated_Source\PSoC5/LIN_1.c ****     LIN_1_Frame2_FRAME_FLAG_MASK_0))
 596:.\Generated_Source\PSoC5/LIN_1.c ****     {
 597:.\Generated_Source\PSoC5/LIN_1.c ****         result = LIN_1_TRUE;
 579              		.loc 1 597 0
 580 001e 4FF00103 		mov	r3, #1
 581 0022 FB71     		strb	r3, [r7, #7]
 582              	.L38:
 598:.\Generated_Source\PSoC5/LIN_1.c ****     }
 599:.\Generated_Source\PSoC5/LIN_1.c **** 
 600:.\Generated_Source\PSoC5/LIN_1.c ****     return(result);
 583              		.loc 1 600 0
 584 0024 FB79     		ldrb	r3, [r7, #7]	@ zero_extendqisi2
 601:.\Generated_Source\PSoC5/LIN_1.c **** }
 585              		.loc 1 601 0
 586 0026 1846     		mov	r0, r3
 587 0028 07F10C07 		add	r7, r7, #12
 588 002c BD46     		mov	sp, r7
 589 002e 80BC     		pop	{r7}
 590 0030 7047     		bx	lr
 591              		.cfi_endproc
 592              	.LFE10:
 593              		.size	l_flg_tst_Frame2, .-l_flg_tst_Frame2
 594 0032 00BF     		.section	.text.l_flg_clr,"ax",%progbits
 595              		.align	2
 596              		.global	l_flg_clr
ARM GAS  C:\Users\MATSUD~1\AppData\Local\Temp\ccLjdAaK.s 			page 22


 597              		.thumb
 598              		.thumb_func
 599              		.type	l_flg_clr, %function
 600              	l_flg_clr:
 601              	.LFB11:
 602:.\Generated_Source\PSoC5/LIN_1.c **** 
 603:.\Generated_Source\PSoC5/LIN_1.c **** 
 604:.\Generated_Source\PSoC5/LIN_1.c **** 
 605:.\Generated_Source\PSoC5/LIN_1.c **** 
 606:.\Generated_Source\PSoC5/LIN_1.c **** 
 607:.\Generated_Source\PSoC5/LIN_1.c **** 
 608:.\Generated_Source\PSoC5/LIN_1.c **** /*******************************************************************************
 609:.\Generated_Source\PSoC5/LIN_1.c **** * Function Name: l_flg_clr
 610:.\Generated_Source\PSoC5/LIN_1.c **** ********************************************************************************
 611:.\Generated_Source\PSoC5/LIN_1.c **** *
 612:.\Generated_Source\PSoC5/LIN_1.c **** * Summary:
 613:.\Generated_Source\PSoC5/LIN_1.c **** *  Sets the current value of the flag specified by the name fff to zero.
 614:.\Generated_Source\PSoC5/LIN_1.c **** *
 615:.\Generated_Source\PSoC5/LIN_1.c **** * Parameters:
 616:.\Generated_Source\PSoC5/LIN_1.c **** *  fff - is the name of the flag handle.
 617:.\Generated_Source\PSoC5/LIN_1.c **** *
 618:.\Generated_Source\PSoC5/LIN_1.c **** * Return:
 619:.\Generated_Source\PSoC5/LIN_1.c **** *  None
 620:.\Generated_Source\PSoC5/LIN_1.c **** *
 621:.\Generated_Source\PSoC5/LIN_1.c **** * Reentrant:
 622:.\Generated_Source\PSoC5/LIN_1.c **** *  No
 623:.\Generated_Source\PSoC5/LIN_1.c **** *
 624:.\Generated_Source\PSoC5/LIN_1.c **** *******************************************************************************/
 625:.\Generated_Source\PSoC5/LIN_1.c **** void l_flg_clr(l_flag_handle fff)
 626:.\Generated_Source\PSoC5/LIN_1.c **** {
 602              		.loc 1 626 0
 603              		.cfi_startproc
 604              		@ args = 0, pretend = 0, frame = 8
 605              		@ frame_needed = 1, uses_anonymous_args = 0
 606 0000 80B5     		push	{r7, lr}
 607              	.LCFI30:
 608              		.cfi_def_cfa_offset 8
 609              		.cfi_offset 7, -8
 610              		.cfi_offset 14, -4
 611 0002 82B0     		sub	sp, sp, #8
 612              	.LCFI31:
 613              		.cfi_def_cfa_offset 16
 614 0004 00AF     		add	r7, sp, #0
 615              	.LCFI32:
 616              		.cfi_def_cfa_register 7
 617 0006 0346     		mov	r3, r0
 618 0008 FB71     		strb	r3, [r7, #7]
 627:.\Generated_Source\PSoC5/LIN_1.c ****     switch(fff)
 619              		.loc 1 627 0
 620 000a FB79     		ldrb	r3, [r7, #7]	@ zero_extendqisi2
 621 000c 012B     		cmp	r3, #1
 622 000e 06D0     		beq	.L43
 623 0010 022B     		cmp	r3, #2
 624 0012 07D0     		beq	.L44
 625 0014 002B     		cmp	r3, #0
 626 0016 08D1     		bne	.L46
 627              	.L42:
ARM GAS  C:\Users\MATSUD~1\AppData\Local\Temp\ccLjdAaK.s 			page 23


 628:.\Generated_Source\PSoC5/LIN_1.c ****     {
 629:.\Generated_Source\PSoC5/LIN_1.c ****         case arm_FLAG_HANDLE:
 630:.\Generated_Source\PSoC5/LIN_1.c ****             l_flg_clr_arm();
 628              		.loc 1 630 0
 629 0018 FFF7FEFF 		bl	l_flg_clr_arm
 631:.\Generated_Source\PSoC5/LIN_1.c ****         break;
 630              		.loc 1 631 0
 631 001c 06E0     		b	.L40
 632              	.L43:
 632:.\Generated_Source\PSoC5/LIN_1.c **** 
 633:.\Generated_Source\PSoC5/LIN_1.c ****         case Frame1_FLAG_HANDLE:
 634:.\Generated_Source\PSoC5/LIN_1.c ****             l_flg_clr_Frame1();
 633              		.loc 1 634 0
 634 001e FFF7FEFF 		bl	l_flg_clr_Frame1
 635:.\Generated_Source\PSoC5/LIN_1.c ****         break;
 635              		.loc 1 635 0
 636 0022 03E0     		b	.L40
 637              	.L44:
 636:.\Generated_Source\PSoC5/LIN_1.c **** 
 637:.\Generated_Source\PSoC5/LIN_1.c ****         case Frame2_FLAG_HANDLE:
 638:.\Generated_Source\PSoC5/LIN_1.c ****             l_flg_clr_Frame2();
 638              		.loc 1 638 0
 639 0024 FFF7FEFF 		bl	l_flg_clr_Frame2
 639:.\Generated_Source\PSoC5/LIN_1.c ****         break;
 640              		.loc 1 639 0
 641 0028 00E0     		b	.L40
 642              	.L46:
 640:.\Generated_Source\PSoC5/LIN_1.c **** 
 641:.\Generated_Source\PSoC5/LIN_1.c ****         default:
 642:.\Generated_Source\PSoC5/LIN_1.c ****         break;
 643              		.loc 1 642 0
 644 002a 00BF     		nop
 645              	.L40:
 643:.\Generated_Source\PSoC5/LIN_1.c ****     }
 644:.\Generated_Source\PSoC5/LIN_1.c **** }
 646              		.loc 1 644 0
 647 002c 07F10807 		add	r7, r7, #8
 648 0030 BD46     		mov	sp, r7
 649 0032 80BD     		pop	{r7, pc}
 650              		.cfi_endproc
 651              	.LFE11:
 652              		.size	l_flg_clr, .-l_flg_clr
 653              		.section	.text.l_flg_clr_arm,"ax",%progbits
 654              		.align	2
 655              		.global	l_flg_clr_arm
 656              		.thumb
 657              		.thumb_func
 658              		.type	l_flg_clr_arm, %function
 659              	l_flg_clr_arm:
 660              	.LFB12:
 645:.\Generated_Source\PSoC5/LIN_1.c **** 
 646:.\Generated_Source\PSoC5/LIN_1.c **** 
 647:.\Generated_Source\PSoC5/LIN_1.c **** /*******************************************************************************
 648:.\Generated_Source\PSoC5/LIN_1.c **** * Function Name: l_flg_clr_arm
 649:.\Generated_Source\PSoC5/LIN_1.c **** ********************************************************************************
 650:.\Generated_Source\PSoC5/LIN_1.c **** *
 651:.\Generated_Source\PSoC5/LIN_1.c **** * Summary:
ARM GAS  C:\Users\MATSUD~1\AppData\Local\Temp\ccLjdAaK.s 			page 24


 652:.\Generated_Source\PSoC5/LIN_1.c **** *  Sets the current value of the flag specified by the name fff to zero.
 653:.\Generated_Source\PSoC5/LIN_1.c **** *
 654:.\Generated_Source\PSoC5/LIN_1.c **** * Parameters:
 655:.\Generated_Source\PSoC5/LIN_1.c **** *  None
 656:.\Generated_Source\PSoC5/LIN_1.c **** *
 657:.\Generated_Source\PSoC5/LIN_1.c **** * Return:
 658:.\Generated_Source\PSoC5/LIN_1.c **** *  None
 659:.\Generated_Source\PSoC5/LIN_1.c **** *
 660:.\Generated_Source\PSoC5/LIN_1.c **** * Reentrant:
 661:.\Generated_Source\PSoC5/LIN_1.c **** *  No
 662:.\Generated_Source\PSoC5/LIN_1.c **** *
 663:.\Generated_Source\PSoC5/LIN_1.c **** *******************************************************************************/
 664:.\Generated_Source\PSoC5/LIN_1.c **** void l_flg_clr_arm(void)
 665:.\Generated_Source\PSoC5/LIN_1.c **** {
 661              		.loc 1 665 0
 662              		.cfi_startproc
 663              		@ args = 0, pretend = 0, frame = 0
 664              		@ frame_needed = 1, uses_anonymous_args = 0
 665              		@ link register save eliminated.
 666 0000 80B4     		push	{r7}
 667              	.LCFI33:
 668              		.cfi_def_cfa_offset 4
 669              		.cfi_offset 7, -4
 670 0002 00AF     		add	r7, sp, #0
 671              	.LCFI34:
 672              		.cfi_def_cfa_register 7
 666:.\Generated_Source\PSoC5/LIN_1.c ****     LIN_1_statusFlagArray[LIN_1_arm_FRAME_FLAG_BYTE_OFFSET_0] &=
 673              		.loc 1 666 0
 674 0004 40F20003 		movw	r3, #:lower16:LIN_1_statusFlagArray
 675 0008 C0F20003 		movt	r3, #:upper16:LIN_1_statusFlagArray
 676 000c 1B78     		ldrb	r3, [r3, #0]	@ zero_extendqisi2
 677 000e 23F00103 		bic	r3, r3, #1
 678 0012 DAB2     		uxtb	r2, r3
 679 0014 40F20003 		movw	r3, #:lower16:LIN_1_statusFlagArray
 680 0018 C0F20003 		movt	r3, #:upper16:LIN_1_statusFlagArray
 681 001c 1A70     		strb	r2, [r3, #0]
 667:.\Generated_Source\PSoC5/LIN_1.c ****        ((l_u8) ~LIN_1_arm_FRAME_FLAG_MASK_0);
 668:.\Generated_Source\PSoC5/LIN_1.c **** }
 682              		.loc 1 668 0
 683 001e BD46     		mov	sp, r7
 684 0020 80BC     		pop	{r7}
 685 0022 7047     		bx	lr
 686              		.cfi_endproc
 687              	.LFE12:
 688              		.size	l_flg_clr_arm, .-l_flg_clr_arm
 689              		.section	.text.l_flg_clr_Frame1,"ax",%progbits
 690              		.align	2
 691              		.global	l_flg_clr_Frame1
 692              		.thumb
 693              		.thumb_func
 694              		.type	l_flg_clr_Frame1, %function
 695              	l_flg_clr_Frame1:
 696              	.LFB13:
 669:.\Generated_Source\PSoC5/LIN_1.c **** 
 670:.\Generated_Source\PSoC5/LIN_1.c **** /*******************************************************************************
 671:.\Generated_Source\PSoC5/LIN_1.c **** * Function Name: l_flg_clr_Frame1
 672:.\Generated_Source\PSoC5/LIN_1.c **** ********************************************************************************
ARM GAS  C:\Users\MATSUD~1\AppData\Local\Temp\ccLjdAaK.s 			page 25


 673:.\Generated_Source\PSoC5/LIN_1.c **** *
 674:.\Generated_Source\PSoC5/LIN_1.c **** * Summary:
 675:.\Generated_Source\PSoC5/LIN_1.c **** *  Sets the current value of the flag specified by the name fff to zero.
 676:.\Generated_Source\PSoC5/LIN_1.c **** *
 677:.\Generated_Source\PSoC5/LIN_1.c **** * Parameters:
 678:.\Generated_Source\PSoC5/LIN_1.c **** *  None
 679:.\Generated_Source\PSoC5/LIN_1.c **** *
 680:.\Generated_Source\PSoC5/LIN_1.c **** * Return:
 681:.\Generated_Source\PSoC5/LIN_1.c **** *  None
 682:.\Generated_Source\PSoC5/LIN_1.c **** *
 683:.\Generated_Source\PSoC5/LIN_1.c **** * Reentrant:
 684:.\Generated_Source\PSoC5/LIN_1.c **** *  No
 685:.\Generated_Source\PSoC5/LIN_1.c **** *
 686:.\Generated_Source\PSoC5/LIN_1.c **** *******************************************************************************/
 687:.\Generated_Source\PSoC5/LIN_1.c **** void l_flg_clr_Frame1(void)
 688:.\Generated_Source\PSoC5/LIN_1.c **** {
 697              		.loc 1 688 0
 698              		.cfi_startproc
 699              		@ args = 0, pretend = 0, frame = 0
 700              		@ frame_needed = 1, uses_anonymous_args = 0
 701              		@ link register save eliminated.
 702 0000 80B4     		push	{r7}
 703              	.LCFI35:
 704              		.cfi_def_cfa_offset 4
 705              		.cfi_offset 7, -4
 706 0002 00AF     		add	r7, sp, #0
 707              	.LCFI36:
 708              		.cfi_def_cfa_register 7
 689:.\Generated_Source\PSoC5/LIN_1.c ****     LIN_1_statusFlagArray[LIN_1_Frame1_FRAME_FLAG_BYTE_OFFSET_0] &=
 709              		.loc 1 689 0
 710 0004 40F20003 		movw	r3, #:lower16:LIN_1_statusFlagArray
 711 0008 C0F20003 		movt	r3, #:upper16:LIN_1_statusFlagArray
 712 000c 1B78     		ldrb	r3, [r3, #0]	@ zero_extendqisi2
 713 000e 23F00203 		bic	r3, r3, #2
 714 0012 DAB2     		uxtb	r2, r3
 715 0014 40F20003 		movw	r3, #:lower16:LIN_1_statusFlagArray
 716 0018 C0F20003 		movt	r3, #:upper16:LIN_1_statusFlagArray
 717 001c 1A70     		strb	r2, [r3, #0]
 690:.\Generated_Source\PSoC5/LIN_1.c ****        ((l_u8) ~LIN_1_Frame1_FRAME_FLAG_MASK_0);
 691:.\Generated_Source\PSoC5/LIN_1.c **** }
 718              		.loc 1 691 0
 719 001e BD46     		mov	sp, r7
 720 0020 80BC     		pop	{r7}
 721 0022 7047     		bx	lr
 722              		.cfi_endproc
 723              	.LFE13:
 724              		.size	l_flg_clr_Frame1, .-l_flg_clr_Frame1
 725              		.section	.text.l_flg_clr_Frame2,"ax",%progbits
 726              		.align	2
 727              		.global	l_flg_clr_Frame2
 728              		.thumb
 729              		.thumb_func
 730              		.type	l_flg_clr_Frame2, %function
 731              	l_flg_clr_Frame2:
 732              	.LFB14:
 692:.\Generated_Source\PSoC5/LIN_1.c **** 
 693:.\Generated_Source\PSoC5/LIN_1.c **** /*******************************************************************************
ARM GAS  C:\Users\MATSUD~1\AppData\Local\Temp\ccLjdAaK.s 			page 26


 694:.\Generated_Source\PSoC5/LIN_1.c **** * Function Name: l_flg_clr_Frame2
 695:.\Generated_Source\PSoC5/LIN_1.c **** ********************************************************************************
 696:.\Generated_Source\PSoC5/LIN_1.c **** *
 697:.\Generated_Source\PSoC5/LIN_1.c **** * Summary:
 698:.\Generated_Source\PSoC5/LIN_1.c **** *  Sets the current value of the flag specified by the name fff to zero.
 699:.\Generated_Source\PSoC5/LIN_1.c **** *
 700:.\Generated_Source\PSoC5/LIN_1.c **** * Parameters:
 701:.\Generated_Source\PSoC5/LIN_1.c **** *  None
 702:.\Generated_Source\PSoC5/LIN_1.c **** *
 703:.\Generated_Source\PSoC5/LIN_1.c **** * Return:
 704:.\Generated_Source\PSoC5/LIN_1.c **** *  None
 705:.\Generated_Source\PSoC5/LIN_1.c **** *
 706:.\Generated_Source\PSoC5/LIN_1.c **** * Reentrant:
 707:.\Generated_Source\PSoC5/LIN_1.c **** *  No
 708:.\Generated_Source\PSoC5/LIN_1.c **** *
 709:.\Generated_Source\PSoC5/LIN_1.c **** *******************************************************************************/
 710:.\Generated_Source\PSoC5/LIN_1.c **** void l_flg_clr_Frame2(void)
 711:.\Generated_Source\PSoC5/LIN_1.c **** {
 733              		.loc 1 711 0
 734              		.cfi_startproc
 735              		@ args = 0, pretend = 0, frame = 0
 736              		@ frame_needed = 1, uses_anonymous_args = 0
 737              		@ link register save eliminated.
 738 0000 80B4     		push	{r7}
 739              	.LCFI37:
 740              		.cfi_def_cfa_offset 4
 741              		.cfi_offset 7, -4
 742 0002 00AF     		add	r7, sp, #0
 743              	.LCFI38:
 744              		.cfi_def_cfa_register 7
 712:.\Generated_Source\PSoC5/LIN_1.c ****     LIN_1_statusFlagArray[LIN_1_Frame2_FRAME_FLAG_BYTE_OFFSET_0] &=
 745              		.loc 1 712 0
 746 0004 40F20003 		movw	r3, #:lower16:LIN_1_statusFlagArray
 747 0008 C0F20003 		movt	r3, #:upper16:LIN_1_statusFlagArray
 748 000c 1B78     		ldrb	r3, [r3, #0]	@ zero_extendqisi2
 749 000e 23F00403 		bic	r3, r3, #4
 750 0012 DAB2     		uxtb	r2, r3
 751 0014 40F20003 		movw	r3, #:lower16:LIN_1_statusFlagArray
 752 0018 C0F20003 		movt	r3, #:upper16:LIN_1_statusFlagArray
 753 001c 1A70     		strb	r2, [r3, #0]
 713:.\Generated_Source\PSoC5/LIN_1.c ****        ((l_u8) ~LIN_1_Frame2_FRAME_FLAG_MASK_0);
 714:.\Generated_Source\PSoC5/LIN_1.c **** }
 754              		.loc 1 714 0
 755 001e BD46     		mov	sp, r7
 756 0020 80BC     		pop	{r7}
 757 0022 7047     		bx	lr
 758              		.cfi_endproc
 759              	.LFE14:
 760              		.size	l_flg_clr_Frame2, .-l_flg_clr_Frame2
 761              		.section	.text.l_ifc_init_LIN_1,"ax",%progbits
 762              		.align	2
 763              		.global	l_ifc_init_LIN_1
 764              		.thumb
 765              		.thumb_func
 766              		.type	l_ifc_init_LIN_1, %function
 767              	l_ifc_init_LIN_1:
 768              	.LFB15:
ARM GAS  C:\Users\MATSUD~1\AppData\Local\Temp\ccLjdAaK.s 			page 27


 715:.\Generated_Source\PSoC5/LIN_1.c **** 
 716:.\Generated_Source\PSoC5/LIN_1.c **** 
 717:.\Generated_Source\PSoC5/LIN_1.c **** 
 718:.\Generated_Source\PSoC5/LIN_1.c **** 
 719:.\Generated_Source\PSoC5/LIN_1.c **** 
 720:.\Generated_Source\PSoC5/LIN_1.c **** 
 721:.\Generated_Source\PSoC5/LIN_1.c **** 
 722:.\Generated_Source\PSoC5/LIN_1.c **** /*******************************************************************************
 723:.\Generated_Source\PSoC5/LIN_1.c **** * Function Name: l_ifc_init_LIN_1
 724:.\Generated_Source\PSoC5/LIN_1.c **** ********************************************************************************
 725:.\Generated_Source\PSoC5/LIN_1.c **** *
 726:.\Generated_Source\PSoC5/LIN_1.c **** * Summary:
 727:.\Generated_Source\PSoC5/LIN_1.c **** *  The function initializes the LIN Slave component instance that is specified
 728:.\Generated_Source\PSoC5/LIN_1.c **** *  by the name iii. It sets up internal functions such as the baud rate and
 729:.\Generated_Source\PSoC5/LIN_1.c **** *  starts up digital blocks that are used by the LIN Slave component. This is
 730:.\Generated_Source\PSoC5/LIN_1.c **** *  the first call that must be performed, before using any other interface-
 731:.\Generated_Source\PSoC5/LIN_1.c **** *  related LIN Slave API functions.
 732:.\Generated_Source\PSoC5/LIN_1.c **** *
 733:.\Generated_Source\PSoC5/LIN_1.c **** * Parameters:
 734:.\Generated_Source\PSoC5/LIN_1.c **** *  None
 735:.\Generated_Source\PSoC5/LIN_1.c **** *
 736:.\Generated_Source\PSoC5/LIN_1.c **** * Return:
 737:.\Generated_Source\PSoC5/LIN_1.c **** *  The 0 is returned if operation succeeded and 1 if an invalid operation
 738:.\Generated_Source\PSoC5/LIN_1.c **** *  parameter was passed to the function.
 739:.\Generated_Source\PSoC5/LIN_1.c **** *
 740:.\Generated_Source\PSoC5/LIN_1.c **** * Reentrant:
 741:.\Generated_Source\PSoC5/LIN_1.c **** *  No
 742:.\Generated_Source\PSoC5/LIN_1.c **** *
 743:.\Generated_Source\PSoC5/LIN_1.c **** *******************************************************************************/
 744:.\Generated_Source\PSoC5/LIN_1.c **** l_bool l_ifc_init_LIN_1(void) 
 745:.\Generated_Source\PSoC5/LIN_1.c **** {
 769              		.loc 1 745 0
 770              		.cfi_startproc
 771              		@ args = 0, pretend = 0, frame = 8
 772              		@ frame_needed = 1, uses_anonymous_args = 0
 773 0000 80B5     		push	{r7, lr}
 774              	.LCFI39:
 775              		.cfi_def_cfa_offset 8
 776              		.cfi_offset 7, -8
 777              		.cfi_offset 14, -4
 778 0002 82B0     		sub	sp, sp, #8
 779              	.LCFI40:
 780              		.cfi_def_cfa_offset 16
 781 0004 00AF     		add	r7, sp, #0
 782              	.LCFI41:
 783              		.cfi_def_cfa_register 7
 746:.\Generated_Source\PSoC5/LIN_1.c ****     l_u8 interruptState;
 747:.\Generated_Source\PSoC5/LIN_1.c ****     l_u8 i;
 748:.\Generated_Source\PSoC5/LIN_1.c **** 
 749:.\Generated_Source\PSoC5/LIN_1.c ****     /* Set bLIN interrupt priority */
 750:.\Generated_Source\PSoC5/LIN_1.c ****     CyIntSetPriority(LIN_1_BLIN_ISR_NUMBER, LIN_1_BLIN_ISR_PRIORITY);
 784              		.loc 1 750 0
 785 0006 4FF00000 		mov	r0, #0
 786 000a 4FF00701 		mov	r1, #7
 787 000e FFF7FEFF 		bl	CyIntSetPriority
 751:.\Generated_Source\PSoC5/LIN_1.c **** 
 752:.\Generated_Source\PSoC5/LIN_1.c ****     /* Set bLIN interrupt vector */
ARM GAS  C:\Users\MATSUD~1\AppData\Local\Temp\ccLjdAaK.s 			page 28


 753:.\Generated_Source\PSoC5/LIN_1.c ****     (void) CyIntSetVector(LIN_1_BLIN_ISR_NUMBER, &LIN_1_BLIN_ISR);
 788              		.loc 1 753 0
 789 0012 4FF00000 		mov	r0, #0
 790 0016 40F20001 		movw	r1, #:lower16:LIN_1_BLIN_ISR
 791 001a C0F20001 		movt	r1, #:upper16:LIN_1_BLIN_ISR
 792 001e FFF7FEFF 		bl	CyIntSetVector
 754:.\Generated_Source\PSoC5/LIN_1.c **** 
 755:.\Generated_Source\PSoC5/LIN_1.c ****     /* Clear any pending bLIN interrupt */
 756:.\Generated_Source\PSoC5/LIN_1.c ****     CyIntClearPending(LIN_1_BLIN_ISR_NUMBER);
 793              		.loc 1 756 0
 794 0022 4EF28023 		movw	r3, #57984
 795 0026 CEF20003 		movt	r3, 57344
 796 002a 4FF00102 		mov	r2, #1
 797 002e 1A60     		str	r2, [r3, #0]
 757:.\Generated_Source\PSoC5/LIN_1.c **** 
 758:.\Generated_Source\PSoC5/LIN_1.c ****     /* Clear any pending bLIN interrupt */
 759:.\Generated_Source\PSoC5/LIN_1.c ****     CyIntClearPending(LIN_1_BLIN_ISR_NUMBER);
 798              		.loc 1 759 0
 799 0030 4EF28023 		movw	r3, #57984
 800 0034 CEF20003 		movt	r3, 57344
 801 0038 4FF00102 		mov	r2, #1
 802 003c 1A60     		str	r2, [r3, #0]
 760:.\Generated_Source\PSoC5/LIN_1.c **** 
 761:.\Generated_Source\PSoC5/LIN_1.c ****     /* Set UART interrupt priority */
 762:.\Generated_Source\PSoC5/LIN_1.c ****     CyIntSetPriority(LIN_1_UART_ISR_NUMBER, LIN_1_UART_ISR_PRIORITY);
 803              		.loc 1 762 0
 804 003e 4FF00100 		mov	r0, #1
 805 0042 4FF00701 		mov	r1, #7
 806 0046 FFF7FEFF 		bl	CyIntSetPriority
 763:.\Generated_Source\PSoC5/LIN_1.c **** 
 764:.\Generated_Source\PSoC5/LIN_1.c ****     /* Set UART interrupt vector */
 765:.\Generated_Source\PSoC5/LIN_1.c ****     (void) CyIntSetVector(LIN_1_UART_ISR_NUMBER, &LIN_1_UART_ISR);
 807              		.loc 1 765 0
 808 004a 4FF00100 		mov	r0, #1
 809 004e 40F20001 		movw	r1, #:lower16:LIN_1_UART_ISR
 810 0052 C0F20001 		movt	r1, #:upper16:LIN_1_UART_ISR
 811 0056 FFF7FEFF 		bl	CyIntSetVector
 766:.\Generated_Source\PSoC5/LIN_1.c **** 
 767:.\Generated_Source\PSoC5/LIN_1.c ****     /* Start UART */
 768:.\Generated_Source\PSoC5/LIN_1.c ****     LIN_1_UART_Start();
 812              		.loc 1 768 0
 813 005a FFF7FEFF 		bl	LIN_1_UART_Start
 769:.\Generated_Source\PSoC5/LIN_1.c **** 
 770:.\Generated_Source\PSoC5/LIN_1.c ****     /* Set Break Detection Threshold in counts */
 771:.\Generated_Source\PSoC5/LIN_1.c ****     LIN_1_BREAK_THRESHOLD_REG = (l_u8) LIN_1_BREAK_THRESHOLD_VALUE;
 814              		.loc 1 771 0
 815 005e 46F22543 		movw	r3, #25637
 816 0062 C4F20003 		movt	r3, 16384
 817 0066 4FF0B002 		mov	r2, #176
 818 006a 1A70     		strb	r2, [r3, #0]
 772:.\Generated_Source\PSoC5/LIN_1.c **** 
 773:.\Generated_Source\PSoC5/LIN_1.c ****     /* Allow interrupts on break, sync and inactivity (optional) events */
 774:.\Generated_Source\PSoC5/LIN_1.c ****     LIN_1_INT_MASK_REG |= (LIN_1_INT_MASK_BREAK     |
 819              		.loc 1 774 0
 820 006c 46F28643 		movw	r3, #25734
 821 0070 C4F20003 		movt	r3, 16384
 822 0074 46F28642 		movw	r2, #25734
ARM GAS  C:\Users\MATSUD~1\AppData\Local\Temp\ccLjdAaK.s 			page 29


 823 0078 C4F20002 		movt	r2, 16384
 824 007c 1278     		ldrb	r2, [r2, #0]
 825 007e D2B2     		uxtb	r2, r2
 826 0080 42F00D02 		orr	r2, r2, #13
 827 0084 D2B2     		uxtb	r2, r2
 828 0086 1A70     		strb	r2, [r3, #0]
 775:.\Generated_Source\PSoC5/LIN_1.c ****                                       LIN_1_INT_MASK_SYNC      |
 776:.\Generated_Source\PSoC5/LIN_1.c ****                                       LIN_1_INT_MASK_INACTIVITY);
 777:.\Generated_Source\PSoC5/LIN_1.c **** 
 778:.\Generated_Source\PSoC5/LIN_1.c ****     interruptState = CyEnterCriticalSection();
 829              		.loc 1 778 0
 830 0088 FFF7FEFF 		bl	CyEnterCriticalSection
 831 008c 0346     		mov	r3, r0
 832 008e BB71     		strb	r3, [r7, #6]
 779:.\Generated_Source\PSoC5/LIN_1.c **** 
 780:.\Generated_Source\PSoC5/LIN_1.c ****     LIN_1_STATUS_AUX_CONTROL_REG |= LIN_1_STATUS_AUX_CONTROL_INT_EN;
 833              		.loc 1 780 0
 834 0090 46F29643 		movw	r3, #25750
 835 0094 C4F20003 		movt	r3, 16384
 836 0098 46F29642 		movw	r2, #25750
 837 009c C4F20002 		movt	r2, 16384
 838 00a0 1278     		ldrb	r2, [r2, #0]
 839 00a2 D2B2     		uxtb	r2, r2
 840 00a4 42F01002 		orr	r2, r2, #16
 841 00a8 D2B2     		uxtb	r2, r2
 842 00aa 1A70     		strb	r2, [r3, #0]
 781:.\Generated_Source\PSoC5/LIN_1.c **** 
 782:.\Generated_Source\PSoC5/LIN_1.c ****     CyExitCriticalSection(interruptState);
 843              		.loc 1 782 0
 844 00ac BB79     		ldrb	r3, [r7, #6]	@ zero_extendqisi2
 845 00ae 1846     		mov	r0, r3
 846 00b0 FFF7FEFF 		bl	CyExitCriticalSection
 783:.\Generated_Source\PSoC5/LIN_1.c **** 
 784:.\Generated_Source\PSoC5/LIN_1.c ****     /* Bus inactivity block configuration */
 785:.\Generated_Source\PSoC5/LIN_1.c ****     #if(1u == LIN_1_INACTIVITY_ENABLED)
 786:.\Generated_Source\PSoC5/LIN_1.c **** 
 787:.\Generated_Source\PSoC5/LIN_1.c ****         /* Bus inactivity block configuration to issue interrupt every 100 ms */
 788:.\Generated_Source\PSoC5/LIN_1.c ****         LIN_1_INACTIVITY_DIV0_REG = LIN_1_INACT_DIV0;
 847              		.loc 1 788 0
 848 00b4 46F22653 		movw	r3, #25894
 849 00b8 C4F20003 		movt	r3, 16384
 850 00bc 4FF00002 		mov	r2, #0
 851 00c0 1A70     		strb	r2, [r3, #0]
 789:.\Generated_Source\PSoC5/LIN_1.c ****         LIN_1_INACTIVITY_DIV1_REG = LIN_1_INACT_DIV1;
 852              		.loc 1 789 0
 853 00c2 46F23653 		movw	r3, #25910
 854 00c6 C4F20003 		movt	r3, 16384
 855 00ca 4FF07802 		mov	r2, #120
 856 00ce 1A70     		strb	r2, [r3, #0]
 790:.\Generated_Source\PSoC5/LIN_1.c **** 
 791:.\Generated_Source\PSoC5/LIN_1.c ****     #endif  /* (1u == LIN_1_INACTIVITY_ENABLED) */
 792:.\Generated_Source\PSoC5/LIN_1.c **** 
 793:.\Generated_Source\PSoC5/LIN_1.c **** 
 794:.\Generated_Source\PSoC5/LIN_1.c ****     /* Save clock divider */
 795:.\Generated_Source\PSoC5/LIN_1.c ****      #if(1u == LIN_1_AUTO_BAUD_RATE_SYNC)
 796:.\Generated_Source\PSoC5/LIN_1.c **** 
 797:.\Generated_Source\PSoC5/LIN_1.c ****         /* Save default clock divider */
ARM GAS  C:\Users\MATSUD~1\AppData\Local\Temp\ccLjdAaK.s 			page 30


 798:.\Generated_Source\PSoC5/LIN_1.c ****         LIN_1_initialClockDivider = LIN_1_IntClk_GetDividerRegister();
 857              		.loc 1 798 0
 858 00d0 FFF7FEFF 		bl	LIN_1_IntClk_GetDividerRegister
 859 00d4 0346     		mov	r3, r0
 860 00d6 1A46     		mov	r2, r3
 861 00d8 40F20003 		movw	r3, #:lower16:LIN_1_initialClockDivider
 862 00dc C0F20003 		movt	r3, #:upper16:LIN_1_initialClockDivider
 863 00e0 1A80     		strh	r2, [r3, #0]	@ movhi
 799:.\Generated_Source\PSoC5/LIN_1.c **** 
 800:.\Generated_Source\PSoC5/LIN_1.c ****     #endif  /* (1u == LIN_1_AUTO_BAUD_RATE_SYNC) */
 801:.\Generated_Source\PSoC5/LIN_1.c **** 
 802:.\Generated_Source\PSoC5/LIN_1.c ****     /* Enable hardware blocks operation */
 803:.\Generated_Source\PSoC5/LIN_1.c ****     LIN_1_CONTROL_REG |= LIN_1_CONTROL_ENABLE;
 864              		.loc 1 803 0
 865 00e2 46F27643 		movw	r3, #25718
 866 00e6 C4F20003 		movt	r3, 16384
 867 00ea 46F27642 		movw	r2, #25718
 868 00ee C4F20002 		movt	r2, 16384
 869 00f2 1278     		ldrb	r2, [r2, #0]
 870 00f4 D2B2     		uxtb	r2, r2
 871 00f6 42F00102 		orr	r2, r2, #1
 872 00fa D2B2     		uxtb	r2, r2
 873 00fc 1A70     		strb	r2, [r3, #0]
 804:.\Generated_Source\PSoC5/LIN_1.c **** 
 805:.\Generated_Source\PSoC5/LIN_1.c ****     /* Copy PIDs from NVRAM to VRAM */
 806:.\Generated_Source\PSoC5/LIN_1.c ****     for(i = 0u; i < LIN_1_NUM_FRAMES; i++)
 874              		.loc 1 806 0
 875 00fe 4FF00003 		mov	r3, #0
 876 0102 FB71     		strb	r3, [r7, #7]
 877 0104 0FE0     		b	.L51
 878              	.L52:
 807:.\Generated_Source\PSoC5/LIN_1.c ****     {
 808:.\Generated_Source\PSoC5/LIN_1.c ****         LIN_1_volatileConfig[i] = LIN_1_LinSlaveConfig.pidTable[i];
 879              		.loc 1 808 0 discriminator 2
 880 0106 FA79     		ldrb	r2, [r7, #7]	@ zero_extendqisi2
 881 0108 F979     		ldrb	r1, [r7, #7]	@ zero_extendqisi2
 882 010a 40F20003 		movw	r3, #:lower16:LIN_1_LinSlaveConfig
 883 010e C0F20003 		movt	r3, #:upper16:LIN_1_LinSlaveConfig
 884 0112 595C     		ldrb	r1, [r3, r1]	@ zero_extendqisi2
 885 0114 40F20003 		movw	r3, #:lower16:LIN_1_volatileConfig
 886 0118 C0F20003 		movt	r3, #:upper16:LIN_1_volatileConfig
 887 011c 9954     		strb	r1, [r3, r2]
 806:.\Generated_Source\PSoC5/LIN_1.c ****     for(i = 0u; i < LIN_1_NUM_FRAMES; i++)
 888              		.loc 1 806 0 discriminator 2
 889 011e FB79     		ldrb	r3, [r7, #7]
 890 0120 03F10103 		add	r3, r3, #1
 891 0124 FB71     		strb	r3, [r7, #7]
 892              	.L51:
 806:.\Generated_Source\PSoC5/LIN_1.c ****     for(i = 0u; i < LIN_1_NUM_FRAMES; i++)
 893              		.loc 1 806 0 is_stmt 0 discriminator 1
 894 0126 FB79     		ldrb	r3, [r7, #7]	@ zero_extendqisi2
 895 0128 012B     		cmp	r3, #1
 896 012a ECD9     		bls	.L52
 809:.\Generated_Source\PSoC5/LIN_1.c ****     }
 810:.\Generated_Source\PSoC5/LIN_1.c **** 
 811:.\Generated_Source\PSoC5/LIN_1.c ****     #if(1u == LIN_1_TL_ENABLED)
 812:.\Generated_Source\PSoC5/LIN_1.c **** 
ARM GAS  C:\Users\MATSUD~1\AppData\Local\Temp\ccLjdAaK.s 			page 31


 813:.\Generated_Source\PSoC5/LIN_1.c ****         LIN_1_nad = LIN_1_LinSlaveConfig.initialNad;
 814:.\Generated_Source\PSoC5/LIN_1.c **** 
 815:.\Generated_Source\PSoC5/LIN_1.c ****     #endif /* (1u == LIN_1_TL_ENABLED) */
 816:.\Generated_Source\PSoC5/LIN_1.c **** 
 817:.\Generated_Source\PSoC5/LIN_1.c ****     /*  Clear interface status */
 818:.\Generated_Source\PSoC5/LIN_1.c ****     LIN_1_ifcStatus &= (l_u16) ~LIN_1_IFC_STS_MASK;
 897              		.loc 1 818 0 is_stmt 1
 898 012c 40F20003 		movw	r3, #:lower16:LIN_1_ifcStatus
 899 0130 C0F20003 		movt	r3, #:upper16:LIN_1_ifcStatus
 900 0134 1B88     		ldrh	r3, [r3, #0]	@ movhi
 901 0136 40F20003 		movw	r3, #:lower16:LIN_1_ifcStatus
 902 013a C0F20003 		movt	r3, #:upper16:LIN_1_ifcStatus
 903 013e 4FF00002 		mov	r2, #0
 904 0142 1A80     		strh	r2, [r3, #0]	@ movhi
 819:.\Generated_Source\PSoC5/LIN_1.c **** 
 820:.\Generated_Source\PSoC5/LIN_1.c ****     /* Enable bLIN interrupt */
 821:.\Generated_Source\PSoC5/LIN_1.c ****     CyIntEnable(LIN_1_BLIN_ISR_NUMBER);
 905              		.loc 1 821 0
 906 0144 4FF46143 		mov	r3, #57600
 907 0148 CEF20003 		movt	r3, 57344
 908 014c 4FF00102 		mov	r2, #1
 909 0150 1A60     		str	r2, [r3, #0]
 822:.\Generated_Source\PSoC5/LIN_1.c **** 
 823:.\Generated_Source\PSoC5/LIN_1.c ****     /* Initialization is always expected to succeeded */
 824:.\Generated_Source\PSoC5/LIN_1.c ****     return (LIN_1_FALSE);
 910              		.loc 1 824 0
 911 0152 4FF00003 		mov	r3, #0
 825:.\Generated_Source\PSoC5/LIN_1.c **** }
 912              		.loc 1 825 0
 913 0156 1846     		mov	r0, r3
 914 0158 07F10807 		add	r7, r7, #8
 915 015c BD46     		mov	sp, r7
 916 015e 80BD     		pop	{r7, pc}
 917              		.cfi_endproc
 918              	.LFE15:
 919              		.size	l_ifc_init_LIN_1, .-l_ifc_init_LIN_1
 920              		.section	.text.l_ifc_init,"ax",%progbits
 921              		.align	2
 922              		.global	l_ifc_init
 923              		.thumb
 924              		.thumb_func
 925              		.type	l_ifc_init, %function
 926              	l_ifc_init:
 927              	.LFB16:
 826:.\Generated_Source\PSoC5/LIN_1.c **** 
 827:.\Generated_Source\PSoC5/LIN_1.c **** 
 828:.\Generated_Source\PSoC5/LIN_1.c **** /*******************************************************************************
 829:.\Generated_Source\PSoC5/LIN_1.c **** * Function Name: l_ifc_init
 830:.\Generated_Source\PSoC5/LIN_1.c **** ********************************************************************************
 831:.\Generated_Source\PSoC5/LIN_1.c **** *
 832:.\Generated_Source\PSoC5/LIN_1.c **** * Summary:
 833:.\Generated_Source\PSoC5/LIN_1.c **** *  The function initializes the LIN Slave component instance that is specified
 834:.\Generated_Source\PSoC5/LIN_1.c **** *  by the name iii. It sets up internal functions such as the baud rate and
 835:.\Generated_Source\PSoC5/LIN_1.c **** *  starts up digital blocks that are used by the LIN Slave component. This is
 836:.\Generated_Source\PSoC5/LIN_1.c **** *  the first call that must be performed, before using any other interface-
 837:.\Generated_Source\PSoC5/LIN_1.c **** *  related LIN Slave API functions.
 838:.\Generated_Source\PSoC5/LIN_1.c **** *
ARM GAS  C:\Users\MATSUD~1\AppData\Local\Temp\ccLjdAaK.s 			page 32


 839:.\Generated_Source\PSoC5/LIN_1.c **** * Parameters:
 840:.\Generated_Source\PSoC5/LIN_1.c **** *  iii - is the name of the interface handle.
 841:.\Generated_Source\PSoC5/LIN_1.c **** *
 842:.\Generated_Source\PSoC5/LIN_1.c **** * Return:
 843:.\Generated_Source\PSoC5/LIN_1.c **** *  The 0 is returned if operation succeeded and 1 if an invalid operation
 844:.\Generated_Source\PSoC5/LIN_1.c **** *  parameter was passed to the function.
 845:.\Generated_Source\PSoC5/LIN_1.c **** *
 846:.\Generated_Source\PSoC5/LIN_1.c **** * Reentrant:
 847:.\Generated_Source\PSoC5/LIN_1.c **** *  No
 848:.\Generated_Source\PSoC5/LIN_1.c **** *
 849:.\Generated_Source\PSoC5/LIN_1.c **** *******************************************************************************/
 850:.\Generated_Source\PSoC5/LIN_1.c **** l_bool l_ifc_init(l_ifc_handle iii) 
 851:.\Generated_Source\PSoC5/LIN_1.c **** {
 928              		.loc 1 851 0
 929              		.cfi_startproc
 930              		@ args = 0, pretend = 0, frame = 16
 931              		@ frame_needed = 1, uses_anonymous_args = 0
 932 0000 80B5     		push	{r7, lr}
 933              	.LCFI42:
 934              		.cfi_def_cfa_offset 8
 935              		.cfi_offset 7, -8
 936              		.cfi_offset 14, -4
 937 0002 84B0     		sub	sp, sp, #16
 938              	.LCFI43:
 939              		.cfi_def_cfa_offset 24
 940 0004 00AF     		add	r7, sp, #0
 941              	.LCFI44:
 942              		.cfi_def_cfa_register 7
 943 0006 0346     		mov	r3, r0
 944 0008 FB71     		strb	r3, [r7, #7]
 852:.\Generated_Source\PSoC5/LIN_1.c ****     l_bool returnValue;
 853:.\Generated_Source\PSoC5/LIN_1.c **** 
 854:.\Generated_Source\PSoC5/LIN_1.c ****     switch(iii)
 945              		.loc 1 854 0
 946 000a FB79     		ldrb	r3, [r7, #7]	@ zero_extendqisi2
 947 000c 002B     		cmp	r3, #0
 948 000e 04D1     		bne	.L59
 949              	.L56:
 855:.\Generated_Source\PSoC5/LIN_1.c ****     {
 856:.\Generated_Source\PSoC5/LIN_1.c ****         case LIN_1_IFC_HANDLE:
 857:.\Generated_Source\PSoC5/LIN_1.c ****             returnValue = l_ifc_init_LIN_1();
 950              		.loc 1 857 0
 951 0010 FFF7FEFF 		bl	l_ifc_init_LIN_1
 952 0014 0346     		mov	r3, r0
 953 0016 FB73     		strb	r3, [r7, #15]
 858:.\Generated_Source\PSoC5/LIN_1.c ****         break;
 954              		.loc 1 858 0
 955 0018 03E0     		b	.L57
 956              	.L59:
 859:.\Generated_Source\PSoC5/LIN_1.c **** 
 860:.\Generated_Source\PSoC5/LIN_1.c ****         default:
 861:.\Generated_Source\PSoC5/LIN_1.c ****             /* Unknown interface handle */
 862:.\Generated_Source\PSoC5/LIN_1.c ****             returnValue = LIN_1_TRUE;
 957              		.loc 1 862 0
 958 001a 4FF00103 		mov	r3, #1
 959 001e FB73     		strb	r3, [r7, #15]
 863:.\Generated_Source\PSoC5/LIN_1.c ****         break;
ARM GAS  C:\Users\MATSUD~1\AppData\Local\Temp\ccLjdAaK.s 			page 33


 960              		.loc 1 863 0
 961 0020 00BF     		nop
 962              	.L57:
 864:.\Generated_Source\PSoC5/LIN_1.c ****     }
 865:.\Generated_Source\PSoC5/LIN_1.c **** 
 866:.\Generated_Source\PSoC5/LIN_1.c ****     return (returnValue);
 963              		.loc 1 866 0
 964 0022 FB7B     		ldrb	r3, [r7, #15]	@ zero_extendqisi2
 867:.\Generated_Source\PSoC5/LIN_1.c **** }
 965              		.loc 1 867 0
 966 0024 1846     		mov	r0, r3
 967 0026 07F11007 		add	r7, r7, #16
 968 002a BD46     		mov	sp, r7
 969 002c 80BD     		pop	{r7, pc}
 970              		.cfi_endproc
 971              	.LFE16:
 972              		.size	l_ifc_init, .-l_ifc_init
 973 002e 00BF     		.section	.text.l_ifc_wake_up_LIN_1,"ax",%progbits
 974              		.align	2
 975              		.global	l_ifc_wake_up_LIN_1
 976              		.thumb
 977              		.thumb_func
 978              		.type	l_ifc_wake_up_LIN_1, %function
 979              	l_ifc_wake_up_LIN_1:
 980              	.LFB17:
 868:.\Generated_Source\PSoC5/LIN_1.c **** 
 869:.\Generated_Source\PSoC5/LIN_1.c **** 
 870:.\Generated_Source\PSoC5/LIN_1.c **** /*******************************************************************************
 871:.\Generated_Source\PSoC5/LIN_1.c **** * Function Name: l_ifc_wake_up
 872:.\Generated_Source\PSoC5/LIN_1.c **** ********************************************************************************
 873:.\Generated_Source\PSoC5/LIN_1.c **** *
 874:.\Generated_Source\PSoC5/LIN_1.c **** * Summary:
 875:.\Generated_Source\PSoC5/LIN_1.c **** *  This function transmits one wakeup signal. The wakeup signal is transmitted
 876:.\Generated_Source\PSoC5/LIN_1.c **** *  directly when this function is called. When you call this API function, the
 877:.\Generated_Source\PSoC5/LIN_1.c **** *  application is blocked until a wakeup signal is transmitted on the LIN bus.
 878:.\Generated_Source\PSoC5/LIN_1.c **** *  The CyDelayUs() function is used as the timing source. The delay is
 879:.\Generated_Source\PSoC5/LIN_1.c **** *  calculated based on the clock configuration entered in PSoC Creator.
 880:.\Generated_Source\PSoC5/LIN_1.c **** *
 881:.\Generated_Source\PSoC5/LIN_1.c **** * Parameters:
 882:.\Generated_Source\PSoC5/LIN_1.c **** *  None
 883:.\Generated_Source\PSoC5/LIN_1.c **** *
 884:.\Generated_Source\PSoC5/LIN_1.c **** * Return:
 885:.\Generated_Source\PSoC5/LIN_1.c **** *  None
 886:.\Generated_Source\PSoC5/LIN_1.c **** *
 887:.\Generated_Source\PSoC5/LIN_1.c **** *******************************************************************************/
 888:.\Generated_Source\PSoC5/LIN_1.c **** void l_ifc_wake_up_LIN_1(void) 
 889:.\Generated_Source\PSoC5/LIN_1.c **** {
 981              		.loc 1 889 0
 982              		.cfi_startproc
 983              		@ args = 0, pretend = 0, frame = 0
 984              		@ frame_needed = 1, uses_anonymous_args = 0
 985 0000 80B5     		push	{r7, lr}
 986              	.LCFI45:
 987              		.cfi_def_cfa_offset 8
 988              		.cfi_offset 7, -8
 989              		.cfi_offset 14, -4
 990 0002 00AF     		add	r7, sp, #0
ARM GAS  C:\Users\MATSUD~1\AppData\Local\Temp\ccLjdAaK.s 			page 34


 991              	.LCFI46:
 992              		.cfi_def_cfa_register 7
 890:.\Generated_Source\PSoC5/LIN_1.c ****     /* Force TXD low */
 891:.\Generated_Source\PSoC5/LIN_1.c ****     LIN_1_CONTROL_REG |= LIN_1_CONTROL_TX_DIS;
 993              		.loc 1 891 0
 994 0004 46F27643 		movw	r3, #25718
 995 0008 C4F20003 		movt	r3, 16384
 996 000c 46F27642 		movw	r2, #25718
 997 0010 C4F20002 		movt	r2, 16384
 998 0014 1278     		ldrb	r2, [r2, #0]
 999 0016 D2B2     		uxtb	r2, r2
 1000 0018 42F00202 		orr	r2, r2, #2
 1001 001c D2B2     		uxtb	r2, r2
 1002 001e 1A70     		strb	r2, [r3, #0]
 892:.\Generated_Source\PSoC5/LIN_1.c **** 
 893:.\Generated_Source\PSoC5/LIN_1.c ****     /* Wait */
 894:.\Generated_Source\PSoC5/LIN_1.c ****     CyDelayUs(LIN_1_WAKE_UP_SIGNAL_LENGTH);
 1003              		.loc 1 894 0
 1004 0020 4FF49670 		mov	r0, #300
 1005 0024 FFF7FEFF 		bl	CyDelayUs
 895:.\Generated_Source\PSoC5/LIN_1.c **** 
 896:.\Generated_Source\PSoC5/LIN_1.c ****     /* Connect TXD from UART to LIN bus line */
 897:.\Generated_Source\PSoC5/LIN_1.c ****     LIN_1_CONTROL_REG &=  ((l_u8) ~LIN_1_CONTROL_TX_DIS);
 1006              		.loc 1 897 0
 1007 0028 46F27643 		movw	r3, #25718
 1008 002c C4F20003 		movt	r3, 16384
 1009 0030 46F27642 		movw	r2, #25718
 1010 0034 C4F20002 		movt	r2, 16384
 1011 0038 1278     		ldrb	r2, [r2, #0]
 1012 003a D2B2     		uxtb	r2, r2
 1013 003c 22F00202 		bic	r2, r2, #2
 1014 0040 D2B2     		uxtb	r2, r2
 1015 0042 1A70     		strb	r2, [r3, #0]
 898:.\Generated_Source\PSoC5/LIN_1.c **** }
 1016              		.loc 1 898 0
 1017 0044 80BD     		pop	{r7, pc}
 1018              		.cfi_endproc
 1019              	.LFE17:
 1020              		.size	l_ifc_wake_up_LIN_1, .-l_ifc_wake_up_LIN_1
 1021 0046 00BF     		.section	.text.l_ifc_wake_up,"ax",%progbits
 1022              		.align	2
 1023              		.global	l_ifc_wake_up
 1024              		.thumb
 1025              		.thumb_func
 1026              		.type	l_ifc_wake_up, %function
 1027              	l_ifc_wake_up:
 1028              	.LFB18:
 899:.\Generated_Source\PSoC5/LIN_1.c **** 
 900:.\Generated_Source\PSoC5/LIN_1.c **** 
 901:.\Generated_Source\PSoC5/LIN_1.c **** /*******************************************************************************
 902:.\Generated_Source\PSoC5/LIN_1.c **** * Function Name: l_ifc_wake_up
 903:.\Generated_Source\PSoC5/LIN_1.c **** ********************************************************************************
 904:.\Generated_Source\PSoC5/LIN_1.c **** *
 905:.\Generated_Source\PSoC5/LIN_1.c **** * Summary:
 906:.\Generated_Source\PSoC5/LIN_1.c **** *  This function transmits one wakeup signal. The wakeup signal is transmitted
 907:.\Generated_Source\PSoC5/LIN_1.c **** *  directly when this function is called. When you call this API function, the
 908:.\Generated_Source\PSoC5/LIN_1.c **** *  application is blocked until a wakeup signal is transmitted on the LIN bus.
ARM GAS  C:\Users\MATSUD~1\AppData\Local\Temp\ccLjdAaK.s 			page 35


 909:.\Generated_Source\PSoC5/LIN_1.c **** *  The CyDelayUs() function is used as the timing source. The delay is
 910:.\Generated_Source\PSoC5/LIN_1.c **** *  calculated based on the clock configuration entered in PSoC Creator.
 911:.\Generated_Source\PSoC5/LIN_1.c **** *
 912:.\Generated_Source\PSoC5/LIN_1.c **** * Parameters:
 913:.\Generated_Source\PSoC5/LIN_1.c **** *  iii - is the name of the interface handle.
 914:.\Generated_Source\PSoC5/LIN_1.c **** *
 915:.\Generated_Source\PSoC5/LIN_1.c **** * Return:
 916:.\Generated_Source\PSoC5/LIN_1.c **** *  None
 917:.\Generated_Source\PSoC5/LIN_1.c **** *
 918:.\Generated_Source\PSoC5/LIN_1.c **** *******************************************************************************/
 919:.\Generated_Source\PSoC5/LIN_1.c **** void l_ifc_wake_up(l_ifc_handle iii) 
 920:.\Generated_Source\PSoC5/LIN_1.c **** {
 1029              		.loc 1 920 0
 1030              		.cfi_startproc
 1031              		@ args = 0, pretend = 0, frame = 8
 1032              		@ frame_needed = 1, uses_anonymous_args = 0
 1033 0000 80B5     		push	{r7, lr}
 1034              	.LCFI47:
 1035              		.cfi_def_cfa_offset 8
 1036              		.cfi_offset 7, -8
 1037              		.cfi_offset 14, -4
 1038 0002 82B0     		sub	sp, sp, #8
 1039              	.LCFI48:
 1040              		.cfi_def_cfa_offset 16
 1041 0004 00AF     		add	r7, sp, #0
 1042              	.LCFI49:
 1043              		.cfi_def_cfa_register 7
 1044 0006 0346     		mov	r3, r0
 1045 0008 FB71     		strb	r3, [r7, #7]
 921:.\Generated_Source\PSoC5/LIN_1.c ****     switch(iii)
 1046              		.loc 1 921 0
 1047 000a FB79     		ldrb	r3, [r7, #7]	@ zero_extendqisi2
 1048 000c 002B     		cmp	r3, #0
 1049 000e 02D1     		bne	.L65
 1050              	.L63:
 922:.\Generated_Source\PSoC5/LIN_1.c ****     {
 923:.\Generated_Source\PSoC5/LIN_1.c ****         case LIN_1_IFC_HANDLE:
 924:.\Generated_Source\PSoC5/LIN_1.c ****             l_ifc_wake_up_LIN_1();
 1051              		.loc 1 924 0
 1052 0010 FFF7FEFF 		bl	l_ifc_wake_up_LIN_1
 925:.\Generated_Source\PSoC5/LIN_1.c ****         break;
 1053              		.loc 1 925 0
 1054 0014 00E0     		b	.L61
 1055              	.L65:
 926:.\Generated_Source\PSoC5/LIN_1.c **** 
 927:.\Generated_Source\PSoC5/LIN_1.c ****         default:
 928:.\Generated_Source\PSoC5/LIN_1.c ****             /* Unknown interface handle - do nothing. */
 929:.\Generated_Source\PSoC5/LIN_1.c ****         break;
 1056              		.loc 1 929 0
 1057 0016 00BF     		nop
 1058              	.L61:
 930:.\Generated_Source\PSoC5/LIN_1.c ****     }
 931:.\Generated_Source\PSoC5/LIN_1.c **** }
 1059              		.loc 1 931 0
 1060 0018 07F10807 		add	r7, r7, #8
 1061 001c BD46     		mov	sp, r7
 1062 001e 80BD     		pop	{r7, pc}
ARM GAS  C:\Users\MATSUD~1\AppData\Local\Temp\ccLjdAaK.s 			page 36


 1063              		.cfi_endproc
 1064              	.LFE18:
 1065              		.size	l_ifc_wake_up, .-l_ifc_wake_up
 1066              		.section	.text.l_ifc_ioctl_LIN_1,"ax",%progbits
 1067              		.align	2
 1068              		.global	l_ifc_ioctl_LIN_1
 1069              		.thumb
 1070              		.thumb_func
 1071              		.type	l_ifc_ioctl_LIN_1, %function
 1072              	l_ifc_ioctl_LIN_1:
 1073              	.LFB19:
 932:.\Generated_Source\PSoC5/LIN_1.c **** 
 933:.\Generated_Source\PSoC5/LIN_1.c **** 
 934:.\Generated_Source\PSoC5/LIN_1.c **** /*******************************************************************************
 935:.\Generated_Source\PSoC5/LIN_1.c **** * Function Name: l_ifc_ioctl
 936:.\Generated_Source\PSoC5/LIN_1.c **** ********************************************************************************
 937:.\Generated_Source\PSoC5/LIN_1.c **** *
 938:.\Generated_Source\PSoC5/LIN_1.c **** * Summary:
 939:.\Generated_Source\PSoC5/LIN_1.c **** *  This function controls functionality that is not covered by the other API
 940:.\Generated_Source\PSoC5/LIN_1.c **** *  calls. It is used for protocol specific parameters or hardware specific
 941:.\Generated_Source\PSoC5/LIN_1.c **** *  functionality.
 942:.\Generated_Source\PSoC5/LIN_1.c **** *
 943:.\Generated_Source\PSoC5/LIN_1.c **** * Parameters:
 944:.\Generated_Source\PSoC5/LIN_1.c **** *  op - is the operation that should be applied.
 945:.\Generated_Source\PSoC5/LIN_1.c **** *  pv - is the pointer to the optional parameter.
 946:.\Generated_Source\PSoC5/LIN_1.c **** *
 947:.\Generated_Source\PSoC5/LIN_1.c **** * Return:
 948:.\Generated_Source\PSoC5/LIN_1.c **** *  There is no error code value returned for operation selected. This means that
 949:.\Generated_Source\PSoC5/LIN_1.c **** *  you must ensure that the values passed into the function are correct.
 950:.\Generated_Source\PSoC5/LIN_1.c **** *
 951:.\Generated_Source\PSoC5/LIN_1.c **** *  L_IOCTL_READ_STATUS operation:
 952:.\Generated_Source\PSoC5/LIN_1.c **** *  The first bit in this byte is the flag that indicates that there has been no
 953:.\Generated_Source\PSoC5/LIN_1.c **** *  signaling on the bus for a certain elapsed time (available when
 954:.\Generated_Source\PSoC5/LIN_1.c **** *  Bus Inactivity Timeout Detection option is enabled). If the elapsed time
 955:.\Generated_Source\PSoC5/LIN_1.c **** *  passes a certain threshold, then this flag is set. Calling this API clears
 956:.\Generated_Source\PSoC5/LIN_1.c **** *  all status bits after they are returned. The second bit is the flag that
 957:.\Generated_Source\PSoC5/LIN_1.c **** *  indicates that a Targeted Reset service request (0xB5) was received
 958:.\Generated_Source\PSoC5/LIN_1.c **** *  (when J2602-1 Compliance is enabled).
 959:.\Generated_Source\PSoC5/LIN_1.c **** *
 960:.\Generated_Source\PSoC5/LIN_1.c **** *  Symbolic Name : LIN_1_IOCTL_STS_BUS_INACTIVITY
 961:.\Generated_Source\PSoC5/LIN_1.c **** *  Value         : 0x0001u
 962:.\Generated_Source\PSoC5/LIN_1.c **** *  Description   : No signal was detected on the bus for a certain elapsed time
 963:.\Generated_Source\PSoC5/LIN_1.c **** *
 964:.\Generated_Source\PSoC5/LIN_1.c **** *  Symbolic Name : LIN_1_IOCTL_STS_TARGET_RESET
 965:.\Generated_Source\PSoC5/LIN_1.c **** *  Value         : 0x0002u
 966:.\Generated_Source\PSoC5/LIN_1.c **** *  Description   : Targeted Reset service request (0xB5) was received.
 967:.\Generated_Source\PSoC5/LIN_1.c **** *
 968:.\Generated_Source\PSoC5/LIN_1.c **** *  L_IOCTL_SET_BAUD_RATE operation:
 969:.\Generated_Source\PSoC5/LIN_1.c **** *  The 0 is returned if operation succeeded and 1 if an invalid operation
 970:.\Generated_Source\PSoC5/LIN_1.c **** *  parameter was passed to the function.
 971:.\Generated_Source\PSoC5/LIN_1.c **** *
 972:.\Generated_Source\PSoC5/LIN_1.c **** *  L_IOCTL_SLEEP operation:
 973:.\Generated_Source\PSoC5/LIN_1.c **** *  The CYRET_SUCCESS is returned if operation succeeded and CYRET_BAD_PARAM if
 974:.\Generated_Source\PSoC5/LIN_1.c **** *  an invalid operation parameter was passed to the function.
 975:.\Generated_Source\PSoC5/LIN_1.c **** *
 976:.\Generated_Source\PSoC5/LIN_1.c **** *  L_IOCTL_WAKEUP operation:
 977:.\Generated_Source\PSoC5/LIN_1.c **** *  The CYRET_SUCCESS is returned if operation succeeded and CYRET_BAD_PARAM if
ARM GAS  C:\Users\MATSUD~1\AppData\Local\Temp\ccLjdAaK.s 			page 37


 978:.\Generated_Source\PSoC5/LIN_1.c **** *  an invalid operation parameter was passed to the function.
 979:.\Generated_Source\PSoC5/LIN_1.c **** *
 980:.\Generated_Source\PSoC5/LIN_1.c **** *  L_IOCTL_SYNC_COUNTS operation:
 981:.\Generated_Source\PSoC5/LIN_1.c **** *  The CYRET_SUCCESS is returned if operation succeeded and CYRET_BAD_PARAM if
 982:.\Generated_Source\PSoC5/LIN_1.c **** *  an invalid operation parameter was passed to the function.
 983:.\Generated_Source\PSoC5/LIN_1.c **** *
 984:.\Generated_Source\PSoC5/LIN_1.c **** *  L_IOCTL_SET_SERIAL_NUMBER operation:
 985:.\Generated_Source\PSoC5/LIN_1.c **** *  The CYRET_SUCCESS is returned if operation succeeded and CYRET_BAD_PARAM if
 986:.\Generated_Source\PSoC5/LIN_1.c **** *  an invalid operation parameter was passed to the function.
 987:.\Generated_Source\PSoC5/LIN_1.c **** *
 988:.\Generated_Source\PSoC5/LIN_1.c **** * Reentrant:
 989:.\Generated_Source\PSoC5/LIN_1.c **** *  No
 990:.\Generated_Source\PSoC5/LIN_1.c **** *
 991:.\Generated_Source\PSoC5/LIN_1.c **** *******************************************************************************/
 992:.\Generated_Source\PSoC5/LIN_1.c **** l_u16 l_ifc_ioctl_LIN_1(l_ioctl_op op, void* pv) 
 993:.\Generated_Source\PSoC5/LIN_1.c **** {
 1074              		.loc 1 993 0
 1075              		.cfi_startproc
 1076              		@ args = 0, pretend = 0, frame = 16
 1077              		@ frame_needed = 1, uses_anonymous_args = 0
 1078 0000 80B5     		push	{r7, lr}
 1079              	.LCFI50:
 1080              		.cfi_def_cfa_offset 8
 1081              		.cfi_offset 7, -8
 1082              		.cfi_offset 14, -4
 1083 0002 84B0     		sub	sp, sp, #16
 1084              	.LCFI51:
 1085              		.cfi_def_cfa_offset 24
 1086 0004 00AF     		add	r7, sp, #0
 1087              	.LCFI52:
 1088              		.cfi_def_cfa_register 7
 1089 0006 0346     		mov	r3, r0
 1090 0008 3960     		str	r1, [r7, #0]
 1091 000a FB71     		strb	r3, [r7, #7]
 994:.\Generated_Source\PSoC5/LIN_1.c ****     /* Retention registers are stored here */
 995:.\Generated_Source\PSoC5/LIN_1.c ****     static LIN_1_BACKUP_STRUCT  LIN_1_backup = {0u, };
 996:.\Generated_Source\PSoC5/LIN_1.c **** 
 997:.\Generated_Source\PSoC5/LIN_1.c ****     l_u16 returnValue = (l_u16) CYRET_SUCCESS;
 1092              		.loc 1 997 0
 1093 000c 4FF00003 		mov	r3, #0
 1094 0010 FB81     		strh	r3, [r7, #14]	@ movhi
 998:.\Generated_Source\PSoC5/LIN_1.c ****     l_u8 interruptState;
 999:.\Generated_Source\PSoC5/LIN_1.c **** 
1000:.\Generated_Source\PSoC5/LIN_1.c ****     switch (op)
 1095              		.loc 1 1000 0
 1096 0012 FB79     		ldrb	r3, [r7, #7]	@ zero_extendqisi2
 1097 0014 042B     		cmp	r3, #4
 1098 0016 00F2F580 		bhi	.L67
 1099 001a 01A0     		adr	r0, .L73
 1100 001c 50F823F0 		ldr	pc, [r0, r3, lsl #2]
 1101              		.align	2
 1102              	.L73:
 1103 0020 35000000 		.word	.L68+1
 1104 0024 51000000 		.word	.L69+1
 1105 0028 D9000000 		.word	.L70+1
 1106 002c 89010000 		.word	.L71+1
 1107 0030 F5010000 		.word	.L72+1
ARM GAS  C:\Users\MATSUD~1\AppData\Local\Temp\ccLjdAaK.s 			page 38


 1108              	.L68:
1001:.\Generated_Source\PSoC5/LIN_1.c ****     {
1002:.\Generated_Source\PSoC5/LIN_1.c ****         /***********************************************************************
1003:.\Generated_Source\PSoC5/LIN_1.c ****         *                           Read Status
1004:.\Generated_Source\PSoC5/LIN_1.c ****         ***********************************************************************/
1005:.\Generated_Source\PSoC5/LIN_1.c ****         case L_IOCTL_READ_STATUS:
1006:.\Generated_Source\PSoC5/LIN_1.c **** 
1007:.\Generated_Source\PSoC5/LIN_1.c ****             /* Return status */
1008:.\Generated_Source\PSoC5/LIN_1.c ****             returnValue = LIN_1_ioctlStatus;
 1109              		.loc 1 1008 0
 1110 0034 40F20003 		movw	r3, #:lower16:LIN_1_ioctlStatus
 1111 0038 C0F20003 		movt	r3, #:upper16:LIN_1_ioctlStatus
 1112 003c 1B88     		ldrh	r3, [r3, #0]	@ movhi
 1113 003e FB81     		strh	r3, [r7, #14]	@ movhi
1009:.\Generated_Source\PSoC5/LIN_1.c **** 
1010:.\Generated_Source\PSoC5/LIN_1.c ****             /* Clear status */
1011:.\Generated_Source\PSoC5/LIN_1.c ****             LIN_1_ioctlStatus = 0x0000u;
 1114              		.loc 1 1011 0
 1115 0040 40F20003 		movw	r3, #:lower16:LIN_1_ioctlStatus
 1116 0044 C0F20003 		movt	r3, #:upper16:LIN_1_ioctlStatus
 1117 0048 4FF00002 		mov	r2, #0
 1118 004c 1A80     		strh	r2, [r3, #0]	@ movhi
1012:.\Generated_Source\PSoC5/LIN_1.c **** 
1013:.\Generated_Source\PSoC5/LIN_1.c ****         break;
 1119              		.loc 1 1013 0
 1120 004e DEE0     		b	.L74
 1121              	.L69:
1014:.\Generated_Source\PSoC5/LIN_1.c **** 
1015:.\Generated_Source\PSoC5/LIN_1.c ****         /***********************************************************************
1016:.\Generated_Source\PSoC5/LIN_1.c ****         *                           Set Baud Rate
1017:.\Generated_Source\PSoC5/LIN_1.c ****         ***********************************************************************/
1018:.\Generated_Source\PSoC5/LIN_1.c ****         case L_IOCTL_SET_BAUD_RATE:
1019:.\Generated_Source\PSoC5/LIN_1.c **** 
1020:.\Generated_Source\PSoC5/LIN_1.c ****             interruptState = CyEnterCriticalSection();
 1122              		.loc 1 1020 0
 1123 0050 FFF7FEFF 		bl	CyEnterCriticalSection
 1124 0054 0346     		mov	r3, r0
 1125 0056 7B73     		strb	r3, [r7, #13]
1021:.\Generated_Source\PSoC5/LIN_1.c **** 
1022:.\Generated_Source\PSoC5/LIN_1.c ****             /* Set new internal clock divider with effect on end of cycle */
1023:.\Generated_Source\PSoC5/LIN_1.c ****             LIN_1_IntClk_SetDividerRegister(((*((l_u16*)pv)) - 1u), 0u);
 1126              		.loc 1 1023 0
 1127 0058 3B68     		ldr	r3, [r7, #0]
 1128 005a 1B88     		ldrh	r3, [r3, #0]
 1129 005c 03F1FF33 		add	r3, r3, #-1
 1130 0060 9BB2     		uxth	r3, r3
 1131 0062 1846     		mov	r0, r3
 1132 0064 4FF00001 		mov	r1, #0
 1133 0068 FFF7FEFF 		bl	LIN_1_IntClk_SetDividerRegister
1024:.\Generated_Source\PSoC5/LIN_1.c **** 
1025:.\Generated_Source\PSoC5/LIN_1.c ****             /* Bus inactivity block reconfiguration */
1026:.\Generated_Source\PSoC5/LIN_1.c ****             #if(1u == LIN_1_INACTIVITY_ENABLED)
1027:.\Generated_Source\PSoC5/LIN_1.c **** 
1028:.\Generated_Source\PSoC5/LIN_1.c ****                 /* Divider 1 for specified interrupt rate */
1029:.\Generated_Source\PSoC5/LIN_1.c ****                 LIN_1_INACTIVITY_DIV0_REG =
 1134              		.loc 1 1029 0
 1135 006c 46F22653 		movw	r3, #25894
ARM GAS  C:\Users\MATSUD~1\AppData\Local\Temp\ccLjdAaK.s 			page 39


 1136 0070 C4F20003 		movt	r3, 16384
1030:.\Generated_Source\PSoC5/LIN_1.c ****                     (((l_u8)(((LIN_1_INACT_OVERSAMPLE_RATE) *
1031:.\Generated_Source\PSoC5/LIN_1.c ****                     ((*(l_u16*)pv) / LIN_1_INACT_100MS_IN_S)) /
 1137              		.loc 1 1031 0
 1138 0074 3A68     		ldr	r2, [r7, #0]
 1139 0076 1188     		ldrh	r1, [r2, #0]
 1140 0078 4CF6CD42 		movw	r2, #52429
 1141 007c CCF6CC42 		movt	r2, 52428
 1142 0080 A2FB0102 		umull	r0, r2, r2, r1
 1143 0084 4FEAD202 		lsr	r2, r2, #3
 1144 0088 92B2     		uxth	r2, r2
1030:.\Generated_Source\PSoC5/LIN_1.c ****                     (((l_u8)(((LIN_1_INACT_OVERSAMPLE_RATE) *
 1145              		.loc 1 1030 0
 1146 008a 4FEA0212 		lsl	r2, r2, #4
 1147              		.loc 1 1031 0
 1148 008e 4FEA1222 		lsr	r2, r2, #8
1030:.\Generated_Source\PSoC5/LIN_1.c ****                     (((l_u8)(((LIN_1_INACT_OVERSAMPLE_RATE) *
 1149              		.loc 1 1030 0
 1150 0092 D2B2     		uxtb	r2, r2
1029:.\Generated_Source\PSoC5/LIN_1.c ****                 LIN_1_INACTIVITY_DIV0_REG =
 1151              		.loc 1 1029 0
 1152 0094 02F1FF32 		add	r2, r2, #-1
 1153 0098 D2B2     		uxtb	r2, r2
 1154 009a 1A70     		strb	r2, [r3, #0]
1032:.\Generated_Source\PSoC5/LIN_1.c ****                     LIN_1_INACT_DIVIDE_FACTOR) - 1u));
1033:.\Generated_Source\PSoC5/LIN_1.c **** 
1034:.\Generated_Source\PSoC5/LIN_1.c ****                 /* Divider 1 for specified interrupt rate */
1035:.\Generated_Source\PSoC5/LIN_1.c ****                 LIN_1_INACTIVITY_DIV1_REG =
1036:.\Generated_Source\PSoC5/LIN_1.c ****                     ((l_u8)(((LIN_1_INACT_OVERSAMPLE_RATE) *
1037:.\Generated_Source\PSoC5/LIN_1.c ****                     ((*(l_u16*)pv) / LIN_1_INACT_100MS_IN_S)) -
1038:.\Generated_Source\PSoC5/LIN_1.c ****                     (LIN_1_INACT_DIVIDE_FACTOR *
1039:.\Generated_Source\PSoC5/LIN_1.c ****                     LIN_1_INACTIVITY_DIV0_REG)));
 1155              		.loc 1 1039 0
 1156 009c 46F22653 		movw	r3, #25894
 1157 00a0 C4F20003 		movt	r3, 16384
 1158 00a4 1B78     		ldrb	r3, [r3, #0]
1035:.\Generated_Source\PSoC5/LIN_1.c ****                 LIN_1_INACTIVITY_DIV1_REG =
 1159              		.loc 1 1035 0
 1160 00a6 46F23653 		movw	r3, #25910
 1161 00aa C4F20003 		movt	r3, 16384
1037:.\Generated_Source\PSoC5/LIN_1.c ****                     ((*(l_u16*)pv) / LIN_1_INACT_100MS_IN_S)) -
 1162              		.loc 1 1037 0
 1163 00ae 3A68     		ldr	r2, [r7, #0]
 1164 00b0 1188     		ldrh	r1, [r2, #0]
1035:.\Generated_Source\PSoC5/LIN_1.c ****                 LIN_1_INACTIVITY_DIV1_REG =
 1165              		.loc 1 1035 0
 1166 00b2 4CF6CD42 		movw	r2, #52429
 1167 00b6 CCF6CC42 		movt	r2, 52428
 1168 00ba A2FB0102 		umull	r0, r2, r2, r1
 1169 00be 4FEAD202 		lsr	r2, r2, #3
 1170 00c2 92B2     		uxth	r2, r2
 1171 00c4 D2B2     		uxtb	r2, r2
 1172 00c6 4FEA0212 		lsl	r2, r2, #4
 1173 00ca D2B2     		uxtb	r2, r2
 1174 00cc 1A70     		strb	r2, [r3, #0]
1040:.\Generated_Source\PSoC5/LIN_1.c **** 
1041:.\Generated_Source\PSoC5/LIN_1.c ****             #endif  /* (1u == LIN_1_INACTIVITY_ENABLED) */
ARM GAS  C:\Users\MATSUD~1\AppData\Local\Temp\ccLjdAaK.s 			page 40


1042:.\Generated_Source\PSoC5/LIN_1.c **** 
1043:.\Generated_Source\PSoC5/LIN_1.c ****             CyExitCriticalSection(interruptState);
 1175              		.loc 1 1043 0
 1176 00ce 7B7B     		ldrb	r3, [r7, #13]	@ zero_extendqisi2
 1177 00d0 1846     		mov	r0, r3
 1178 00d2 FFF7FEFF 		bl	CyExitCriticalSection
1044:.\Generated_Source\PSoC5/LIN_1.c **** 
1045:.\Generated_Source\PSoC5/LIN_1.c ****         break;
 1179              		.loc 1 1045 0
 1180 00d6 9AE0     		b	.L74
 1181              	.L70:
1046:.\Generated_Source\PSoC5/LIN_1.c **** 
1047:.\Generated_Source\PSoC5/LIN_1.c **** 
1048:.\Generated_Source\PSoC5/LIN_1.c ****         /***********************************************************************
1049:.\Generated_Source\PSoC5/LIN_1.c ****         *                   Prepare for the low power modes
1050:.\Generated_Source\PSoC5/LIN_1.c ****         ***********************************************************************/
1051:.\Generated_Source\PSoC5/LIN_1.c ****         case L_IOCTL_SLEEP:
1052:.\Generated_Source\PSoC5/LIN_1.c **** 
1053:.\Generated_Source\PSoC5/LIN_1.c ****             LIN_1_backup.control = LIN_1_CONTROL_REG;
 1182              		.loc 1 1053 0
 1183 00d8 46F27643 		movw	r3, #25718
 1184 00dc C4F20003 		movt	r3, 16384
 1185 00e0 1B78     		ldrb	r3, [r3, #0]
 1186 00e2 DAB2     		uxtb	r2, r3
 1187 00e4 40F20003 		movw	r3, #:lower16:LIN_1_backup.5030
 1188 00e8 C0F20003 		movt	r3, #:upper16:LIN_1_backup.5030
 1189 00ec 5A70     		strb	r2, [r3, #1]
1054:.\Generated_Source\PSoC5/LIN_1.c **** 
1055:.\Generated_Source\PSoC5/LIN_1.c ****             if(0u != (LIN_1_CONTROL_REG  & LIN_1_CONTROL_ENABLE))
 1190              		.loc 1 1055 0
 1191 00ee 46F27643 		movw	r3, #25718
 1192 00f2 C4F20003 		movt	r3, 16384
 1193 00f6 1B78     		ldrb	r3, [r3, #0]
 1194 00f8 DBB2     		uxtb	r3, r3
 1195 00fa 03F00103 		and	r3, r3, #1
 1196 00fe 002B     		cmp	r3, #0
 1197 0100 07D0     		beq	.L75
1056:.\Generated_Source\PSoC5/LIN_1.c ****             {
1057:.\Generated_Source\PSoC5/LIN_1.c ****                LIN_1_backup.enableState = LIN_1_TRUE;
 1198              		.loc 1 1057 0
 1199 0102 40F20003 		movw	r3, #:lower16:LIN_1_backup.5030
 1200 0106 C0F20003 		movt	r3, #:upper16:LIN_1_backup.5030
 1201 010a 4FF00102 		mov	r2, #1
 1202 010e 1A70     		strb	r2, [r3, #0]
 1203 0110 06E0     		b	.L76
 1204              	.L75:
1058:.\Generated_Source\PSoC5/LIN_1.c ****             }
1059:.\Generated_Source\PSoC5/LIN_1.c ****             else
1060:.\Generated_Source\PSoC5/LIN_1.c ****             {
1061:.\Generated_Source\PSoC5/LIN_1.c ****                 LIN_1_backup.enableState = LIN_1_FALSE;
 1205              		.loc 1 1061 0
 1206 0112 40F20003 		movw	r3, #:lower16:LIN_1_backup.5030
 1207 0116 C0F20003 		movt	r3, #:upper16:LIN_1_backup.5030
 1208 011a 4FF00002 		mov	r2, #0
 1209 011e 1A70     		strb	r2, [r3, #0]
 1210              	.L76:
1062:.\Generated_Source\PSoC5/LIN_1.c ****             }
ARM GAS  C:\Users\MATSUD~1\AppData\Local\Temp\ccLjdAaK.s 			page 41


1063:.\Generated_Source\PSoC5/LIN_1.c **** 
1064:.\Generated_Source\PSoC5/LIN_1.c ****             /* Disable interrupts */
1065:.\Generated_Source\PSoC5/LIN_1.c ****             (void) l_sys_irq_disable();
 1211              		.loc 1 1065 0
 1212 0120 FFF7FEFF 		bl	l_sys_irq_disable
1066:.\Generated_Source\PSoC5/LIN_1.c **** 
1067:.\Generated_Source\PSoC5/LIN_1.c ****             /* Prepare UART for low power mode */
1068:.\Generated_Source\PSoC5/LIN_1.c ****             LIN_1_UART_Sleep();
 1213              		.loc 1 1068 0
 1214 0124 FFF7FEFF 		bl	LIN_1_UART_Sleep
1069:.\Generated_Source\PSoC5/LIN_1.c **** 
1070:.\Generated_Source\PSoC5/LIN_1.c ****             /* Disable hardware blocks operation */
1071:.\Generated_Source\PSoC5/LIN_1.c ****             LIN_1_CONTROL_REG &= ((l_u8) ~LIN_1_CONTROL_ENABLE);
 1215              		.loc 1 1071 0
 1216 0128 46F27643 		movw	r3, #25718
 1217 012c C4F20003 		movt	r3, 16384
 1218 0130 46F27642 		movw	r2, #25718
 1219 0134 C4F20002 		movt	r2, 16384
 1220 0138 1278     		ldrb	r2, [r2, #0]
 1221 013a D2B2     		uxtb	r2, r2
 1222 013c 22F00102 		bic	r2, r2, #1
 1223 0140 D2B2     		uxtb	r2, r2
 1224 0142 1A70     		strb	r2, [r3, #0]
1072:.\Generated_Source\PSoC5/LIN_1.c **** 
1073:.\Generated_Source\PSoC5/LIN_1.c ****             LIN_1_backup.statusMask = LIN_1_INT_MASK_REG;
 1225              		.loc 1 1073 0
 1226 0144 46F28643 		movw	r3, #25734
 1227 0148 C4F20003 		movt	r3, 16384
 1228 014c 1B78     		ldrb	r3, [r3, #0]
 1229 014e DAB2     		uxtb	r2, r3
 1230 0150 40F20003 		movw	r3, #:lower16:LIN_1_backup.5030
 1231 0154 C0F20003 		movt	r3, #:upper16:LIN_1_backup.5030
 1232 0158 9A70     		strb	r2, [r3, #2]
1074:.\Generated_Source\PSoC5/LIN_1.c **** 
1075:.\Generated_Source\PSoC5/LIN_1.c ****             #if(1u == LIN_1_INACTIVITY_ENABLED)
1076:.\Generated_Source\PSoC5/LIN_1.c **** 
1077:.\Generated_Source\PSoC5/LIN_1.c ****                 LIN_1_backup.inactivityDiv0 = LIN_1_INACTIVITY_DIV0_REG;
 1233              		.loc 1 1077 0
 1234 015a 46F22653 		movw	r3, #25894
 1235 015e C4F20003 		movt	r3, 16384
 1236 0162 1B78     		ldrb	r3, [r3, #0]
 1237 0164 DAB2     		uxtb	r2, r3
 1238 0166 40F20003 		movw	r3, #:lower16:LIN_1_backup.5030
 1239 016a C0F20003 		movt	r3, #:upper16:LIN_1_backup.5030
 1240 016e DA70     		strb	r2, [r3, #3]
1078:.\Generated_Source\PSoC5/LIN_1.c ****                 LIN_1_backup.inactivityDiv1 = LIN_1_INACTIVITY_DIV1_REG;
 1241              		.loc 1 1078 0
 1242 0170 46F23653 		movw	r3, #25910
 1243 0174 C4F20003 		movt	r3, 16384
 1244 0178 1B78     		ldrb	r3, [r3, #0]
 1245 017a DAB2     		uxtb	r2, r3
 1246 017c 40F20003 		movw	r3, #:lower16:LIN_1_backup.5030
 1247 0180 C0F20003 		movt	r3, #:upper16:LIN_1_backup.5030
 1248 0184 1A71     		strb	r2, [r3, #4]
1079:.\Generated_Source\PSoC5/LIN_1.c **** 
1080:.\Generated_Source\PSoC5/LIN_1.c ****             #endif  /* (1u == LIN_1_INACTIVITY_ENABLED) */
1081:.\Generated_Source\PSoC5/LIN_1.c **** 
ARM GAS  C:\Users\MATSUD~1\AppData\Local\Temp\ccLjdAaK.s 			page 42


1082:.\Generated_Source\PSoC5/LIN_1.c ****         break;
 1249              		.loc 1 1082 0
 1250 0186 42E0     		b	.L74
 1251              	.L71:
1083:.\Generated_Source\PSoC5/LIN_1.c **** 
1084:.\Generated_Source\PSoC5/LIN_1.c **** 
1085:.\Generated_Source\PSoC5/LIN_1.c ****         /***********************************************************************
1086:.\Generated_Source\PSoC5/LIN_1.c ****         *             Restore after wakeup from low power modes
1087:.\Generated_Source\PSoC5/LIN_1.c ****         ***********************************************************************/
1088:.\Generated_Source\PSoC5/LIN_1.c ****         case L_IOCTL_WAKEUP:
1089:.\Generated_Source\PSoC5/LIN_1.c **** 
1090:.\Generated_Source\PSoC5/LIN_1.c ****             LIN_1_INT_MASK_REG = LIN_1_backup.statusMask;
 1252              		.loc 1 1090 0
 1253 0188 46F28643 		movw	r3, #25734
 1254 018c C4F20003 		movt	r3, 16384
 1255 0190 40F20002 		movw	r2, #:lower16:LIN_1_backup.5030
 1256 0194 C0F20002 		movt	r2, #:upper16:LIN_1_backup.5030
 1257 0198 9278     		ldrb	r2, [r2, #2]	@ zero_extendqisi2
 1258 019a 1A70     		strb	r2, [r3, #0]
1091:.\Generated_Source\PSoC5/LIN_1.c **** 
1092:.\Generated_Source\PSoC5/LIN_1.c ****             #if(1u == LIN_1_INACTIVITY_ENABLED)
1093:.\Generated_Source\PSoC5/LIN_1.c **** 
1094:.\Generated_Source\PSoC5/LIN_1.c ****                 LIN_1_INACTIVITY_DIV0_REG = LIN_1_backup.inactivityDiv0;
 1259              		.loc 1 1094 0
 1260 019c 46F22653 		movw	r3, #25894
 1261 01a0 C4F20003 		movt	r3, 16384
 1262 01a4 40F20002 		movw	r2, #:lower16:LIN_1_backup.5030
 1263 01a8 C0F20002 		movt	r2, #:upper16:LIN_1_backup.5030
 1264 01ac D278     		ldrb	r2, [r2, #3]	@ zero_extendqisi2
 1265 01ae 1A70     		strb	r2, [r3, #0]
1095:.\Generated_Source\PSoC5/LIN_1.c ****                 LIN_1_INACTIVITY_DIV1_REG = LIN_1_backup.inactivityDiv1;
 1266              		.loc 1 1095 0
 1267 01b0 46F23653 		movw	r3, #25910
 1268 01b4 C4F20003 		movt	r3, 16384
 1269 01b8 40F20002 		movw	r2, #:lower16:LIN_1_backup.5030
 1270 01bc C0F20002 		movt	r2, #:upper16:LIN_1_backup.5030
 1271 01c0 1279     		ldrb	r2, [r2, #4]	@ zero_extendqisi2
 1272 01c2 1A70     		strb	r2, [r3, #0]
1096:.\Generated_Source\PSoC5/LIN_1.c **** 
1097:.\Generated_Source\PSoC5/LIN_1.c ****             #endif  /* (1u == LIN_1_INACTIVITY_ENABLED) */
1098:.\Generated_Source\PSoC5/LIN_1.c **** 
1099:.\Generated_Source\PSoC5/LIN_1.c ****             LIN_1_CONTROL_REG = LIN_1_backup.control;
 1273              		.loc 1 1099 0
 1274 01c4 46F27643 		movw	r3, #25718
 1275 01c8 C4F20003 		movt	r3, 16384
 1276 01cc 40F20002 		movw	r2, #:lower16:LIN_1_backup.5030
 1277 01d0 C0F20002 		movt	r2, #:upper16:LIN_1_backup.5030
 1278 01d4 5278     		ldrb	r2, [r2, #1]	@ zero_extendqisi2
 1279 01d6 1A70     		strb	r2, [r3, #0]
1100:.\Generated_Source\PSoC5/LIN_1.c **** 
1101:.\Generated_Source\PSoC5/LIN_1.c ****             /* Restore UART state*/
1102:.\Generated_Source\PSoC5/LIN_1.c ****             LIN_1_UART_Wakeup();
 1280              		.loc 1 1102 0
 1281 01d8 FFF7FEFF 		bl	LIN_1_UART_Wakeup
1103:.\Generated_Source\PSoC5/LIN_1.c **** 
1104:.\Generated_Source\PSoC5/LIN_1.c ****             if(0u != LIN_1_backup.enableState)
 1282              		.loc 1 1104 0
ARM GAS  C:\Users\MATSUD~1\AppData\Local\Temp\ccLjdAaK.s 			page 43


 1283 01dc 40F20003 		movw	r3, #:lower16:LIN_1_backup.5030
 1284 01e0 C0F20003 		movt	r3, #:upper16:LIN_1_backup.5030
 1285 01e4 1B78     		ldrb	r3, [r3, #0]	@ zero_extendqisi2
 1286 01e6 002B     		cmp	r3, #0
 1287 01e8 10D0     		beq	.L79
1105:.\Generated_Source\PSoC5/LIN_1.c ****             {
1106:.\Generated_Source\PSoC5/LIN_1.c ****                l_sys_irq_restore(LIN_1_ALL_IRQ_ENABLE);
 1288              		.loc 1 1106 0
 1289 01ea 4FF00300 		mov	r0, #3
 1290 01ee FFF7FEFF 		bl	l_sys_irq_restore
1107:.\Generated_Source\PSoC5/LIN_1.c ****             }
1108:.\Generated_Source\PSoC5/LIN_1.c **** 
1109:.\Generated_Source\PSoC5/LIN_1.c ****         break;
 1291              		.loc 1 1109 0
 1292 01f2 0BE0     		b	.L79
 1293              	.L72:
1110:.\Generated_Source\PSoC5/LIN_1.c **** 
1111:.\Generated_Source\PSoC5/LIN_1.c ****         #if(1u == LIN_1_AUTO_BAUD_RATE_SYNC)
1112:.\Generated_Source\PSoC5/LIN_1.c **** 
1113:.\Generated_Source\PSoC5/LIN_1.c ****             case L_IOCTL_SYNC_COUNTS:
1114:.\Generated_Source\PSoC5/LIN_1.c **** 
1115:.\Generated_Source\PSoC5/LIN_1.c ****                 /* Returns current number of sync field timer counts */
1116:.\Generated_Source\PSoC5/LIN_1.c ****                 returnValue = (l_u16) LIN_1_syncCounts;
 1294              		.loc 1 1116 0
 1295 01f4 40F20003 		movw	r3, #:lower16:LIN_1_syncCounts
 1296 01f8 C0F20003 		movt	r3, #:upper16:LIN_1_syncCounts
 1297 01fc 1B78     		ldrb	r3, [r3, #0]
 1298 01fe DBB2     		uxtb	r3, r3
 1299 0200 FB81     		strh	r3, [r7, #14]	@ movhi
1117:.\Generated_Source\PSoC5/LIN_1.c **** 
1118:.\Generated_Source\PSoC5/LIN_1.c ****             break;
 1300              		.loc 1 1118 0
 1301 0202 04E0     		b	.L74
 1302              	.L67:
1119:.\Generated_Source\PSoC5/LIN_1.c **** 
1120:.\Generated_Source\PSoC5/LIN_1.c ****         #endif  /* (1u == LIN_1_AUTO_BAUD_RATE_SYNC) */
1121:.\Generated_Source\PSoC5/LIN_1.c **** 
1122:.\Generated_Source\PSoC5/LIN_1.c **** 
1123:.\Generated_Source\PSoC5/LIN_1.c ****         #if(1u == LIN_1_TL_ENABLED)
1124:.\Generated_Source\PSoC5/LIN_1.c ****             #if(1u == LIN_1_CS_ENABLED)
1125:.\Generated_Source\PSoC5/LIN_1.c **** 
1126:.\Generated_Source\PSoC5/LIN_1.c ****                 case L_IOCTL_SET_SERIAL_NUMBER:
1127:.\Generated_Source\PSoC5/LIN_1.c ****                     LIN_1_serialNumber = (l_u8*) pv;
1128:.\Generated_Source\PSoC5/LIN_1.c ****                 break;
1129:.\Generated_Source\PSoC5/LIN_1.c **** 
1130:.\Generated_Source\PSoC5/LIN_1.c ****             #endif /* (1u == LIN_1_CS_ENABLED) */
1131:.\Generated_Source\PSoC5/LIN_1.c ****         #endif /* (1u == LIN_1_TL_ENABLED) */
1132:.\Generated_Source\PSoC5/LIN_1.c **** 
1133:.\Generated_Source\PSoC5/LIN_1.c **** 
1134:.\Generated_Source\PSoC5/LIN_1.c ****         default:
1135:.\Generated_Source\PSoC5/LIN_1.c ****             /* Unknown operation */
1136:.\Generated_Source\PSoC5/LIN_1.c ****             returnValue = (l_u16) CYRET_BAD_PARAM;
 1303              		.loc 1 1136 0
 1304 0204 4FF00103 		mov	r3, #1
 1305 0208 FB81     		strh	r3, [r7, #14]	@ movhi
1137:.\Generated_Source\PSoC5/LIN_1.c ****         break;
 1306              		.loc 1 1137 0
ARM GAS  C:\Users\MATSUD~1\AppData\Local\Temp\ccLjdAaK.s 			page 44


 1307 020a 00E0     		b	.L74
 1308              	.L79:
1109:.\Generated_Source\PSoC5/LIN_1.c ****         break;
 1309              		.loc 1 1109 0
 1310 020c 00BF     		nop
 1311              	.L74:
1138:.\Generated_Source\PSoC5/LIN_1.c ****     }
1139:.\Generated_Source\PSoC5/LIN_1.c **** 
1140:.\Generated_Source\PSoC5/LIN_1.c ****     return (returnValue);
 1312              		.loc 1 1140 0
 1313 020e FB89     		ldrh	r3, [r7, #14]
1141:.\Generated_Source\PSoC5/LIN_1.c **** }
 1314              		.loc 1 1141 0
 1315 0210 1846     		mov	r0, r3
 1316 0212 07F11007 		add	r7, r7, #16
 1317 0216 BD46     		mov	sp, r7
 1318 0218 80BD     		pop	{r7, pc}
 1319              		.cfi_endproc
 1320              	.LFE19:
 1321              		.size	l_ifc_ioctl_LIN_1, .-l_ifc_ioctl_LIN_1
 1322 021a 00BF     		.section	.text.l_ifc_ioctl,"ax",%progbits
 1323              		.align	2
 1324              		.global	l_ifc_ioctl
 1325              		.thumb
 1326              		.thumb_func
 1327              		.type	l_ifc_ioctl, %function
 1328              	l_ifc_ioctl:
 1329              	.LFB20:
1142:.\Generated_Source\PSoC5/LIN_1.c **** 
1143:.\Generated_Source\PSoC5/LIN_1.c **** 
1144:.\Generated_Source\PSoC5/LIN_1.c **** /*******************************************************************************
1145:.\Generated_Source\PSoC5/LIN_1.c **** * Function Name: l_ifc_ioctl
1146:.\Generated_Source\PSoC5/LIN_1.c **** ********************************************************************************
1147:.\Generated_Source\PSoC5/LIN_1.c **** *
1148:.\Generated_Source\PSoC5/LIN_1.c **** * Summary:
1149:.\Generated_Source\PSoC5/LIN_1.c **** *  This function controls functionality that is not covered by the other API
1150:.\Generated_Source\PSoC5/LIN_1.c **** *  calls. It is used for protocol specific parameters or hardware specific
1151:.\Generated_Source\PSoC5/LIN_1.c **** *  functionality. Example of such functionality can be to switch on/off the
1152:.\Generated_Source\PSoC5/LIN_1.c **** *  wake up signal detection.
1153:.\Generated_Source\PSoC5/LIN_1.c **** *
1154:.\Generated_Source\PSoC5/LIN_1.c **** * Parameters:
1155:.\Generated_Source\PSoC5/LIN_1.c **** *  iii - is the name of the interface handle.
1156:.\Generated_Source\PSoC5/LIN_1.c **** *  op - is the operation that should be applied.
1157:.\Generated_Source\PSoC5/LIN_1.c **** *  pv - is the pointer to the optional parameter.
1158:.\Generated_Source\PSoC5/LIN_1.c **** *
1159:.\Generated_Source\PSoC5/LIN_1.c **** * Return:
1160:.\Generated_Source\PSoC5/LIN_1.c **** *  There is no error code value returned for operation selected. This means that
1161:.\Generated_Source\PSoC5/LIN_1.c **** *  you must ensure that the values passed into the function are correct.
1162:.\Generated_Source\PSoC5/LIN_1.c **** *
1163:.\Generated_Source\PSoC5/LIN_1.c **** *  L_IOCTL_READ_STATUS operation
1164:.\Generated_Source\PSoC5/LIN_1.c **** *  The first bit in this byte is the flag that indicates that there has been no
1165:.\Generated_Source\PSoC5/LIN_1.c **** *  signaling on the bus for a certain elapsed time (available when
1166:.\Generated_Source\PSoC5/LIN_1.c **** *  Bus Inactivity Timeout Detection option is enabled). If the elapsed time
1167:.\Generated_Source\PSoC5/LIN_1.c **** *  passes a certain threshold, then this flag is set. Calling this API clears
1168:.\Generated_Source\PSoC5/LIN_1.c **** *  all status bits after they are returned. The second bit is the flag that
1169:.\Generated_Source\PSoC5/LIN_1.c **** *  indicates that a Targeted Reset service request (0xB5) was received
1170:.\Generated_Source\PSoC5/LIN_1.c **** *  (when J2602-1 Compliance is enabled).
ARM GAS  C:\Users\MATSUD~1\AppData\Local\Temp\ccLjdAaK.s 			page 45


1171:.\Generated_Source\PSoC5/LIN_1.c **** *
1172:.\Generated_Source\PSoC5/LIN_1.c **** *  Symbolic Name : LIN_1_IOCTL_STS_BUS_INACTIVITY
1173:.\Generated_Source\PSoC5/LIN_1.c **** *  Value         : 0x0001u
1174:.\Generated_Source\PSoC5/LIN_1.c **** *  Description   : No signal was detected on the bus for a certain elapsed time
1175:.\Generated_Source\PSoC5/LIN_1.c **** *
1176:.\Generated_Source\PSoC5/LIN_1.c **** *  Symbolic Name : LIN_1_IOCTL_STS_TARGET_RESET
1177:.\Generated_Source\PSoC5/LIN_1.c **** *  Value         : 0x0002u
1178:.\Generated_Source\PSoC5/LIN_1.c **** *  Description   : Targeted Reset service request (0xB5) was received.
1179:.\Generated_Source\PSoC5/LIN_1.c **** *
1180:.\Generated_Source\PSoC5/LIN_1.c **** *  L_IOCTL_SET_BAUD_RATE operation
1181:.\Generated_Source\PSoC5/LIN_1.c **** *  The 0 is returned if operation succeeded and 1 if an invalid operation
1182:.\Generated_Source\PSoC5/LIN_1.c **** *  parameter was passed to the function.
1183:.\Generated_Source\PSoC5/LIN_1.c **** *
1184:.\Generated_Source\PSoC5/LIN_1.c **** *  L_IOCTL_SLEEP operation
1185:.\Generated_Source\PSoC5/LIN_1.c **** *  The 0 is returned if operation succeeded and 1 if an invalid operation
1186:.\Generated_Source\PSoC5/LIN_1.c **** *  parameter was passed to the function.
1187:.\Generated_Source\PSoC5/LIN_1.c **** *
1188:.\Generated_Source\PSoC5/LIN_1.c **** *  L_IOCTL_WAKEUP operation
1189:.\Generated_Source\PSoC5/LIN_1.c **** *  The 0 is returned if operation succeeded and 1 if an invalid operation
1190:.\Generated_Source\PSoC5/LIN_1.c **** *  parameter was passed to the function.
1191:.\Generated_Source\PSoC5/LIN_1.c **** *
1192:.\Generated_Source\PSoC5/LIN_1.c **** *  L_IOCTL_SYNC_COUNTS operation
1193:.\Generated_Source\PSoC5/LIN_1.c **** *  The 0 is returned if operation succeeded and 1 if an invalid operation
1194:.\Generated_Source\PSoC5/LIN_1.c **** *  parameter was passed to the function.
1195:.\Generated_Source\PSoC5/LIN_1.c **** *
1196:.\Generated_Source\PSoC5/LIN_1.c **** *  L_IOCTL_SET_SERIAL_NUMBER operation
1197:.\Generated_Source\PSoC5/LIN_1.c **** *  The 0 is returned if operation succeeded and 1 if an invalid operation
1198:.\Generated_Source\PSoC5/LIN_1.c **** *  parameter was passed to the function.
1199:.\Generated_Source\PSoC5/LIN_1.c **** *
1200:.\Generated_Source\PSoC5/LIN_1.c **** * Reentrant:
1201:.\Generated_Source\PSoC5/LIN_1.c **** *  No
1202:.\Generated_Source\PSoC5/LIN_1.c **** *
1203:.\Generated_Source\PSoC5/LIN_1.c **** *******************************************************************************/
1204:.\Generated_Source\PSoC5/LIN_1.c **** l_u16 l_ifc_ioctl(l_ifc_handle iii, l_ioctl_op op, void* pv) 
1205:.\Generated_Source\PSoC5/LIN_1.c **** {
 1330              		.loc 1 1205 0
 1331              		.cfi_startproc
 1332              		@ args = 0, pretend = 0, frame = 16
 1333              		@ frame_needed = 1, uses_anonymous_args = 0
 1334 0000 80B5     		push	{r7, lr}
 1335              	.LCFI53:
 1336              		.cfi_def_cfa_offset 8
 1337              		.cfi_offset 7, -8
 1338              		.cfi_offset 14, -4
 1339 0002 84B0     		sub	sp, sp, #16
 1340              	.LCFI54:
 1341              		.cfi_def_cfa_offset 24
 1342 0004 00AF     		add	r7, sp, #0
 1343              	.LCFI55:
 1344              		.cfi_def_cfa_register 7
 1345 0006 0B46     		mov	r3, r1
 1346 0008 3A60     		str	r2, [r7, #0]
 1347 000a 0246     		mov	r2, r0
 1348 000c FA71     		strb	r2, [r7, #7]
 1349 000e BB71     		strb	r3, [r7, #6]
1206:.\Generated_Source\PSoC5/LIN_1.c ****     l_u16 returnValue;
1207:.\Generated_Source\PSoC5/LIN_1.c **** 
ARM GAS  C:\Users\MATSUD~1\AppData\Local\Temp\ccLjdAaK.s 			page 46


1208:.\Generated_Source\PSoC5/LIN_1.c ****     switch(iii)
 1350              		.loc 1 1208 0
 1351 0010 FB79     		ldrb	r3, [r7, #7]	@ zero_extendqisi2
 1352 0012 002B     		cmp	r3, #0
 1353 0014 07D1     		bne	.L85
 1354              	.L82:
1209:.\Generated_Source\PSoC5/LIN_1.c ****     {
1210:.\Generated_Source\PSoC5/LIN_1.c ****         case LIN_1_IFC_HANDLE:
1211:.\Generated_Source\PSoC5/LIN_1.c ****             returnValue = l_ifc_ioctl_LIN_1(op, pv);
 1355              		.loc 1 1211 0
 1356 0016 BB79     		ldrb	r3, [r7, #6]	@ zero_extendqisi2
 1357 0018 1846     		mov	r0, r3
 1358 001a 3968     		ldr	r1, [r7, #0]
 1359 001c FFF7FEFF 		bl	l_ifc_ioctl_LIN_1
 1360 0020 0346     		mov	r3, r0
 1361 0022 FB81     		strh	r3, [r7, #14]	@ movhi
1212:.\Generated_Source\PSoC5/LIN_1.c ****         break;
 1362              		.loc 1 1212 0
 1363 0024 03E0     		b	.L83
 1364              	.L85:
1213:.\Generated_Source\PSoC5/LIN_1.c **** 
1214:.\Generated_Source\PSoC5/LIN_1.c ****         default:
1215:.\Generated_Source\PSoC5/LIN_1.c ****             /* Unknown operation */
1216:.\Generated_Source\PSoC5/LIN_1.c ****             returnValue = (l_u16) CYRET_BAD_PARAM;
 1365              		.loc 1 1216 0
 1366 0026 4FF00103 		mov	r3, #1
 1367 002a FB81     		strh	r3, [r7, #14]	@ movhi
1217:.\Generated_Source\PSoC5/LIN_1.c ****         break;
 1368              		.loc 1 1217 0
 1369 002c 00BF     		nop
 1370              	.L83:
1218:.\Generated_Source\PSoC5/LIN_1.c ****     }
1219:.\Generated_Source\PSoC5/LIN_1.c **** 
1220:.\Generated_Source\PSoC5/LIN_1.c ****     return (returnValue);
 1371              		.loc 1 1220 0
 1372 002e FB89     		ldrh	r3, [r7, #14]
1221:.\Generated_Source\PSoC5/LIN_1.c **** }
 1373              		.loc 1 1221 0
 1374 0030 1846     		mov	r0, r3
 1375 0032 07F11007 		add	r7, r7, #16
 1376 0036 BD46     		mov	sp, r7
 1377 0038 80BD     		pop	{r7, pc}
 1378              		.cfi_endproc
 1379              	.LFE20:
 1380              		.size	l_ifc_ioctl, .-l_ifc_ioctl
 1381 003a 00BF     		.section	.text.l_ifc_rx_LIN_1,"ax",%progbits
 1382              		.align	2
 1383              		.global	l_ifc_rx_LIN_1
 1384              		.thumb
 1385              		.thumb_func
 1386              		.type	l_ifc_rx_LIN_1, %function
 1387              	l_ifc_rx_LIN_1:
 1388              	.LFB21:
1222:.\Generated_Source\PSoC5/LIN_1.c **** 
1223:.\Generated_Source\PSoC5/LIN_1.c **** 
1224:.\Generated_Source\PSoC5/LIN_1.c **** /*******************************************************************************
1225:.\Generated_Source\PSoC5/LIN_1.c **** * Function Name: l_ifc_rx
ARM GAS  C:\Users\MATSUD~1\AppData\Local\Temp\ccLjdAaK.s 			page 47


1226:.\Generated_Source\PSoC5/LIN_1.c **** ********************************************************************************
1227:.\Generated_Source\PSoC5/LIN_1.c **** *
1228:.\Generated_Source\PSoC5/LIN_1.c **** * Summary:
1229:.\Generated_Source\PSoC5/LIN_1.c **** *  The LIN Slave component takes care of calling this API routine automatically.
1230:.\Generated_Source\PSoC5/LIN_1.c **** *  Therefore, this API routine must not be called by the application code.
1231:.\Generated_Source\PSoC5/LIN_1.c **** *
1232:.\Generated_Source\PSoC5/LIN_1.c **** * Parameters:
1233:.\Generated_Source\PSoC5/LIN_1.c **** *  None
1234:.\Generated_Source\PSoC5/LIN_1.c **** *
1235:.\Generated_Source\PSoC5/LIN_1.c **** * Return:
1236:.\Generated_Source\PSoC5/LIN_1.c **** *  None
1237:.\Generated_Source\PSoC5/LIN_1.c **** *
1238:.\Generated_Source\PSoC5/LIN_1.c **** * Reentrant:
1239:.\Generated_Source\PSoC5/LIN_1.c **** *  No
1240:.\Generated_Source\PSoC5/LIN_1.c **** *
1241:.\Generated_Source\PSoC5/LIN_1.c **** *******************************************************************************/
1242:.\Generated_Source\PSoC5/LIN_1.c **** void l_ifc_rx_LIN_1(void) 
1243:.\Generated_Source\PSoC5/LIN_1.c **** {
 1389              		.loc 1 1243 0
 1390              		.cfi_startproc
 1391              		@ args = 0, pretend = 0, frame = 8
 1392              		@ frame_needed = 1, uses_anonymous_args = 0
 1393 0000 90B5     		push	{r4, r7, lr}
 1394              	.LCFI56:
 1395              		.cfi_def_cfa_offset 12
 1396              		.cfi_offset 4, -12
 1397              		.cfi_offset 7, -8
 1398              		.cfi_offset 14, -4
 1399 0002 83B0     		sub	sp, sp, #12
 1400              	.LCFI57:
 1401              		.cfi_def_cfa_offset 24
 1402 0004 00AF     		add	r7, sp, #0
 1403              	.LCFI58:
 1404              		.cfi_def_cfa_register 7
1244:.\Generated_Source\PSoC5/LIN_1.c ****     l_u8 i;
1245:.\Generated_Source\PSoC5/LIN_1.c ****     l_u8 interruptState;
1246:.\Generated_Source\PSoC5/LIN_1.c **** 
1247:.\Generated_Source\PSoC5/LIN_1.c ****     static l_u16 LIN_1_interimChecksum;   /* Holds interim checksum value     */
1248:.\Generated_Source\PSoC5/LIN_1.c ****     static l_u8 LIN_1_framePid;           /* PID of the current frame         */
1249:.\Generated_Source\PSoC5/LIN_1.c ****     static l_u8 LIN_1_frameSize;          /* Size of frame being processed    */
1250:.\Generated_Source\PSoC5/LIN_1.c ****     static l_u8 LIN_1_bytesTransferred;   /* Number of transferred bytes       */
1251:.\Generated_Source\PSoC5/LIN_1.c ****     static l_u8 LIN_1_tmpData;            /* Used to store transmitted byte   */
1252:.\Generated_Source\PSoC5/LIN_1.c ****     static l_u8 LIN_1_pidIndex;           /* Index in pidInfoTable            */
1253:.\Generated_Source\PSoC5/LIN_1.c ****     static l_u8 LIN_1_tmpRxFrameData[8u]; /* RXed data before checksum checked */
1254:.\Generated_Source\PSoC5/LIN_1.c ****     static volatile l_u8* LIN_1_frameData = NULL;  /* Pointer to frame data. Points to the byte to 
1255:.\Generated_Source\PSoC5/LIN_1.c **** 
1256:.\Generated_Source\PSoC5/LIN_1.c ****     #if(1u == LIN_1_TL_ENABLED)
1257:.\Generated_Source\PSoC5/LIN_1.c **** 
1258:.\Generated_Source\PSoC5/LIN_1.c ****         #if(1u == LIN_1_TL_API_FORMAT)
1259:.\Generated_Source\PSoC5/LIN_1.c ****             l_u8 tmpPci;
1260:.\Generated_Source\PSoC5/LIN_1.c ****         #endif /* 1u == LIN_1_TL_API_FORMAT */
1261:.\Generated_Source\PSoC5/LIN_1.c **** 
1262:.\Generated_Source\PSoC5/LIN_1.c ****         static l_u8 LIN_1_mrfBuffer[LIN_1_FRAME_BUFF_LEN];
1263:.\Generated_Source\PSoC5/LIN_1.c ****     #endif /* (1u == LIN_1_TL_ENABLED) */
1264:.\Generated_Source\PSoC5/LIN_1.c **** 
1265:.\Generated_Source\PSoC5/LIN_1.c ****     /*******************************************************************************
1266:.\Generated_Source\PSoC5/LIN_1.c ****     * Parity lookup table.  Given a six bit identifier as an index, the indexed
ARM GAS  C:\Users\MATSUD~1\AppData\Local\Temp\ccLjdAaK.s 			page 48


1267:.\Generated_Source\PSoC5/LIN_1.c ****     * value will provide the correct value with the parity bit set.
1268:.\Generated_Source\PSoC5/LIN_1.c ****     *******************************************************************************/
1269:.\Generated_Source\PSoC5/LIN_1.c ****     static const l_u8 CYCODE LIN_1_parityTable[] =
1270:.\Generated_Source\PSoC5/LIN_1.c ****     {
1271:.\Generated_Source\PSoC5/LIN_1.c ****         0x80u, 0xC1u, 0x42u, 0x03u, 0xC4u, 0x85u, 0x06u, 0x47u, 0x08u, 0x49u, 0xCAu,
1272:.\Generated_Source\PSoC5/LIN_1.c ****         0x8Bu, 0x4Cu, 0x0Du, 0x8Eu, 0xCFu, 0x50u, 0x11u, 0x92u, 0xD3u, 0x14u, 0x55u,
1273:.\Generated_Source\PSoC5/LIN_1.c ****         0xD6u, 0x97u, 0xD8u, 0x99u, 0x1Au, 0x5Bu, 0x9Cu, 0xDDu, 0x5Eu, 0x1Fu, 0x20u,
1274:.\Generated_Source\PSoC5/LIN_1.c ****         0x61u, 0xE2u, 0xA3u, 0x64u, 0x25u, 0xA6u, 0xE7u, 0xA8u, 0xE9u, 0x6Au, 0x2Bu,
1275:.\Generated_Source\PSoC5/LIN_1.c ****         0xECu, 0xADu, 0x2Eu, 0x6Fu, 0xF0u, 0xB1u, 0x32u, 0x73u, 0xB4u, 0xF5u, 0x76u,
1276:.\Generated_Source\PSoC5/LIN_1.c ****         0x37u, 0x78u, 0x39u, 0xBAu, 0xFBu, 0x3Cu, 0x7Du, 0xFEu, 0xBFu
1277:.\Generated_Source\PSoC5/LIN_1.c ****     };
1278:.\Generated_Source\PSoC5/LIN_1.c **** 
1279:.\Generated_Source\PSoC5/LIN_1.c ****     /* PID information table */
1280:.\Generated_Source\PSoC5/LIN_1.c ****     static LIN_1_PID_INFO_TABLE const CYCODE LIN_1_pidInfoTable[LIN_1_NUM_FRAMES] =
1281:.\Generated_Source\PSoC5/LIN_1.c **** {
1282:.\Generated_Source\PSoC5/LIN_1.c ****     {(LIN_1_FRAME_DIR_PUBLISH | LIN_1_FRAME_DATA_SIZE_1 | LIN_1_FRAME_TYPE_UNCOND),
1283:.\Generated_Source\PSoC5/LIN_1.c ****      LIN_1_Buffer_Frame1}, 
1284:.\Generated_Source\PSoC5/LIN_1.c **** 
1285:.\Generated_Source\PSoC5/LIN_1.c ****     {(LIN_1_FRAME_DIR_SUBSCRIBE | LIN_1_FRAME_DATA_SIZE_1 | LIN_1_FRAME_TYPE_UNCOND),
1286:.\Generated_Source\PSoC5/LIN_1.c ****      LIN_1_Buffer_Frame2}
1287:.\Generated_Source\PSoC5/LIN_1.c **** };
1288:.\Generated_Source\PSoC5/LIN_1.c **** 
1289:.\Generated_Source\PSoC5/LIN_1.c **** 
1290:.\Generated_Source\PSoC5/LIN_1.c ****     /* Check for correctness data for UART */
1291:.\Generated_Source\PSoC5/LIN_1.c ****     if(0u == (LIN_1_FSM_UART_ENABLE_FLAG & LIN_1_fsmFlags))
 1405              		.loc 1 1291 0
 1406 0006 40F20003 		movw	r3, #:lower16:LIN_1_fsmFlags
 1407 000a C0F20003 		movt	r3, #:upper16:LIN_1_fsmFlags
 1408 000e 1B78     		ldrb	r3, [r3, #0]
 1409 0010 DBB2     		uxtb	r3, r3
 1410 0012 03F00803 		and	r3, r3, #8
 1411 0016 DBB2     		uxtb	r3, r3
 1412 0018 002B     		cmp	r3, #0
 1413 001a 03D1     		bne	.L87
1292:.\Generated_Source\PSoC5/LIN_1.c ****     {
1293:.\Generated_Source\PSoC5/LIN_1.c ****         /* Reset UART state machine */
1294:.\Generated_Source\PSoC5/LIN_1.c ****         LIN_1_EndFrame(LIN_1_HANDLING_RESET_FSM_ERR);
 1414              		.loc 1 1294 0
 1415 001c 4FF00100 		mov	r0, #1
 1416 0020 FFF7FEFF 		bl	LIN_1_EndFrame
 1417              	.L87:
1295:.\Generated_Source\PSoC5/LIN_1.c ****     }
1296:.\Generated_Source\PSoC5/LIN_1.c **** 
1297:.\Generated_Source\PSoC5/LIN_1.c ****     /* Check for UART framing error */
1298:.\Generated_Source\PSoC5/LIN_1.c ****     if(0u != (LIN_1_UART_ReadRxStatus() & LIN_1_UART_RX_STS_STOP_ERROR))
 1418              		.loc 1 1298 0
 1419 0024 FFF7FEFF 		bl	LIN_1_UART_ReadRxStatus
 1420 0028 0346     		mov	r3, r0
 1421 002a 03F00803 		and	r3, r3, #8
 1422 002e 002B     		cmp	r3, #0
 1423 0030 27D0     		beq	.L88
1299:.\Generated_Source\PSoC5/LIN_1.c ****     {
1300:.\Generated_Source\PSoC5/LIN_1.c ****         #if(1u == LIN_1_SAE_J2602)
1301:.\Generated_Source\PSoC5/LIN_1.c **** 
1302:.\Generated_Source\PSoC5/LIN_1.c ****             /* Set framing error bits */
1303:.\Generated_Source\PSoC5/LIN_1.c ****             LIN_1_j2602Status |= LIN_1_J2602_STS_FRAMING_ERR;
1304:.\Generated_Source\PSoC5/LIN_1.c **** 
ARM GAS  C:\Users\MATSUD~1\AppData\Local\Temp\ccLjdAaK.s 			page 49


1305:.\Generated_Source\PSoC5/LIN_1.c ****         #endif /* (1u == LIN_1_SAE_J2602) */
1306:.\Generated_Source\PSoC5/LIN_1.c **** 
1307:.\Generated_Source\PSoC5/LIN_1.c ****         /* Set framing error  */
1308:.\Generated_Source\PSoC5/LIN_1.c ****         LIN_1_fsmFlags |= LIN_1_FSM_FRAMING_ERROR_FLAG;
 1424              		.loc 1 1308 0
 1425 0032 40F20003 		movw	r3, #:lower16:LIN_1_fsmFlags
 1426 0036 C0F20003 		movt	r3, #:upper16:LIN_1_fsmFlags
 1427 003a 1B78     		ldrb	r3, [r3, #0]
 1428 003c DBB2     		uxtb	r3, r3
 1429 003e 63F07F03 		orn	r3, r3, #127
 1430 0042 DAB2     		uxtb	r2, r3
 1431 0044 40F20003 		movw	r3, #:lower16:LIN_1_fsmFlags
 1432 0048 C0F20003 		movt	r3, #:upper16:LIN_1_fsmFlags
 1433 004c 1A70     		strb	r2, [r3, #0]
1309:.\Generated_Source\PSoC5/LIN_1.c **** 
1310:.\Generated_Source\PSoC5/LIN_1.c ****         
1311:.\Generated_Source\PSoC5/LIN_1.c ****     /* Save current global interrupt enable and disable it */
1312:.\Generated_Source\PSoC5/LIN_1.c ****     interruptState = CyEnterCriticalSection();
 1434              		.loc 1 1312 0
 1435 004e FFF7FEFF 		bl	CyEnterCriticalSection
 1436 0052 0346     		mov	r3, r0
 1437 0054 BB71     		strb	r3, [r7, #6]
1313:.\Generated_Source\PSoC5/LIN_1.c **** 
1314:.\Generated_Source\PSoC5/LIN_1.c ****         LIN_1_Buffer_Frame1[LIN_1_Response_Error_Frame1_SIG_BYTE_OFFSET] |= 
 1438              		.loc 1 1314 0
 1439 0056 40F20003 		movw	r3, #:lower16:LIN_1_Buffer_Frame1
 1440 005a C0F20003 		movt	r3, #:upper16:LIN_1_Buffer_Frame1
 1441 005e 1B78     		ldrb	r3, [r3, #0]
 1442 0060 DBB2     		uxtb	r3, r3
 1443 0062 43F00403 		orr	r3, r3, #4
 1444 0066 DAB2     		uxtb	r2, r3
 1445 0068 40F20003 		movw	r3, #:lower16:LIN_1_Buffer_Frame1
 1446 006c C0F20003 		movt	r3, #:upper16:LIN_1_Buffer_Frame1
 1447 0070 1A70     		strb	r2, [r3, #0]
1315:.\Generated_Source\PSoC5/LIN_1.c ****                             LIN_1_Response_Error_Frame1_SIG_MASK_0;
1316:.\Generated_Source\PSoC5/LIN_1.c **** 
1317:.\Generated_Source\PSoC5/LIN_1.c ****     /* Restore global interrupt enable state */
1318:.\Generated_Source\PSoC5/LIN_1.c ****     CyExitCriticalSection(interruptState);
 1448              		.loc 1 1318 0
 1449 0072 BB79     		ldrb	r3, [r7, #6]	@ zero_extendqisi2
 1450 0074 1846     		mov	r0, r3
 1451 0076 FFF7FEFF 		bl	CyExitCriticalSection
1319:.\Generated_Source\PSoC5/LIN_1.c **** 
1320:.\Generated_Source\PSoC5/LIN_1.c **** 
1321:.\Generated_Source\PSoC5/LIN_1.c ****         /* Finish frame processing */
1322:.\Generated_Source\PSoC5/LIN_1.c ****         LIN_1_EndFrame(LIN_1_HANDLING_DONT_SAVE_PID);
 1452              		.loc 1 1322 0
 1453 007a 4FF01000 		mov	r0, #16
 1454 007e FFF7FEFF 		bl	LIN_1_EndFrame
 1455              	.L88:
1323:.\Generated_Source\PSoC5/LIN_1.c ****     }
1324:.\Generated_Source\PSoC5/LIN_1.c **** 
1325:.\Generated_Source\PSoC5/LIN_1.c ****     switch(LIN_1_uartFsmState)
 1456              		.loc 1 1325 0
 1457 0082 40F20003 		movw	r3, #:lower16:LIN_1_uartFsmState
 1458 0086 C0F20003 		movt	r3, #:upper16:LIN_1_uartFsmState
 1459 008a 1B78     		ldrb	r3, [r3, #0]
ARM GAS  C:\Users\MATSUD~1\AppData\Local\Temp\ccLjdAaK.s 			page 50


 1460 008c DBB2     		uxtb	r3, r3
 1461 008e 03F1FF33 		add	r3, r3, #-1
 1462 0092 032B     		cmp	r3, #3
 1463 0094 00F24B84 		bhi	.L89
 1464 0098 01A2     		adr	r2, .L94
 1465 009a 52F823F0 		ldr	pc, [r2, r3, lsl #2]
 1466 009e 00BF     		.align	2
 1467              	.L94:
 1468 00a0 B1000000 		.word	.L90+1
 1469 00a4 7B030000 		.word	.L91+1
 1470 00a8 6F050000 		.word	.L92+1
 1471 00ac 85060000 		.word	.L93+1
 1472              	.L90:
1326:.\Generated_Source\PSoC5/LIN_1.c ****     {
1327:.\Generated_Source\PSoC5/LIN_1.c **** 
1328:.\Generated_Source\PSoC5/LIN_1.c ****         /***********************************************************************
1329:.\Generated_Source\PSoC5/LIN_1.c ****         *                       Sync Field Byte Receive
1330:.\Generated_Source\PSoC5/LIN_1.c ****         * State description:
1331:.\Generated_Source\PSoC5/LIN_1.c ****         *  - Available if Automatic Baud Rate Synchronization is disabled
1332:.\Generated_Source\PSoC5/LIN_1.c ****         *  - Receives sync byte and verifies its correctness
1333:.\Generated_Source\PSoC5/LIN_1.c ****         *  - Next state is PID Field Byte Receive (state 1)
1334:.\Generated_Source\PSoC5/LIN_1.c ****         ***********************************************************************/
1335:.\Generated_Source\PSoC5/LIN_1.c ****         #if(0u == LIN_1_AUTO_BAUD_RATE_SYNC)
1336:.\Generated_Source\PSoC5/LIN_1.c **** 
1337:.\Generated_Source\PSoC5/LIN_1.c ****             case LIN_1_UART_ISR_STATE_0_SNC:
1338:.\Generated_Source\PSoC5/LIN_1.c **** 
1339:.\Generated_Source\PSoC5/LIN_1.c ****                 /* Handle Sync field correctness */
1340:.\Generated_Source\PSoC5/LIN_1.c ****                 if(LIN_1_FRAME_SYNC_BYTE != LIN_1_UART_ReadRxData())
1341:.\Generated_Source\PSoC5/LIN_1.c ****                 {
1342:.\Generated_Source\PSoC5/LIN_1.c ****                     /* Set response error */
1343:.\Generated_Source\PSoC5/LIN_1.c ****                     LIN_1_ifcStatus |= LIN_1_IFC_STS_ERROR_IN_RESPONSE;
1344:.\Generated_Source\PSoC5/LIN_1.c **** 
1345:.\Generated_Source\PSoC5/LIN_1.c ****                     #if(1u == LIN_1_SAE_J2602)
1346:.\Generated_Source\PSoC5/LIN_1.c **** 
1347:.\Generated_Source\PSoC5/LIN_1.c ****                         /* Set data error bit */
1348:.\Generated_Source\PSoC5/LIN_1.c ****                         LIN_1_j2602Status |= LIN_1_J2602_STS_DATA_ERR;
1349:.\Generated_Source\PSoC5/LIN_1.c **** 
1350:.\Generated_Source\PSoC5/LIN_1.c ****                     #endif /* (1u == LIN_1_SAE_J2602) */
1351:.\Generated_Source\PSoC5/LIN_1.c **** 
1352:.\Generated_Source\PSoC5/LIN_1.c ****                     
1353:.\Generated_Source\PSoC5/LIN_1.c ****     /* Save current global interrupt enable and disable it */
1354:.\Generated_Source\PSoC5/LIN_1.c ****     interruptState = CyEnterCriticalSection();
1355:.\Generated_Source\PSoC5/LIN_1.c **** 
1356:.\Generated_Source\PSoC5/LIN_1.c ****         LIN_1_Buffer_Frame1[LIN_1_Response_Error_Frame1_SIG_BYTE_OFFSET] |= 
1357:.\Generated_Source\PSoC5/LIN_1.c ****                             LIN_1_Response_Error_Frame1_SIG_MASK_0;
1358:.\Generated_Source\PSoC5/LIN_1.c **** 
1359:.\Generated_Source\PSoC5/LIN_1.c ****     /* Restore global interrupt enable state */
1360:.\Generated_Source\PSoC5/LIN_1.c ****     CyExitCriticalSection(interruptState);
1361:.\Generated_Source\PSoC5/LIN_1.c **** 
1362:.\Generated_Source\PSoC5/LIN_1.c **** 
1363:.\Generated_Source\PSoC5/LIN_1.c ****                     /* Reset UART State Machine */
1364:.\Generated_Source\PSoC5/LIN_1.c ****                     LIN_1_EndFrame(LIN_1_HANDLING_RESET_FSM_ERR);
1365:.\Generated_Source\PSoC5/LIN_1.c ****                 }
1366:.\Generated_Source\PSoC5/LIN_1.c ****                 else
1367:.\Generated_Source\PSoC5/LIN_1.c ****                 {
1368:.\Generated_Source\PSoC5/LIN_1.c ****                     /* Next step is reception of the frame PID field */
1369:.\Generated_Source\PSoC5/LIN_1.c ****                     LIN_1_uartFsmState = LIN_1_UART_ISR_STATE_1_PID;
ARM GAS  C:\Users\MATSUD~1\AppData\Local\Temp\ccLjdAaK.s 			page 51


1370:.\Generated_Source\PSoC5/LIN_1.c ****                 }
1371:.\Generated_Source\PSoC5/LIN_1.c ****             break;
1372:.\Generated_Source\PSoC5/LIN_1.c **** 
1373:.\Generated_Source\PSoC5/LIN_1.c ****         #endif  /* (0u == LIN_1_AUTO_BAUD_RATE_SYNC) */
1374:.\Generated_Source\PSoC5/LIN_1.c **** 
1375:.\Generated_Source\PSoC5/LIN_1.c **** 
1376:.\Generated_Source\PSoC5/LIN_1.c ****         /***********************************************************************
1377:.\Generated_Source\PSoC5/LIN_1.c ****         *                       PID Field Byte Receive
1378:.\Generated_Source\PSoC5/LIN_1.c ****         * State description:
1379:.\Generated_Source\PSoC5/LIN_1.c ****         *  - Receives protected identifier (PID)
1380:.\Generated_Source\PSoC5/LIN_1.c ****         *  - Checks PID parity
1381:.\Generated_Source\PSoC5/LIN_1.c ****         *  - Set flags
1382:.\Generated_Source\PSoC5/LIN_1.c ****         *  - Determine next state (RX or TX)
1383:.\Generated_Source\PSoC5/LIN_1.c ****         ***********************************************************************/
1384:.\Generated_Source\PSoC5/LIN_1.c ****         case LIN_1_UART_ISR_STATE_1_PID:
1385:.\Generated_Source\PSoC5/LIN_1.c **** 
1386:.\Generated_Source\PSoC5/LIN_1.c ****             /* Save PID */
1387:.\Generated_Source\PSoC5/LIN_1.c ****             LIN_1_framePid = LIN_1_UART_ReadRxData();
 1473              		.loc 1 1387 0
 1474 00b0 FFF7FEFF 		bl	LIN_1_UART_ReadRxData
 1475 00b4 0346     		mov	r3, r0
 1476 00b6 1A46     		mov	r2, r3
 1477 00b8 40F20003 		movw	r3, #:lower16:LIN_1_framePid.5055
 1478 00bc C0F20003 		movt	r3, #:upper16:LIN_1_framePid.5055
 1479 00c0 1A70     		strb	r2, [r3, #0]
1388:.\Generated_Source\PSoC5/LIN_1.c **** 
1389:.\Generated_Source\PSoC5/LIN_1.c ****             /* Reset number of transferred bytes */
1390:.\Generated_Source\PSoC5/LIN_1.c ****             LIN_1_bytesTransferred = 0u;
 1480              		.loc 1 1390 0
 1481 00c2 40F20003 		movw	r3, #:lower16:LIN_1_bytesTransferred.5057
 1482 00c6 C0F20003 		movt	r3, #:upper16:LIN_1_bytesTransferred.5057
 1483 00ca 4FF00002 		mov	r2, #0
 1484 00ce 1A70     		strb	r2, [r3, #0]
1391:.\Generated_Source\PSoC5/LIN_1.c **** 
1392:.\Generated_Source\PSoC5/LIN_1.c ****             /* Verify PID parity */
1393:.\Generated_Source\PSoC5/LIN_1.c ****             if(LIN_1_parityTable[LIN_1_framePid & LIN_1_PID_PARITY_MASK] !=
 1485              		.loc 1 1393 0
 1486 00d0 40F20003 		movw	r3, #:lower16:LIN_1_framePid.5055
 1487 00d4 C0F20003 		movt	r3, #:upper16:LIN_1_framePid.5055
 1488 00d8 1B78     		ldrb	r3, [r3, #0]	@ zero_extendqisi2
 1489 00da 03F03F02 		and	r2, r3, #63
 1490 00de 40F20003 		movw	r3, #:lower16:LIN_1_parityTable.5062
 1491 00e2 C0F20003 		movt	r3, #:upper16:LIN_1_parityTable.5062
 1492 00e6 9A5C     		ldrb	r2, [r3, r2]	@ zero_extendqisi2
 1493 00e8 40F20003 		movw	r3, #:lower16:LIN_1_framePid.5055
 1494 00ec C0F20003 		movt	r3, #:upper16:LIN_1_framePid.5055
 1495 00f0 1B78     		ldrb	r3, [r3, #0]	@ zero_extendqisi2
 1496 00f2 9A42     		cmp	r2, r3
 1497 00f4 28D0     		beq	.L95
1394:.\Generated_Source\PSoC5/LIN_1.c ****                 LIN_1_framePid)
1395:.\Generated_Source\PSoC5/LIN_1.c ****             {
1396:.\Generated_Source\PSoC5/LIN_1.c ****                 /* Set response error */
1397:.\Generated_Source\PSoC5/LIN_1.c ****                 LIN_1_ifcStatus |= LIN_1_IFC_STS_ERROR_IN_RESPONSE;
 1498              		.loc 1 1397 0
 1499 00f6 40F20003 		movw	r3, #:lower16:LIN_1_ifcStatus
 1500 00fa C0F20003 		movt	r3, #:upper16:LIN_1_ifcStatus
 1501 00fe 1B88     		ldrh	r3, [r3, #0]	@ movhi
ARM GAS  C:\Users\MATSUD~1\AppData\Local\Temp\ccLjdAaK.s 			page 52


 1502 0100 9BB2     		uxth	r3, r3
 1503 0102 43F00103 		orr	r3, r3, #1
 1504 0106 9AB2     		uxth	r2, r3
 1505 0108 40F20003 		movw	r3, #:lower16:LIN_1_ifcStatus
 1506 010c C0F20003 		movt	r3, #:upper16:LIN_1_ifcStatus
 1507 0110 1A80     		strh	r2, [r3, #0]	@ movhi
1398:.\Generated_Source\PSoC5/LIN_1.c **** 
1399:.\Generated_Source\PSoC5/LIN_1.c ****                 #if(1u == LIN_1_SAE_J2602)
1400:.\Generated_Source\PSoC5/LIN_1.c **** 
1401:.\Generated_Source\PSoC5/LIN_1.c ****                     /* Set ERR2, ERR1 and ERR0 bits */
1402:.\Generated_Source\PSoC5/LIN_1.c ****                     LIN_1_j2602Status |= LIN_1_J2602_STS_PARITY_ERR;
1403:.\Generated_Source\PSoC5/LIN_1.c **** 
1404:.\Generated_Source\PSoC5/LIN_1.c ****                 #endif /* (1u == LIN_1_SAE_J2602) */
1405:.\Generated_Source\PSoC5/LIN_1.c **** 
1406:.\Generated_Source\PSoC5/LIN_1.c ****                 
1407:.\Generated_Source\PSoC5/LIN_1.c ****     /* Save current global interrupt enable and disable it */
1408:.\Generated_Source\PSoC5/LIN_1.c ****     interruptState = CyEnterCriticalSection();
 1508              		.loc 1 1408 0
 1509 0112 FFF7FEFF 		bl	CyEnterCriticalSection
 1510 0116 0346     		mov	r3, r0
 1511 0118 BB71     		strb	r3, [r7, #6]
1409:.\Generated_Source\PSoC5/LIN_1.c **** 
1410:.\Generated_Source\PSoC5/LIN_1.c ****         LIN_1_Buffer_Frame1[LIN_1_Response_Error_Frame1_SIG_BYTE_OFFSET] |= 
 1512              		.loc 1 1410 0
 1513 011a 40F20003 		movw	r3, #:lower16:LIN_1_Buffer_Frame1
 1514 011e C0F20003 		movt	r3, #:upper16:LIN_1_Buffer_Frame1
 1515 0122 1B78     		ldrb	r3, [r3, #0]
 1516 0124 DBB2     		uxtb	r3, r3
 1517 0126 43F00403 		orr	r3, r3, #4
 1518 012a DAB2     		uxtb	r2, r3
 1519 012c 40F20003 		movw	r3, #:lower16:LIN_1_Buffer_Frame1
 1520 0130 C0F20003 		movt	r3, #:upper16:LIN_1_Buffer_Frame1
 1521 0134 1A70     		strb	r2, [r3, #0]
1411:.\Generated_Source\PSoC5/LIN_1.c ****                             LIN_1_Response_Error_Frame1_SIG_MASK_0;
1412:.\Generated_Source\PSoC5/LIN_1.c **** 
1413:.\Generated_Source\PSoC5/LIN_1.c ****     /* Restore global interrupt enable state */
1414:.\Generated_Source\PSoC5/LIN_1.c ****     CyExitCriticalSection(interruptState);
 1522              		.loc 1 1414 0
 1523 0136 BB79     		ldrb	r3, [r7, #6]	@ zero_extendqisi2
 1524 0138 1846     		mov	r0, r3
 1525 013a FFF7FEFF 		bl	CyExitCriticalSection
1415:.\Generated_Source\PSoC5/LIN_1.c **** 
1416:.\Generated_Source\PSoC5/LIN_1.c **** 
1417:.\Generated_Source\PSoC5/LIN_1.c ****                 /* Reset UART State Machine */
1418:.\Generated_Source\PSoC5/LIN_1.c ****                 LIN_1_EndFrame(LIN_1_HANDLING_DONT_SAVE_PID);
 1526              		.loc 1 1418 0
 1527 013e 4FF01000 		mov	r0, #16
 1528 0142 FFF7FEFF 		bl	LIN_1_EndFrame
1419:.\Generated_Source\PSoC5/LIN_1.c ****             }
1420:.\Generated_Source\PSoC5/LIN_1.c ****             else    /* PID parity is correct */
1421:.\Generated_Source\PSoC5/LIN_1.c ****             {
1422:.\Generated_Source\PSoC5/LIN_1.c ****                 /* Check if MRF or SRF frame */
1423:.\Generated_Source\PSoC5/LIN_1.c ****                 if((LIN_1_FRAME_PID_MRF == LIN_1_framePid) ||
1424:.\Generated_Source\PSoC5/LIN_1.c ****                 (LIN_1_FRAME_PID_SRF == LIN_1_framePid))
1425:.\Generated_Source\PSoC5/LIN_1.c ****                 {
1426:.\Generated_Source\PSoC5/LIN_1.c ****                     /*  Transport Layer section. MRF and SRF detection */
1427:.\Generated_Source\PSoC5/LIN_1.c ****                     #if(1u == LIN_1_TL_ENABLED)
ARM GAS  C:\Users\MATSUD~1\AppData\Local\Temp\ccLjdAaK.s 			page 53


1428:.\Generated_Source\PSoC5/LIN_1.c **** 
1429:.\Generated_Source\PSoC5/LIN_1.c ****                         #if(1u == LIN_1_SAE_J2602)
1430:.\Generated_Source\PSoC5/LIN_1.c **** 
1431:.\Generated_Source\PSoC5/LIN_1.c ****                             if(LIN_1_FRAME_PID_MRF_J2602 == LIN_1_framePid)
1432:.\Generated_Source\PSoC5/LIN_1.c ****                             {
1433:.\Generated_Source\PSoC5/LIN_1.c ****                                 /* Process Master Request */
1434:.\Generated_Source\PSoC5/LIN_1.c **** 
1435:.\Generated_Source\PSoC5/LIN_1.c ****                                 /* Nothing need to be done for Transport Layer */
1436:.\Generated_Source\PSoC5/LIN_1.c **** 
1437:.\Generated_Source\PSoC5/LIN_1.c ****                                 /* Set response error */
1438:.\Generated_Source\PSoC5/LIN_1.c ****                                 LIN_1_ifcStatus |= LIN_1_IFC_STS_ERROR_IN_RESPONSE;
1439:.\Generated_Source\PSoC5/LIN_1.c **** 
1440:.\Generated_Source\PSoC5/LIN_1.c ****                                 /* Set ERR2, ERR1 and ERR0 bits */
1441:.\Generated_Source\PSoC5/LIN_1.c ****                                 LIN_1_j2602Status |= LIN_1_J2602_STS_PARITY_ERR;
1442:.\Generated_Source\PSoC5/LIN_1.c **** 
1443:.\Generated_Source\PSoC5/LIN_1.c ****                                 
1444:.\Generated_Source\PSoC5/LIN_1.c ****     /* Save current global interrupt enable and disable it */
1445:.\Generated_Source\PSoC5/LIN_1.c ****     interruptState = CyEnterCriticalSection();
1446:.\Generated_Source\PSoC5/LIN_1.c **** 
1447:.\Generated_Source\PSoC5/LIN_1.c ****         LIN_1_Buffer_Frame1[LIN_1_Response_Error_Frame1_SIG_BYTE_OFFSET] |= 
1448:.\Generated_Source\PSoC5/LIN_1.c ****                             LIN_1_Response_Error_Frame1_SIG_MASK_0;
1449:.\Generated_Source\PSoC5/LIN_1.c **** 
1450:.\Generated_Source\PSoC5/LIN_1.c ****     /* Restore global interrupt enable state */
1451:.\Generated_Source\PSoC5/LIN_1.c ****     CyExitCriticalSection(interruptState);
1452:.\Generated_Source\PSoC5/LIN_1.c **** 
1453:.\Generated_Source\PSoC5/LIN_1.c **** 
1454:.\Generated_Source\PSoC5/LIN_1.c ****                                 /* Check for framing error */
1455:.\Generated_Source\PSoC5/LIN_1.c ****                                 if(0u == (LIN_1_fsmFlags & LIN_1_FSM_FRAMING_ERROR_FLAG))
1456:.\Generated_Source\PSoC5/LIN_1.c ****                                 {
1457:.\Generated_Source\PSoC5/LIN_1.c ****                                     /* Save the last processed PID on the bus to the status variabl
1458:.\Generated_Source\PSoC5/LIN_1.c ****                                     LIN_1_ifcStatus &= ((l_u16) ~LIN_1_IFC_STS_PID_MASK);
1459:.\Generated_Source\PSoC5/LIN_1.c ****                                     LIN_1_ifcStatus |= ((l_u16) (((l_u16)LIN_1_framePid) << 8u));
1460:.\Generated_Source\PSoC5/LIN_1.c ****                                 }
1461:.\Generated_Source\PSoC5/LIN_1.c **** 
1462:.\Generated_Source\PSoC5/LIN_1.c ****                                 /* Reset UART State Machine */
1463:.\Generated_Source\PSoC5/LIN_1.c ****                                 LIN_1_EndFrame(LIN_1_HANDLING_DONT_SAVE_PID);
1464:.\Generated_Source\PSoC5/LIN_1.c ****                             }
1465:.\Generated_Source\PSoC5/LIN_1.c **** 
1466:.\Generated_Source\PSoC5/LIN_1.c ****                         #endif  /* (1u == LIN_1_SAE_J2602) */
1467:.\Generated_Source\PSoC5/LIN_1.c **** 
1468:.\Generated_Source\PSoC5/LIN_1.c ****                         if(LIN_1_FRAME_PID_MRF == LIN_1_framePid)
1469:.\Generated_Source\PSoC5/LIN_1.c ****                         {
1470:.\Generated_Source\PSoC5/LIN_1.c ****                             /* Indicate that slave is required to receive the data */
1471:.\Generated_Source\PSoC5/LIN_1.c ****                             LIN_1_tlFlags |= LIN_1_TL_RX_DIRECTION;
1472:.\Generated_Source\PSoC5/LIN_1.c **** 
1473:.\Generated_Source\PSoC5/LIN_1.c ****                             /*******************************************************
1474:.\Generated_Source\PSoC5/LIN_1.c ****                             *               Cooked & RAW API
1475:.\Generated_Source\PSoC5/LIN_1.c ****                             *******************************************************/
1476:.\Generated_Source\PSoC5/LIN_1.c **** 
1477:.\Generated_Source\PSoC5/LIN_1.c ****                             /* If the MRF PID is detected then pass a pointer to a start of a
1478:.\Generated_Source\PSoC5/LIN_1.c ****                             * Frame Buffer and size of data to RX state to handle data receiving.
1479:.\Generated_Source\PSoC5/LIN_1.c ****                             */
1480:.\Generated_Source\PSoC5/LIN_1.c **** 
1481:.\Generated_Source\PSoC5/LIN_1.c ****                             /* Frame equals 8 bytes */
1482:.\Generated_Source\PSoC5/LIN_1.c ****                             LIN_1_frameSize = LIN_1_FRAME_DATA_SIZE_8;
1483:.\Generated_Source\PSoC5/LIN_1.c **** 
1484:.\Generated_Source\PSoC5/LIN_1.c ****                             /* Set frame data pointer to a start of a frame buffer */
ARM GAS  C:\Users\MATSUD~1\AppData\Local\Temp\ccLjdAaK.s 			page 54


1485:.\Generated_Source\PSoC5/LIN_1.c ****                             LIN_1_frameData = LIN_1_mrfBuffer;
1486:.\Generated_Source\PSoC5/LIN_1.c **** 
1487:.\Generated_Source\PSoC5/LIN_1.c ****                             /* Switch to the subscribe data state. */
1488:.\Generated_Source\PSoC5/LIN_1.c ****                             LIN_1_uartFsmState = LIN_1_UART_ISR_STATE_3_RX;
1489:.\Generated_Source\PSoC5/LIN_1.c ****                         }
1490:.\Generated_Source\PSoC5/LIN_1.c **** 
1491:.\Generated_Source\PSoC5/LIN_1.c ****                         if(LIN_1_FRAME_PID_SRF == LIN_1_framePid)
1492:.\Generated_Source\PSoC5/LIN_1.c ****                         {
1493:.\Generated_Source\PSoC5/LIN_1.c ****                             /* Indicate that slave is required to transmit the data */
1494:.\Generated_Source\PSoC5/LIN_1.c ****                             LIN_1_tlFlags |= LIN_1_TL_TX_DIRECTION;
1495:.\Generated_Source\PSoC5/LIN_1.c **** 
1496:.\Generated_Source\PSoC5/LIN_1.c ****                             if(0u != (LIN_1_status & LIN_1_STATUS_SRVC_RSP_RDY))
1497:.\Generated_Source\PSoC5/LIN_1.c ****                             {
1498:.\Generated_Source\PSoC5/LIN_1.c ****                                 /* Clear Service Response ready status bit */
1499:.\Generated_Source\PSoC5/LIN_1.c ****                                 LIN_1_status &= ((l_u8) ~LIN_1_STATUS_SRVC_RSP_RDY);
1500:.\Generated_Source\PSoC5/LIN_1.c **** 
1501:.\Generated_Source\PSoC5/LIN_1.c ****                                 /* Frame always equal to 8 bytes for TL */
1502:.\Generated_Source\PSoC5/LIN_1.c ****                                 LIN_1_frameSize = LIN_1_FRAME_DATA_SIZE_8;
1503:.\Generated_Source\PSoC5/LIN_1.c **** 
1504:.\Generated_Source\PSoC5/LIN_1.c ****                                 /* Set frame data pointer to a start of a frame buffer */
1505:.\Generated_Source\PSoC5/LIN_1.c ****                                 LIN_1_frameData = LIN_1_srfBuffer;
1506:.\Generated_Source\PSoC5/LIN_1.c **** 
1507:.\Generated_Source\PSoC5/LIN_1.c ****                                 /* Send first byte to the LIN master */
1508:.\Generated_Source\PSoC5/LIN_1.c ****                                 LIN_1_tmpData = *LIN_1_frameData;
1509:.\Generated_Source\PSoC5/LIN_1.c ****                                 LIN_1_frameData++;
1510:.\Generated_Source\PSoC5/LIN_1.c ****                                 LIN_1_UART_WriteTxData(LIN_1_tmpData);
1511:.\Generated_Source\PSoC5/LIN_1.c ****                                 LIN_1_bytesTransferred = 1u;
1512:.\Generated_Source\PSoC5/LIN_1.c **** 
1513:.\Generated_Source\PSoC5/LIN_1.c ****                                 /* Switch to the publish data state. */
1514:.\Generated_Source\PSoC5/LIN_1.c ****                                 LIN_1_uartFsmState = LIN_1_UART_ISR_STATE_2_TX;
1515:.\Generated_Source\PSoC5/LIN_1.c ****                             }
1516:.\Generated_Source\PSoC5/LIN_1.c ****                             else
1517:.\Generated_Source\PSoC5/LIN_1.c ****                             {
1518:.\Generated_Source\PSoC5/LIN_1.c ****                                 #if(1u == LIN_1_TL_API_FORMAT)
1519:.\Generated_Source\PSoC5/LIN_1.c **** 
1520:.\Generated_Source\PSoC5/LIN_1.c ****                                     /***************************************************
1521:.\Generated_Source\PSoC5/LIN_1.c ****                                     *                    Cooked API
1522:.\Generated_Source\PSoC5/LIN_1.c ****                                     ***************************************************/
1523:.\Generated_Source\PSoC5/LIN_1.c **** 
1524:.\Generated_Source\PSoC5/LIN_1.c ****                                     /* Send one frame of a message if there is a message pending */
1525:.\Generated_Source\PSoC5/LIN_1.c ****                                     if(LIN_1_txTlStatus == LD_IN_PROGRESS)
1526:.\Generated_Source\PSoC5/LIN_1.c ****                                     {
1527:.\Generated_Source\PSoC5/LIN_1.c ****                                         /* This part of code will handle PDU packing for Cooked API
1528:.\Generated_Source\PSoC5/LIN_1.c ****                                         /* Check length it shows if the message already sent */
1529:.\Generated_Source\PSoC5/LIN_1.c ****                                         if(LIN_1_txMessageLength == 0u)
1530:.\Generated_Source\PSoC5/LIN_1.c ****                                         {
1531:.\Generated_Source\PSoC5/LIN_1.c ****                                             /* Reset UART State Machine */
1532:.\Generated_Source\PSoC5/LIN_1.c ****                                             LIN_1_EndFrame(LIN_1_HANDLING_RESET_FSM_ERR);
1533:.\Generated_Source\PSoC5/LIN_1.c ****                                         }
1534:.\Generated_Source\PSoC5/LIN_1.c ****                                         /* Process the message sending */
1535:.\Generated_Source\PSoC5/LIN_1.c ****                                         else
1536:.\Generated_Source\PSoC5/LIN_1.c ****                                         {
1537:.\Generated_Source\PSoC5/LIN_1.c ****                                             /* Fill Frame NAD field */
1538:.\Generated_Source\PSoC5/LIN_1.c ****                                             LIN_1_srfBuffer[0u] = LIN_1_nad;
1539:.\Generated_Source\PSoC5/LIN_1.c **** 
1540:.\Generated_Source\PSoC5/LIN_1.c ****                                             /* Analyze length to find the type of frame the message
1541:.\Generated_Source\PSoC5/LIN_1.c ****                                             if(LIN_1_txMessageLength > LIN_1_FRAME_DATA_SIZE_6)
ARM GAS  C:\Users\MATSUD~1\AppData\Local\Temp\ccLjdAaK.s 			page 55


1542:.\Generated_Source\PSoC5/LIN_1.c ****                                             {
1543:.\Generated_Source\PSoC5/LIN_1.c ****                                                 /* Process the FF Frame */
1544:.\Generated_Source\PSoC5/LIN_1.c ****                                                 if(LIN_1_prevPci == LIN_1_PDU_PCI_TYPE_UNKNOWN)
1545:.\Generated_Source\PSoC5/LIN_1.c ****                                                 {
1546:.\Generated_Source\PSoC5/LIN_1.c ****                                                     /* Fill Frame PCI field */
1547:.\Generated_Source\PSoC5/LIN_1.c ****                                                     LIN_1_srfBuffer[1u] = (LIN_1_PDU_PCI_TYPE_FF |
1548:.\Generated_Source\PSoC5/LIN_1.c ****                                                         (HI8(LIN_1_txMessageLength)));
1549:.\Generated_Source\PSoC5/LIN_1.c **** 
1550:.\Generated_Source\PSoC5/LIN_1.c ****                                                     /* Fill Frame LEN field */
1551:.\Generated_Source\PSoC5/LIN_1.c ****                                                     LIN_1_srfBuffer[2u] =
1552:.\Generated_Source\PSoC5/LIN_1.c ****                                                         LO8(LIN_1_txMessageLength);
1553:.\Generated_Source\PSoC5/LIN_1.c **** 
1554:.\Generated_Source\PSoC5/LIN_1.c ****                                                     /* Fill Frame Data fields */
1555:.\Generated_Source\PSoC5/LIN_1.c ****                                                     for(i = 3u; i < LIN_1_FRAME_DATA_SIZE_8; i++)
1556:.\Generated_Source\PSoC5/LIN_1.c ****                                                     {
1557:.\Generated_Source\PSoC5/LIN_1.c ****                                                         LIN_1_srfBuffer[i] =
1558:.\Generated_Source\PSoC5/LIN_1.c ****                                                             LIN_1_txTlDataPointer[(i +
1559:.\Generated_Source\PSoC5/LIN_1.c ****                                                                 LIN_1_txTlDataCount) - 3u];
1560:.\Generated_Source\PSoC5/LIN_1.c ****                                                     }
1561:.\Generated_Source\PSoC5/LIN_1.c **** 
1562:.\Generated_Source\PSoC5/LIN_1.c ****                                                     /* Update the user buffer pointer */
1563:.\Generated_Source\PSoC5/LIN_1.c ****                                                     LIN_1_txTlDataCount +=
1564:.\Generated_Source\PSoC5/LIN_1.c ****                                                         LIN_1_FRAME_DATA_SIZE_5;
1565:.\Generated_Source\PSoC5/LIN_1.c **** 
1566:.\Generated_Source\PSoC5/LIN_1.c ****                                                     /* Save the previous PCI */
1567:.\Generated_Source\PSoC5/LIN_1.c ****                                                     LIN_1_prevPci = LIN_1_PDU_PCI_TYPE_FF;
1568:.\Generated_Source\PSoC5/LIN_1.c **** 
1569:.\Generated_Source\PSoC5/LIN_1.c ****                                                     LIN_1_txMessageLength -=
1570:.\Generated_Source\PSoC5/LIN_1.c ****                                                         LIN_1_FRAME_DATA_SIZE_5;
1571:.\Generated_Source\PSoC5/LIN_1.c ****                                                 }
1572:.\Generated_Source\PSoC5/LIN_1.c ****                                                 /* Process the CF Frame */
1573:.\Generated_Source\PSoC5/LIN_1.c ****                                                 else
1574:.\Generated_Source\PSoC5/LIN_1.c ****                                                 {
1575:.\Generated_Source\PSoC5/LIN_1.c ****                                                      /* Fill Frame PCI field */
1576:.\Generated_Source\PSoC5/LIN_1.c ****                                                     LIN_1_srfBuffer[1u] =
1577:.\Generated_Source\PSoC5/LIN_1.c ****                                                         (LIN_1_PDU_PCI_TYPE_CF |
1578:.\Generated_Source\PSoC5/LIN_1.c ****                                                             LIN_1_txFrameCounter);
1579:.\Generated_Source\PSoC5/LIN_1.c **** 
1580:.\Generated_Source\PSoC5/LIN_1.c ****                                                     /* Fill Frame Data fields */
1581:.\Generated_Source\PSoC5/LIN_1.c ****                                                     for(i = 2u; i < LIN_1_FRAME_DATA_SIZE_8; i++)
1582:.\Generated_Source\PSoC5/LIN_1.c ****                                                     {
1583:.\Generated_Source\PSoC5/LIN_1.c ****                                                         LIN_1_srfBuffer[i] =
1584:.\Generated_Source\PSoC5/LIN_1.c ****                                                             LIN_1_txTlDataPointer[(i +
1585:.\Generated_Source\PSoC5/LIN_1.c ****                                                                 LIN_1_txTlDataCount) - 2u];
1586:.\Generated_Source\PSoC5/LIN_1.c ****                                                     }
1587:.\Generated_Source\PSoC5/LIN_1.c **** 
1588:.\Generated_Source\PSoC5/LIN_1.c ****                                                     /* Update the user buffer pointer */
1589:.\Generated_Source\PSoC5/LIN_1.c ****                                                     LIN_1_txTlDataCount +=
1590:.\Generated_Source\PSoC5/LIN_1.c ****                                                             LIN_1_FRAME_DATA_SIZE_6;
1591:.\Generated_Source\PSoC5/LIN_1.c **** 
1592:.\Generated_Source\PSoC5/LIN_1.c ****                                                     /* Save the previous PCI */
1593:.\Generated_Source\PSoC5/LIN_1.c ****                                                     LIN_1_prevPci = LIN_1_PDU_PCI_TYPE_CF;
1594:.\Generated_Source\PSoC5/LIN_1.c **** 
1595:.\Generated_Source\PSoC5/LIN_1.c ****                                                     /* Update length pointer properly */
1596:.\Generated_Source\PSoC5/LIN_1.c ****                                                     LIN_1_txMessageLength -=
1597:.\Generated_Source\PSoC5/LIN_1.c ****                                                         LIN_1_FRAME_DATA_SIZE_6;
1598:.\Generated_Source\PSoC5/LIN_1.c ****                                                 }
ARM GAS  C:\Users\MATSUD~1\AppData\Local\Temp\ccLjdAaK.s 			page 56


1599:.\Generated_Source\PSoC5/LIN_1.c ****                                             }
1600:.\Generated_Source\PSoC5/LIN_1.c ****                                             /* Process the SF Frame or last CF Frame */
1601:.\Generated_Source\PSoC5/LIN_1.c ****                                             else
1602:.\Generated_Source\PSoC5/LIN_1.c ****                                             {
1603:.\Generated_Source\PSoC5/LIN_1.c ****                                                 /* Check if the Previous frame is unknown which ind
1604:.\Generated_Source\PSoC5/LIN_1.c ****                                                 * frame is SF, otherwise it is last CF frame. Fill 
1605:.\Generated_Source\PSoC5/LIN_1.c ****                                                 * properly.
1606:.\Generated_Source\PSoC5/LIN_1.c ****                                                 */
1607:.\Generated_Source\PSoC5/LIN_1.c ****                                                 if(LIN_1_PDU_PCI_TYPE_UNKNOWN == LIN_1_prevPci)
1608:.\Generated_Source\PSoC5/LIN_1.c ****                                                 {
1609:.\Generated_Source\PSoC5/LIN_1.c ****                                                     LIN_1_srfBuffer[1u] = (l_u8)
1610:.\Generated_Source\PSoC5/LIN_1.c ****                                                         LIN_1_txMessageLength;
1611:.\Generated_Source\PSoC5/LIN_1.c **** 
1612:.\Generated_Source\PSoC5/LIN_1.c ****                                                     /* Save the previous PCI */
1613:.\Generated_Source\PSoC5/LIN_1.c ****                                                     LIN_1_prevPci = LIN_1_PDU_PCI_TYPE_SF;
1614:.\Generated_Source\PSoC5/LIN_1.c ****                                                 }
1615:.\Generated_Source\PSoC5/LIN_1.c ****                                                 else
1616:.\Generated_Source\PSoC5/LIN_1.c ****                                                 {
1617:.\Generated_Source\PSoC5/LIN_1.c ****                                                     LIN_1_srfBuffer[1u] =
1618:.\Generated_Source\PSoC5/LIN_1.c ****                                                         (LIN_1_PDU_PCI_TYPE_CF |
1619:.\Generated_Source\PSoC5/LIN_1.c ****                                                             LIN_1_txFrameCounter);
1620:.\Generated_Source\PSoC5/LIN_1.c **** 
1621:.\Generated_Source\PSoC5/LIN_1.c ****                                                     /* Save the previous PCI */
1622:.\Generated_Source\PSoC5/LIN_1.c ****                                                     LIN_1_prevPci = LIN_1_PDU_PCI_TYPE_CF;
1623:.\Generated_Source\PSoC5/LIN_1.c ****                                                 }
1624:.\Generated_Source\PSoC5/LIN_1.c **** 
1625:.\Generated_Source\PSoC5/LIN_1.c ****                                                 /* Fill Frame Data fields */
1626:.\Generated_Source\PSoC5/LIN_1.c ****                                                 for(i = 2u; i < LIN_1_FRAME_DATA_SIZE_8; i++)
1627:.\Generated_Source\PSoC5/LIN_1.c ****                                                 {
1628:.\Generated_Source\PSoC5/LIN_1.c ****                                                     if(LIN_1_txMessageLength >= ((l_u8) (i - 1u)))
1629:.\Generated_Source\PSoC5/LIN_1.c ****                                                     {
1630:.\Generated_Source\PSoC5/LIN_1.c ****                                                         LIN_1_srfBuffer[i] =
1631:.\Generated_Source\PSoC5/LIN_1.c ****                                                             LIN_1_txTlDataPointer[(i +
1632:.\Generated_Source\PSoC5/LIN_1.c ****                                                                 LIN_1_txTlDataCount) - 2u];
1633:.\Generated_Source\PSoC5/LIN_1.c ****                                                     }
1634:.\Generated_Source\PSoC5/LIN_1.c ****                                                     else
1635:.\Generated_Source\PSoC5/LIN_1.c ****                                                     {
1636:.\Generated_Source\PSoC5/LIN_1.c ****                                                         /* Fill unused data bytes with FFs */
1637:.\Generated_Source\PSoC5/LIN_1.c ****                                                         LIN_1_srfBuffer[i] = 0xFFu;
1638:.\Generated_Source\PSoC5/LIN_1.c ****                                                     }
1639:.\Generated_Source\PSoC5/LIN_1.c ****                                                 }
1640:.\Generated_Source\PSoC5/LIN_1.c **** 
1641:.\Generated_Source\PSoC5/LIN_1.c ****                                                 /* Update the user buffer pointer */
1642:.\Generated_Source\PSoC5/LIN_1.c ****                                                 LIN_1_txTlDataCount +=
1643:.\Generated_Source\PSoC5/LIN_1.c ****                                                             LIN_1_FRAME_DATA_SIZE_6;
1644:.\Generated_Source\PSoC5/LIN_1.c **** 
1645:.\Generated_Source\PSoC5/LIN_1.c ****                                                 /* Update length pointer properly */
1646:.\Generated_Source\PSoC5/LIN_1.c ****                                                 if(LIN_1_txMessageLength >=
1647:.\Generated_Source\PSoC5/LIN_1.c ****                                                         LIN_1_FRAME_DATA_SIZE_6)
1648:.\Generated_Source\PSoC5/LIN_1.c ****                                                 {
1649:.\Generated_Source\PSoC5/LIN_1.c ****                                                     LIN_1_txMessageLength -=
1650:.\Generated_Source\PSoC5/LIN_1.c ****                                                         LIN_1_FRAME_DATA_SIZE_6;
1651:.\Generated_Source\PSoC5/LIN_1.c ****                                                 }
1652:.\Generated_Source\PSoC5/LIN_1.c ****                                                 else
1653:.\Generated_Source\PSoC5/LIN_1.c ****                                                 {
1654:.\Generated_Source\PSoC5/LIN_1.c ****                                                     LIN_1_txMessageLength = 0u;
1655:.\Generated_Source\PSoC5/LIN_1.c ****                                                 }
ARM GAS  C:\Users\MATSUD~1\AppData\Local\Temp\ccLjdAaK.s 			page 57


1656:.\Generated_Source\PSoC5/LIN_1.c ****                                             }
1657:.\Generated_Source\PSoC5/LIN_1.c **** 
1658:.\Generated_Source\PSoC5/LIN_1.c ****                                             /* Update the frame counter */
1659:.\Generated_Source\PSoC5/LIN_1.c ****                                             if(LIN_1_txFrameCounter != 15u)
1660:.\Generated_Source\PSoC5/LIN_1.c ****                                             {
1661:.\Generated_Source\PSoC5/LIN_1.c ****                                                 LIN_1_txFrameCounter++;
1662:.\Generated_Source\PSoC5/LIN_1.c ****                                             }
1663:.\Generated_Source\PSoC5/LIN_1.c ****                                             else
1664:.\Generated_Source\PSoC5/LIN_1.c ****                                             {
1665:.\Generated_Source\PSoC5/LIN_1.c ****                                                 /* If frame counter is larger then 15 then reset it
1666:.\Generated_Source\PSoC5/LIN_1.c ****                                                 LIN_1_txFrameCounter = 0u;
1667:.\Generated_Source\PSoC5/LIN_1.c ****                                             }
1668:.\Generated_Source\PSoC5/LIN_1.c ****                                         }
1669:.\Generated_Source\PSoC5/LIN_1.c **** 
1670:.\Generated_Source\PSoC5/LIN_1.c ****                                         /* Frame equals 8 bytes */
1671:.\Generated_Source\PSoC5/LIN_1.c ****                                         LIN_1_frameSize = LIN_1_FRAME_DATA_SIZE_8;
1672:.\Generated_Source\PSoC5/LIN_1.c **** 
1673:.\Generated_Source\PSoC5/LIN_1.c ****                                         /* Set frame data pointer to a start of a frame buffer */
1674:.\Generated_Source\PSoC5/LIN_1.c ****                                         LIN_1_frameData = LIN_1_srfBuffer;
1675:.\Generated_Source\PSoC5/LIN_1.c **** 
1676:.\Generated_Source\PSoC5/LIN_1.c ****                                         /* Send first byte to the LIN master */
1677:.\Generated_Source\PSoC5/LIN_1.c ****                                         LIN_1_tmpData = *LIN_1_frameData;
1678:.\Generated_Source\PSoC5/LIN_1.c ****                                         LIN_1_frameData++;
1679:.\Generated_Source\PSoC5/LIN_1.c ****                                         LIN_1_UART_WriteTxData(LIN_1_tmpData);
1680:.\Generated_Source\PSoC5/LIN_1.c ****                                         LIN_1_bytesTransferred = 1u;
1681:.\Generated_Source\PSoC5/LIN_1.c **** 
1682:.\Generated_Source\PSoC5/LIN_1.c ****                                         /* Switch to the publish data state. */
1683:.\Generated_Source\PSoC5/LIN_1.c ****                                         LIN_1_uartFsmState = LIN_1_UART_ISR_STATE_2_TX;
1684:.\Generated_Source\PSoC5/LIN_1.c ****                                     }
1685:.\Generated_Source\PSoC5/LIN_1.c ****                                     else
1686:.\Generated_Source\PSoC5/LIN_1.c ****                                     {
1687:.\Generated_Source\PSoC5/LIN_1.c ****                                         /* Reset UART State Machine */
1688:.\Generated_Source\PSoC5/LIN_1.c ****                                         LIN_1_EndFrame(LIN_1_HANDLING_RESET_FSM_ERR);
1689:.\Generated_Source\PSoC5/LIN_1.c ****                                     }
1690:.\Generated_Source\PSoC5/LIN_1.c **** 
1691:.\Generated_Source\PSoC5/LIN_1.c ****                                 #else
1692:.\Generated_Source\PSoC5/LIN_1.c **** 
1693:.\Generated_Source\PSoC5/LIN_1.c ****                                     /***************************************************
1694:.\Generated_Source\PSoC5/LIN_1.c ****                                     *                     Raw API
1695:.\Generated_Source\PSoC5/LIN_1.c ****                                     ***************************************************/
1696:.\Generated_Source\PSoC5/LIN_1.c **** 
1697:.\Generated_Source\PSoC5/LIN_1.c ****                                     if(0u != LIN_1_txBufDepth)
1698:.\Generated_Source\PSoC5/LIN_1.c ****                                     {
1699:.\Generated_Source\PSoC5/LIN_1.c ****                                         /* Fill the frame buffer from SRF*/
1700:.\Generated_Source\PSoC5/LIN_1.c ****                                         for(i = 0u; i < LIN_1_FRAME_DATA_SIZE_8; i++)
1701:.\Generated_Source\PSoC5/LIN_1.c ****                                         {
1702:.\Generated_Source\PSoC5/LIN_1.c ****                                             LIN_1_srfBuffer[i] =
1703:.\Generated_Source\PSoC5/LIN_1.c ****                                                 LIN_1_rawTxQueue[LIN_1_txRdIndex];
1704:.\Generated_Source\PSoC5/LIN_1.c **** 
1705:.\Generated_Source\PSoC5/LIN_1.c ****                                             /* Update the index to TX queue */
1706:.\Generated_Source\PSoC5/LIN_1.c ****                                             LIN_1_txRdIndex++;
1707:.\Generated_Source\PSoC5/LIN_1.c ****                                         }
1708:.\Generated_Source\PSoC5/LIN_1.c **** 
1709:.\Generated_Source\PSoC5/LIN_1.c ****                                         /* Read index should point to the next byte in MRF */
1710:.\Generated_Source\PSoC5/LIN_1.c ****                                         if(LIN_1_TL_TX_QUEUE_LEN == LIN_1_txRdIndex)
1711:.\Generated_Source\PSoC5/LIN_1.c ****                                         {
1712:.\Generated_Source\PSoC5/LIN_1.c ****                                             LIN_1_txRdIndex = 0u;
ARM GAS  C:\Users\MATSUD~1\AppData\Local\Temp\ccLjdAaK.s 			page 58


1713:.\Generated_Source\PSoC5/LIN_1.c ****                                         }
1714:.\Generated_Source\PSoC5/LIN_1.c **** 
1715:.\Generated_Source\PSoC5/LIN_1.c ****                                         /* 8 bytes were read from the SRF so decrement the buffer d
1716:.\Generated_Source\PSoC5/LIN_1.c ****                                         LIN_1_txBufDepth--;
1717:.\Generated_Source\PSoC5/LIN_1.c **** 
1718:.\Generated_Source\PSoC5/LIN_1.c ****                                         /* Update status properly */
1719:.\Generated_Source\PSoC5/LIN_1.c ****                                         if(0u == LIN_1_txBufDepth)
1720:.\Generated_Source\PSoC5/LIN_1.c ****                                         {
1721:.\Generated_Source\PSoC5/LIN_1.c ****                                             LIN_1_txTlStatus = LD_QUEUE_EMPTY;
1722:.\Generated_Source\PSoC5/LIN_1.c ****                                         }
1723:.\Generated_Source\PSoC5/LIN_1.c ****                                         else
1724:.\Generated_Source\PSoC5/LIN_1.c ****                                         {
1725:.\Generated_Source\PSoC5/LIN_1.c ****                                             LIN_1_txTlStatus = LD_QUEUE_AVAILABLE;
1726:.\Generated_Source\PSoC5/LIN_1.c ****                                         }
1727:.\Generated_Source\PSoC5/LIN_1.c **** 
1728:.\Generated_Source\PSoC5/LIN_1.c ****                                         /* Frame equals 8 bytes */
1729:.\Generated_Source\PSoC5/LIN_1.c ****                                         LIN_1_frameSize = LIN_1_FRAME_DATA_SIZE_8;
1730:.\Generated_Source\PSoC5/LIN_1.c **** 
1731:.\Generated_Source\PSoC5/LIN_1.c ****                                         /* Set frame data pointer to a start of a frame buffer */
1732:.\Generated_Source\PSoC5/LIN_1.c ****                                         LIN_1_frameData = LIN_1_srfBuffer;
1733:.\Generated_Source\PSoC5/LIN_1.c **** 
1734:.\Generated_Source\PSoC5/LIN_1.c ****                                         /* Send first byte to the LIN master */
1735:.\Generated_Source\PSoC5/LIN_1.c ****                                         LIN_1_tmpData = *LIN_1_frameData;
1736:.\Generated_Source\PSoC5/LIN_1.c ****                                         LIN_1_frameData++;
1737:.\Generated_Source\PSoC5/LIN_1.c ****                                         LIN_1_UART_WriteTxData(LIN_1_tmpData);
1738:.\Generated_Source\PSoC5/LIN_1.c ****                                         LIN_1_bytesTransferred = 1u;
1739:.\Generated_Source\PSoC5/LIN_1.c **** 
1740:.\Generated_Source\PSoC5/LIN_1.c ****                                         /* Switch to the publish data state. */
1741:.\Generated_Source\PSoC5/LIN_1.c ****                                         LIN_1_uartFsmState = LIN_1_UART_ISR_STATE_2_TX;
1742:.\Generated_Source\PSoC5/LIN_1.c ****                                     }
1743:.\Generated_Source\PSoC5/LIN_1.c ****                                     else
1744:.\Generated_Source\PSoC5/LIN_1.c ****                                     {
1745:.\Generated_Source\PSoC5/LIN_1.c ****                                         /* Reset UART State Machine */
1746:.\Generated_Source\PSoC5/LIN_1.c ****                                         LIN_1_EndFrame(LIN_1_HANDLING_RESET_FSM_ERR);
1747:.\Generated_Source\PSoC5/LIN_1.c ****                                     }
1748:.\Generated_Source\PSoC5/LIN_1.c **** 
1749:.\Generated_Source\PSoC5/LIN_1.c ****                                 #endif /* (1u == LIN_1_TL_API_FORMAT) */
1750:.\Generated_Source\PSoC5/LIN_1.c ****                             }
1751:.\Generated_Source\PSoC5/LIN_1.c **** 
1752:.\Generated_Source\PSoC5/LIN_1.c **** 
1753:.\Generated_Source\PSoC5/LIN_1.c ****                         }
1754:.\Generated_Source\PSoC5/LIN_1.c **** 
1755:.\Generated_Source\PSoC5/LIN_1.c ****                     #else
1756:.\Generated_Source\PSoC5/LIN_1.c **** 
1757:.\Generated_Source\PSoC5/LIN_1.c ****                         /* These are invalid PIDs when TL is disabled - reset UART state machine */
1758:.\Generated_Source\PSoC5/LIN_1.c **** 
1759:.\Generated_Source\PSoC5/LIN_1.c ****                         /* Set response error */
1760:.\Generated_Source\PSoC5/LIN_1.c ****                         LIN_1_ifcStatus |= LIN_1_IFC_STS_ERROR_IN_RESPONSE;
1761:.\Generated_Source\PSoC5/LIN_1.c **** 
1762:.\Generated_Source\PSoC5/LIN_1.c ****                         #if(1u == LIN_1_SAE_J2602)
1763:.\Generated_Source\PSoC5/LIN_1.c **** 
1764:.\Generated_Source\PSoC5/LIN_1.c ****                             /* Set ERR2, ERR1 and ERR0 bits */
1765:.\Generated_Source\PSoC5/LIN_1.c ****                             LIN_1_j2602Status |= LIN_1_J2602_STS_PARITY_ERR;
1766:.\Generated_Source\PSoC5/LIN_1.c **** 
1767:.\Generated_Source\PSoC5/LIN_1.c ****                         #endif /* (1u == LIN_1_SAE_J2602) */
1768:.\Generated_Source\PSoC5/LIN_1.c **** 
1769:.\Generated_Source\PSoC5/LIN_1.c ****                         
ARM GAS  C:\Users\MATSUD~1\AppData\Local\Temp\ccLjdAaK.s 			page 59


1770:.\Generated_Source\PSoC5/LIN_1.c ****     /* Save current global interrupt enable and disable it */
1771:.\Generated_Source\PSoC5/LIN_1.c ****     interruptState = CyEnterCriticalSection();
1772:.\Generated_Source\PSoC5/LIN_1.c **** 
1773:.\Generated_Source\PSoC5/LIN_1.c ****         LIN_1_Buffer_Frame1[LIN_1_Response_Error_Frame1_SIG_BYTE_OFFSET] |= 
1774:.\Generated_Source\PSoC5/LIN_1.c ****                             LIN_1_Response_Error_Frame1_SIG_MASK_0;
1775:.\Generated_Source\PSoC5/LIN_1.c **** 
1776:.\Generated_Source\PSoC5/LIN_1.c ****     /* Restore global interrupt enable state */
1777:.\Generated_Source\PSoC5/LIN_1.c ****     CyExitCriticalSection(interruptState);
1778:.\Generated_Source\PSoC5/LIN_1.c **** 
1779:.\Generated_Source\PSoC5/LIN_1.c **** 
1780:.\Generated_Source\PSoC5/LIN_1.c ****                         /* Reset UART State Machine */
1781:.\Generated_Source\PSoC5/LIN_1.c ****                         LIN_1_EndFrame(LIN_1_HANDLING_RESET_FSM_ERR);
1782:.\Generated_Source\PSoC5/LIN_1.c **** 
1783:.\Generated_Source\PSoC5/LIN_1.c ****                     #endif /* (1u == LIN_1_TL_ENABLED) */
1784:.\Generated_Source\PSoC5/LIN_1.c ****                 }
1785:.\Generated_Source\PSoC5/LIN_1.c ****                 else    /* Not MRF and SRF */
1786:.\Generated_Source\PSoC5/LIN_1.c ****                 {
1787:.\Generated_Source\PSoC5/LIN_1.c ****                     /* Get PID index in LIN_1_pidInfoTable */
1788:.\Generated_Source\PSoC5/LIN_1.c ****                     LIN_1_pidIndex = LIN_1_FindPidIndex(LIN_1_framePid);
1789:.\Generated_Source\PSoC5/LIN_1.c **** 
1790:.\Generated_Source\PSoC5/LIN_1.c ****                     if(LIN_1_INVALID_FRAME_PID != LIN_1_pidIndex)
1791:.\Generated_Source\PSoC5/LIN_1.c ****                     {
1792:.\Generated_Source\PSoC5/LIN_1.c ****                         /* Valid ID */
1793:.\Generated_Source\PSoC5/LIN_1.c **** 
1794:.\Generated_Source\PSoC5/LIN_1.c ****                         /* Start enhanced checksum calculation  */
1795:.\Generated_Source\PSoC5/LIN_1.c ****                         LIN_1_interimChecksum = LIN_1_framePid;
1796:.\Generated_Source\PSoC5/LIN_1.c **** 
1797:.\Generated_Source\PSoC5/LIN_1.c ****                         /* Get size of frame */
1798:.\Generated_Source\PSoC5/LIN_1.c ****                         LIN_1_frameSize = LIN_1_pidInfoTable[LIN_1_pidIndex].param &
1799:.\Generated_Source\PSoC5/LIN_1.c ****                                                         LIN_1_FRAME_DATA_SIZE_MASK;
1800:.\Generated_Source\PSoC5/LIN_1.c **** 
1801:.\Generated_Source\PSoC5/LIN_1.c ****                         /* TX response (publish action) was requested by Master */
1802:.\Generated_Source\PSoC5/LIN_1.c ****                         if(0u != (LIN_1_FRAME_DIR_PUBLISH &
1803:.\Generated_Source\PSoC5/LIN_1.c ****                                  LIN_1_pidInfoTable[LIN_1_pidIndex].param))
1804:.\Generated_Source\PSoC5/LIN_1.c ****                         {
1805:.\Generated_Source\PSoC5/LIN_1.c ****                             /* SAE J2602 is disabled */
1806:.\Generated_Source\PSoC5/LIN_1.c ****                             #if(0u == LIN_1_SAE_J2602)
1807:.\Generated_Source\PSoC5/LIN_1.c **** 
1808:.\Generated_Source\PSoC5/LIN_1.c ****                                 /* This frame is event-triggered */
1809:.\Generated_Source\PSoC5/LIN_1.c ****                                 if(0u  != (LIN_1_FRAME_TYPE_EVENT &
1810:.\Generated_Source\PSoC5/LIN_1.c ****                                            LIN_1_pidInfoTable[LIN_1_pidIndex].param))
1811:.\Generated_Source\PSoC5/LIN_1.c ****                                 {
1812:.\Generated_Source\PSoC5/LIN_1.c ****                                     /* Check do we need to process event-triggered frame */
1813:.\Generated_Source\PSoC5/LIN_1.c ****                                     if(0u == LIN_1_GetEtFlagValue(LIN_1_pidIndex))
1814:.\Generated_Source\PSoC5/LIN_1.c ****                                     {
1815:.\Generated_Source\PSoC5/LIN_1.c ****                                         /* Reset UART State Machine */
1816:.\Generated_Source\PSoC5/LIN_1.c ****                                         LIN_1_EndFrame(LIN_1_HANDLING_RESET_FSM_ERR);
1817:.\Generated_Source\PSoC5/LIN_1.c ****                                     }
1818:.\Generated_Source\PSoC5/LIN_1.c ****                                 }
1819:.\Generated_Source\PSoC5/LIN_1.c **** 
1820:.\Generated_Source\PSoC5/LIN_1.c ****                             #endif /* (0u == LIN_1_SAE_J2602) */
1821:.\Generated_Source\PSoC5/LIN_1.c **** 
1822:.\Generated_Source\PSoC5/LIN_1.c ****                             /* Get pointer to the frame data */
1823:.\Generated_Source\PSoC5/LIN_1.c ****                             LIN_1_frameData =
1824:.\Generated_Source\PSoC5/LIN_1.c ****                                 LIN_1_pidInfoTable[LIN_1_pidIndex].dataPtr;
1825:.\Generated_Source\PSoC5/LIN_1.c **** 
1826:.\Generated_Source\PSoC5/LIN_1.c ****                             /* Send first byte to the LIN master */
ARM GAS  C:\Users\MATSUD~1\AppData\Local\Temp\ccLjdAaK.s 			page 60


1827:.\Generated_Source\PSoC5/LIN_1.c ****                             LIN_1_tmpData = *LIN_1_frameData;
1828:.\Generated_Source\PSoC5/LIN_1.c ****                             LIN_1_frameData++;
1829:.\Generated_Source\PSoC5/LIN_1.c ****                             LIN_1_UART_WriteTxData(LIN_1_tmpData);
1830:.\Generated_Source\PSoC5/LIN_1.c ****                             LIN_1_bytesTransferred = 1u;
1831:.\Generated_Source\PSoC5/LIN_1.c **** 
1832:.\Generated_Source\PSoC5/LIN_1.c ****                             /* Switch to the publish data state. */
1833:.\Generated_Source\PSoC5/LIN_1.c ****                             LIN_1_uartFsmState = LIN_1_UART_ISR_STATE_2_TX;
1834:.\Generated_Source\PSoC5/LIN_1.c **** 
1835:.\Generated_Source\PSoC5/LIN_1.c ****                         }
1836:.\Generated_Source\PSoC5/LIN_1.c ****                         else    /* RX response (subscribe action) was requested by Master */
1837:.\Generated_Source\PSoC5/LIN_1.c ****                         {
1838:.\Generated_Source\PSoC5/LIN_1.c ****                             /* Get pointer to the temp RX frame data buffer */
1839:.\Generated_Source\PSoC5/LIN_1.c ****                             LIN_1_frameData = LIN_1_tmpRxFrameData;
1840:.\Generated_Source\PSoC5/LIN_1.c **** 
1841:.\Generated_Source\PSoC5/LIN_1.c ****                             /* Switch to the subscribe data state. */
1842:.\Generated_Source\PSoC5/LIN_1.c ****                             LIN_1_uartFsmState = LIN_1_UART_ISR_STATE_3_RX;
1843:.\Generated_Source\PSoC5/LIN_1.c ****                         }
1844:.\Generated_Source\PSoC5/LIN_1.c ****                     }
1845:.\Generated_Source\PSoC5/LIN_1.c ****                     else    /* Invalid ID */
1846:.\Generated_Source\PSoC5/LIN_1.c ****                     {
1847:.\Generated_Source\PSoC5/LIN_1.c ****                         /* Set response error */
1848:.\Generated_Source\PSoC5/LIN_1.c ****                         LIN_1_ifcStatus |= LIN_1_IFC_STS_ERROR_IN_RESPONSE;
1849:.\Generated_Source\PSoC5/LIN_1.c **** 
1850:.\Generated_Source\PSoC5/LIN_1.c ****                         #if(1u == LIN_1_SAE_J2602)
1851:.\Generated_Source\PSoC5/LIN_1.c **** 
1852:.\Generated_Source\PSoC5/LIN_1.c ****                             /* Set data error bit */
1853:.\Generated_Source\PSoC5/LIN_1.c ****                             LIN_1_j2602Status |= LIN_1_J2602_STS_DATA_ERR;
1854:.\Generated_Source\PSoC5/LIN_1.c **** 
1855:.\Generated_Source\PSoC5/LIN_1.c ****                         #endif /* (1u == LIN_1_SAE_J2602) */
1856:.\Generated_Source\PSoC5/LIN_1.c **** 
1857:.\Generated_Source\PSoC5/LIN_1.c ****                         
1858:.\Generated_Source\PSoC5/LIN_1.c ****     /* Save current global interrupt enable and disable it */
1859:.\Generated_Source\PSoC5/LIN_1.c ****     interruptState = CyEnterCriticalSection();
1860:.\Generated_Source\PSoC5/LIN_1.c **** 
1861:.\Generated_Source\PSoC5/LIN_1.c ****         LIN_1_Buffer_Frame1[LIN_1_Response_Error_Frame1_SIG_BYTE_OFFSET] |= 
1862:.\Generated_Source\PSoC5/LIN_1.c ****                             LIN_1_Response_Error_Frame1_SIG_MASK_0;
1863:.\Generated_Source\PSoC5/LIN_1.c **** 
1864:.\Generated_Source\PSoC5/LIN_1.c ****     /* Restore global interrupt enable state */
1865:.\Generated_Source\PSoC5/LIN_1.c ****     CyExitCriticalSection(interruptState);
1866:.\Generated_Source\PSoC5/LIN_1.c **** 
1867:.\Generated_Source\PSoC5/LIN_1.c **** 
1868:.\Generated_Source\PSoC5/LIN_1.c ****                         /* Reset UART State Machine */
1869:.\Generated_Source\PSoC5/LIN_1.c ****                         LIN_1_EndFrame(LIN_1_HANDLING_RESET_FSM_ERR);
1870:.\Generated_Source\PSoC5/LIN_1.c ****                     }
1871:.\Generated_Source\PSoC5/LIN_1.c ****                 }
1872:.\Generated_Source\PSoC5/LIN_1.c ****             }
1873:.\Generated_Source\PSoC5/LIN_1.c **** 
1874:.\Generated_Source\PSoC5/LIN_1.c ****         break;
 1529              		.loc 1 1874 0
 1530 0146 F9E3     		b	.L86
 1531              	.L95:
1423:.\Generated_Source\PSoC5/LIN_1.c ****                 if((LIN_1_FRAME_PID_MRF == LIN_1_framePid) ||
 1532              		.loc 1 1423 0
 1533 0148 40F20003 		movw	r3, #:lower16:LIN_1_framePid.5055
 1534 014c C0F20003 		movt	r3, #:upper16:LIN_1_framePid.5055
 1535 0150 1B78     		ldrb	r3, [r3, #0]	@ zero_extendqisi2
 1536 0152 3C2B     		cmp	r3, #60
ARM GAS  C:\Users\MATSUD~1\AppData\Local\Temp\ccLjdAaK.s 			page 61


 1537 0154 06D0     		beq	.L97
1424:.\Generated_Source\PSoC5/LIN_1.c ****                 (LIN_1_FRAME_PID_SRF == LIN_1_framePid))
 1538              		.loc 1 1424 0 discriminator 1
 1539 0156 40F20003 		movw	r3, #:lower16:LIN_1_framePid.5055
 1540 015a C0F20003 		movt	r3, #:upper16:LIN_1_framePid.5055
 1541 015e 1B78     		ldrb	r3, [r3, #0]	@ zero_extendqisi2
1423:.\Generated_Source\PSoC5/LIN_1.c ****                 if((LIN_1_FRAME_PID_MRF == LIN_1_framePid) ||
 1542              		.loc 1 1423 0 discriminator 1
 1543 0160 7D2B     		cmp	r3, #125
 1544 0162 28D1     		bne	.L98
 1545              	.L97:
1760:.\Generated_Source\PSoC5/LIN_1.c ****                         LIN_1_ifcStatus |= LIN_1_IFC_STS_ERROR_IN_RESPONSE;
 1546              		.loc 1 1760 0
 1547 0164 40F20003 		movw	r3, #:lower16:LIN_1_ifcStatus
 1548 0168 C0F20003 		movt	r3, #:upper16:LIN_1_ifcStatus
 1549 016c 1B88     		ldrh	r3, [r3, #0]	@ movhi
 1550 016e 9BB2     		uxth	r3, r3
 1551 0170 43F00103 		orr	r3, r3, #1
 1552 0174 9AB2     		uxth	r2, r3
 1553 0176 40F20003 		movw	r3, #:lower16:LIN_1_ifcStatus
 1554 017a C0F20003 		movt	r3, #:upper16:LIN_1_ifcStatus
 1555 017e 1A80     		strh	r2, [r3, #0]	@ movhi
1771:.\Generated_Source\PSoC5/LIN_1.c ****     interruptState = CyEnterCriticalSection();
 1556              		.loc 1 1771 0
 1557 0180 FFF7FEFF 		bl	CyEnterCriticalSection
 1558 0184 0346     		mov	r3, r0
 1559 0186 BB71     		strb	r3, [r7, #6]
1773:.\Generated_Source\PSoC5/LIN_1.c ****         LIN_1_Buffer_Frame1[LIN_1_Response_Error_Frame1_SIG_BYTE_OFFSET] |= 
 1560              		.loc 1 1773 0
 1561 0188 40F20003 		movw	r3, #:lower16:LIN_1_Buffer_Frame1
 1562 018c C0F20003 		movt	r3, #:upper16:LIN_1_Buffer_Frame1
 1563 0190 1B78     		ldrb	r3, [r3, #0]
 1564 0192 DBB2     		uxtb	r3, r3
 1565 0194 43F00403 		orr	r3, r3, #4
 1566 0198 DAB2     		uxtb	r2, r3
 1567 019a 40F20003 		movw	r3, #:lower16:LIN_1_Buffer_Frame1
 1568 019e C0F20003 		movt	r3, #:upper16:LIN_1_Buffer_Frame1
 1569 01a2 1A70     		strb	r2, [r3, #0]
1777:.\Generated_Source\PSoC5/LIN_1.c ****     CyExitCriticalSection(interruptState);
 1570              		.loc 1 1777 0
 1571 01a4 BB79     		ldrb	r3, [r7, #6]	@ zero_extendqisi2
 1572 01a6 1846     		mov	r0, r3
 1573 01a8 FFF7FEFF 		bl	CyExitCriticalSection
1781:.\Generated_Source\PSoC5/LIN_1.c ****                         LIN_1_EndFrame(LIN_1_HANDLING_RESET_FSM_ERR);
 1574              		.loc 1 1781 0
 1575 01ac 4FF00100 		mov	r0, #1
 1576 01b0 FFF7FEFF 		bl	LIN_1_EndFrame
 1577              		.loc 1 1874 0
 1578 01b4 C2E3     		b	.L86
 1579              	.L98:
1788:.\Generated_Source\PSoC5/LIN_1.c ****                     LIN_1_pidIndex = LIN_1_FindPidIndex(LIN_1_framePid);
 1580              		.loc 1 1788 0
 1581 01b6 40F20003 		movw	r3, #:lower16:LIN_1_framePid.5055
 1582 01ba C0F20003 		movt	r3, #:upper16:LIN_1_framePid.5055
 1583 01be 1B78     		ldrb	r3, [r3, #0]	@ zero_extendqisi2
 1584 01c0 1846     		mov	r0, r3
 1585 01c2 FFF7FEFF 		bl	LIN_1_FindPidIndex
ARM GAS  C:\Users\MATSUD~1\AppData\Local\Temp\ccLjdAaK.s 			page 62


 1586 01c6 0346     		mov	r3, r0
 1587 01c8 1A46     		mov	r2, r3
 1588 01ca 40F20003 		movw	r3, #:lower16:LIN_1_pidIndex.5059
 1589 01ce C0F20003 		movt	r3, #:upper16:LIN_1_pidIndex.5059
 1590 01d2 1A70     		strb	r2, [r3, #0]
1790:.\Generated_Source\PSoC5/LIN_1.c ****                     if(LIN_1_INVALID_FRAME_PID != LIN_1_pidIndex)
 1591              		.loc 1 1790 0
 1592 01d4 40F20003 		movw	r3, #:lower16:LIN_1_pidIndex.5059
 1593 01d8 C0F20003 		movt	r3, #:upper16:LIN_1_pidIndex.5059
 1594 01dc 1B78     		ldrb	r3, [r3, #0]	@ zero_extendqisi2
 1595 01de FF2B     		cmp	r3, #255
 1596 01e0 00F0A280 		beq	.L99
1795:.\Generated_Source\PSoC5/LIN_1.c ****                         LIN_1_interimChecksum = LIN_1_framePid;
 1597              		.loc 1 1795 0
 1598 01e4 40F20003 		movw	r3, #:lower16:LIN_1_framePid.5055
 1599 01e8 C0F20003 		movt	r3, #:upper16:LIN_1_framePid.5055
 1600 01ec 1B78     		ldrb	r3, [r3, #0]	@ zero_extendqisi2
 1601 01ee 1A46     		mov	r2, r3
 1602 01f0 40F20003 		movw	r3, #:lower16:LIN_1_interimChecksum.5054
 1603 01f4 C0F20003 		movt	r3, #:upper16:LIN_1_interimChecksum.5054
 1604 01f8 1A80     		strh	r2, [r3, #0]	@ movhi
1798:.\Generated_Source\PSoC5/LIN_1.c ****                         LIN_1_frameSize = LIN_1_pidInfoTable[LIN_1_pidIndex].param &
 1605              		.loc 1 1798 0
 1606 01fa 40F20003 		movw	r3, #:lower16:LIN_1_pidIndex.5059
 1607 01fe C0F20003 		movt	r3, #:upper16:LIN_1_pidIndex.5059
 1608 0202 1B78     		ldrb	r3, [r3, #0]	@ zero_extendqisi2
 1609 0204 1A46     		mov	r2, r3
 1610 0206 40F20003 		movw	r3, #:lower16:LIN_1_pidInfoTable.5063
 1611 020a C0F20003 		movt	r3, #:upper16:LIN_1_pidInfoTable.5063
 1612 020e 13F83230 		ldrb	r3, [r3, r2, lsl #3]	@ zero_extendqisi2
 1613 0212 03F00F03 		and	r3, r3, #15
 1614 0216 DAB2     		uxtb	r2, r3
 1615 0218 40F20003 		movw	r3, #:lower16:LIN_1_frameSize.5056
 1616 021c C0F20003 		movt	r3, #:upper16:LIN_1_frameSize.5056
 1617 0220 1A70     		strb	r2, [r3, #0]
1803:.\Generated_Source\PSoC5/LIN_1.c ****                                  LIN_1_pidInfoTable[LIN_1_pidIndex].param))
 1618              		.loc 1 1803 0
 1619 0222 40F20003 		movw	r3, #:lower16:LIN_1_pidIndex.5059
 1620 0226 C0F20003 		movt	r3, #:upper16:LIN_1_pidIndex.5059
 1621 022a 1B78     		ldrb	r3, [r3, #0]	@ zero_extendqisi2
 1622 022c 1A46     		mov	r2, r3
 1623 022e 40F20003 		movw	r3, #:lower16:LIN_1_pidInfoTable.5063
 1624 0232 C0F20003 		movt	r3, #:upper16:LIN_1_pidInfoTable.5063
 1625 0236 13F83230 		ldrb	r3, [r3, r2, lsl #3]	@ zero_extendqisi2
1802:.\Generated_Source\PSoC5/LIN_1.c ****                         if(0u != (LIN_1_FRAME_DIR_PUBLISH &
 1626              		.loc 1 1802 0
 1627 023a 03F01003 		and	r3, r3, #16
 1628 023e DBB2     		uxtb	r3, r3
 1629 0240 002B     		cmp	r3, #0
 1630 0242 60D0     		beq	.L100
1810:.\Generated_Source\PSoC5/LIN_1.c ****                                            LIN_1_pidInfoTable[LIN_1_pidIndex].param))
 1631              		.loc 1 1810 0
 1632 0244 40F20003 		movw	r3, #:lower16:LIN_1_pidIndex.5059
 1633 0248 C0F20003 		movt	r3, #:upper16:LIN_1_pidIndex.5059
 1634 024c 1B78     		ldrb	r3, [r3, #0]	@ zero_extendqisi2
 1635 024e 1A46     		mov	r2, r3
 1636 0250 40F20003 		movw	r3, #:lower16:LIN_1_pidInfoTable.5063
ARM GAS  C:\Users\MATSUD~1\AppData\Local\Temp\ccLjdAaK.s 			page 63


 1637 0254 C0F20003 		movt	r3, #:upper16:LIN_1_pidInfoTable.5063
 1638 0258 13F83230 		ldrb	r3, [r3, r2, lsl #3]	@ zero_extendqisi2
1809:.\Generated_Source\PSoC5/LIN_1.c ****                                 if(0u  != (LIN_1_FRAME_TYPE_EVENT &
 1639              		.loc 1 1809 0
 1640 025c 03F02003 		and	r3, r3, #32
 1641 0260 DBB2     		uxtb	r3, r3
 1642 0262 002B     		cmp	r3, #0
 1643 0264 0ED0     		beq	.L101
1813:.\Generated_Source\PSoC5/LIN_1.c ****                                     if(0u == LIN_1_GetEtFlagValue(LIN_1_pidIndex))
 1644              		.loc 1 1813 0
 1645 0266 40F20003 		movw	r3, #:lower16:LIN_1_pidIndex.5059
 1646 026a C0F20003 		movt	r3, #:upper16:LIN_1_pidIndex.5059
 1647 026e 1B78     		ldrb	r3, [r3, #0]	@ zero_extendqisi2
 1648 0270 1846     		mov	r0, r3
 1649 0272 FFF7FEFF 		bl	LIN_1_GetEtFlagValue
 1650 0276 0346     		mov	r3, r0
 1651 0278 002B     		cmp	r3, #0
 1652 027a 03D1     		bne	.L101
1816:.\Generated_Source\PSoC5/LIN_1.c ****                                         LIN_1_EndFrame(LIN_1_HANDLING_RESET_FSM_ERR);
 1653              		.loc 1 1816 0
 1654 027c 4FF00100 		mov	r0, #1
 1655 0280 FFF7FEFF 		bl	LIN_1_EndFrame
 1656              	.L101:
1824:.\Generated_Source\PSoC5/LIN_1.c ****                                 LIN_1_pidInfoTable[LIN_1_pidIndex].dataPtr;
 1657              		.loc 1 1824 0
 1658 0284 40F20003 		movw	r3, #:lower16:LIN_1_pidIndex.5059
 1659 0288 C0F20003 		movt	r3, #:upper16:LIN_1_pidIndex.5059
 1660 028c 1B78     		ldrb	r3, [r3, #0]	@ zero_extendqisi2
 1661 028e 40F20002 		movw	r2, #:lower16:LIN_1_pidInfoTable.5063
 1662 0292 C0F20002 		movt	r2, #:upper16:LIN_1_pidInfoTable.5063
 1663 0296 4FEAC303 		lsl	r3, r3, #3
 1664 029a D318     		adds	r3, r2, r3
 1665 029c 5A68     		ldr	r2, [r3, #4]
1823:.\Generated_Source\PSoC5/LIN_1.c ****                             LIN_1_frameData =
 1666              		.loc 1 1823 0
 1667 029e 40F20003 		movw	r3, #:lower16:LIN_1_frameData.5061
 1668 02a2 C0F20003 		movt	r3, #:upper16:LIN_1_frameData.5061
 1669 02a6 1A60     		str	r2, [r3, #0]
1827:.\Generated_Source\PSoC5/LIN_1.c ****                             LIN_1_tmpData = *LIN_1_frameData;
 1670              		.loc 1 1827 0
 1671 02a8 40F20003 		movw	r3, #:lower16:LIN_1_frameData.5061
 1672 02ac C0F20003 		movt	r3, #:upper16:LIN_1_frameData.5061
 1673 02b0 1B68     		ldr	r3, [r3, #0]
 1674 02b2 1B78     		ldrb	r3, [r3, #0]
 1675 02b4 DAB2     		uxtb	r2, r3
 1676 02b6 40F20003 		movw	r3, #:lower16:LIN_1_tmpData.5058
 1677 02ba C0F20003 		movt	r3, #:upper16:LIN_1_tmpData.5058
 1678 02be 1A70     		strb	r2, [r3, #0]
1828:.\Generated_Source\PSoC5/LIN_1.c ****                             LIN_1_frameData++;
 1679              		.loc 1 1828 0
 1680 02c0 40F20003 		movw	r3, #:lower16:LIN_1_frameData.5061
 1681 02c4 C0F20003 		movt	r3, #:upper16:LIN_1_frameData.5061
 1682 02c8 1B68     		ldr	r3, [r3, #0]
 1683 02ca 03F10102 		add	r2, r3, #1
 1684 02ce 40F20003 		movw	r3, #:lower16:LIN_1_frameData.5061
 1685 02d2 C0F20003 		movt	r3, #:upper16:LIN_1_frameData.5061
 1686 02d6 1A60     		str	r2, [r3, #0]
ARM GAS  C:\Users\MATSUD~1\AppData\Local\Temp\ccLjdAaK.s 			page 64


1829:.\Generated_Source\PSoC5/LIN_1.c ****                             LIN_1_UART_WriteTxData(LIN_1_tmpData);
 1687              		.loc 1 1829 0
 1688 02d8 40F20003 		movw	r3, #:lower16:LIN_1_tmpData.5058
 1689 02dc C0F20003 		movt	r3, #:upper16:LIN_1_tmpData.5058
 1690 02e0 1B78     		ldrb	r3, [r3, #0]	@ zero_extendqisi2
 1691 02e2 1846     		mov	r0, r3
 1692 02e4 FFF7FEFF 		bl	LIN_1_UART_WriteTxData
1830:.\Generated_Source\PSoC5/LIN_1.c ****                             LIN_1_bytesTransferred = 1u;
 1693              		.loc 1 1830 0
 1694 02e8 40F20003 		movw	r3, #:lower16:LIN_1_bytesTransferred.5057
 1695 02ec C0F20003 		movt	r3, #:upper16:LIN_1_bytesTransferred.5057
 1696 02f0 4FF00102 		mov	r2, #1
 1697 02f4 1A70     		strb	r2, [r3, #0]
1833:.\Generated_Source\PSoC5/LIN_1.c ****                             LIN_1_uartFsmState = LIN_1_UART_ISR_STATE_2_TX;
 1698              		.loc 1 1833 0
 1699 02f6 40F20003 		movw	r3, #:lower16:LIN_1_uartFsmState
 1700 02fa C0F20003 		movt	r3, #:upper16:LIN_1_uartFsmState
 1701 02fe 4FF00202 		mov	r2, #2
 1702 0302 1A70     		strb	r2, [r3, #0]
 1703              		.loc 1 1874 0
 1704 0304 1AE3     		b	.L86
 1705              	.L100:
1839:.\Generated_Source\PSoC5/LIN_1.c ****                             LIN_1_frameData = LIN_1_tmpRxFrameData;
 1706              		.loc 1 1839 0
 1707 0306 40F20003 		movw	r3, #:lower16:LIN_1_frameData.5061
 1708 030a C0F20003 		movt	r3, #:upper16:LIN_1_frameData.5061
 1709 030e 40F20002 		movw	r2, #:lower16:LIN_1_tmpRxFrameData.5060
 1710 0312 C0F20002 		movt	r2, #:upper16:LIN_1_tmpRxFrameData.5060
 1711 0316 1A60     		str	r2, [r3, #0]
1842:.\Generated_Source\PSoC5/LIN_1.c ****                             LIN_1_uartFsmState = LIN_1_UART_ISR_STATE_3_RX;
 1712              		.loc 1 1842 0
 1713 0318 40F20003 		movw	r3, #:lower16:LIN_1_uartFsmState
 1714 031c C0F20003 		movt	r3, #:upper16:LIN_1_uartFsmState
 1715 0320 4FF00302 		mov	r2, #3
 1716 0324 1A70     		strb	r2, [r3, #0]
 1717              		.loc 1 1874 0
 1718 0326 09E3     		b	.L86
 1719              	.L99:
1848:.\Generated_Source\PSoC5/LIN_1.c ****                         LIN_1_ifcStatus |= LIN_1_IFC_STS_ERROR_IN_RESPONSE;
 1720              		.loc 1 1848 0
 1721 0328 40F20003 		movw	r3, #:lower16:LIN_1_ifcStatus
 1722 032c C0F20003 		movt	r3, #:upper16:LIN_1_ifcStatus
 1723 0330 1B88     		ldrh	r3, [r3, #0]	@ movhi
 1724 0332 9BB2     		uxth	r3, r3
 1725 0334 43F00103 		orr	r3, r3, #1
 1726 0338 9AB2     		uxth	r2, r3
 1727 033a 40F20003 		movw	r3, #:lower16:LIN_1_ifcStatus
 1728 033e C0F20003 		movt	r3, #:upper16:LIN_1_ifcStatus
 1729 0342 1A80     		strh	r2, [r3, #0]	@ movhi
1859:.\Generated_Source\PSoC5/LIN_1.c ****     interruptState = CyEnterCriticalSection();
 1730              		.loc 1 1859 0
 1731 0344 FFF7FEFF 		bl	CyEnterCriticalSection
 1732 0348 0346     		mov	r3, r0
 1733 034a BB71     		strb	r3, [r7, #6]
1861:.\Generated_Source\PSoC5/LIN_1.c ****         LIN_1_Buffer_Frame1[LIN_1_Response_Error_Frame1_SIG_BYTE_OFFSET] |= 
 1734              		.loc 1 1861 0
 1735 034c 40F20003 		movw	r3, #:lower16:LIN_1_Buffer_Frame1
ARM GAS  C:\Users\MATSUD~1\AppData\Local\Temp\ccLjdAaK.s 			page 65


 1736 0350 C0F20003 		movt	r3, #:upper16:LIN_1_Buffer_Frame1
 1737 0354 1B78     		ldrb	r3, [r3, #0]
 1738 0356 DBB2     		uxtb	r3, r3
 1739 0358 43F00403 		orr	r3, r3, #4
 1740 035c DAB2     		uxtb	r2, r3
 1741 035e 40F20003 		movw	r3, #:lower16:LIN_1_Buffer_Frame1
 1742 0362 C0F20003 		movt	r3, #:upper16:LIN_1_Buffer_Frame1
 1743 0366 1A70     		strb	r2, [r3, #0]
1865:.\Generated_Source\PSoC5/LIN_1.c ****     CyExitCriticalSection(interruptState);
 1744              		.loc 1 1865 0
 1745 0368 BB79     		ldrb	r3, [r7, #6]	@ zero_extendqisi2
 1746 036a 1846     		mov	r0, r3
 1747 036c FFF7FEFF 		bl	CyExitCriticalSection
1869:.\Generated_Source\PSoC5/LIN_1.c ****                         LIN_1_EndFrame(LIN_1_HANDLING_RESET_FSM_ERR);
 1748              		.loc 1 1869 0
 1749 0370 4FF00100 		mov	r0, #1
 1750 0374 FFF7FEFF 		bl	LIN_1_EndFrame
 1751              		.loc 1 1874 0
 1752 0378 E0E2     		b	.L86
 1753              	.L91:
1875:.\Generated_Source\PSoC5/LIN_1.c **** 
1876:.\Generated_Source\PSoC5/LIN_1.c **** 
1877:.\Generated_Source\PSoC5/LIN_1.c ****         /***********************************************************************
1878:.\Generated_Source\PSoC5/LIN_1.c ****         *                       TX response (Publish)
1879:.\Generated_Source\PSoC5/LIN_1.c ****         * State description:
1880:.\Generated_Source\PSoC5/LIN_1.c ****         *  - Transmits data to LIN Master
1881:.\Generated_Source\PSoC5/LIN_1.c ****         *  - Transmits next data byte if there were no any errors
1882:.\Generated_Source\PSoC5/LIN_1.c ****         *  - Transmits checksum when data was send correctly
1883:.\Generated_Source\PSoC5/LIN_1.c ****         ***********************************************************************/
1884:.\Generated_Source\PSoC5/LIN_1.c ****         case LIN_1_UART_ISR_STATE_2_TX:
1885:.\Generated_Source\PSoC5/LIN_1.c **** 
1886:.\Generated_Source\PSoC5/LIN_1.c ****             /* Set the response active flag */
1887:.\Generated_Source\PSoC5/LIN_1.c ****             LIN_1_status |= LIN_1_STATUS_RESPONSE_ACTIVE;
 1754              		.loc 1 1887 0
 1755 037a 40F20003 		movw	r3, #:lower16:LIN_1_status
 1756 037e C0F20003 		movt	r3, #:upper16:LIN_1_status
 1757 0382 1B78     		ldrb	r3, [r3, #0]
 1758 0384 DBB2     		uxtb	r3, r3
 1759 0386 43F01003 		orr	r3, r3, #16
 1760 038a DAB2     		uxtb	r2, r3
 1761 038c 40F20003 		movw	r3, #:lower16:LIN_1_status
 1762 0390 C0F20003 		movt	r3, #:upper16:LIN_1_status
 1763 0394 1A70     		strb	r2, [r3, #0]
1888:.\Generated_Source\PSoC5/LIN_1.c **** 
1889:.\Generated_Source\PSoC5/LIN_1.c ****             /* Previously transmitted and read back bytes are not equal */
1890:.\Generated_Source\PSoC5/LIN_1.c ****             if(LIN_1_tmpData != LIN_1_UART_ReadRxData())
 1764              		.loc 1 1890 0
 1765 0396 FFF7FEFF 		bl	LIN_1_UART_ReadRxData
 1766 039a 0346     		mov	r3, r0
 1767 039c 1A46     		mov	r2, r3
 1768 039e 40F20003 		movw	r3, #:lower16:LIN_1_tmpData.5058
 1769 03a2 C0F20003 		movt	r3, #:upper16:LIN_1_tmpData.5058
 1770 03a6 1B78     		ldrb	r3, [r3, #0]	@ zero_extendqisi2
 1771 03a8 9A42     		cmp	r2, r3
 1772 03aa 65D0     		beq	.L103
1891:.\Generated_Source\PSoC5/LIN_1.c ****             {
1892:.\Generated_Source\PSoC5/LIN_1.c ****                 /* Mismatch Error */
ARM GAS  C:\Users\MATSUD~1\AppData\Local\Temp\ccLjdAaK.s 			page 66


1893:.\Generated_Source\PSoC5/LIN_1.c **** 
1894:.\Generated_Source\PSoC5/LIN_1.c ****                 #if(1u == LIN_1_SAE_J2602)
1895:.\Generated_Source\PSoC5/LIN_1.c **** 
1896:.\Generated_Source\PSoC5/LIN_1.c ****                     /* Set ERR2 bit */
1897:.\Generated_Source\PSoC5/LIN_1.c ****                     LIN_1_j2602Status |= LIN_1_J2602_STS_DATA_ERR;
1898:.\Generated_Source\PSoC5/LIN_1.c **** 
1899:.\Generated_Source\PSoC5/LIN_1.c ****                     /* Readback error - set response error flag */
1900:.\Generated_Source\PSoC5/LIN_1.c ****                     LIN_1_ifcStatus |= LIN_1_IFC_STS_ERROR_IN_RESPONSE;
1901:.\Generated_Source\PSoC5/LIN_1.c **** 
1902:.\Generated_Source\PSoC5/LIN_1.c ****                 #else
1903:.\Generated_Source\PSoC5/LIN_1.c **** 
1904:.\Generated_Source\PSoC5/LIN_1.c ****                     /* Skip event-triggered frame */
1905:.\Generated_Source\PSoC5/LIN_1.c ****                     if(0u  == (LIN_1_FRAME_TYPE_EVENT &
1906:.\Generated_Source\PSoC5/LIN_1.c ****                                LIN_1_pidInfoTable[LIN_1_pidIndex].param))
 1773              		.loc 1 1906 0
 1774 03ac 40F20003 		movw	r3, #:lower16:LIN_1_pidIndex.5059
 1775 03b0 C0F20003 		movt	r3, #:upper16:LIN_1_pidIndex.5059
 1776 03b4 1B78     		ldrb	r3, [r3, #0]	@ zero_extendqisi2
 1777 03b6 1A46     		mov	r2, r3
 1778 03b8 40F20003 		movw	r3, #:lower16:LIN_1_pidInfoTable.5063
 1779 03bc C0F20003 		movt	r3, #:upper16:LIN_1_pidInfoTable.5063
 1780 03c0 13F83230 		ldrb	r3, [r3, r2, lsl #3]	@ zero_extendqisi2
1905:.\Generated_Source\PSoC5/LIN_1.c ****                     if(0u  == (LIN_1_FRAME_TYPE_EVENT &
 1781              		.loc 1 1905 0
 1782 03c4 03F02003 		and	r3, r3, #32
 1783 03c8 DBB2     		uxtb	r3, r3
 1784 03ca 002B     		cmp	r3, #0
 1785 03cc 0DD1     		bne	.L104
1907:.\Generated_Source\PSoC5/LIN_1.c ****                     {
1908:.\Generated_Source\PSoC5/LIN_1.c ****                         /* Readback error - set response error flag */
1909:.\Generated_Source\PSoC5/LIN_1.c ****                         LIN_1_ifcStatus |= LIN_1_IFC_STS_ERROR_IN_RESPONSE;
 1786              		.loc 1 1909 0
 1787 03ce 40F20003 		movw	r3, #:lower16:LIN_1_ifcStatus
 1788 03d2 C0F20003 		movt	r3, #:upper16:LIN_1_ifcStatus
 1789 03d6 1B88     		ldrh	r3, [r3, #0]	@ movhi
 1790 03d8 9BB2     		uxth	r3, r3
 1791 03da 43F00103 		orr	r3, r3, #1
 1792 03de 9AB2     		uxth	r2, r3
 1793 03e0 40F20003 		movw	r3, #:lower16:LIN_1_ifcStatus
 1794 03e4 C0F20003 		movt	r3, #:upper16:LIN_1_ifcStatus
 1795 03e8 1A80     		strh	r2, [r3, #0]	@ movhi
 1796              	.L104:
1910:.\Generated_Source\PSoC5/LIN_1.c ****                     }
1911:.\Generated_Source\PSoC5/LIN_1.c **** 
1912:.\Generated_Source\PSoC5/LIN_1.c ****                 #endif  /* (1u == LIN_1_SAE_J2602) */
1913:.\Generated_Source\PSoC5/LIN_1.c **** 
1914:.\Generated_Source\PSoC5/LIN_1.c ****                 
1915:.\Generated_Source\PSoC5/LIN_1.c ****     /* Save current global interrupt enable and disable it */
1916:.\Generated_Source\PSoC5/LIN_1.c ****     interruptState = CyEnterCriticalSection();
 1797              		.loc 1 1916 0
 1798 03ea FFF7FEFF 		bl	CyEnterCriticalSection
 1799 03ee 0346     		mov	r3, r0
 1800 03f0 BB71     		strb	r3, [r7, #6]
1917:.\Generated_Source\PSoC5/LIN_1.c **** 
1918:.\Generated_Source\PSoC5/LIN_1.c ****         LIN_1_Buffer_Frame1[LIN_1_Response_Error_Frame1_SIG_BYTE_OFFSET] |= 
 1801              		.loc 1 1918 0
 1802 03f2 40F20003 		movw	r3, #:lower16:LIN_1_Buffer_Frame1
ARM GAS  C:\Users\MATSUD~1\AppData\Local\Temp\ccLjdAaK.s 			page 67


 1803 03f6 C0F20003 		movt	r3, #:upper16:LIN_1_Buffer_Frame1
 1804 03fa 1B78     		ldrb	r3, [r3, #0]
 1805 03fc DBB2     		uxtb	r3, r3
 1806 03fe 43F00403 		orr	r3, r3, #4
 1807 0402 DAB2     		uxtb	r2, r3
 1808 0404 40F20003 		movw	r3, #:lower16:LIN_1_Buffer_Frame1
 1809 0408 C0F20003 		movt	r3, #:upper16:LIN_1_Buffer_Frame1
 1810 040c 1A70     		strb	r2, [r3, #0]
1919:.\Generated_Source\PSoC5/LIN_1.c ****                             LIN_1_Response_Error_Frame1_SIG_MASK_0;
1920:.\Generated_Source\PSoC5/LIN_1.c **** 
1921:.\Generated_Source\PSoC5/LIN_1.c ****     /* Restore global interrupt enable state */
1922:.\Generated_Source\PSoC5/LIN_1.c ****     CyExitCriticalSection(interruptState);
 1811              		.loc 1 1922 0
 1812 040e BB79     		ldrb	r3, [r7, #6]	@ zero_extendqisi2
 1813 0410 1846     		mov	r0, r3
 1814 0412 FFF7FEFF 		bl	CyExitCriticalSection
1923:.\Generated_Source\PSoC5/LIN_1.c **** 
1924:.\Generated_Source\PSoC5/LIN_1.c **** 
1925:.\Generated_Source\PSoC5/LIN_1.c ****                 /* Check for framing error */
1926:.\Generated_Source\PSoC5/LIN_1.c ****                 if(0u == (LIN_1_fsmFlags & LIN_1_FSM_FRAMING_ERROR_FLAG))
 1815              		.loc 1 1926 0
 1816 0416 40F20003 		movw	r3, #:lower16:LIN_1_fsmFlags
 1817 041a C0F20003 		movt	r3, #:upper16:LIN_1_fsmFlags
 1818 041e 1B78     		ldrb	r3, [r3, #0]
 1819 0420 DBB2     		uxtb	r3, r3
 1820 0422 DBB2     		uxtb	r3, r3
 1821 0424 5BB2     		sxtb	r3, r3
 1822 0426 002B     		cmp	r3, #0
 1823 0428 21DB     		blt	.L105
1927:.\Generated_Source\PSoC5/LIN_1.c ****                 {
1928:.\Generated_Source\PSoC5/LIN_1.c ****                     /* Save the last processed PID on the bus to the status variable */
1929:.\Generated_Source\PSoC5/LIN_1.c ****                     LIN_1_ifcStatus &= ((l_u16) ~LIN_1_IFC_STS_PID_MASK);
 1824              		.loc 1 1929 0
 1825 042a 40F20003 		movw	r3, #:lower16:LIN_1_ifcStatus
 1826 042e C0F20003 		movt	r3, #:upper16:LIN_1_ifcStatus
 1827 0432 1B88     		ldrh	r3, [r3, #0]	@ movhi
 1828 0434 9BB2     		uxth	r3, r3
 1829 0436 DBB2     		uxtb	r3, r3
 1830 0438 9AB2     		uxth	r2, r3
 1831 043a 40F20003 		movw	r3, #:lower16:LIN_1_ifcStatus
 1832 043e C0F20003 		movt	r3, #:upper16:LIN_1_ifcStatus
 1833 0442 1A80     		strh	r2, [r3, #0]	@ movhi
1930:.\Generated_Source\PSoC5/LIN_1.c ****                     LIN_1_ifcStatus |= ((l_u16) (((l_u16)LIN_1_framePid) << 8u));
 1834              		.loc 1 1930 0
 1835 0444 40F20003 		movw	r3, #:lower16:LIN_1_framePid.5055
 1836 0448 C0F20003 		movt	r3, #:upper16:LIN_1_framePid.5055
 1837 044c 1B78     		ldrb	r3, [r3, #0]	@ zero_extendqisi2
 1838 044e 4FEA0323 		lsl	r3, r3, #8
 1839 0452 9AB2     		uxth	r2, r3
 1840 0454 40F20003 		movw	r3, #:lower16:LIN_1_ifcStatus
 1841 0458 C0F20003 		movt	r3, #:upper16:LIN_1_ifcStatus
 1842 045c 1B88     		ldrh	r3, [r3, #0]	@ movhi
 1843 045e 9BB2     		uxth	r3, r3
 1844 0460 1343     		orrs	r3, r3, r2
 1845 0462 9AB2     		uxth	r2, r3
 1846 0464 40F20003 		movw	r3, #:lower16:LIN_1_ifcStatus
 1847 0468 C0F20003 		movt	r3, #:upper16:LIN_1_ifcStatus
ARM GAS  C:\Users\MATSUD~1\AppData\Local\Temp\ccLjdAaK.s 			page 68


 1848 046c 1A80     		strh	r2, [r3, #0]	@ movhi
 1849              	.L105:
1931:.\Generated_Source\PSoC5/LIN_1.c ****                 }
1932:.\Generated_Source\PSoC5/LIN_1.c **** 
1933:.\Generated_Source\PSoC5/LIN_1.c ****                 /* End frame with response error */
1934:.\Generated_Source\PSoC5/LIN_1.c ****                 LIN_1_EndFrame(LIN_1_HANDLING_DONT_SAVE_PID);
 1850              		.loc 1 1934 0
 1851 046e 4FF01000 		mov	r0, #16
 1852 0472 FFF7FEFF 		bl	LIN_1_EndFrame
1935:.\Generated_Source\PSoC5/LIN_1.c ****             }
1936:.\Generated_Source\PSoC5/LIN_1.c ****             else    /* If readback was successful than continue transmitting */
1937:.\Generated_Source\PSoC5/LIN_1.c ****             {
1938:.\Generated_Source\PSoC5/LIN_1.c ****                 /* Add transmitted byte to the interim checksum */
1939:.\Generated_Source\PSoC5/LIN_1.c ****                 LIN_1_interimChecksum += LIN_1_tmpData;
1940:.\Generated_Source\PSoC5/LIN_1.c ****                 if(LIN_1_interimChecksum >= 256u)
1941:.\Generated_Source\PSoC5/LIN_1.c ****                 {
1942:.\Generated_Source\PSoC5/LIN_1.c ****                     LIN_1_interimChecksum -= 255u;
1943:.\Generated_Source\PSoC5/LIN_1.c ****                 }
1944:.\Generated_Source\PSoC5/LIN_1.c **** 
1945:.\Generated_Source\PSoC5/LIN_1.c ****                 /* Check to see if all data bytes were sent */
1946:.\Generated_Source\PSoC5/LIN_1.c ****                 if(LIN_1_frameSize > LIN_1_bytesTransferred)
1947:.\Generated_Source\PSoC5/LIN_1.c ****                 {
1948:.\Generated_Source\PSoC5/LIN_1.c ****                     /* Send out the next byte of the buffer */
1949:.\Generated_Source\PSoC5/LIN_1.c ****                     LIN_1_tmpData = *LIN_1_frameData;
1950:.\Generated_Source\PSoC5/LIN_1.c ****                     LIN_1_frameData++;
1951:.\Generated_Source\PSoC5/LIN_1.c ****                     LIN_1_UART_WriteTxData(LIN_1_tmpData);
1952:.\Generated_Source\PSoC5/LIN_1.c ****                     LIN_1_bytesTransferred++;
1953:.\Generated_Source\PSoC5/LIN_1.c ****                 }
1954:.\Generated_Source\PSoC5/LIN_1.c ****                 else    /* All data bytes were sent - compute and transmit checksum */
1955:.\Generated_Source\PSoC5/LIN_1.c ****                 {
1956:.\Generated_Source\PSoC5/LIN_1.c ****                     /* Compute and send out the checksum byte */
1957:.\Generated_Source\PSoC5/LIN_1.c ****                     LIN_1_UART_WriteTxData((((l_u8) LIN_1_interimChecksum) ^ 0xFFu));
1958:.\Generated_Source\PSoC5/LIN_1.c **** 
1959:.\Generated_Source\PSoC5/LIN_1.c ****                     LIN_1_bytesTransferred = 0u;
1960:.\Generated_Source\PSoC5/LIN_1.c **** 
1961:.\Generated_Source\PSoC5/LIN_1.c ****                     /* Switch to the checksum state */
1962:.\Generated_Source\PSoC5/LIN_1.c ****                     LIN_1_uartFsmState = LIN_1_UART_ISR_STATE_4_CHS;
1963:.\Generated_Source\PSoC5/LIN_1.c ****                 }
1964:.\Generated_Source\PSoC5/LIN_1.c ****             }
1965:.\Generated_Source\PSoC5/LIN_1.c ****         break;
 1853              		.loc 1 1965 0
 1854 0476 61E2     		b	.L86
 1855              	.L103:
1939:.\Generated_Source\PSoC5/LIN_1.c ****                 LIN_1_interimChecksum += LIN_1_tmpData;
 1856              		.loc 1 1939 0
 1857 0478 40F20003 		movw	r3, #:lower16:LIN_1_tmpData.5058
 1858 047c C0F20003 		movt	r3, #:upper16:LIN_1_tmpData.5058
 1859 0480 1B78     		ldrb	r3, [r3, #0]	@ zero_extendqisi2
 1860 0482 1A46     		mov	r2, r3
 1861 0484 40F20003 		movw	r3, #:lower16:LIN_1_interimChecksum.5054
 1862 0488 C0F20003 		movt	r3, #:upper16:LIN_1_interimChecksum.5054
 1863 048c 1B88     		ldrh	r3, [r3, #0]
 1864 048e D318     		adds	r3, r2, r3
 1865 0490 9AB2     		uxth	r2, r3
 1866 0492 40F20003 		movw	r3, #:lower16:LIN_1_interimChecksum.5054
 1867 0496 C0F20003 		movt	r3, #:upper16:LIN_1_interimChecksum.5054
 1868 049a 1A80     		strh	r2, [r3, #0]	@ movhi
ARM GAS  C:\Users\MATSUD~1\AppData\Local\Temp\ccLjdAaK.s 			page 69


1940:.\Generated_Source\PSoC5/LIN_1.c ****                 if(LIN_1_interimChecksum >= 256u)
 1869              		.loc 1 1940 0
 1870 049c 40F20003 		movw	r3, #:lower16:LIN_1_interimChecksum.5054
 1871 04a0 C0F20003 		movt	r3, #:upper16:LIN_1_interimChecksum.5054
 1872 04a4 1B88     		ldrh	r3, [r3, #0]
 1873 04a6 FF2B     		cmp	r3, #255
 1874 04a8 0CD9     		bls	.L107
1942:.\Generated_Source\PSoC5/LIN_1.c ****                     LIN_1_interimChecksum -= 255u;
 1875              		.loc 1 1942 0
 1876 04aa 40F20003 		movw	r3, #:lower16:LIN_1_interimChecksum.5054
 1877 04ae C0F20003 		movt	r3, #:upper16:LIN_1_interimChecksum.5054
 1878 04b2 1B88     		ldrh	r3, [r3, #0]
 1879 04b4 A3F1FF03 		sub	r3, r3, #255
 1880 04b8 9AB2     		uxth	r2, r3
 1881 04ba 40F20003 		movw	r3, #:lower16:LIN_1_interimChecksum.5054
 1882 04be C0F20003 		movt	r3, #:upper16:LIN_1_interimChecksum.5054
 1883 04c2 1A80     		strh	r2, [r3, #0]	@ movhi
 1884              	.L107:
1946:.\Generated_Source\PSoC5/LIN_1.c ****                 if(LIN_1_frameSize > LIN_1_bytesTransferred)
 1885              		.loc 1 1946 0
 1886 04c4 40F20003 		movw	r3, #:lower16:LIN_1_frameSize.5056
 1887 04c8 C0F20003 		movt	r3, #:upper16:LIN_1_frameSize.5056
 1888 04cc 1A78     		ldrb	r2, [r3, #0]	@ zero_extendqisi2
 1889 04ce 40F20003 		movw	r3, #:lower16:LIN_1_bytesTransferred.5057
 1890 04d2 C0F20003 		movt	r3, #:upper16:LIN_1_bytesTransferred.5057
 1891 04d6 1B78     		ldrb	r3, [r3, #0]	@ zero_extendqisi2
 1892 04d8 9A42     		cmp	r2, r3
 1893 04da 2DD9     		bls	.L108
1949:.\Generated_Source\PSoC5/LIN_1.c ****                     LIN_1_tmpData = *LIN_1_frameData;
 1894              		.loc 1 1949 0
 1895 04dc 40F20003 		movw	r3, #:lower16:LIN_1_frameData.5061
 1896 04e0 C0F20003 		movt	r3, #:upper16:LIN_1_frameData.5061
 1897 04e4 1B68     		ldr	r3, [r3, #0]
 1898 04e6 1B78     		ldrb	r3, [r3, #0]
 1899 04e8 DAB2     		uxtb	r2, r3
 1900 04ea 40F20003 		movw	r3, #:lower16:LIN_1_tmpData.5058
 1901 04ee C0F20003 		movt	r3, #:upper16:LIN_1_tmpData.5058
 1902 04f2 1A70     		strb	r2, [r3, #0]
1950:.\Generated_Source\PSoC5/LIN_1.c ****                     LIN_1_frameData++;
 1903              		.loc 1 1950 0
 1904 04f4 40F20003 		movw	r3, #:lower16:LIN_1_frameData.5061
 1905 04f8 C0F20003 		movt	r3, #:upper16:LIN_1_frameData.5061
 1906 04fc 1B68     		ldr	r3, [r3, #0]
 1907 04fe 03F10102 		add	r2, r3, #1
 1908 0502 40F20003 		movw	r3, #:lower16:LIN_1_frameData.5061
 1909 0506 C0F20003 		movt	r3, #:upper16:LIN_1_frameData.5061
 1910 050a 1A60     		str	r2, [r3, #0]
1951:.\Generated_Source\PSoC5/LIN_1.c ****                     LIN_1_UART_WriteTxData(LIN_1_tmpData);
 1911              		.loc 1 1951 0
 1912 050c 40F20003 		movw	r3, #:lower16:LIN_1_tmpData.5058
 1913 0510 C0F20003 		movt	r3, #:upper16:LIN_1_tmpData.5058
 1914 0514 1B78     		ldrb	r3, [r3, #0]	@ zero_extendqisi2
 1915 0516 1846     		mov	r0, r3
 1916 0518 FFF7FEFF 		bl	LIN_1_UART_WriteTxData
1952:.\Generated_Source\PSoC5/LIN_1.c ****                     LIN_1_bytesTransferred++;
 1917              		.loc 1 1952 0
 1918 051c 40F20003 		movw	r3, #:lower16:LIN_1_bytesTransferred.5057
ARM GAS  C:\Users\MATSUD~1\AppData\Local\Temp\ccLjdAaK.s 			page 70


 1919 0520 C0F20003 		movt	r3, #:upper16:LIN_1_bytesTransferred.5057
 1920 0524 1B78     		ldrb	r3, [r3, #0]	@ zero_extendqisi2
 1921 0526 03F10103 		add	r3, r3, #1
 1922 052a DAB2     		uxtb	r2, r3
 1923 052c 40F20003 		movw	r3, #:lower16:LIN_1_bytesTransferred.5057
 1924 0530 C0F20003 		movt	r3, #:upper16:LIN_1_bytesTransferred.5057
 1925 0534 1A70     		strb	r2, [r3, #0]
 1926              		.loc 1 1965 0
 1927 0536 01E2     		b	.L86
 1928              	.L108:
1957:.\Generated_Source\PSoC5/LIN_1.c ****                     LIN_1_UART_WriteTxData((((l_u8) LIN_1_interimChecksum) ^ 0xFFu));
 1929              		.loc 1 1957 0
 1930 0538 40F20003 		movw	r3, #:lower16:LIN_1_interimChecksum.5054
 1931 053c C0F20003 		movt	r3, #:upper16:LIN_1_interimChecksum.5054
 1932 0540 1B88     		ldrh	r3, [r3, #0]
 1933 0542 DBB2     		uxtb	r3, r3
 1934 0544 6FEA0303 		mvn	r3, r3
 1935 0548 DBB2     		uxtb	r3, r3
 1936 054a 1846     		mov	r0, r3
 1937 054c FFF7FEFF 		bl	LIN_1_UART_WriteTxData
1959:.\Generated_Source\PSoC5/LIN_1.c ****                     LIN_1_bytesTransferred = 0u;
 1938              		.loc 1 1959 0
 1939 0550 40F20003 		movw	r3, #:lower16:LIN_1_bytesTransferred.5057
 1940 0554 C0F20003 		movt	r3, #:upper16:LIN_1_bytesTransferred.5057
 1941 0558 4FF00002 		mov	r2, #0
 1942 055c 1A70     		strb	r2, [r3, #0]
1962:.\Generated_Source\PSoC5/LIN_1.c ****                     LIN_1_uartFsmState = LIN_1_UART_ISR_STATE_4_CHS;
 1943              		.loc 1 1962 0
 1944 055e 40F20003 		movw	r3, #:lower16:LIN_1_uartFsmState
 1945 0562 C0F20003 		movt	r3, #:upper16:LIN_1_uartFsmState
 1946 0566 4FF00402 		mov	r2, #4
 1947 056a 1A70     		strb	r2, [r3, #0]
 1948              		.loc 1 1965 0
 1949 056c E6E1     		b	.L86
 1950              	.L92:
1966:.\Generated_Source\PSoC5/LIN_1.c **** 
1967:.\Generated_Source\PSoC5/LIN_1.c **** 
1968:.\Generated_Source\PSoC5/LIN_1.c ****         /***********************************************************************
1969:.\Generated_Source\PSoC5/LIN_1.c ****         *                       RX response (Subscribe)
1970:.\Generated_Source\PSoC5/LIN_1.c ****         * State description:
1971:.\Generated_Source\PSoC5/LIN_1.c ****         *  - Receives data from LIN Master
1972:.\Generated_Source\PSoC5/LIN_1.c ****         *  - Received data are saved to the temporary buffer
1973:.\Generated_Source\PSoC5/LIN_1.c ****         ***********************************************************************/
1974:.\Generated_Source\PSoC5/LIN_1.c ****         case LIN_1_UART_ISR_STATE_3_RX:
1975:.\Generated_Source\PSoC5/LIN_1.c **** 
1976:.\Generated_Source\PSoC5/LIN_1.c ****             /* Save received byte */
1977:.\Generated_Source\PSoC5/LIN_1.c ****             LIN_1_tmpData = LIN_1_UART_ReadRxData();
 1951              		.loc 1 1977 0
 1952 056e FFF7FEFF 		bl	LIN_1_UART_ReadRxData
 1953 0572 0346     		mov	r3, r0
 1954 0574 1A46     		mov	r2, r3
 1955 0576 40F20003 		movw	r3, #:lower16:LIN_1_tmpData.5058
 1956 057a C0F20003 		movt	r3, #:upper16:LIN_1_tmpData.5058
 1957 057e 1A70     		strb	r2, [r3, #0]
1978:.\Generated_Source\PSoC5/LIN_1.c ****             *LIN_1_frameData = LIN_1_tmpData;
 1958              		.loc 1 1978 0
 1959 0580 40F20003 		movw	r3, #:lower16:LIN_1_frameData.5061
ARM GAS  C:\Users\MATSUD~1\AppData\Local\Temp\ccLjdAaK.s 			page 71


 1960 0584 C0F20003 		movt	r3, #:upper16:LIN_1_frameData.5061
 1961 0588 1A68     		ldr	r2, [r3, #0]
 1962 058a 40F20003 		movw	r3, #:lower16:LIN_1_tmpData.5058
 1963 058e C0F20003 		movt	r3, #:upper16:LIN_1_tmpData.5058
 1964 0592 1B78     		ldrb	r3, [r3, #0]	@ zero_extendqisi2
 1965 0594 1370     		strb	r3, [r2, #0]
1979:.\Generated_Source\PSoC5/LIN_1.c ****             LIN_1_frameData++;
 1966              		.loc 1 1979 0
 1967 0596 40F20003 		movw	r3, #:lower16:LIN_1_frameData.5061
 1968 059a C0F20003 		movt	r3, #:upper16:LIN_1_frameData.5061
 1969 059e 1B68     		ldr	r3, [r3, #0]
 1970 05a0 03F10102 		add	r2, r3, #1
 1971 05a4 40F20003 		movw	r3, #:lower16:LIN_1_frameData.5061
 1972 05a8 C0F20003 		movt	r3, #:upper16:LIN_1_frameData.5061
 1973 05ac 1A60     		str	r2, [r3, #0]
1980:.\Generated_Source\PSoC5/LIN_1.c ****             LIN_1_bytesTransferred++;
 1974              		.loc 1 1980 0
 1975 05ae 40F20003 		movw	r3, #:lower16:LIN_1_bytesTransferred.5057
 1976 05b2 C0F20003 		movt	r3, #:upper16:LIN_1_bytesTransferred.5057
 1977 05b6 1B78     		ldrb	r3, [r3, #0]	@ zero_extendqisi2
 1978 05b8 03F10103 		add	r3, r3, #1
 1979 05bc DAB2     		uxtb	r2, r3
 1980 05be 40F20003 		movw	r3, #:lower16:LIN_1_bytesTransferred.5057
 1981 05c2 C0F20003 		movt	r3, #:upper16:LIN_1_bytesTransferred.5057
 1982 05c6 1A70     		strb	r2, [r3, #0]
1981:.\Generated_Source\PSoC5/LIN_1.c **** 
1982:.\Generated_Source\PSoC5/LIN_1.c ****             /* Set response active flag */
1983:.\Generated_Source\PSoC5/LIN_1.c ****             LIN_1_status |= LIN_1_STATUS_RESPONSE_ACTIVE;
 1983              		.loc 1 1983 0
 1984 05c8 40F20003 		movw	r3, #:lower16:LIN_1_status
 1985 05cc C0F20003 		movt	r3, #:upper16:LIN_1_status
 1986 05d0 1B78     		ldrb	r3, [r3, #0]
 1987 05d2 DBB2     		uxtb	r3, r3
 1988 05d4 43F01003 		orr	r3, r3, #16
 1989 05d8 DAB2     		uxtb	r2, r3
 1990 05da 40F20003 		movw	r3, #:lower16:LIN_1_status
 1991 05de C0F20003 		movt	r3, #:upper16:LIN_1_status
 1992 05e2 1A70     		strb	r2, [r3, #0]
1984:.\Generated_Source\PSoC5/LIN_1.c **** 
1985:.\Generated_Source\PSoC5/LIN_1.c ****             /* One or more data bytes have been received */
1986:.\Generated_Source\PSoC5/LIN_1.c ****             LIN_1_fsmFlags |= LIN_1_FSM_DATA_RECEIVE;
 1993              		.loc 1 1986 0
 1994 05e4 40F20003 		movw	r3, #:lower16:LIN_1_fsmFlags
 1995 05e8 C0F20003 		movt	r3, #:upper16:LIN_1_fsmFlags
 1996 05ec 1B78     		ldrb	r3, [r3, #0]
 1997 05ee DBB2     		uxtb	r3, r3
 1998 05f0 43F00403 		orr	r3, r3, #4
 1999 05f4 DAB2     		uxtb	r2, r3
 2000 05f6 40F20003 		movw	r3, #:lower16:LIN_1_fsmFlags
 2001 05fa C0F20003 		movt	r3, #:upper16:LIN_1_fsmFlags
 2002 05fe 1A70     		strb	r2, [r3, #0]
1987:.\Generated_Source\PSoC5/LIN_1.c **** 
1988:.\Generated_Source\PSoC5/LIN_1.c ****             /* Add received byte to the interim checksum */
1989:.\Generated_Source\PSoC5/LIN_1.c ****             LIN_1_interimChecksum += LIN_1_tmpData;
 2003              		.loc 1 1989 0
 2004 0600 40F20003 		movw	r3, #:lower16:LIN_1_tmpData.5058
 2005 0604 C0F20003 		movt	r3, #:upper16:LIN_1_tmpData.5058
ARM GAS  C:\Users\MATSUD~1\AppData\Local\Temp\ccLjdAaK.s 			page 72


 2006 0608 1B78     		ldrb	r3, [r3, #0]	@ zero_extendqisi2
 2007 060a 1A46     		mov	r2, r3
 2008 060c 40F20003 		movw	r3, #:lower16:LIN_1_interimChecksum.5054
 2009 0610 C0F20003 		movt	r3, #:upper16:LIN_1_interimChecksum.5054
 2010 0614 1B88     		ldrh	r3, [r3, #0]
 2011 0616 D318     		adds	r3, r2, r3
 2012 0618 9AB2     		uxth	r2, r3
 2013 061a 40F20003 		movw	r3, #:lower16:LIN_1_interimChecksum.5054
 2014 061e C0F20003 		movt	r3, #:upper16:LIN_1_interimChecksum.5054
 2015 0622 1A80     		strh	r2, [r3, #0]	@ movhi
1990:.\Generated_Source\PSoC5/LIN_1.c ****             if(LIN_1_interimChecksum >= 256u)
 2016              		.loc 1 1990 0
 2017 0624 40F20003 		movw	r3, #:lower16:LIN_1_interimChecksum.5054
 2018 0628 C0F20003 		movt	r3, #:upper16:LIN_1_interimChecksum.5054
 2019 062c 1B88     		ldrh	r3, [r3, #0]
 2020 062e FF2B     		cmp	r3, #255
 2021 0630 0CD9     		bls	.L109
1991:.\Generated_Source\PSoC5/LIN_1.c ****             {
1992:.\Generated_Source\PSoC5/LIN_1.c ****                 LIN_1_interimChecksum -= 255u;
 2022              		.loc 1 1992 0
 2023 0632 40F20003 		movw	r3, #:lower16:LIN_1_interimChecksum.5054
 2024 0636 C0F20003 		movt	r3, #:upper16:LIN_1_interimChecksum.5054
 2025 063a 1B88     		ldrh	r3, [r3, #0]
 2026 063c A3F1FF03 		sub	r3, r3, #255
 2027 0640 9AB2     		uxth	r2, r3
 2028 0642 40F20003 		movw	r3, #:lower16:LIN_1_interimChecksum.5054
