ARM GAS  C:\Users\MATSUD~1\AppData\Local\Temp\ccwDh0Hw.s 			page 1


   1              		.syntax unified
   2              		.cpu cortex-m3
   3              		.fpu softvfp
   4              		.eabi_attribute 20, 1
   5              		.eabi_attribute 21, 1
   6              		.eabi_attribute 23, 3
   7              		.eabi_attribute 24, 1
   8              		.eabi_attribute 25, 1
   9              		.eabi_attribute 26, 1
  10              		.eabi_attribute 30, 6
  11              		.eabi_attribute 34, 1
  12              		.eabi_attribute 18, 4
  13              		.thumb
  14              		.file	"LIN_1_UART.c"
  15              		.text
  16              	.Ltext0:
  17              		.cfi_sections	.debug_frame
  18              		.global	LIN_1_UART_initVar
  19              		.bss
  20              		.type	LIN_1_UART_initVar, %object
  21              		.size	LIN_1_UART_initVar, 1
  22              	LIN_1_UART_initVar:
  23 0000 00       		.space	1
  24              		.section	.text.LIN_1_UART_Start,"ax",%progbits
  25              		.align	2
  26              		.global	LIN_1_UART_Start
  27              		.thumb
  28              		.thumb_func
  29              		.type	LIN_1_UART_Start, %function
  30              	LIN_1_UART_Start:
  31              	.LFB0:
  32              		.file 1 ".\\Generated_Source\\PSoC5\\LIN_1_UART.c"
   1:.\Generated_Source\PSoC5/LIN_1_UART.c **** /*******************************************************************************
   2:.\Generated_Source\PSoC5/LIN_1_UART.c **** * File Name: LIN_1_UART.c
   3:.\Generated_Source\PSoC5/LIN_1_UART.c **** * Version 2.30
   4:.\Generated_Source\PSoC5/LIN_1_UART.c **** *
   5:.\Generated_Source\PSoC5/LIN_1_UART.c **** * Description:
   6:.\Generated_Source\PSoC5/LIN_1_UART.c **** *  This file provides all API functionality of the UART component
   7:.\Generated_Source\PSoC5/LIN_1_UART.c **** *
   8:.\Generated_Source\PSoC5/LIN_1_UART.c **** * Note:
   9:.\Generated_Source\PSoC5/LIN_1_UART.c **** *
  10:.\Generated_Source\PSoC5/LIN_1_UART.c **** ********************************************************************************
  11:.\Generated_Source\PSoC5/LIN_1_UART.c **** * Copyright 2008-2012, Cypress Semiconductor Corporation.  All rights reserved.
  12:.\Generated_Source\PSoC5/LIN_1_UART.c **** * You may use this file only in accordance with the license, terms, conditions,
  13:.\Generated_Source\PSoC5/LIN_1_UART.c **** * disclaimers, and limitations in the end user license agreement accompanying
  14:.\Generated_Source\PSoC5/LIN_1_UART.c **** * the software package with which this file was provided.
  15:.\Generated_Source\PSoC5/LIN_1_UART.c **** *******************************************************************************/
  16:.\Generated_Source\PSoC5/LIN_1_UART.c **** 
  17:.\Generated_Source\PSoC5/LIN_1_UART.c **** #include "LIN_1_UART.h"
  18:.\Generated_Source\PSoC5/LIN_1_UART.c **** #include "CyLib.h"
  19:.\Generated_Source\PSoC5/LIN_1_UART.c **** #if(LIN_1_UART_INTERNAL_CLOCK_USED)
  20:.\Generated_Source\PSoC5/LIN_1_UART.c ****     #include "LIN_1_UART_IntClock.h"
  21:.\Generated_Source\PSoC5/LIN_1_UART.c **** #endif /* End LIN_1_UART_INTERNAL_CLOCK_USED */
  22:.\Generated_Source\PSoC5/LIN_1_UART.c **** 
  23:.\Generated_Source\PSoC5/LIN_1_UART.c **** 
  24:.\Generated_Source\PSoC5/LIN_1_UART.c **** /***************************************
  25:.\Generated_Source\PSoC5/LIN_1_UART.c **** * Global data allocation
ARM GAS  C:\Users\MATSUD~1\AppData\Local\Temp\ccwDh0Hw.s 			page 2


  26:.\Generated_Source\PSoC5/LIN_1_UART.c **** ***************************************/
  27:.\Generated_Source\PSoC5/LIN_1_UART.c **** 
  28:.\Generated_Source\PSoC5/LIN_1_UART.c **** uint8 LIN_1_UART_initVar = 0u;
  29:.\Generated_Source\PSoC5/LIN_1_UART.c **** #if( LIN_1_UART_TX_ENABLED && (LIN_1_UART_TXBUFFERSIZE > LIN_1_UART_FIFO_LENGTH))
  30:.\Generated_Source\PSoC5/LIN_1_UART.c ****     volatile uint8 LIN_1_UART_txBuffer[LIN_1_UART_TXBUFFERSIZE];
  31:.\Generated_Source\PSoC5/LIN_1_UART.c ****     volatile uint8 LIN_1_UART_txBufferRead = 0u;
  32:.\Generated_Source\PSoC5/LIN_1_UART.c ****     uint8 LIN_1_UART_txBufferWrite = 0u;
  33:.\Generated_Source\PSoC5/LIN_1_UART.c **** #endif /* End LIN_1_UART_TX_ENABLED */
  34:.\Generated_Source\PSoC5/LIN_1_UART.c **** #if( ( LIN_1_UART_RX_ENABLED || LIN_1_UART_HD_ENABLED ) && \
  35:.\Generated_Source\PSoC5/LIN_1_UART.c ****      (LIN_1_UART_RXBUFFERSIZE > LIN_1_UART_FIFO_LENGTH) )
  36:.\Generated_Source\PSoC5/LIN_1_UART.c ****     volatile uint8 LIN_1_UART_rxBuffer[LIN_1_UART_RXBUFFERSIZE];
  37:.\Generated_Source\PSoC5/LIN_1_UART.c ****     volatile uint8 LIN_1_UART_rxBufferRead = 0u;
  38:.\Generated_Source\PSoC5/LIN_1_UART.c ****     volatile uint8 LIN_1_UART_rxBufferWrite = 0u;
  39:.\Generated_Source\PSoC5/LIN_1_UART.c ****     volatile uint8 LIN_1_UART_rxBufferLoopDetect = 0u;
  40:.\Generated_Source\PSoC5/LIN_1_UART.c ****     volatile uint8 LIN_1_UART_rxBufferOverflow = 0u;
  41:.\Generated_Source\PSoC5/LIN_1_UART.c ****     #if (LIN_1_UART_RXHW_ADDRESS_ENABLED)
  42:.\Generated_Source\PSoC5/LIN_1_UART.c ****         volatile uint8 LIN_1_UART_rxAddressMode = LIN_1_UART_RXADDRESSMODE;
  43:.\Generated_Source\PSoC5/LIN_1_UART.c ****         volatile uint8 LIN_1_UART_rxAddressDetected = 0u;
  44:.\Generated_Source\PSoC5/LIN_1_UART.c ****     #endif /* End EnableHWAddress */
  45:.\Generated_Source\PSoC5/LIN_1_UART.c **** #endif /* End LIN_1_UART_RX_ENABLED */
  46:.\Generated_Source\PSoC5/LIN_1_UART.c **** 
  47:.\Generated_Source\PSoC5/LIN_1_UART.c **** 
  48:.\Generated_Source\PSoC5/LIN_1_UART.c **** /*******************************************************************************
  49:.\Generated_Source\PSoC5/LIN_1_UART.c **** * Function Name: LIN_1_UART_Start
  50:.\Generated_Source\PSoC5/LIN_1_UART.c **** ********************************************************************************
  51:.\Generated_Source\PSoC5/LIN_1_UART.c **** *
  52:.\Generated_Source\PSoC5/LIN_1_UART.c **** * Summary:
  53:.\Generated_Source\PSoC5/LIN_1_UART.c **** *  Initialize and Enable the UART component.
  54:.\Generated_Source\PSoC5/LIN_1_UART.c **** *  Enable the clock input to enable operation.
  55:.\Generated_Source\PSoC5/LIN_1_UART.c **** *
  56:.\Generated_Source\PSoC5/LIN_1_UART.c **** * Parameters:
  57:.\Generated_Source\PSoC5/LIN_1_UART.c **** *  None.
  58:.\Generated_Source\PSoC5/LIN_1_UART.c **** *
  59:.\Generated_Source\PSoC5/LIN_1_UART.c **** * Return:
  60:.\Generated_Source\PSoC5/LIN_1_UART.c **** *  None.
  61:.\Generated_Source\PSoC5/LIN_1_UART.c **** *
  62:.\Generated_Source\PSoC5/LIN_1_UART.c **** * Global variables:
  63:.\Generated_Source\PSoC5/LIN_1_UART.c **** *  The LIN_1_UART_intiVar variable is used to indicate initial
  64:.\Generated_Source\PSoC5/LIN_1_UART.c **** *  configuration of this component. The variable is initialized to zero (0u)
  65:.\Generated_Source\PSoC5/LIN_1_UART.c **** *  and set to one (1u) the first time UART_Start() is called. This allows for
  66:.\Generated_Source\PSoC5/LIN_1_UART.c **** *  component initialization without re-initialization in all subsequent calls
  67:.\Generated_Source\PSoC5/LIN_1_UART.c **** *  to the LIN_1_UART_Start() routine.
  68:.\Generated_Source\PSoC5/LIN_1_UART.c **** *
  69:.\Generated_Source\PSoC5/LIN_1_UART.c **** * Reentrant:
  70:.\Generated_Source\PSoC5/LIN_1_UART.c **** *  No.
  71:.\Generated_Source\PSoC5/LIN_1_UART.c **** *
  72:.\Generated_Source\PSoC5/LIN_1_UART.c **** *******************************************************************************/
  73:.\Generated_Source\PSoC5/LIN_1_UART.c **** void LIN_1_UART_Start(void) 
  74:.\Generated_Source\PSoC5/LIN_1_UART.c **** {
  33              		.loc 1 74 0
  34              		.cfi_startproc
  35              		@ args = 0, pretend = 0, frame = 0
  36              		@ frame_needed = 1, uses_anonymous_args = 0
  37 0000 80B5     		push	{r7, lr}
  38              	.LCFI0:
  39              		.cfi_def_cfa_offset 8
  40              		.cfi_offset 7, -8
ARM GAS  C:\Users\MATSUD~1\AppData\Local\Temp\ccwDh0Hw.s 			page 3


  41              		.cfi_offset 14, -4
  42 0002 00AF     		add	r7, sp, #0
  43              	.LCFI1:
  44              		.cfi_def_cfa_register 7
  75:.\Generated_Source\PSoC5/LIN_1_UART.c ****     /* If not Initialized then initialize all required hardware and software */
  76:.\Generated_Source\PSoC5/LIN_1_UART.c ****     if(LIN_1_UART_initVar == 0u)
  45              		.loc 1 76 0
  46 0004 40F20003 		movw	r3, #:lower16:LIN_1_UART_initVar
  47 0008 C0F20003 		movt	r3, #:upper16:LIN_1_UART_initVar
  48 000c 1B78     		ldrb	r3, [r3, #0]	@ zero_extendqisi2
  49 000e 002B     		cmp	r3, #0
  50 0010 08D1     		bne	.L2
  77:.\Generated_Source\PSoC5/LIN_1_UART.c ****     {
  78:.\Generated_Source\PSoC5/LIN_1_UART.c ****         LIN_1_UART_Init();
  51              		.loc 1 78 0
  52 0012 FFF7FEFF 		bl	LIN_1_UART_Init
  79:.\Generated_Source\PSoC5/LIN_1_UART.c ****         LIN_1_UART_initVar = 1u;
  53              		.loc 1 79 0
  54 0016 40F20003 		movw	r3, #:lower16:LIN_1_UART_initVar
  55 001a C0F20003 		movt	r3, #:upper16:LIN_1_UART_initVar
  56 001e 4FF00102 		mov	r2, #1
  57 0022 1A70     		strb	r2, [r3, #0]
  58              	.L2:
  80:.\Generated_Source\PSoC5/LIN_1_UART.c ****     }
  81:.\Generated_Source\PSoC5/LIN_1_UART.c ****     LIN_1_UART_Enable();
  59              		.loc 1 81 0
  60 0024 FFF7FEFF 		bl	LIN_1_UART_Enable
  82:.\Generated_Source\PSoC5/LIN_1_UART.c **** }
  61              		.loc 1 82 0
  62 0028 80BD     		pop	{r7, pc}
  63              		.cfi_endproc
  64              	.LFE0:
  65              		.size	LIN_1_UART_Start, .-LIN_1_UART_Start
  66 002a 00BF     		.section	.text.LIN_1_UART_Init,"ax",%progbits
  67              		.align	2
  68              		.global	LIN_1_UART_Init
  69              		.thumb
  70              		.thumb_func
  71              		.type	LIN_1_UART_Init, %function
  72              	LIN_1_UART_Init:
  73              	.LFB1:
  83:.\Generated_Source\PSoC5/LIN_1_UART.c **** 
  84:.\Generated_Source\PSoC5/LIN_1_UART.c **** 
  85:.\Generated_Source\PSoC5/LIN_1_UART.c **** /*******************************************************************************
  86:.\Generated_Source\PSoC5/LIN_1_UART.c **** * Function Name: LIN_1_UART_Init
  87:.\Generated_Source\PSoC5/LIN_1_UART.c **** ********************************************************************************
  88:.\Generated_Source\PSoC5/LIN_1_UART.c **** *
  89:.\Generated_Source\PSoC5/LIN_1_UART.c **** * Summary:
  90:.\Generated_Source\PSoC5/LIN_1_UART.c **** *  Initialize component's parameters to the parameters set by user in the
  91:.\Generated_Source\PSoC5/LIN_1_UART.c **** *  customizer of the component placed onto schematic. Usually called in
  92:.\Generated_Source\PSoC5/LIN_1_UART.c **** *  LIN_1_UART_Start().
  93:.\Generated_Source\PSoC5/LIN_1_UART.c **** *
  94:.\Generated_Source\PSoC5/LIN_1_UART.c **** * Parameters:
  95:.\Generated_Source\PSoC5/LIN_1_UART.c **** *  None.
  96:.\Generated_Source\PSoC5/LIN_1_UART.c **** *
  97:.\Generated_Source\PSoC5/LIN_1_UART.c **** * Return:
  98:.\Generated_Source\PSoC5/LIN_1_UART.c **** *  None.
ARM GAS  C:\Users\MATSUD~1\AppData\Local\Temp\ccwDh0Hw.s 			page 4


  99:.\Generated_Source\PSoC5/LIN_1_UART.c **** *
 100:.\Generated_Source\PSoC5/LIN_1_UART.c **** *******************************************************************************/
 101:.\Generated_Source\PSoC5/LIN_1_UART.c **** void LIN_1_UART_Init(void) 
 102:.\Generated_Source\PSoC5/LIN_1_UART.c **** {
  74              		.loc 1 102 0
  75              		.cfi_startproc
  76              		@ args = 0, pretend = 0, frame = 0
  77              		@ frame_needed = 1, uses_anonymous_args = 0
  78              		@ link register save eliminated.
  79 0000 80B4     		push	{r7}
  80              	.LCFI2:
  81              		.cfi_def_cfa_offset 4
  82              		.cfi_offset 7, -4
  83 0002 00AF     		add	r7, sp, #0
  84              	.LCFI3:
  85              		.cfi_def_cfa_register 7
 103:.\Generated_Source\PSoC5/LIN_1_UART.c ****     #if(LIN_1_UART_RX_ENABLED || LIN_1_UART_HD_ENABLED)
 104:.\Generated_Source\PSoC5/LIN_1_UART.c **** 
 105:.\Generated_Source\PSoC5/LIN_1_UART.c ****         #if(LIN_1_UART_RX_INTERRUPT_ENABLED && (LIN_1_UART_RXBUFFERSIZE > LIN_1_UART_FIFO_LENGTH))
 106:.\Generated_Source\PSoC5/LIN_1_UART.c ****             /* Set the RX Interrupt. */
 107:.\Generated_Source\PSoC5/LIN_1_UART.c ****             (void)CyIntSetVector(LIN_1_UART_RX_VECT_NUM, &LIN_1_UART_RXISR);
 108:.\Generated_Source\PSoC5/LIN_1_UART.c ****             CyIntSetPriority(LIN_1_UART_RX_VECT_NUM, LIN_1_UART_RX_PRIOR_NUM);
 109:.\Generated_Source\PSoC5/LIN_1_UART.c ****         #endif /* End LIN_1_UART_RX_INTERRUPT_ENABLED */
 110:.\Generated_Source\PSoC5/LIN_1_UART.c **** 
 111:.\Generated_Source\PSoC5/LIN_1_UART.c ****         #if (LIN_1_UART_RXHW_ADDRESS_ENABLED)
 112:.\Generated_Source\PSoC5/LIN_1_UART.c ****             LIN_1_UART_SetRxAddressMode(LIN_1_UART_RXAddressMode);
 113:.\Generated_Source\PSoC5/LIN_1_UART.c ****             LIN_1_UART_SetRxAddress1(LIN_1_UART_RXHWADDRESS1);
 114:.\Generated_Source\PSoC5/LIN_1_UART.c ****             LIN_1_UART_SetRxAddress2(LIN_1_UART_RXHWADDRESS2);
 115:.\Generated_Source\PSoC5/LIN_1_UART.c ****         #endif /* End LIN_1_UART_RXHW_ADDRESS_ENABLED */
 116:.\Generated_Source\PSoC5/LIN_1_UART.c **** 
 117:.\Generated_Source\PSoC5/LIN_1_UART.c ****         /* Init Count7 period */
 118:.\Generated_Source\PSoC5/LIN_1_UART.c ****         LIN_1_UART_RXBITCTR_PERIOD_REG = LIN_1_UART_RXBITCTR_INIT;
  86              		.loc 1 118 0
  87 0004 46F28453 		movw	r3, #25988
  88 0008 C4F20003 		movt	r3, 16384
  89 000c 4FF07202 		mov	r2, #114
  90 0010 1A70     		strb	r2, [r3, #0]
 119:.\Generated_Source\PSoC5/LIN_1_UART.c ****         /* Configure the Initial RX interrupt mask */
 120:.\Generated_Source\PSoC5/LIN_1_UART.c ****         LIN_1_UART_RXSTATUS_MASK_REG  = LIN_1_UART_INIT_RX_INTERRUPTS_MASK;
  91              		.loc 1 120 0
  92 0012 46F28753 		movw	r3, #25991
  93 0016 C4F20003 		movt	r3, 16384
  94 001a 4FF02002 		mov	r2, #32
  95 001e 1A70     		strb	r2, [r3, #0]
 121:.\Generated_Source\PSoC5/LIN_1_UART.c ****     #endif /* End LIN_1_UART_RX_ENABLED || LIN_1_UART_HD_ENABLED*/
 122:.\Generated_Source\PSoC5/LIN_1_UART.c **** 
 123:.\Generated_Source\PSoC5/LIN_1_UART.c ****     #if(LIN_1_UART_TX_ENABLED)
 124:.\Generated_Source\PSoC5/LIN_1_UART.c ****         #if(LIN_1_UART_TX_INTERRUPT_ENABLED && (LIN_1_UART_TXBUFFERSIZE > LIN_1_UART_FIFO_LENGTH))
 125:.\Generated_Source\PSoC5/LIN_1_UART.c ****             /* Set the TX Interrupt. */
 126:.\Generated_Source\PSoC5/LIN_1_UART.c ****             (void)CyIntSetVector(LIN_1_UART_TX_VECT_NUM, &LIN_1_UART_TXISR);
 127:.\Generated_Source\PSoC5/LIN_1_UART.c ****             CyIntSetPriority(LIN_1_UART_TX_VECT_NUM, LIN_1_UART_TX_PRIOR_NUM);
 128:.\Generated_Source\PSoC5/LIN_1_UART.c ****         #endif /* End LIN_1_UART_TX_INTERRUPT_ENABLED */
 129:.\Generated_Source\PSoC5/LIN_1_UART.c **** 
 130:.\Generated_Source\PSoC5/LIN_1_UART.c ****         /* Write Counter Value for TX Bit Clk Generator*/
 131:.\Generated_Source\PSoC5/LIN_1_UART.c ****         #if(LIN_1_UART_TXCLKGEN_DP)
 132:.\Generated_Source\PSoC5/LIN_1_UART.c ****             LIN_1_UART_TXBITCLKGEN_CTR_REG = LIN_1_UART_BIT_CENTER;
 133:.\Generated_Source\PSoC5/LIN_1_UART.c ****             LIN_1_UART_TXBITCLKTX_COMPLETE_REG = (LIN_1_UART_NUMBER_OF_DATA_BITS +
ARM GAS  C:\Users\MATSUD~1\AppData\Local\Temp\ccwDh0Hw.s 			page 5


 134:.\Generated_Source\PSoC5/LIN_1_UART.c ****                         LIN_1_UART_NUMBER_OF_START_BIT) * LIN_1_UART_OVER_SAMPLE_COUNT;
 135:.\Generated_Source\PSoC5/LIN_1_UART.c ****         #else
 136:.\Generated_Source\PSoC5/LIN_1_UART.c ****             LIN_1_UART_TXBITCTR_PERIOD_REG = ((LIN_1_UART_NUMBER_OF_DATA_BITS +
  96              		.loc 1 136 0
  97 0020 46F28343 		movw	r3, #25731
  98 0024 C4F20003 		movt	r3, 16384
  99 0028 4FF04702 		mov	r2, #71
 100 002c 1A70     		strb	r2, [r3, #0]
 137:.\Generated_Source\PSoC5/LIN_1_UART.c ****                         LIN_1_UART_NUMBER_OF_START_BIT) * LIN_1_UART_OVER_SAMPLE_8) - 1u;
 138:.\Generated_Source\PSoC5/LIN_1_UART.c ****         #endif /* End LIN_1_UART_TXCLKGEN_DP */
 139:.\Generated_Source\PSoC5/LIN_1_UART.c **** 
 140:.\Generated_Source\PSoC5/LIN_1_UART.c ****         /* Configure the Initial TX interrupt mask */
 141:.\Generated_Source\PSoC5/LIN_1_UART.c ****         #if(LIN_1_UART_TX_INTERRUPT_ENABLED && (LIN_1_UART_TXBUFFERSIZE > LIN_1_UART_FIFO_LENGTH))
 142:.\Generated_Source\PSoC5/LIN_1_UART.c ****             LIN_1_UART_TXSTATUS_MASK_REG = LIN_1_UART_TX_STS_FIFO_EMPTY;
 143:.\Generated_Source\PSoC5/LIN_1_UART.c ****         #else
 144:.\Generated_Source\PSoC5/LIN_1_UART.c ****             LIN_1_UART_TXSTATUS_MASK_REG = LIN_1_UART_INIT_TX_INTERRUPTS_MASK;
 101              		.loc 1 144 0
 102 002e 46F28743 		movw	r3, #25735
 103 0032 C4F20003 		movt	r3, 16384
 104 0036 4FF00002 		mov	r2, #0
 105 003a 1A70     		strb	r2, [r3, #0]
 145:.\Generated_Source\PSoC5/LIN_1_UART.c ****         #endif /*End LIN_1_UART_TX_INTERRUPT_ENABLED*/
 146:.\Generated_Source\PSoC5/LIN_1_UART.c **** 
 147:.\Generated_Source\PSoC5/LIN_1_UART.c ****     #endif /* End LIN_1_UART_TX_ENABLED */
 148:.\Generated_Source\PSoC5/LIN_1_UART.c **** 
 149:.\Generated_Source\PSoC5/LIN_1_UART.c ****     #if(LIN_1_UART_PARITY_TYPE_SW)  /* Write Parity to Control Register */
 150:.\Generated_Source\PSoC5/LIN_1_UART.c ****         LIN_1_UART_WriteControlRegister( \
 151:.\Generated_Source\PSoC5/LIN_1_UART.c ****             (LIN_1_UART_ReadControlRegister() & (uint8)~LIN_1_UART_CTRL_PARITY_TYPE_MASK) | \
 152:.\Generated_Source\PSoC5/LIN_1_UART.c ****             (uint8)(LIN_1_UART_PARITY_TYPE << LIN_1_UART_CTRL_PARITY_TYPE0_SHIFT) );
 153:.\Generated_Source\PSoC5/LIN_1_UART.c ****     #endif /* End LIN_1_UART_PARITY_TYPE_SW */
 154:.\Generated_Source\PSoC5/LIN_1_UART.c **** }
 106              		.loc 1 154 0
 107 003c BD46     		mov	sp, r7
 108 003e 80BC     		pop	{r7}
 109 0040 7047     		bx	lr
 110              		.cfi_endproc
 111              	.LFE1:
 112              		.size	LIN_1_UART_Init, .-LIN_1_UART_Init
 113 0042 00BF     		.section	.text.LIN_1_UART_Enable,"ax",%progbits
 114              		.align	2
 115              		.global	LIN_1_UART_Enable
 116              		.thumb
 117              		.thumb_func
 118              		.type	LIN_1_UART_Enable, %function
 119              	LIN_1_UART_Enable:
 120              	.LFB2:
 155:.\Generated_Source\PSoC5/LIN_1_UART.c **** 
 156:.\Generated_Source\PSoC5/LIN_1_UART.c **** 
 157:.\Generated_Source\PSoC5/LIN_1_UART.c **** /*******************************************************************************
 158:.\Generated_Source\PSoC5/LIN_1_UART.c **** * Function Name: LIN_1_UART_Enable
 159:.\Generated_Source\PSoC5/LIN_1_UART.c **** ********************************************************************************
 160:.\Generated_Source\PSoC5/LIN_1_UART.c **** *
 161:.\Generated_Source\PSoC5/LIN_1_UART.c **** * Summary:
 162:.\Generated_Source\PSoC5/LIN_1_UART.c **** *  Enables the UART block operation
 163:.\Generated_Source\PSoC5/LIN_1_UART.c **** *
 164:.\Generated_Source\PSoC5/LIN_1_UART.c **** * Parameters:
 165:.\Generated_Source\PSoC5/LIN_1_UART.c **** *  None.
ARM GAS  C:\Users\MATSUD~1\AppData\Local\Temp\ccwDh0Hw.s 			page 6


 166:.\Generated_Source\PSoC5/LIN_1_UART.c **** *
 167:.\Generated_Source\PSoC5/LIN_1_UART.c **** * Return:
 168:.\Generated_Source\PSoC5/LIN_1_UART.c **** *  None.
 169:.\Generated_Source\PSoC5/LIN_1_UART.c **** *
 170:.\Generated_Source\PSoC5/LIN_1_UART.c **** * Global Variables:
 171:.\Generated_Source\PSoC5/LIN_1_UART.c **** *  LIN_1_UART_rxAddressDetected - set to initial state (0).
 172:.\Generated_Source\PSoC5/LIN_1_UART.c **** *
 173:.\Generated_Source\PSoC5/LIN_1_UART.c **** *******************************************************************************/
 174:.\Generated_Source\PSoC5/LIN_1_UART.c **** void LIN_1_UART_Enable(void) 
 175:.\Generated_Source\PSoC5/LIN_1_UART.c **** {
 121              		.loc 1 175 0
 122              		.cfi_startproc
 123              		@ args = 0, pretend = 0, frame = 8
 124              		@ frame_needed = 1, uses_anonymous_args = 0
 125 0000 80B5     		push	{r7, lr}
 126              	.LCFI4:
 127              		.cfi_def_cfa_offset 8
 128              		.cfi_offset 7, -8
 129              		.cfi_offset 14, -4
 130 0002 82B0     		sub	sp, sp, #8
 131              	.LCFI5:
 132              		.cfi_def_cfa_offset 16
 133 0004 00AF     		add	r7, sp, #0
 134              	.LCFI6:
 135              		.cfi_def_cfa_register 7
 176:.\Generated_Source\PSoC5/LIN_1_UART.c ****     uint8 enableInterrupts;
 177:.\Generated_Source\PSoC5/LIN_1_UART.c ****     enableInterrupts = CyEnterCriticalSection();
 136              		.loc 1 177 0
 137 0006 FFF7FEFF 		bl	CyEnterCriticalSection
 138 000a 0346     		mov	r3, r0
 139 000c FB71     		strb	r3, [r7, #7]
 178:.\Generated_Source\PSoC5/LIN_1_UART.c **** 
 179:.\Generated_Source\PSoC5/LIN_1_UART.c ****     #if(LIN_1_UART_RX_ENABLED || LIN_1_UART_HD_ENABLED)
 180:.\Generated_Source\PSoC5/LIN_1_UART.c ****         /*RX Counter (Count7) Enable */
 181:.\Generated_Source\PSoC5/LIN_1_UART.c ****         LIN_1_UART_RXBITCTR_CONTROL_REG |= LIN_1_UART_CNTR_ENABLE;
 140              		.loc 1 181 0
 141 000e 46F29453 		movw	r3, #26004
 142 0012 C4F20003 		movt	r3, 16384
 143 0016 46F29452 		movw	r2, #26004
 144 001a C4F20002 		movt	r2, 16384
 145 001e 1278     		ldrb	r2, [r2, #0]
 146 0020 D2B2     		uxtb	r2, r2
 147 0022 42F02002 		orr	r2, r2, #32
 148 0026 D2B2     		uxtb	r2, r2
 149 0028 1A70     		strb	r2, [r3, #0]
 182:.\Generated_Source\PSoC5/LIN_1_UART.c ****         /* Enable the RX Interrupt. */
 183:.\Generated_Source\PSoC5/LIN_1_UART.c ****         LIN_1_UART_RXSTATUS_ACTL_REG  |= LIN_1_UART_INT_ENABLE;
 150              		.loc 1 183 0
 151 002a 46F29753 		movw	r3, #26007
 152 002e C4F20003 		movt	r3, 16384
 153 0032 46F29752 		movw	r2, #26007
 154 0036 C4F20002 		movt	r2, 16384
 155 003a 1278     		ldrb	r2, [r2, #0]
 156 003c D2B2     		uxtb	r2, r2
 157 003e 42F01002 		orr	r2, r2, #16
 158 0042 D2B2     		uxtb	r2, r2
 159 0044 1A70     		strb	r2, [r3, #0]
ARM GAS  C:\Users\MATSUD~1\AppData\Local\Temp\ccwDh0Hw.s 			page 7


 184:.\Generated_Source\PSoC5/LIN_1_UART.c ****         #if(LIN_1_UART_RX_INTERRUPT_ENABLED && (LIN_1_UART_RXBUFFERSIZE > LIN_1_UART_FIFO_LENGTH))
 185:.\Generated_Source\PSoC5/LIN_1_UART.c ****             CyIntEnable(LIN_1_UART_RX_VECT_NUM);
 186:.\Generated_Source\PSoC5/LIN_1_UART.c ****             #if (LIN_1_UART_RXHW_ADDRESS_ENABLED)
 187:.\Generated_Source\PSoC5/LIN_1_UART.c ****                 LIN_1_UART_rxAddressDetected = 0u;
 188:.\Generated_Source\PSoC5/LIN_1_UART.c ****             #endif /* End LIN_1_UART_RXHW_ADDRESS_ENABLED */
 189:.\Generated_Source\PSoC5/LIN_1_UART.c ****         #endif /* End LIN_1_UART_RX_INTERRUPT_ENABLED */
 190:.\Generated_Source\PSoC5/LIN_1_UART.c ****     #endif /* End LIN_1_UART_RX_ENABLED || LIN_1_UART_HD_ENABLED*/
 191:.\Generated_Source\PSoC5/LIN_1_UART.c **** 
 192:.\Generated_Source\PSoC5/LIN_1_UART.c ****     #if(LIN_1_UART_TX_ENABLED)
 193:.\Generated_Source\PSoC5/LIN_1_UART.c ****         /*TX Counter (DP/Count7) Enable */
 194:.\Generated_Source\PSoC5/LIN_1_UART.c ****         #if(!LIN_1_UART_TXCLKGEN_DP)
 195:.\Generated_Source\PSoC5/LIN_1_UART.c ****             LIN_1_UART_TXBITCTR_CONTROL_REG |= LIN_1_UART_CNTR_ENABLE;
 160              		.loc 1 195 0
 161 0046 46F29343 		movw	r3, #25747
 162 004a C4F20003 		movt	r3, 16384
 163 004e 46F29342 		movw	r2, #25747
 164 0052 C4F20002 		movt	r2, 16384
 165 0056 1278     		ldrb	r2, [r2, #0]
 166 0058 D2B2     		uxtb	r2, r2
 167 005a 42F02002 		orr	r2, r2, #32
 168 005e D2B2     		uxtb	r2, r2
 169 0060 1A70     		strb	r2, [r3, #0]
 196:.\Generated_Source\PSoC5/LIN_1_UART.c ****         #endif /* End LIN_1_UART_TXCLKGEN_DP */
 197:.\Generated_Source\PSoC5/LIN_1_UART.c ****         /* Enable the TX Interrupt. */
 198:.\Generated_Source\PSoC5/LIN_1_UART.c ****         LIN_1_UART_TXSTATUS_ACTL_REG |= LIN_1_UART_INT_ENABLE;
 170              		.loc 1 198 0
 171 0062 46F29743 		movw	r3, #25751
 172 0066 C4F20003 		movt	r3, 16384
 173 006a 46F29742 		movw	r2, #25751
 174 006e C4F20002 		movt	r2, 16384
 175 0072 1278     		ldrb	r2, [r2, #0]
 176 0074 D2B2     		uxtb	r2, r2
 177 0076 42F01002 		orr	r2, r2, #16
 178 007a D2B2     		uxtb	r2, r2
 179 007c 1A70     		strb	r2, [r3, #0]
 199:.\Generated_Source\PSoC5/LIN_1_UART.c ****         #if(LIN_1_UART_TX_INTERRUPT_ENABLED && (LIN_1_UART_TXBUFFERSIZE > LIN_1_UART_FIFO_LENGTH))
 200:.\Generated_Source\PSoC5/LIN_1_UART.c ****             CyIntEnable(LIN_1_UART_TX_VECT_NUM);
 201:.\Generated_Source\PSoC5/LIN_1_UART.c ****         #endif /* End LIN_1_UART_TX_INTERRUPT_ENABLED*/
 202:.\Generated_Source\PSoC5/LIN_1_UART.c ****      #endif /* End LIN_1_UART_TX_ENABLED */
 203:.\Generated_Source\PSoC5/LIN_1_UART.c **** 
 204:.\Generated_Source\PSoC5/LIN_1_UART.c ****     #if(LIN_1_UART_INTERNAL_CLOCK_USED)
 205:.\Generated_Source\PSoC5/LIN_1_UART.c ****         /* Enable the clock. */
 206:.\Generated_Source\PSoC5/LIN_1_UART.c ****         LIN_1_UART_IntClock_Start();
 207:.\Generated_Source\PSoC5/LIN_1_UART.c ****     #endif /* End LIN_1_UART_INTERNAL_CLOCK_USED */
 208:.\Generated_Source\PSoC5/LIN_1_UART.c **** 
 209:.\Generated_Source\PSoC5/LIN_1_UART.c ****     CyExitCriticalSection(enableInterrupts);
 180              		.loc 1 209 0
 181 007e FB79     		ldrb	r3, [r7, #7]	@ zero_extendqisi2
 182 0080 1846     		mov	r0, r3
 183 0082 FFF7FEFF 		bl	CyExitCriticalSection
 210:.\Generated_Source\PSoC5/LIN_1_UART.c **** }
 184              		.loc 1 210 0
 185 0086 07F10807 		add	r7, r7, #8
 186 008a BD46     		mov	sp, r7
 187 008c 80BD     		pop	{r7, pc}
 188              		.cfi_endproc
 189              	.LFE2:
ARM GAS  C:\Users\MATSUD~1\AppData\Local\Temp\ccwDh0Hw.s 			page 8


 190              		.size	LIN_1_UART_Enable, .-LIN_1_UART_Enable
 191 008e 00BF     		.section	.text.LIN_1_UART_Stop,"ax",%progbits
 192              		.align	2
 193              		.global	LIN_1_UART_Stop
 194              		.thumb
 195              		.thumb_func
 196              		.type	LIN_1_UART_Stop, %function
 197              	LIN_1_UART_Stop:
 198              	.LFB3:
 211:.\Generated_Source\PSoC5/LIN_1_UART.c **** 
 212:.\Generated_Source\PSoC5/LIN_1_UART.c **** 
 213:.\Generated_Source\PSoC5/LIN_1_UART.c **** /*******************************************************************************
 214:.\Generated_Source\PSoC5/LIN_1_UART.c **** * Function Name: LIN_1_UART_Stop
 215:.\Generated_Source\PSoC5/LIN_1_UART.c **** ********************************************************************************
 216:.\Generated_Source\PSoC5/LIN_1_UART.c **** *
 217:.\Generated_Source\PSoC5/LIN_1_UART.c **** * Summary:
 218:.\Generated_Source\PSoC5/LIN_1_UART.c **** *  Disable the UART component
 219:.\Generated_Source\PSoC5/LIN_1_UART.c **** *
 220:.\Generated_Source\PSoC5/LIN_1_UART.c **** * Parameters:
 221:.\Generated_Source\PSoC5/LIN_1_UART.c **** *  None.
 222:.\Generated_Source\PSoC5/LIN_1_UART.c **** *
 223:.\Generated_Source\PSoC5/LIN_1_UART.c **** * Return:
 224:.\Generated_Source\PSoC5/LIN_1_UART.c **** *  None.
 225:.\Generated_Source\PSoC5/LIN_1_UART.c **** *
 226:.\Generated_Source\PSoC5/LIN_1_UART.c **** *******************************************************************************/
 227:.\Generated_Source\PSoC5/LIN_1_UART.c **** void LIN_1_UART_Stop(void) 
 228:.\Generated_Source\PSoC5/LIN_1_UART.c **** {
 199              		.loc 1 228 0
 200              		.cfi_startproc
 201              		@ args = 0, pretend = 0, frame = 8
 202              		@ frame_needed = 1, uses_anonymous_args = 0
 203 0000 80B5     		push	{r7, lr}
 204              	.LCFI7:
 205              		.cfi_def_cfa_offset 8
 206              		.cfi_offset 7, -8
 207              		.cfi_offset 14, -4
 208 0002 82B0     		sub	sp, sp, #8
 209              	.LCFI8:
 210              		.cfi_def_cfa_offset 16
 211 0004 00AF     		add	r7, sp, #0
 212              	.LCFI9:
 213              		.cfi_def_cfa_register 7
 229:.\Generated_Source\PSoC5/LIN_1_UART.c ****     uint8 enableInterrupts;
 230:.\Generated_Source\PSoC5/LIN_1_UART.c ****     enableInterrupts = CyEnterCriticalSection();
 214              		.loc 1 230 0
 215 0006 FFF7FEFF 		bl	CyEnterCriticalSection
 216 000a 0346     		mov	r3, r0
 217 000c FB71     		strb	r3, [r7, #7]
 231:.\Generated_Source\PSoC5/LIN_1_UART.c **** 
 232:.\Generated_Source\PSoC5/LIN_1_UART.c ****     /* Write Bit Counter Disable */
 233:.\Generated_Source\PSoC5/LIN_1_UART.c ****     #if(LIN_1_UART_RX_ENABLED || LIN_1_UART_HD_ENABLED)
 234:.\Generated_Source\PSoC5/LIN_1_UART.c ****         LIN_1_UART_RXBITCTR_CONTROL_REG &= (uint8)~LIN_1_UART_CNTR_ENABLE;
 218              		.loc 1 234 0
 219 000e 46F29453 		movw	r3, #26004
 220 0012 C4F20003 		movt	r3, 16384
 221 0016 46F29452 		movw	r2, #26004
 222 001a C4F20002 		movt	r2, 16384
ARM GAS  C:\Users\MATSUD~1\AppData\Local\Temp\ccwDh0Hw.s 			page 9


 223 001e 1278     		ldrb	r2, [r2, #0]
 224 0020 D2B2     		uxtb	r2, r2
 225 0022 22F02002 		bic	r2, r2, #32
 226 0026 D2B2     		uxtb	r2, r2
 227 0028 1A70     		strb	r2, [r3, #0]
 235:.\Generated_Source\PSoC5/LIN_1_UART.c ****     #endif /* End LIN_1_UART_RX_ENABLED */
 236:.\Generated_Source\PSoC5/LIN_1_UART.c **** 
 237:.\Generated_Source\PSoC5/LIN_1_UART.c ****     #if(LIN_1_UART_TX_ENABLED)
 238:.\Generated_Source\PSoC5/LIN_1_UART.c ****         #if(!LIN_1_UART_TXCLKGEN_DP)
 239:.\Generated_Source\PSoC5/LIN_1_UART.c ****             LIN_1_UART_TXBITCTR_CONTROL_REG &= (uint8)~LIN_1_UART_CNTR_ENABLE;
 228              		.loc 1 239 0
 229 002a 46F29343 		movw	r3, #25747
 230 002e C4F20003 		movt	r3, 16384
 231 0032 46F29342 		movw	r2, #25747
 232 0036 C4F20002 		movt	r2, 16384
 233 003a 1278     		ldrb	r2, [r2, #0]
 234 003c D2B2     		uxtb	r2, r2
 235 003e 22F02002 		bic	r2, r2, #32
 236 0042 D2B2     		uxtb	r2, r2
 237 0044 1A70     		strb	r2, [r3, #0]
 240:.\Generated_Source\PSoC5/LIN_1_UART.c ****         #endif /* End LIN_1_UART_TXCLKGEN_DP */
 241:.\Generated_Source\PSoC5/LIN_1_UART.c ****     #endif /* LIN_1_UART_TX_ENABLED */
 242:.\Generated_Source\PSoC5/LIN_1_UART.c **** 
 243:.\Generated_Source\PSoC5/LIN_1_UART.c ****     #if(LIN_1_UART_INTERNAL_CLOCK_USED)
 244:.\Generated_Source\PSoC5/LIN_1_UART.c ****         /* Disable the clock. */
 245:.\Generated_Source\PSoC5/LIN_1_UART.c ****         LIN_1_UART_IntClock_Stop();
 246:.\Generated_Source\PSoC5/LIN_1_UART.c ****     #endif /* End LIN_1_UART_INTERNAL_CLOCK_USED */
 247:.\Generated_Source\PSoC5/LIN_1_UART.c **** 
 248:.\Generated_Source\PSoC5/LIN_1_UART.c ****     /* Disable internal interrupt component */
 249:.\Generated_Source\PSoC5/LIN_1_UART.c ****     #if(LIN_1_UART_RX_ENABLED || LIN_1_UART_HD_ENABLED)
 250:.\Generated_Source\PSoC5/LIN_1_UART.c ****         LIN_1_UART_RXSTATUS_ACTL_REG  &= (uint8)~LIN_1_UART_INT_ENABLE;
 238              		.loc 1 250 0
 239 0046 46F29753 		movw	r3, #26007
 240 004a C4F20003 		movt	r3, 16384
 241 004e 46F29752 		movw	r2, #26007
 242 0052 C4F20002 		movt	r2, 16384
 243 0056 1278     		ldrb	r2, [r2, #0]
 244 0058 D2B2     		uxtb	r2, r2
 245 005a 22F01002 		bic	r2, r2, #16
 246 005e D2B2     		uxtb	r2, r2
 247 0060 1A70     		strb	r2, [r3, #0]
 251:.\Generated_Source\PSoC5/LIN_1_UART.c ****         #if(LIN_1_UART_RX_INTERRUPT_ENABLED && (LIN_1_UART_RXBUFFERSIZE > LIN_1_UART_FIFO_LENGTH))
 252:.\Generated_Source\PSoC5/LIN_1_UART.c ****             LIN_1_UART_DisableRxInt();
 253:.\Generated_Source\PSoC5/LIN_1_UART.c ****         #endif /* End LIN_1_UART_RX_INTERRUPT_ENABLED */
 254:.\Generated_Source\PSoC5/LIN_1_UART.c ****     #endif /* End LIN_1_UART_RX_ENABLED */
 255:.\Generated_Source\PSoC5/LIN_1_UART.c **** 
 256:.\Generated_Source\PSoC5/LIN_1_UART.c ****     #if(LIN_1_UART_TX_ENABLED)
 257:.\Generated_Source\PSoC5/LIN_1_UART.c ****         LIN_1_UART_TXSTATUS_ACTL_REG &= (uint8)~LIN_1_UART_INT_ENABLE;
 248              		.loc 1 257 0
 249 0062 46F29743 		movw	r3, #25751
 250 0066 C4F20003 		movt	r3, 16384
 251 006a 46F29742 		movw	r2, #25751
 252 006e C4F20002 		movt	r2, 16384
 253 0072 1278     		ldrb	r2, [r2, #0]
 254 0074 D2B2     		uxtb	r2, r2
 255 0076 22F01002 		bic	r2, r2, #16
 256 007a D2B2     		uxtb	r2, r2
ARM GAS  C:\Users\MATSUD~1\AppData\Local\Temp\ccwDh0Hw.s 			page 10


 257 007c 1A70     		strb	r2, [r3, #0]
 258:.\Generated_Source\PSoC5/LIN_1_UART.c ****         #if(LIN_1_UART_TX_INTERRUPT_ENABLED && (LIN_1_UART_TXBUFFERSIZE > LIN_1_UART_FIFO_LENGTH))
 259:.\Generated_Source\PSoC5/LIN_1_UART.c ****             LIN_1_UART_DisableTxInt();
 260:.\Generated_Source\PSoC5/LIN_1_UART.c ****         #endif /* End LIN_1_UART_TX_INTERRUPT_ENABLED */
 261:.\Generated_Source\PSoC5/LIN_1_UART.c ****     #endif /* End LIN_1_UART_TX_ENABLED */
 262:.\Generated_Source\PSoC5/LIN_1_UART.c **** 
 263:.\Generated_Source\PSoC5/LIN_1_UART.c ****     CyExitCriticalSection(enableInterrupts);
 258              		.loc 1 263 0
 259 007e FB79     		ldrb	r3, [r7, #7]	@ zero_extendqisi2
 260 0080 1846     		mov	r0, r3
 261 0082 FFF7FEFF 		bl	CyExitCriticalSection
 264:.\Generated_Source\PSoC5/LIN_1_UART.c **** }
 262              		.loc 1 264 0
 263 0086 07F10807 		add	r7, r7, #8
 264 008a BD46     		mov	sp, r7
 265 008c 80BD     		pop	{r7, pc}
 266              		.cfi_endproc
 267              	.LFE3:
 268              		.size	LIN_1_UART_Stop, .-LIN_1_UART_Stop
 269 008e 00BF     		.section	.text.LIN_1_UART_ReadControlRegister,"ax",%progbits
 270              		.align	2
 271              		.global	LIN_1_UART_ReadControlRegister
 272              		.thumb
 273              		.thumb_func
 274              		.type	LIN_1_UART_ReadControlRegister, %function
 275              	LIN_1_UART_ReadControlRegister:
 276              	.LFB4:
 265:.\Generated_Source\PSoC5/LIN_1_UART.c **** 
 266:.\Generated_Source\PSoC5/LIN_1_UART.c **** 
 267:.\Generated_Source\PSoC5/LIN_1_UART.c **** /*******************************************************************************
 268:.\Generated_Source\PSoC5/LIN_1_UART.c **** * Function Name: LIN_1_UART_ReadControlRegister
 269:.\Generated_Source\PSoC5/LIN_1_UART.c **** ********************************************************************************
 270:.\Generated_Source\PSoC5/LIN_1_UART.c **** *
 271:.\Generated_Source\PSoC5/LIN_1_UART.c **** * Summary:
 272:.\Generated_Source\PSoC5/LIN_1_UART.c **** *  Read the current state of the control register
 273:.\Generated_Source\PSoC5/LIN_1_UART.c **** *
 274:.\Generated_Source\PSoC5/LIN_1_UART.c **** * Parameters:
 275:.\Generated_Source\PSoC5/LIN_1_UART.c **** *  None.
 276:.\Generated_Source\PSoC5/LIN_1_UART.c **** *
 277:.\Generated_Source\PSoC5/LIN_1_UART.c **** * Return:
 278:.\Generated_Source\PSoC5/LIN_1_UART.c **** *  Current state of the control register.
 279:.\Generated_Source\PSoC5/LIN_1_UART.c **** *
 280:.\Generated_Source\PSoC5/LIN_1_UART.c **** *******************************************************************************/
 281:.\Generated_Source\PSoC5/LIN_1_UART.c **** uint8 LIN_1_UART_ReadControlRegister(void) 
 282:.\Generated_Source\PSoC5/LIN_1_UART.c **** {
 277              		.loc 1 282 0
 278              		.cfi_startproc
 279              		@ args = 0, pretend = 0, frame = 0
 280              		@ frame_needed = 1, uses_anonymous_args = 0
 281              		@ link register save eliminated.
 282 0000 80B4     		push	{r7}
 283              	.LCFI10:
 284              		.cfi_def_cfa_offset 4
 285              		.cfi_offset 7, -4
 286 0002 00AF     		add	r7, sp, #0
 287              	.LCFI11:
 288              		.cfi_def_cfa_register 7
ARM GAS  C:\Users\MATSUD~1\AppData\Local\Temp\ccwDh0Hw.s 			page 11


 283:.\Generated_Source\PSoC5/LIN_1_UART.c ****     #if( LIN_1_UART_CONTROL_REG_REMOVED )
 284:.\Generated_Source\PSoC5/LIN_1_UART.c ****         return(0u);
 289              		.loc 1 284 0
 290 0004 4FF00003 		mov	r3, #0
 285:.\Generated_Source\PSoC5/LIN_1_UART.c ****     #else
 286:.\Generated_Source\PSoC5/LIN_1_UART.c ****         return(LIN_1_UART_CONTROL_REG);
 287:.\Generated_Source\PSoC5/LIN_1_UART.c ****     #endif /* End LIN_1_UART_CONTROL_REG_REMOVED */
 288:.\Generated_Source\PSoC5/LIN_1_UART.c **** }
 291              		.loc 1 288 0
 292 0008 1846     		mov	r0, r3
 293 000a BD46     		mov	sp, r7
 294 000c 80BC     		pop	{r7}
 295 000e 7047     		bx	lr
 296              		.cfi_endproc
 297              	.LFE4:
 298              		.size	LIN_1_UART_ReadControlRegister, .-LIN_1_UART_ReadControlRegister
 299              		.section	.text.LIN_1_UART_WriteControlRegister,"ax",%progbits
 300              		.align	2
 301              		.global	LIN_1_UART_WriteControlRegister
 302              		.thumb
 303              		.thumb_func
 304              		.type	LIN_1_UART_WriteControlRegister, %function
 305              	LIN_1_UART_WriteControlRegister:
 306              	.LFB5:
 289:.\Generated_Source\PSoC5/LIN_1_UART.c **** 
 290:.\Generated_Source\PSoC5/LIN_1_UART.c **** 
 291:.\Generated_Source\PSoC5/LIN_1_UART.c **** /*******************************************************************************
 292:.\Generated_Source\PSoC5/LIN_1_UART.c **** * Function Name: LIN_1_UART_WriteControlRegister
 293:.\Generated_Source\PSoC5/LIN_1_UART.c **** ********************************************************************************
 294:.\Generated_Source\PSoC5/LIN_1_UART.c **** *
 295:.\Generated_Source\PSoC5/LIN_1_UART.c **** * Summary:
 296:.\Generated_Source\PSoC5/LIN_1_UART.c **** *  Writes an 8-bit value into the control register
 297:.\Generated_Source\PSoC5/LIN_1_UART.c **** *
 298:.\Generated_Source\PSoC5/LIN_1_UART.c **** * Parameters:
 299:.\Generated_Source\PSoC5/LIN_1_UART.c **** *  control:  control register value
 300:.\Generated_Source\PSoC5/LIN_1_UART.c **** *
 301:.\Generated_Source\PSoC5/LIN_1_UART.c **** * Return:
 302:.\Generated_Source\PSoC5/LIN_1_UART.c **** *  None.
 303:.\Generated_Source\PSoC5/LIN_1_UART.c **** *
 304:.\Generated_Source\PSoC5/LIN_1_UART.c **** *******************************************************************************/
 305:.\Generated_Source\PSoC5/LIN_1_UART.c **** void  LIN_1_UART_WriteControlRegister(uint8 control) 
 306:.\Generated_Source\PSoC5/LIN_1_UART.c **** {
 307              		.loc 1 306 0
 308              		.cfi_startproc
 309              		@ args = 0, pretend = 0, frame = 8
 310              		@ frame_needed = 1, uses_anonymous_args = 0
 311              		@ link register save eliminated.
 312 0000 80B4     		push	{r7}
 313              	.LCFI12:
 314              		.cfi_def_cfa_offset 4
 315              		.cfi_offset 7, -4
 316 0002 83B0     		sub	sp, sp, #12
 317              	.LCFI13:
 318              		.cfi_def_cfa_offset 16
 319 0004 00AF     		add	r7, sp, #0
 320              	.LCFI14:
 321              		.cfi_def_cfa_register 7
ARM GAS  C:\Users\MATSUD~1\AppData\Local\Temp\ccwDh0Hw.s 			page 12


 322 0006 0346     		mov	r3, r0
 323 0008 FB71     		strb	r3, [r7, #7]
 307:.\Generated_Source\PSoC5/LIN_1_UART.c ****     #if( LIN_1_UART_CONTROL_REG_REMOVED )
 308:.\Generated_Source\PSoC5/LIN_1_UART.c ****         if(control != 0u) { }      /* release compiler warning */
 309:.\Generated_Source\PSoC5/LIN_1_UART.c ****     #else
 310:.\Generated_Source\PSoC5/LIN_1_UART.c ****        LIN_1_UART_CONTROL_REG = control;
 311:.\Generated_Source\PSoC5/LIN_1_UART.c ****     #endif /* End LIN_1_UART_CONTROL_REG_REMOVED */
 312:.\Generated_Source\PSoC5/LIN_1_UART.c **** }
 324              		.loc 1 312 0
 325 000a 07F10C07 		add	r7, r7, #12
 326 000e BD46     		mov	sp, r7
 327 0010 80BC     		pop	{r7}
 328 0012 7047     		bx	lr
 329              		.cfi_endproc
 330              	.LFE5:
 331              		.size	LIN_1_UART_WriteControlRegister, .-LIN_1_UART_WriteControlRegister
 332              		.section	.text.LIN_1_UART_SetRxInterruptMode,"ax",%progbits
 333              		.align	2
 334              		.global	LIN_1_UART_SetRxInterruptMode
 335              		.thumb
 336              		.thumb_func
 337              		.type	LIN_1_UART_SetRxInterruptMode, %function
 338              	LIN_1_UART_SetRxInterruptMode:
 339              	.LFB6:
 313:.\Generated_Source\PSoC5/LIN_1_UART.c **** 
 314:.\Generated_Source\PSoC5/LIN_1_UART.c **** 
 315:.\Generated_Source\PSoC5/LIN_1_UART.c **** #if(LIN_1_UART_RX_ENABLED || LIN_1_UART_HD_ENABLED)
 316:.\Generated_Source\PSoC5/LIN_1_UART.c **** 
 317:.\Generated_Source\PSoC5/LIN_1_UART.c ****     #if(LIN_1_UART_RX_INTERRUPT_ENABLED)
 318:.\Generated_Source\PSoC5/LIN_1_UART.c **** 
 319:.\Generated_Source\PSoC5/LIN_1_UART.c ****         /*******************************************************************************
 320:.\Generated_Source\PSoC5/LIN_1_UART.c ****         * Function Name: LIN_1_UART_EnableRxInt
 321:.\Generated_Source\PSoC5/LIN_1_UART.c ****         ********************************************************************************
 322:.\Generated_Source\PSoC5/LIN_1_UART.c ****         *
 323:.\Generated_Source\PSoC5/LIN_1_UART.c ****         * Summary:
 324:.\Generated_Source\PSoC5/LIN_1_UART.c ****         *  Enable RX interrupt generation
 325:.\Generated_Source\PSoC5/LIN_1_UART.c ****         *
 326:.\Generated_Source\PSoC5/LIN_1_UART.c ****         * Parameters:
 327:.\Generated_Source\PSoC5/LIN_1_UART.c ****         *  None.
 328:.\Generated_Source\PSoC5/LIN_1_UART.c ****         *
 329:.\Generated_Source\PSoC5/LIN_1_UART.c ****         * Return:
 330:.\Generated_Source\PSoC5/LIN_1_UART.c ****         *  None.
 331:.\Generated_Source\PSoC5/LIN_1_UART.c ****         *
 332:.\Generated_Source\PSoC5/LIN_1_UART.c ****         * Theory:
 333:.\Generated_Source\PSoC5/LIN_1_UART.c ****         *  Enable the interrupt output -or- the interrupt component itself
 334:.\Generated_Source\PSoC5/LIN_1_UART.c ****         *
 335:.\Generated_Source\PSoC5/LIN_1_UART.c ****         *******************************************************************************/
 336:.\Generated_Source\PSoC5/LIN_1_UART.c ****         void LIN_1_UART_EnableRxInt(void) 
 337:.\Generated_Source\PSoC5/LIN_1_UART.c ****         {
 338:.\Generated_Source\PSoC5/LIN_1_UART.c ****             CyIntEnable(LIN_1_UART_RX_VECT_NUM);
 339:.\Generated_Source\PSoC5/LIN_1_UART.c ****         }
 340:.\Generated_Source\PSoC5/LIN_1_UART.c **** 
 341:.\Generated_Source\PSoC5/LIN_1_UART.c **** 
 342:.\Generated_Source\PSoC5/LIN_1_UART.c ****         /*******************************************************************************
 343:.\Generated_Source\PSoC5/LIN_1_UART.c ****         * Function Name: LIN_1_UART_DisableRxInt
 344:.\Generated_Source\PSoC5/LIN_1_UART.c ****         ********************************************************************************
 345:.\Generated_Source\PSoC5/LIN_1_UART.c ****         *
ARM GAS  C:\Users\MATSUD~1\AppData\Local\Temp\ccwDh0Hw.s 			page 13


 346:.\Generated_Source\PSoC5/LIN_1_UART.c ****         * Summary:
 347:.\Generated_Source\PSoC5/LIN_1_UART.c ****         *  Disable RX interrupt generation
 348:.\Generated_Source\PSoC5/LIN_1_UART.c ****         *
 349:.\Generated_Source\PSoC5/LIN_1_UART.c ****         * Parameters:
 350:.\Generated_Source\PSoC5/LIN_1_UART.c ****         *  None.
 351:.\Generated_Source\PSoC5/LIN_1_UART.c ****         *
 352:.\Generated_Source\PSoC5/LIN_1_UART.c ****         * Return:
 353:.\Generated_Source\PSoC5/LIN_1_UART.c ****         *  None.
 354:.\Generated_Source\PSoC5/LIN_1_UART.c ****         *
 355:.\Generated_Source\PSoC5/LIN_1_UART.c ****         * Theory:
 356:.\Generated_Source\PSoC5/LIN_1_UART.c ****         *  Disable the interrupt output -or- the interrupt component itself
 357:.\Generated_Source\PSoC5/LIN_1_UART.c ****         *
 358:.\Generated_Source\PSoC5/LIN_1_UART.c ****         *******************************************************************************/
 359:.\Generated_Source\PSoC5/LIN_1_UART.c ****         void LIN_1_UART_DisableRxInt(void) 
 360:.\Generated_Source\PSoC5/LIN_1_UART.c ****         {
 361:.\Generated_Source\PSoC5/LIN_1_UART.c ****             CyIntDisable(LIN_1_UART_RX_VECT_NUM);
 362:.\Generated_Source\PSoC5/LIN_1_UART.c ****         }
 363:.\Generated_Source\PSoC5/LIN_1_UART.c **** 
 364:.\Generated_Source\PSoC5/LIN_1_UART.c ****     #endif /* LIN_1_UART_RX_INTERRUPT_ENABLED */
 365:.\Generated_Source\PSoC5/LIN_1_UART.c **** 
 366:.\Generated_Source\PSoC5/LIN_1_UART.c **** 
 367:.\Generated_Source\PSoC5/LIN_1_UART.c ****     /*******************************************************************************
 368:.\Generated_Source\PSoC5/LIN_1_UART.c ****     * Function Name: LIN_1_UART_SetRxInterruptMode
 369:.\Generated_Source\PSoC5/LIN_1_UART.c ****     ********************************************************************************
 370:.\Generated_Source\PSoC5/LIN_1_UART.c ****     *
 371:.\Generated_Source\PSoC5/LIN_1_UART.c ****     * Summary:
 372:.\Generated_Source\PSoC5/LIN_1_UART.c ****     *  Configure which status bits trigger an interrupt event
 373:.\Generated_Source\PSoC5/LIN_1_UART.c ****     *
 374:.\Generated_Source\PSoC5/LIN_1_UART.c ****     * Parameters:
 375:.\Generated_Source\PSoC5/LIN_1_UART.c ****     *  IntSrc:  An or'd combination of the desired status bit masks (defined in
 376:.\Generated_Source\PSoC5/LIN_1_UART.c ****     *           the header file)
 377:.\Generated_Source\PSoC5/LIN_1_UART.c ****     *
 378:.\Generated_Source\PSoC5/LIN_1_UART.c ****     * Return:
 379:.\Generated_Source\PSoC5/LIN_1_UART.c ****     *  None.
 380:.\Generated_Source\PSoC5/LIN_1_UART.c ****     *
 381:.\Generated_Source\PSoC5/LIN_1_UART.c ****     * Theory:
 382:.\Generated_Source\PSoC5/LIN_1_UART.c ****     *  Enables the output of specific status bits to the interrupt controller
 383:.\Generated_Source\PSoC5/LIN_1_UART.c ****     *
 384:.\Generated_Source\PSoC5/LIN_1_UART.c ****     *******************************************************************************/
 385:.\Generated_Source\PSoC5/LIN_1_UART.c ****     void LIN_1_UART_SetRxInterruptMode(uint8 intSrc) 
 386:.\Generated_Source\PSoC5/LIN_1_UART.c ****     {
 340              		.loc 1 386 0
 341              		.cfi_startproc
 342              		@ args = 0, pretend = 0, frame = 8
 343              		@ frame_needed = 1, uses_anonymous_args = 0
 344              		@ link register save eliminated.
 345 0000 80B4     		push	{r7}
 346              	.LCFI15:
 347              		.cfi_def_cfa_offset 4
 348              		.cfi_offset 7, -4
 349 0002 83B0     		sub	sp, sp, #12
 350              	.LCFI16:
 351              		.cfi_def_cfa_offset 16
 352 0004 00AF     		add	r7, sp, #0
 353              	.LCFI17:
 354              		.cfi_def_cfa_register 7
 355 0006 0346     		mov	r3, r0
ARM GAS  C:\Users\MATSUD~1\AppData\Local\Temp\ccwDh0Hw.s 			page 14


 356 0008 FB71     		strb	r3, [r7, #7]
 387:.\Generated_Source\PSoC5/LIN_1_UART.c ****         LIN_1_UART_RXSTATUS_MASK_REG  = intSrc;
 357              		.loc 1 387 0
 358 000a 46F28753 		movw	r3, #25991
 359 000e C4F20003 		movt	r3, 16384
 360 0012 FA79     		ldrb	r2, [r7, #7]
 361 0014 1A70     		strb	r2, [r3, #0]
 388:.\Generated_Source\PSoC5/LIN_1_UART.c ****     }
 362              		.loc 1 388 0
 363 0016 07F10C07 		add	r7, r7, #12
 364 001a BD46     		mov	sp, r7
 365 001c 80BC     		pop	{r7}
 366 001e 7047     		bx	lr
 367              		.cfi_endproc
 368              	.LFE6:
 369              		.size	LIN_1_UART_SetRxInterruptMode, .-LIN_1_UART_SetRxInterruptMode
 370              		.section	.text.LIN_1_UART_ReadRxData,"ax",%progbits
 371              		.align	2
 372              		.global	LIN_1_UART_ReadRxData
 373              		.thumb
 374              		.thumb_func
 375              		.type	LIN_1_UART_ReadRxData, %function
 376              	LIN_1_UART_ReadRxData:
 377              	.LFB7:
 389:.\Generated_Source\PSoC5/LIN_1_UART.c **** 
 390:.\Generated_Source\PSoC5/LIN_1_UART.c **** 
 391:.\Generated_Source\PSoC5/LIN_1_UART.c ****     /*******************************************************************************
 392:.\Generated_Source\PSoC5/LIN_1_UART.c ****     * Function Name: LIN_1_UART_ReadRxData
 393:.\Generated_Source\PSoC5/LIN_1_UART.c ****     ********************************************************************************
 394:.\Generated_Source\PSoC5/LIN_1_UART.c ****     *
 395:.\Generated_Source\PSoC5/LIN_1_UART.c ****     * Summary:
 396:.\Generated_Source\PSoC5/LIN_1_UART.c ****     *  Returns data in RX Data register without checking status register to
 397:.\Generated_Source\PSoC5/LIN_1_UART.c ****     *  determine if data is valid
 398:.\Generated_Source\PSoC5/LIN_1_UART.c ****     *
 399:.\Generated_Source\PSoC5/LIN_1_UART.c ****     * Parameters:
 400:.\Generated_Source\PSoC5/LIN_1_UART.c ****     *  None.
 401:.\Generated_Source\PSoC5/LIN_1_UART.c ****     *
 402:.\Generated_Source\PSoC5/LIN_1_UART.c ****     * Return:
 403:.\Generated_Source\PSoC5/LIN_1_UART.c ****     *  Received data from RX register
 404:.\Generated_Source\PSoC5/LIN_1_UART.c ****     *
 405:.\Generated_Source\PSoC5/LIN_1_UART.c ****     * Global Variables:
 406:.\Generated_Source\PSoC5/LIN_1_UART.c ****     *  LIN_1_UART_rxBuffer - RAM buffer pointer for save received data.
 407:.\Generated_Source\PSoC5/LIN_1_UART.c ****     *  LIN_1_UART_rxBufferWrite - cyclic index for write to rxBuffer,
 408:.\Generated_Source\PSoC5/LIN_1_UART.c ****     *     checked to identify new data.
 409:.\Generated_Source\PSoC5/LIN_1_UART.c ****     *  LIN_1_UART_rxBufferRead - cyclic index for read from rxBuffer,
 410:.\Generated_Source\PSoC5/LIN_1_UART.c ****     *     incremented after each byte has been read from buffer.
 411:.\Generated_Source\PSoC5/LIN_1_UART.c ****     *  LIN_1_UART_rxBufferLoopDetect - creared if loop condition was detected
 412:.\Generated_Source\PSoC5/LIN_1_UART.c ****     *     in RX ISR.
 413:.\Generated_Source\PSoC5/LIN_1_UART.c ****     *
 414:.\Generated_Source\PSoC5/LIN_1_UART.c ****     * Reentrant:
 415:.\Generated_Source\PSoC5/LIN_1_UART.c ****     *  No.
 416:.\Generated_Source\PSoC5/LIN_1_UART.c ****     *
 417:.\Generated_Source\PSoC5/LIN_1_UART.c ****     *******************************************************************************/
 418:.\Generated_Source\PSoC5/LIN_1_UART.c ****     uint8 LIN_1_UART_ReadRxData(void) 
 419:.\Generated_Source\PSoC5/LIN_1_UART.c ****     {
 378              		.loc 1 419 0
 379              		.cfi_startproc
ARM GAS  C:\Users\MATSUD~1\AppData\Local\Temp\ccwDh0Hw.s 			page 15


 380              		@ args = 0, pretend = 0, frame = 8
 381              		@ frame_needed = 1, uses_anonymous_args = 0
 382              		@ link register save eliminated.
 383 0000 80B4     		push	{r7}
 384              	.LCFI18:
 385              		.cfi_def_cfa_offset 4
 386              		.cfi_offset 7, -4
 387 0002 83B0     		sub	sp, sp, #12
 388              	.LCFI19:
 389              		.cfi_def_cfa_offset 16
 390 0004 00AF     		add	r7, sp, #0
 391              	.LCFI20:
 392              		.cfi_def_cfa_register 7
 420:.\Generated_Source\PSoC5/LIN_1_UART.c ****         uint8 rxData;
 421:.\Generated_Source\PSoC5/LIN_1_UART.c **** 
 422:.\Generated_Source\PSoC5/LIN_1_UART.c ****         #if(LIN_1_UART_RXBUFFERSIZE > LIN_1_UART_FIFO_LENGTH)
 423:.\Generated_Source\PSoC5/LIN_1_UART.c ****             uint8 loc_rxBufferRead;
 424:.\Generated_Source\PSoC5/LIN_1_UART.c ****             uint8 loc_rxBufferWrite;
 425:.\Generated_Source\PSoC5/LIN_1_UART.c ****             /* Protect variables that could change on interrupt. */
 426:.\Generated_Source\PSoC5/LIN_1_UART.c ****             /* Disable Rx interrupt. */
 427:.\Generated_Source\PSoC5/LIN_1_UART.c ****             #if(LIN_1_UART_RX_INTERRUPT_ENABLED)
 428:.\Generated_Source\PSoC5/LIN_1_UART.c ****                 LIN_1_UART_DisableRxInt();
 429:.\Generated_Source\PSoC5/LIN_1_UART.c ****             #endif /* LIN_1_UART_RX_INTERRUPT_ENABLED */
 430:.\Generated_Source\PSoC5/LIN_1_UART.c ****             loc_rxBufferRead = LIN_1_UART_rxBufferRead;
 431:.\Generated_Source\PSoC5/LIN_1_UART.c ****             loc_rxBufferWrite = LIN_1_UART_rxBufferWrite;
 432:.\Generated_Source\PSoC5/LIN_1_UART.c **** 
 433:.\Generated_Source\PSoC5/LIN_1_UART.c ****             if( (LIN_1_UART_rxBufferLoopDetect != 0u) || (loc_rxBufferRead != loc_rxBufferWrite) )
 434:.\Generated_Source\PSoC5/LIN_1_UART.c ****             {
 435:.\Generated_Source\PSoC5/LIN_1_UART.c ****                 rxData = LIN_1_UART_rxBuffer[loc_rxBufferRead];
 436:.\Generated_Source\PSoC5/LIN_1_UART.c ****                 loc_rxBufferRead++;
 437:.\Generated_Source\PSoC5/LIN_1_UART.c **** 
 438:.\Generated_Source\PSoC5/LIN_1_UART.c ****                 if(loc_rxBufferRead >= LIN_1_UART_RXBUFFERSIZE)
 439:.\Generated_Source\PSoC5/LIN_1_UART.c ****                 {
 440:.\Generated_Source\PSoC5/LIN_1_UART.c ****                     loc_rxBufferRead = 0u;
 441:.\Generated_Source\PSoC5/LIN_1_UART.c ****                 }
 442:.\Generated_Source\PSoC5/LIN_1_UART.c ****                 /* Update the real pointer */
 443:.\Generated_Source\PSoC5/LIN_1_UART.c ****                 LIN_1_UART_rxBufferRead = loc_rxBufferRead;
 444:.\Generated_Source\PSoC5/LIN_1_UART.c **** 
 445:.\Generated_Source\PSoC5/LIN_1_UART.c ****                 if(LIN_1_UART_rxBufferLoopDetect != 0u )
 446:.\Generated_Source\PSoC5/LIN_1_UART.c ****                 {
 447:.\Generated_Source\PSoC5/LIN_1_UART.c ****                     LIN_1_UART_rxBufferLoopDetect = 0u;
 448:.\Generated_Source\PSoC5/LIN_1_UART.c ****                     #if( (LIN_1_UART_RX_INTERRUPT_ENABLED) && (LIN_1_UART_FLOW_CONTROL != 0u) && \
 449:.\Generated_Source\PSoC5/LIN_1_UART.c ****                          (LIN_1_UART_RXBUFFERSIZE > LIN_1_UART_FIFO_LENGTH) )
 450:.\Generated_Source\PSoC5/LIN_1_UART.c ****                         /* When Hardware Flow Control selected - return RX mask */
 451:.\Generated_Source\PSoC5/LIN_1_UART.c ****                         #if( LIN_1_UART_HD_ENABLED )
 452:.\Generated_Source\PSoC5/LIN_1_UART.c ****                             if((LIN_1_UART_CONTROL_REG & LIN_1_UART_CTRL_HD_SEND) == 0u)
 453:.\Generated_Source\PSoC5/LIN_1_UART.c ****                             {   /* In Half duplex mode return RX mask only in RX
 454:.\Generated_Source\PSoC5/LIN_1_UART.c ****                                 *  configuration set, otherwise
 455:.\Generated_Source\PSoC5/LIN_1_UART.c ****                                 *  mask will be returned in LoadRxConfig() API.
 456:.\Generated_Source\PSoC5/LIN_1_UART.c ****                                 */
 457:.\Generated_Source\PSoC5/LIN_1_UART.c ****                                 LIN_1_UART_RXSTATUS_MASK_REG  |= LIN_1_UART_RX_STS_FIFO_NOTEMPTY;
 458:.\Generated_Source\PSoC5/LIN_1_UART.c ****                             }
 459:.\Generated_Source\PSoC5/LIN_1_UART.c ****                         #else
 460:.\Generated_Source\PSoC5/LIN_1_UART.c ****                             LIN_1_UART_RXSTATUS_MASK_REG  |= LIN_1_UART_RX_STS_FIFO_NOTEMPTY;
 461:.\Generated_Source\PSoC5/LIN_1_UART.c ****                         #endif /* end LIN_1_UART_HD_ENABLED */
 462:.\Generated_Source\PSoC5/LIN_1_UART.c ****                     #endif /* LIN_1_UART_RX_INTERRUPT_ENABLED and Hardware flow control*/
 463:.\Generated_Source\PSoC5/LIN_1_UART.c ****                 }
ARM GAS  C:\Users\MATSUD~1\AppData\Local\Temp\ccwDh0Hw.s 			page 16


 464:.\Generated_Source\PSoC5/LIN_1_UART.c ****             }
 465:.\Generated_Source\PSoC5/LIN_1_UART.c ****             else
 466:.\Generated_Source\PSoC5/LIN_1_UART.c ****             {   /* Needs to check status for RX_STS_FIFO_NOTEMPTY bit*/
 467:.\Generated_Source\PSoC5/LIN_1_UART.c ****                 rxData = LIN_1_UART_RXDATA_REG;
 468:.\Generated_Source\PSoC5/LIN_1_UART.c ****             }
 469:.\Generated_Source\PSoC5/LIN_1_UART.c **** 
 470:.\Generated_Source\PSoC5/LIN_1_UART.c ****             /* Enable Rx interrupt. */
 471:.\Generated_Source\PSoC5/LIN_1_UART.c ****             #if(LIN_1_UART_RX_INTERRUPT_ENABLED)
 472:.\Generated_Source\PSoC5/LIN_1_UART.c ****                 LIN_1_UART_EnableRxInt();
 473:.\Generated_Source\PSoC5/LIN_1_UART.c ****             #endif /* End LIN_1_UART_RX_INTERRUPT_ENABLED */
 474:.\Generated_Source\PSoC5/LIN_1_UART.c **** 
 475:.\Generated_Source\PSoC5/LIN_1_UART.c ****         #else /* LIN_1_UART_RXBUFFERSIZE > LIN_1_UART_FIFO_LENGTH */
 476:.\Generated_Source\PSoC5/LIN_1_UART.c **** 
 477:.\Generated_Source\PSoC5/LIN_1_UART.c ****             /* Needs to check status for RX_STS_FIFO_NOTEMPTY bit*/
 478:.\Generated_Source\PSoC5/LIN_1_UART.c ****             rxData = LIN_1_UART_RXDATA_REG;
 393              		.loc 1 478 0
 394 0006 46F24453 		movw	r3, #25924
 395 000a C4F20003 		movt	r3, 16384
 396 000e 1B78     		ldrb	r3, [r3, #0]
 397 0010 FB71     		strb	r3, [r7, #7]
 479:.\Generated_Source\PSoC5/LIN_1_UART.c **** 
 480:.\Generated_Source\PSoC5/LIN_1_UART.c ****         #endif /* LIN_1_UART_RXBUFFERSIZE > LIN_1_UART_FIFO_LENGTH */
 481:.\Generated_Source\PSoC5/LIN_1_UART.c **** 
 482:.\Generated_Source\PSoC5/LIN_1_UART.c ****         return(rxData);
 398              		.loc 1 482 0
 399 0012 FB79     		ldrb	r3, [r7, #7]	@ zero_extendqisi2
 483:.\Generated_Source\PSoC5/LIN_1_UART.c ****     }
 400              		.loc 1 483 0
 401 0014 1846     		mov	r0, r3
 402 0016 07F10C07 		add	r7, r7, #12
 403 001a BD46     		mov	sp, r7
 404 001c 80BC     		pop	{r7}
 405 001e 7047     		bx	lr
 406              		.cfi_endproc
 407              	.LFE7:
 408              		.size	LIN_1_UART_ReadRxData, .-LIN_1_UART_ReadRxData
 409              		.section	.text.LIN_1_UART_ReadRxStatus,"ax",%progbits
 410              		.align	2
 411              		.global	LIN_1_UART_ReadRxStatus
 412              		.thumb
 413              		.thumb_func
 414              		.type	LIN_1_UART_ReadRxStatus, %function
 415              	LIN_1_UART_ReadRxStatus:
 416              	.LFB8:
 484:.\Generated_Source\PSoC5/LIN_1_UART.c **** 
 485:.\Generated_Source\PSoC5/LIN_1_UART.c **** 
 486:.\Generated_Source\PSoC5/LIN_1_UART.c ****     /*******************************************************************************
 487:.\Generated_Source\PSoC5/LIN_1_UART.c ****     * Function Name: LIN_1_UART_ReadRxStatus
 488:.\Generated_Source\PSoC5/LIN_1_UART.c ****     ********************************************************************************
 489:.\Generated_Source\PSoC5/LIN_1_UART.c ****     *
 490:.\Generated_Source\PSoC5/LIN_1_UART.c ****     * Summary:
 491:.\Generated_Source\PSoC5/LIN_1_UART.c ****     *  Read the current state of the status register
 492:.\Generated_Source\PSoC5/LIN_1_UART.c ****     *  And detect software buffer overflow.
 493:.\Generated_Source\PSoC5/LIN_1_UART.c ****     *
 494:.\Generated_Source\PSoC5/LIN_1_UART.c ****     * Parameters:
 495:.\Generated_Source\PSoC5/LIN_1_UART.c ****     *  None.
 496:.\Generated_Source\PSoC5/LIN_1_UART.c ****     *
ARM GAS  C:\Users\MATSUD~1\AppData\Local\Temp\ccwDh0Hw.s 			page 17


 497:.\Generated_Source\PSoC5/LIN_1_UART.c ****     * Return:
 498:.\Generated_Source\PSoC5/LIN_1_UART.c ****     *  Current state of the status register.
 499:.\Generated_Source\PSoC5/LIN_1_UART.c ****     *
 500:.\Generated_Source\PSoC5/LIN_1_UART.c ****     * Global Variables:
 501:.\Generated_Source\PSoC5/LIN_1_UART.c ****     *  LIN_1_UART_rxBufferOverflow - used to indicate overload condition.
 502:.\Generated_Source\PSoC5/LIN_1_UART.c ****     *   It set to one in RX interrupt when there isn?t free space in
 503:.\Generated_Source\PSoC5/LIN_1_UART.c ****     *   LIN_1_UART_rxBufferRead to write new data. This condition returned
 504:.\Generated_Source\PSoC5/LIN_1_UART.c ****     *   and cleared to zero by this API as an
 505:.\Generated_Source\PSoC5/LIN_1_UART.c ****     *   LIN_1_UART_RX_STS_SOFT_BUFF_OVER bit along with RX Status register
 506:.\Generated_Source\PSoC5/LIN_1_UART.c ****     *   bits.
 507:.\Generated_Source\PSoC5/LIN_1_UART.c ****     *
 508:.\Generated_Source\PSoC5/LIN_1_UART.c ****     *******************************************************************************/
 509:.\Generated_Source\PSoC5/LIN_1_UART.c ****     uint8 LIN_1_UART_ReadRxStatus(void) 
 510:.\Generated_Source\PSoC5/LIN_1_UART.c ****     {
 417              		.loc 1 510 0
 418              		.cfi_startproc
 419              		@ args = 0, pretend = 0, frame = 8
 420              		@ frame_needed = 1, uses_anonymous_args = 0
 421              		@ link register save eliminated.
 422 0000 80B4     		push	{r7}
 423              	.LCFI21:
 424              		.cfi_def_cfa_offset 4
 425              		.cfi_offset 7, -4
 426 0002 83B0     		sub	sp, sp, #12
 427              	.LCFI22:
 428              		.cfi_def_cfa_offset 16
 429 0004 00AF     		add	r7, sp, #0
 430              	.LCFI23:
 431              		.cfi_def_cfa_register 7
 511:.\Generated_Source\PSoC5/LIN_1_UART.c ****         uint8 status;
 512:.\Generated_Source\PSoC5/LIN_1_UART.c **** 
 513:.\Generated_Source\PSoC5/LIN_1_UART.c ****         status = LIN_1_UART_RXSTATUS_REG & LIN_1_UART_RX_HW_MASK;
 432              		.loc 1 513 0
 433 0006 46F26753 		movw	r3, #25959
 434 000a C4F20003 		movt	r3, 16384
 435 000e 1B78     		ldrb	r3, [r3, #0]
 436 0010 DBB2     		uxtb	r3, r3
 437 0012 03F07F03 		and	r3, r3, #127
 438 0016 FB71     		strb	r3, [r7, #7]
 514:.\Generated_Source\PSoC5/LIN_1_UART.c **** 
 515:.\Generated_Source\PSoC5/LIN_1_UART.c ****         #if(LIN_1_UART_RXBUFFERSIZE > LIN_1_UART_FIFO_LENGTH)
 516:.\Generated_Source\PSoC5/LIN_1_UART.c ****             if( LIN_1_UART_rxBufferOverflow != 0u )
 517:.\Generated_Source\PSoC5/LIN_1_UART.c ****             {
 518:.\Generated_Source\PSoC5/LIN_1_UART.c ****                 status |= LIN_1_UART_RX_STS_SOFT_BUFF_OVER;
 519:.\Generated_Source\PSoC5/LIN_1_UART.c ****                 LIN_1_UART_rxBufferOverflow = 0u;
 520:.\Generated_Source\PSoC5/LIN_1_UART.c ****             }
 521:.\Generated_Source\PSoC5/LIN_1_UART.c ****         #endif /* LIN_1_UART_RXBUFFERSIZE */
 522:.\Generated_Source\PSoC5/LIN_1_UART.c **** 
 523:.\Generated_Source\PSoC5/LIN_1_UART.c ****         return(status);
 439              		.loc 1 523 0
 440 0018 FB79     		ldrb	r3, [r7, #7]	@ zero_extendqisi2
 524:.\Generated_Source\PSoC5/LIN_1_UART.c ****     }
 441              		.loc 1 524 0
 442 001a 1846     		mov	r0, r3
 443 001c 07F10C07 		add	r7, r7, #12
 444 0020 BD46     		mov	sp, r7
 445 0022 80BC     		pop	{r7}
ARM GAS  C:\Users\MATSUD~1\AppData\Local\Temp\ccwDh0Hw.s 			page 18


 446 0024 7047     		bx	lr
 447              		.cfi_endproc
 448              	.LFE8:
 449              		.size	LIN_1_UART_ReadRxStatus, .-LIN_1_UART_ReadRxStatus
 450 0026 00BF     		.section	.text.LIN_1_UART_GetChar,"ax",%progbits
 451              		.align	2
 452              		.global	LIN_1_UART_GetChar
 453              		.thumb
 454              		.thumb_func
 455              		.type	LIN_1_UART_GetChar, %function
 456              	LIN_1_UART_GetChar:
 457              	.LFB9:
 525:.\Generated_Source\PSoC5/LIN_1_UART.c **** 
 526:.\Generated_Source\PSoC5/LIN_1_UART.c **** 
 527:.\Generated_Source\PSoC5/LIN_1_UART.c ****     /*******************************************************************************
 528:.\Generated_Source\PSoC5/LIN_1_UART.c ****     * Function Name: LIN_1_UART_GetChar
 529:.\Generated_Source\PSoC5/LIN_1_UART.c ****     ********************************************************************************
 530:.\Generated_Source\PSoC5/LIN_1_UART.c ****     *
 531:.\Generated_Source\PSoC5/LIN_1_UART.c ****     * Summary:
 532:.\Generated_Source\PSoC5/LIN_1_UART.c ****     *  Reads UART RX buffer immediately, if data is not available or an error
 533:.\Generated_Source\PSoC5/LIN_1_UART.c ****     *  condition exists, zero is returned; otherwise, character is read and
 534:.\Generated_Source\PSoC5/LIN_1_UART.c ****     *  returned.
 535:.\Generated_Source\PSoC5/LIN_1_UART.c ****     *
 536:.\Generated_Source\PSoC5/LIN_1_UART.c ****     * Parameters:
 537:.\Generated_Source\PSoC5/LIN_1_UART.c ****     *  None.
 538:.\Generated_Source\PSoC5/LIN_1_UART.c ****     *
 539:.\Generated_Source\PSoC5/LIN_1_UART.c ****     * Return:
 540:.\Generated_Source\PSoC5/LIN_1_UART.c ****     *  Character read from UART RX buffer. ASCII characters from 1 to 255 are valid.
 541:.\Generated_Source\PSoC5/LIN_1_UART.c ****     *  A returned zero signifies an error condition or no data available.
 542:.\Generated_Source\PSoC5/LIN_1_UART.c ****     *
 543:.\Generated_Source\PSoC5/LIN_1_UART.c ****     * Global Variables:
 544:.\Generated_Source\PSoC5/LIN_1_UART.c ****     *  LIN_1_UART_rxBuffer - RAM buffer pointer for save received data.
 545:.\Generated_Source\PSoC5/LIN_1_UART.c ****     *  LIN_1_UART_rxBufferWrite - cyclic index for write to rxBuffer,
 546:.\Generated_Source\PSoC5/LIN_1_UART.c ****     *     checked to identify new data.
 547:.\Generated_Source\PSoC5/LIN_1_UART.c ****     *  LIN_1_UART_rxBufferRead - cyclic index for read from rxBuffer,
 548:.\Generated_Source\PSoC5/LIN_1_UART.c ****     *     incremented after each byte has been read from buffer.
 549:.\Generated_Source\PSoC5/LIN_1_UART.c ****     *  LIN_1_UART_rxBufferLoopDetect - creared if loop condition was detected
 550:.\Generated_Source\PSoC5/LIN_1_UART.c ****     *     in RX ISR.
 551:.\Generated_Source\PSoC5/LIN_1_UART.c ****     *
 552:.\Generated_Source\PSoC5/LIN_1_UART.c ****     * Reentrant:
 553:.\Generated_Source\PSoC5/LIN_1_UART.c ****     *  No.
 554:.\Generated_Source\PSoC5/LIN_1_UART.c ****     *
 555:.\Generated_Source\PSoC5/LIN_1_UART.c ****     *******************************************************************************/
 556:.\Generated_Source\PSoC5/LIN_1_UART.c ****     uint8 LIN_1_UART_GetChar(void) 
 557:.\Generated_Source\PSoC5/LIN_1_UART.c ****     {
 458              		.loc 1 557 0
 459              		.cfi_startproc
 460              		@ args = 0, pretend = 0, frame = 8
 461              		@ frame_needed = 1, uses_anonymous_args = 0
 462              		@ link register save eliminated.
 463 0000 80B4     		push	{r7}
 464              	.LCFI24:
 465              		.cfi_def_cfa_offset 4
 466              		.cfi_offset 7, -4
 467 0002 83B0     		sub	sp, sp, #12
 468              	.LCFI25:
 469              		.cfi_def_cfa_offset 16
ARM GAS  C:\Users\MATSUD~1\AppData\Local\Temp\ccwDh0Hw.s 			page 19


 470 0004 00AF     		add	r7, sp, #0
 471              	.LCFI26:
 472              		.cfi_def_cfa_register 7
 558:.\Generated_Source\PSoC5/LIN_1_UART.c ****         uint8 rxData = 0u;
 473              		.loc 1 558 0
 474 0006 4FF00003 		mov	r3, #0
 475 000a FB71     		strb	r3, [r7, #7]
 559:.\Generated_Source\PSoC5/LIN_1_UART.c ****         uint8 rxStatus;
 560:.\Generated_Source\PSoC5/LIN_1_UART.c **** 
 561:.\Generated_Source\PSoC5/LIN_1_UART.c ****         #if(LIN_1_UART_RXBUFFERSIZE > LIN_1_UART_FIFO_LENGTH)
 562:.\Generated_Source\PSoC5/LIN_1_UART.c ****             uint8 loc_rxBufferRead;
 563:.\Generated_Source\PSoC5/LIN_1_UART.c ****             uint8 loc_rxBufferWrite;
 564:.\Generated_Source\PSoC5/LIN_1_UART.c ****             /* Protect variables that could change on interrupt. */
 565:.\Generated_Source\PSoC5/LIN_1_UART.c ****             /* Disable Rx interrupt. */
 566:.\Generated_Source\PSoC5/LIN_1_UART.c ****             #if(LIN_1_UART_RX_INTERRUPT_ENABLED)
 567:.\Generated_Source\PSoC5/LIN_1_UART.c ****                 LIN_1_UART_DisableRxInt();
 568:.\Generated_Source\PSoC5/LIN_1_UART.c ****             #endif /* LIN_1_UART_RX_INTERRUPT_ENABLED */
 569:.\Generated_Source\PSoC5/LIN_1_UART.c ****             loc_rxBufferRead = LIN_1_UART_rxBufferRead;
 570:.\Generated_Source\PSoC5/LIN_1_UART.c ****             loc_rxBufferWrite = LIN_1_UART_rxBufferWrite;
 571:.\Generated_Source\PSoC5/LIN_1_UART.c **** 
 572:.\Generated_Source\PSoC5/LIN_1_UART.c ****             if( (LIN_1_UART_rxBufferLoopDetect != 0u) || (loc_rxBufferRead != loc_rxBufferWrite) )
 573:.\Generated_Source\PSoC5/LIN_1_UART.c ****             {
 574:.\Generated_Source\PSoC5/LIN_1_UART.c ****                 rxData = LIN_1_UART_rxBuffer[loc_rxBufferRead];
 575:.\Generated_Source\PSoC5/LIN_1_UART.c ****                 loc_rxBufferRead++;
 576:.\Generated_Source\PSoC5/LIN_1_UART.c ****                 if(loc_rxBufferRead >= LIN_1_UART_RXBUFFERSIZE)
 577:.\Generated_Source\PSoC5/LIN_1_UART.c ****                 {
 578:.\Generated_Source\PSoC5/LIN_1_UART.c ****                     loc_rxBufferRead = 0u;
 579:.\Generated_Source\PSoC5/LIN_1_UART.c ****                 }
 580:.\Generated_Source\PSoC5/LIN_1_UART.c ****                 /* Update the real pointer */
 581:.\Generated_Source\PSoC5/LIN_1_UART.c ****                 LIN_1_UART_rxBufferRead = loc_rxBufferRead;
 582:.\Generated_Source\PSoC5/LIN_1_UART.c **** 
 583:.\Generated_Source\PSoC5/LIN_1_UART.c ****                 if(LIN_1_UART_rxBufferLoopDetect > 0u )
 584:.\Generated_Source\PSoC5/LIN_1_UART.c ****                 {
 585:.\Generated_Source\PSoC5/LIN_1_UART.c ****                     LIN_1_UART_rxBufferLoopDetect = 0u;
 586:.\Generated_Source\PSoC5/LIN_1_UART.c ****                     #if( (LIN_1_UART_RX_INTERRUPT_ENABLED) && (LIN_1_UART_FLOW_CONTROL != 0u) )
 587:.\Generated_Source\PSoC5/LIN_1_UART.c ****                         /* When Hardware Flow Control selected - return RX mask */
 588:.\Generated_Source\PSoC5/LIN_1_UART.c ****                         #if( LIN_1_UART_HD_ENABLED )
 589:.\Generated_Source\PSoC5/LIN_1_UART.c ****                             if((LIN_1_UART_CONTROL_REG & LIN_1_UART_CTRL_HD_SEND) == 0u)
 590:.\Generated_Source\PSoC5/LIN_1_UART.c ****                             {   /* In Half duplex mode return RX mask only if
 591:.\Generated_Source\PSoC5/LIN_1_UART.c ****                                 *  RX configuration set, otherwise
 592:.\Generated_Source\PSoC5/LIN_1_UART.c ****                                 *  mask will be returned in LoadRxConfig() API.
 593:.\Generated_Source\PSoC5/LIN_1_UART.c ****                                 */
 594:.\Generated_Source\PSoC5/LIN_1_UART.c ****                                 LIN_1_UART_RXSTATUS_MASK_REG  |= LIN_1_UART_RX_STS_FIFO_NOTEMPTY;
 595:.\Generated_Source\PSoC5/LIN_1_UART.c ****                             }
 596:.\Generated_Source\PSoC5/LIN_1_UART.c ****                         #else
 597:.\Generated_Source\PSoC5/LIN_1_UART.c ****                             LIN_1_UART_RXSTATUS_MASK_REG  |= LIN_1_UART_RX_STS_FIFO_NOTEMPTY;
 598:.\Generated_Source\PSoC5/LIN_1_UART.c ****                         #endif /* end LIN_1_UART_HD_ENABLED */
 599:.\Generated_Source\PSoC5/LIN_1_UART.c ****                     #endif /* LIN_1_UART_RX_INTERRUPT_ENABLED and Hardware flow control*/
 600:.\Generated_Source\PSoC5/LIN_1_UART.c ****                 }
 601:.\Generated_Source\PSoC5/LIN_1_UART.c **** 
 602:.\Generated_Source\PSoC5/LIN_1_UART.c ****             }
 603:.\Generated_Source\PSoC5/LIN_1_UART.c ****             else
 604:.\Generated_Source\PSoC5/LIN_1_UART.c ****             {   rxStatus = LIN_1_UART_RXSTATUS_REG;
 605:.\Generated_Source\PSoC5/LIN_1_UART.c ****                 if((rxStatus & LIN_1_UART_RX_STS_FIFO_NOTEMPTY) != 0u)
 606:.\Generated_Source\PSoC5/LIN_1_UART.c ****                 {   /* Read received data from FIFO*/
 607:.\Generated_Source\PSoC5/LIN_1_UART.c ****                     rxData = LIN_1_UART_RXDATA_REG;
 608:.\Generated_Source\PSoC5/LIN_1_UART.c ****                     /*Check status on error*/
ARM GAS  C:\Users\MATSUD~1\AppData\Local\Temp\ccwDh0Hw.s 			page 20


 609:.\Generated_Source\PSoC5/LIN_1_UART.c ****                     if((rxStatus & (LIN_1_UART_RX_STS_BREAK | LIN_1_UART_RX_STS_PAR_ERROR |
 610:.\Generated_Source\PSoC5/LIN_1_UART.c ****                                    LIN_1_UART_RX_STS_STOP_ERROR | LIN_1_UART_RX_STS_OVERRUN)) != 0u
 611:.\Generated_Source\PSoC5/LIN_1_UART.c ****                     {
 612:.\Generated_Source\PSoC5/LIN_1_UART.c ****                         rxData = 0u;
 613:.\Generated_Source\PSoC5/LIN_1_UART.c ****                     }
 614:.\Generated_Source\PSoC5/LIN_1_UART.c ****                 }
 615:.\Generated_Source\PSoC5/LIN_1_UART.c ****             }
 616:.\Generated_Source\PSoC5/LIN_1_UART.c **** 
 617:.\Generated_Source\PSoC5/LIN_1_UART.c ****             /* Enable Rx interrupt. */
 618:.\Generated_Source\PSoC5/LIN_1_UART.c ****             #if(LIN_1_UART_RX_INTERRUPT_ENABLED)
 619:.\Generated_Source\PSoC5/LIN_1_UART.c ****                 LIN_1_UART_EnableRxInt();
 620:.\Generated_Source\PSoC5/LIN_1_UART.c ****             #endif /* LIN_1_UART_RX_INTERRUPT_ENABLED */
 621:.\Generated_Source\PSoC5/LIN_1_UART.c **** 
 622:.\Generated_Source\PSoC5/LIN_1_UART.c ****         #else /* LIN_1_UART_RXBUFFERSIZE > LIN_1_UART_FIFO_LENGTH */
 623:.\Generated_Source\PSoC5/LIN_1_UART.c **** 
 624:.\Generated_Source\PSoC5/LIN_1_UART.c ****             rxStatus =LIN_1_UART_RXSTATUS_REG;
 476              		.loc 1 624 0
 477 000c 46F26753 		movw	r3, #25959
 478 0010 C4F20003 		movt	r3, 16384
 479 0014 1B78     		ldrb	r3, [r3, #0]
 480 0016 BB71     		strb	r3, [r7, #6]
 625:.\Generated_Source\PSoC5/LIN_1_UART.c ****             if((rxStatus & LIN_1_UART_RX_STS_FIFO_NOTEMPTY) != 0u)
 481              		.loc 1 625 0
 482 0018 BB79     		ldrb	r3, [r7, #6]	@ zero_extendqisi2
 483 001a 03F02003 		and	r3, r3, #32
 484 001e 002B     		cmp	r3, #0
 485 0020 0DD0     		beq	.L15
 626:.\Generated_Source\PSoC5/LIN_1_UART.c ****             {   /* Read received data from FIFO*/
 627:.\Generated_Source\PSoC5/LIN_1_UART.c ****                 rxData = LIN_1_UART_RXDATA_REG;
 486              		.loc 1 627 0
 487 0022 46F24453 		movw	r3, #25924
 488 0026 C4F20003 		movt	r3, 16384
 489 002a 1B78     		ldrb	r3, [r3, #0]
 490 002c FB71     		strb	r3, [r7, #7]
 628:.\Generated_Source\PSoC5/LIN_1_UART.c ****                 /*Check status on error*/
 629:.\Generated_Source\PSoC5/LIN_1_UART.c ****                 if((rxStatus & (LIN_1_UART_RX_STS_BREAK | LIN_1_UART_RX_STS_PAR_ERROR |
 630:.\Generated_Source\PSoC5/LIN_1_UART.c ****                                LIN_1_UART_RX_STS_STOP_ERROR | LIN_1_UART_RX_STS_OVERRUN)) != 0u)
 491              		.loc 1 630 0
 492 002e BB79     		ldrb	r3, [r7, #6]	@ zero_extendqisi2
 493 0030 03F01E03 		and	r3, r3, #30
 629:.\Generated_Source\PSoC5/LIN_1_UART.c ****                 if((rxStatus & (LIN_1_UART_RX_STS_BREAK | LIN_1_UART_RX_STS_PAR_ERROR |
 494              		.loc 1 629 0
 495 0034 002B     		cmp	r3, #0
 496 0036 02D0     		beq	.L15
 631:.\Generated_Source\PSoC5/LIN_1_UART.c ****                 {
 632:.\Generated_Source\PSoC5/LIN_1_UART.c ****                     rxData = 0u;
 497              		.loc 1 632 0
 498 0038 4FF00003 		mov	r3, #0
 499 003c FB71     		strb	r3, [r7, #7]
 500              	.L15:
 633:.\Generated_Source\PSoC5/LIN_1_UART.c ****                 }
 634:.\Generated_Source\PSoC5/LIN_1_UART.c ****             }
 635:.\Generated_Source\PSoC5/LIN_1_UART.c ****         #endif /* LIN_1_UART_RXBUFFERSIZE > LIN_1_UART_FIFO_LENGTH */
 636:.\Generated_Source\PSoC5/LIN_1_UART.c **** 
 637:.\Generated_Source\PSoC5/LIN_1_UART.c ****         return(rxData);
 501              		.loc 1 637 0
 502 003e FB79     		ldrb	r3, [r7, #7]	@ zero_extendqisi2
ARM GAS  C:\Users\MATSUD~1\AppData\Local\Temp\ccwDh0Hw.s 			page 21


 638:.\Generated_Source\PSoC5/LIN_1_UART.c ****     }
 503              		.loc 1 638 0
 504 0040 1846     		mov	r0, r3
 505 0042 07F10C07 		add	r7, r7, #12
 506 0046 BD46     		mov	sp, r7
 507 0048 80BC     		pop	{r7}
 508 004a 7047     		bx	lr
 509              		.cfi_endproc
 510              	.LFE9:
 511              		.size	LIN_1_UART_GetChar, .-LIN_1_UART_GetChar
 512              		.section	.text.LIN_1_UART_GetByte,"ax",%progbits
 513              		.align	2
 514              		.global	LIN_1_UART_GetByte
 515              		.thumb
 516              		.thumb_func
 517              		.type	LIN_1_UART_GetByte, %function
 518              	LIN_1_UART_GetByte:
 519              	.LFB10:
 639:.\Generated_Source\PSoC5/LIN_1_UART.c **** 
 640:.\Generated_Source\PSoC5/LIN_1_UART.c **** 
 641:.\Generated_Source\PSoC5/LIN_1_UART.c ****     /*******************************************************************************
 642:.\Generated_Source\PSoC5/LIN_1_UART.c ****     * Function Name: LIN_1_UART_GetByte
 643:.\Generated_Source\PSoC5/LIN_1_UART.c ****     ********************************************************************************
 644:.\Generated_Source\PSoC5/LIN_1_UART.c ****     *
 645:.\Generated_Source\PSoC5/LIN_1_UART.c ****     * Summary:
 646:.\Generated_Source\PSoC5/LIN_1_UART.c ****     *  Grab the next available byte of data from the recieve FIFO
 647:.\Generated_Source\PSoC5/LIN_1_UART.c ****     *
 648:.\Generated_Source\PSoC5/LIN_1_UART.c ****     * Parameters:
 649:.\Generated_Source\PSoC5/LIN_1_UART.c ****     *  None.
 650:.\Generated_Source\PSoC5/LIN_1_UART.c ****     *
 651:.\Generated_Source\PSoC5/LIN_1_UART.c ****     * Return:
 652:.\Generated_Source\PSoC5/LIN_1_UART.c ****     *  MSB contains Status Register and LSB contains UART RX data
 653:.\Generated_Source\PSoC5/LIN_1_UART.c ****     *
 654:.\Generated_Source\PSoC5/LIN_1_UART.c ****     * Reentrant:
 655:.\Generated_Source\PSoC5/LIN_1_UART.c ****     *  No.
 656:.\Generated_Source\PSoC5/LIN_1_UART.c ****     *
 657:.\Generated_Source\PSoC5/LIN_1_UART.c ****     *******************************************************************************/
 658:.\Generated_Source\PSoC5/LIN_1_UART.c ****     uint16 LIN_1_UART_GetByte(void) 
 659:.\Generated_Source\PSoC5/LIN_1_UART.c ****     {
 520              		.loc 1 659 0
 521              		.cfi_startproc
 522              		@ args = 0, pretend = 0, frame = 0
 523              		@ frame_needed = 1, uses_anonymous_args = 0
 524 0000 98B5     		push	{r3, r4, r7, lr}
 525              	.LCFI27:
 526              		.cfi_def_cfa_offset 16
 527              		.cfi_offset 3, -16
 528              		.cfi_offset 4, -12
 529              		.cfi_offset 7, -8
 530              		.cfi_offset 14, -4
 531 0002 00AF     		add	r7, sp, #0
 532              	.LCFI28:
 533              		.cfi_def_cfa_register 7
 660:.\Generated_Source\PSoC5/LIN_1_UART.c ****         return ( ((uint16)LIN_1_UART_ReadRxStatus() << 8u) | LIN_1_UART_ReadRxData() );
 534              		.loc 1 660 0
 535 0004 FFF7FEFF 		bl	LIN_1_UART_ReadRxStatus
 536 0008 0346     		mov	r3, r0
ARM GAS  C:\Users\MATSUD~1\AppData\Local\Temp\ccwDh0Hw.s 			page 22


 537 000a 4FEA0323 		lsl	r3, r3, #8
 538 000e 9CB2     		uxth	r4, r3
 539 0010 FFF7FEFF 		bl	LIN_1_UART_ReadRxData
 540 0014 0346     		mov	r3, r0
 541 0016 2246     		mov	r2, r4	@ movhi
 542 0018 1343     		orrs	r3, r3, r2
 543 001a 9BB2     		uxth	r3, r3
 544 001c 9BB2     		uxth	r3, r3
 661:.\Generated_Source\PSoC5/LIN_1_UART.c ****     }
 545              		.loc 1 661 0
 546 001e 1846     		mov	r0, r3
 547 0020 98BD     		pop	{r3, r4, r7, pc}
 548              		.cfi_endproc
 549              	.LFE10:
 550              		.size	LIN_1_UART_GetByte, .-LIN_1_UART_GetByte
 551 0022 00BF     		.section	.text.LIN_1_UART_GetRxBufferSize,"ax",%progbits
 552              		.align	2
 553              		.global	LIN_1_UART_GetRxBufferSize
 554              		.thumb
 555              		.thumb_func
 556              		.type	LIN_1_UART_GetRxBufferSize, %function
 557              	LIN_1_UART_GetRxBufferSize:
 558              	.LFB11:
 662:.\Generated_Source\PSoC5/LIN_1_UART.c **** 
 663:.\Generated_Source\PSoC5/LIN_1_UART.c **** 
 664:.\Generated_Source\PSoC5/LIN_1_UART.c ****     /*******************************************************************************
 665:.\Generated_Source\PSoC5/LIN_1_UART.c ****     * Function Name: LIN_1_UART_GetRxBufferSize
 666:.\Generated_Source\PSoC5/LIN_1_UART.c ****     ********************************************************************************
 667:.\Generated_Source\PSoC5/LIN_1_UART.c ****     *
 668:.\Generated_Source\PSoC5/LIN_1_UART.c ****     * Summary:
 669:.\Generated_Source\PSoC5/LIN_1_UART.c ****     *  Determine the amount of bytes left in the RX buffer and return the count in
 670:.\Generated_Source\PSoC5/LIN_1_UART.c ****     *  bytes
 671:.\Generated_Source\PSoC5/LIN_1_UART.c ****     *
 672:.\Generated_Source\PSoC5/LIN_1_UART.c ****     * Parameters:
 673:.\Generated_Source\PSoC5/LIN_1_UART.c ****     *  None.
 674:.\Generated_Source\PSoC5/LIN_1_UART.c ****     *
 675:.\Generated_Source\PSoC5/LIN_1_UART.c ****     * Return:
 676:.\Generated_Source\PSoC5/LIN_1_UART.c ****     *  uint8: Integer count of the number of bytes left
 677:.\Generated_Source\PSoC5/LIN_1_UART.c ****     *  in the RX buffer
 678:.\Generated_Source\PSoC5/LIN_1_UART.c ****     *
 679:.\Generated_Source\PSoC5/LIN_1_UART.c ****     * Global Variables:
 680:.\Generated_Source\PSoC5/LIN_1_UART.c ****     *  LIN_1_UART_rxBufferWrite - used to calculate left bytes.
 681:.\Generated_Source\PSoC5/LIN_1_UART.c ****     *  LIN_1_UART_rxBufferRead - used to calculate left bytes.
 682:.\Generated_Source\PSoC5/LIN_1_UART.c ****     *  LIN_1_UART_rxBufferLoopDetect - checked to decide left bytes amount.
 683:.\Generated_Source\PSoC5/LIN_1_UART.c ****     *
 684:.\Generated_Source\PSoC5/LIN_1_UART.c ****     * Reentrant:
 685:.\Generated_Source\PSoC5/LIN_1_UART.c ****     *  No.
 686:.\Generated_Source\PSoC5/LIN_1_UART.c ****     *
 687:.\Generated_Source\PSoC5/LIN_1_UART.c ****     * Theory:
 688:.\Generated_Source\PSoC5/LIN_1_UART.c ****     *  Allows the user to find out how full the RX Buffer is.
 689:.\Generated_Source\PSoC5/LIN_1_UART.c ****     *
 690:.\Generated_Source\PSoC5/LIN_1_UART.c ****     *******************************************************************************/
 691:.\Generated_Source\PSoC5/LIN_1_UART.c ****     uint8 LIN_1_UART_GetRxBufferSize(void)
 692:.\Generated_Source\PSoC5/LIN_1_UART.c ****                                                             
 693:.\Generated_Source\PSoC5/LIN_1_UART.c ****     {
 559              		.loc 1 693 0
 560              		.cfi_startproc
ARM GAS  C:\Users\MATSUD~1\AppData\Local\Temp\ccwDh0Hw.s 			page 23


 561              		@ args = 0, pretend = 0, frame = 8
 562              		@ frame_needed = 1, uses_anonymous_args = 0
 563              		@ link register save eliminated.
 564 0000 80B4     		push	{r7}
 565              	.LCFI29:
 566              		.cfi_def_cfa_offset 4
 567              		.cfi_offset 7, -4
 568 0002 83B0     		sub	sp, sp, #12
 569              	.LCFI30:
 570              		.cfi_def_cfa_offset 16
 571 0004 00AF     		add	r7, sp, #0
 572              	.LCFI31:
 573              		.cfi_def_cfa_register 7
 694:.\Generated_Source\PSoC5/LIN_1_UART.c ****         uint8 size;
 695:.\Generated_Source\PSoC5/LIN_1_UART.c **** 
 696:.\Generated_Source\PSoC5/LIN_1_UART.c ****         #if(LIN_1_UART_RXBUFFERSIZE > LIN_1_UART_FIFO_LENGTH)
 697:.\Generated_Source\PSoC5/LIN_1_UART.c **** 
 698:.\Generated_Source\PSoC5/LIN_1_UART.c ****             /* Disable Rx interrupt. */
 699:.\Generated_Source\PSoC5/LIN_1_UART.c ****             /* Protect variables that could change on interrupt. */
 700:.\Generated_Source\PSoC5/LIN_1_UART.c ****             #if(LIN_1_UART_RX_INTERRUPT_ENABLED)
 701:.\Generated_Source\PSoC5/LIN_1_UART.c ****                 LIN_1_UART_DisableRxInt();
 702:.\Generated_Source\PSoC5/LIN_1_UART.c ****             #endif /* LIN_1_UART_RX_INTERRUPT_ENABLED */
 703:.\Generated_Source\PSoC5/LIN_1_UART.c **** 
 704:.\Generated_Source\PSoC5/LIN_1_UART.c ****             if(LIN_1_UART_rxBufferRead == LIN_1_UART_rxBufferWrite)
 705:.\Generated_Source\PSoC5/LIN_1_UART.c ****             {
 706:.\Generated_Source\PSoC5/LIN_1_UART.c ****                 if(LIN_1_UART_rxBufferLoopDetect > 0u)
 707:.\Generated_Source\PSoC5/LIN_1_UART.c ****                 {
 708:.\Generated_Source\PSoC5/LIN_1_UART.c ****                     size = LIN_1_UART_RXBUFFERSIZE;
 709:.\Generated_Source\PSoC5/LIN_1_UART.c ****                 }
 710:.\Generated_Source\PSoC5/LIN_1_UART.c ****                 else
 711:.\Generated_Source\PSoC5/LIN_1_UART.c ****                 {
 712:.\Generated_Source\PSoC5/LIN_1_UART.c ****                     size = 0u;
 713:.\Generated_Source\PSoC5/LIN_1_UART.c ****                 }
 714:.\Generated_Source\PSoC5/LIN_1_UART.c ****             }
 715:.\Generated_Source\PSoC5/LIN_1_UART.c ****             else if(LIN_1_UART_rxBufferRead < LIN_1_UART_rxBufferWrite)
 716:.\Generated_Source\PSoC5/LIN_1_UART.c ****             {
 717:.\Generated_Source\PSoC5/LIN_1_UART.c ****                 size = (LIN_1_UART_rxBufferWrite - LIN_1_UART_rxBufferRead);
 718:.\Generated_Source\PSoC5/LIN_1_UART.c ****             }
 719:.\Generated_Source\PSoC5/LIN_1_UART.c ****             else
 720:.\Generated_Source\PSoC5/LIN_1_UART.c ****             {
 721:.\Generated_Source\PSoC5/LIN_1_UART.c ****                 size = (LIN_1_UART_RXBUFFERSIZE - LIN_1_UART_rxBufferRead) + LIN_1_UART_rxBufferWri
 722:.\Generated_Source\PSoC5/LIN_1_UART.c ****             }
 723:.\Generated_Source\PSoC5/LIN_1_UART.c **** 
 724:.\Generated_Source\PSoC5/LIN_1_UART.c ****             /* Enable Rx interrupt. */
 725:.\Generated_Source\PSoC5/LIN_1_UART.c ****             #if(LIN_1_UART_RX_INTERRUPT_ENABLED)
 726:.\Generated_Source\PSoC5/LIN_1_UART.c ****                 LIN_1_UART_EnableRxInt();
 727:.\Generated_Source\PSoC5/LIN_1_UART.c ****             #endif /* End LIN_1_UART_RX_INTERRUPT_ENABLED */
 728:.\Generated_Source\PSoC5/LIN_1_UART.c **** 
 729:.\Generated_Source\PSoC5/LIN_1_UART.c ****         #else /* LIN_1_UART_RXBUFFERSIZE > LIN_1_UART_FIFO_LENGTH */
 730:.\Generated_Source\PSoC5/LIN_1_UART.c **** 
 731:.\Generated_Source\PSoC5/LIN_1_UART.c ****             /* We can only know if there is data in the fifo. */
 732:.\Generated_Source\PSoC5/LIN_1_UART.c ****             size = ((LIN_1_UART_RXSTATUS_REG & LIN_1_UART_RX_STS_FIFO_NOTEMPTY) != 0u) ? 1u : 0u;
 574              		.loc 1 732 0
 575 0006 46F26753 		movw	r3, #25959
 576 000a C4F20003 		movt	r3, 16384
 577 000e 1B78     		ldrb	r3, [r3, #0]
 578 0010 DBB2     		uxtb	r3, r3
ARM GAS  C:\Users\MATSUD~1\AppData\Local\Temp\ccwDh0Hw.s 			page 24


 579 0012 03F02003 		and	r3, r3, #32
 580 0016 002B     		cmp	r3, #0
 581 0018 02D0     		beq	.L20
 582              		.loc 1 732 0 is_stmt 0 discriminator 1
 583 001a 4FF00103 		mov	r3, #1
 584 001e 01E0     		b	.L21
 585              	.L20:
 586              		.loc 1 732 0 discriminator 2
 587 0020 4FF00003 		mov	r3, #0
 588              	.L21:
 589              		.loc 1 732 0 discriminator 3
 590 0024 FB71     		strb	r3, [r7, #7]
 733:.\Generated_Source\PSoC5/LIN_1_UART.c **** 
 734:.\Generated_Source\PSoC5/LIN_1_UART.c ****         #endif /* End LIN_1_UART_RXBUFFERSIZE > LIN_1_UART_FIFO_LENGTH */
 735:.\Generated_Source\PSoC5/LIN_1_UART.c **** 
 736:.\Generated_Source\PSoC5/LIN_1_UART.c ****         return(size);
 591              		.loc 1 736 0 is_stmt 1 discriminator 3
 592 0026 FB79     		ldrb	r3, [r7, #7]	@ zero_extendqisi2
 737:.\Generated_Source\PSoC5/LIN_1_UART.c ****     }
 593              		.loc 1 737 0 discriminator 3
 594 0028 1846     		mov	r0, r3
 595 002a 07F10C07 		add	r7, r7, #12
 596 002e BD46     		mov	sp, r7
 597 0030 80BC     		pop	{r7}
 598 0032 7047     		bx	lr
 599              		.cfi_endproc
 600              	.LFE11:
 601              		.size	LIN_1_UART_GetRxBufferSize, .-LIN_1_UART_GetRxBufferSize
 602              		.section	.text.LIN_1_UART_ClearRxBuffer,"ax",%progbits
 603              		.align	2
 604              		.global	LIN_1_UART_ClearRxBuffer
 605              		.thumb
 606              		.thumb_func
 607              		.type	LIN_1_UART_ClearRxBuffer, %function
 608              	LIN_1_UART_ClearRxBuffer:
 609              	.LFB12:
 738:.\Generated_Source\PSoC5/LIN_1_UART.c **** 
 739:.\Generated_Source\PSoC5/LIN_1_UART.c **** 
 740:.\Generated_Source\PSoC5/LIN_1_UART.c ****     /*******************************************************************************
 741:.\Generated_Source\PSoC5/LIN_1_UART.c ****     * Function Name: LIN_1_UART_ClearRxBuffer
 742:.\Generated_Source\PSoC5/LIN_1_UART.c ****     ********************************************************************************
 743:.\Generated_Source\PSoC5/LIN_1_UART.c ****     *
 744:.\Generated_Source\PSoC5/LIN_1_UART.c ****     * Summary:
 745:.\Generated_Source\PSoC5/LIN_1_UART.c ****     *  Clears the RX RAM buffer by setting the read and write pointers both to zero.
 746:.\Generated_Source\PSoC5/LIN_1_UART.c ****     *  Clears hardware RX FIFO.
 747:.\Generated_Source\PSoC5/LIN_1_UART.c ****     *
 748:.\Generated_Source\PSoC5/LIN_1_UART.c ****     * Parameters:
 749:.\Generated_Source\PSoC5/LIN_1_UART.c ****     *  None.
 750:.\Generated_Source\PSoC5/LIN_1_UART.c ****     *
 751:.\Generated_Source\PSoC5/LIN_1_UART.c ****     * Return:
 752:.\Generated_Source\PSoC5/LIN_1_UART.c ****     *  None.
 753:.\Generated_Source\PSoC5/LIN_1_UART.c ****     *
 754:.\Generated_Source\PSoC5/LIN_1_UART.c ****     * Global Variables:
 755:.\Generated_Source\PSoC5/LIN_1_UART.c ****     *  LIN_1_UART_rxBufferWrite - cleared to zero.
 756:.\Generated_Source\PSoC5/LIN_1_UART.c ****     *  LIN_1_UART_rxBufferRead - cleared to zero.
 757:.\Generated_Source\PSoC5/LIN_1_UART.c ****     *  LIN_1_UART_rxBufferLoopDetect - cleared to zero.
 758:.\Generated_Source\PSoC5/LIN_1_UART.c ****     *  LIN_1_UART_rxBufferOverflow - cleared to zero.
ARM GAS  C:\Users\MATSUD~1\AppData\Local\Temp\ccwDh0Hw.s 			page 25


 759:.\Generated_Source\PSoC5/LIN_1_UART.c ****     *
 760:.\Generated_Source\PSoC5/LIN_1_UART.c ****     * Reentrant:
 761:.\Generated_Source\PSoC5/LIN_1_UART.c ****     *  No.
 762:.\Generated_Source\PSoC5/LIN_1_UART.c ****     *
 763:.\Generated_Source\PSoC5/LIN_1_UART.c ****     * Theory:
 764:.\Generated_Source\PSoC5/LIN_1_UART.c ****     *  Setting the pointers to zero makes the system believe there is no data to
 765:.\Generated_Source\PSoC5/LIN_1_UART.c ****     *  read and writing will resume at address 0 overwriting any data that may
 766:.\Generated_Source\PSoC5/LIN_1_UART.c ****     *  have remained in the RAM.
 767:.\Generated_Source\PSoC5/LIN_1_UART.c ****     *
 768:.\Generated_Source\PSoC5/LIN_1_UART.c ****     * Side Effects:
 769:.\Generated_Source\PSoC5/LIN_1_UART.c ****     *  Any received data not read from the RAM or FIFO buffer will be lost.
 770:.\Generated_Source\PSoC5/LIN_1_UART.c ****     *******************************************************************************/
 771:.\Generated_Source\PSoC5/LIN_1_UART.c ****     void LIN_1_UART_ClearRxBuffer(void) 
 772:.\Generated_Source\PSoC5/LIN_1_UART.c ****     {
 610              		.loc 1 772 0
 611              		.cfi_startproc
 612              		@ args = 0, pretend = 0, frame = 8
 613              		@ frame_needed = 1, uses_anonymous_args = 0
 614 0000 80B5     		push	{r7, lr}
 615              	.LCFI32:
 616              		.cfi_def_cfa_offset 8
 617              		.cfi_offset 7, -8
 618              		.cfi_offset 14, -4
 619 0002 82B0     		sub	sp, sp, #8
 620              	.LCFI33:
 621              		.cfi_def_cfa_offset 16
 622 0004 00AF     		add	r7, sp, #0
 623              	.LCFI34:
 624              		.cfi_def_cfa_register 7
 773:.\Generated_Source\PSoC5/LIN_1_UART.c ****         uint8 enableInterrupts;
 774:.\Generated_Source\PSoC5/LIN_1_UART.c **** 
 775:.\Generated_Source\PSoC5/LIN_1_UART.c ****         /* clear the HW FIFO */
 776:.\Generated_Source\PSoC5/LIN_1_UART.c ****         /* Enter critical section */
 777:.\Generated_Source\PSoC5/LIN_1_UART.c ****         enableInterrupts = CyEnterCriticalSection();
 625              		.loc 1 777 0
 626 0006 FFF7FEFF 		bl	CyEnterCriticalSection
 627 000a 0346     		mov	r3, r0
 628 000c FB71     		strb	r3, [r7, #7]
 778:.\Generated_Source\PSoC5/LIN_1_UART.c ****         LIN_1_UART_RXDATA_AUX_CTL_REG |=  LIN_1_UART_RX_FIFO_CLR;
 629              		.loc 1 778 0
 630 000e 46F29453 		movw	r3, #26004
 631 0012 C4F20003 		movt	r3, 16384
 632 0016 46F29452 		movw	r2, #26004
 633 001a C4F20002 		movt	r2, 16384
 634 001e 1278     		ldrb	r2, [r2, #0]
 635 0020 D2B2     		uxtb	r2, r2
 636 0022 42F00102 		orr	r2, r2, #1
 637 0026 D2B2     		uxtb	r2, r2
 638 0028 1A70     		strb	r2, [r3, #0]
 779:.\Generated_Source\PSoC5/LIN_1_UART.c ****         LIN_1_UART_RXDATA_AUX_CTL_REG &= (uint8)~LIN_1_UART_RX_FIFO_CLR;
 639              		.loc 1 779 0
 640 002a 46F29453 		movw	r3, #26004
 641 002e C4F20003 		movt	r3, 16384
 642 0032 46F29452 		movw	r2, #26004
 643 0036 C4F20002 		movt	r2, 16384
 644 003a 1278     		ldrb	r2, [r2, #0]
 645 003c D2B2     		uxtb	r2, r2
ARM GAS  C:\Users\MATSUD~1\AppData\Local\Temp\ccwDh0Hw.s 			page 26


 646 003e 22F00102 		bic	r2, r2, #1
 647 0042 D2B2     		uxtb	r2, r2
 648 0044 1A70     		strb	r2, [r3, #0]
 780:.\Generated_Source\PSoC5/LIN_1_UART.c ****         /* Exit critical section */
 781:.\Generated_Source\PSoC5/LIN_1_UART.c ****         CyExitCriticalSection(enableInterrupts);
 649              		.loc 1 781 0
 650 0046 FB79     		ldrb	r3, [r7, #7]	@ zero_extendqisi2
 651 0048 1846     		mov	r0, r3
 652 004a FFF7FEFF 		bl	CyExitCriticalSection
 782:.\Generated_Source\PSoC5/LIN_1_UART.c **** 
 783:.\Generated_Source\PSoC5/LIN_1_UART.c ****         #if(LIN_1_UART_RXBUFFERSIZE > LIN_1_UART_FIFO_LENGTH)
 784:.\Generated_Source\PSoC5/LIN_1_UART.c ****             /* Disable Rx interrupt. */
 785:.\Generated_Source\PSoC5/LIN_1_UART.c ****             /* Protect variables that could change on interrupt. */
 786:.\Generated_Source\PSoC5/LIN_1_UART.c ****             #if(LIN_1_UART_RX_INTERRUPT_ENABLED)
 787:.\Generated_Source\PSoC5/LIN_1_UART.c ****                 LIN_1_UART_DisableRxInt();
 788:.\Generated_Source\PSoC5/LIN_1_UART.c ****             #endif /* End LIN_1_UART_RX_INTERRUPT_ENABLED */
 789:.\Generated_Source\PSoC5/LIN_1_UART.c **** 
 790:.\Generated_Source\PSoC5/LIN_1_UART.c ****             LIN_1_UART_rxBufferRead = 0u;
 791:.\Generated_Source\PSoC5/LIN_1_UART.c ****             LIN_1_UART_rxBufferWrite = 0u;
 792:.\Generated_Source\PSoC5/LIN_1_UART.c ****             LIN_1_UART_rxBufferLoopDetect = 0u;
 793:.\Generated_Source\PSoC5/LIN_1_UART.c ****             LIN_1_UART_rxBufferOverflow = 0u;
 794:.\Generated_Source\PSoC5/LIN_1_UART.c **** 
 795:.\Generated_Source\PSoC5/LIN_1_UART.c ****             /* Enable Rx interrupt. */
 796:.\Generated_Source\PSoC5/LIN_1_UART.c ****             #if(LIN_1_UART_RX_INTERRUPT_ENABLED)
 797:.\Generated_Source\PSoC5/LIN_1_UART.c ****                 LIN_1_UART_EnableRxInt();
 798:.\Generated_Source\PSoC5/LIN_1_UART.c ****             #endif /* End LIN_1_UART_RX_INTERRUPT_ENABLED */
 799:.\Generated_Source\PSoC5/LIN_1_UART.c ****         #endif /* End LIN_1_UART_RXBUFFERSIZE > LIN_1_UART_FIFO_LENGTH */
 800:.\Generated_Source\PSoC5/LIN_1_UART.c **** 
 801:.\Generated_Source\PSoC5/LIN_1_UART.c ****     }
 653              		.loc 1 801 0
 654 004e 07F10807 		add	r7, r7, #8
 655 0052 BD46     		mov	sp, r7
 656 0054 80BD     		pop	{r7, pc}
 657              		.cfi_endproc
 658              	.LFE12:
 659              		.size	LIN_1_UART_ClearRxBuffer, .-LIN_1_UART_ClearRxBuffer
 660 0056 00BF     		.section	.text.LIN_1_UART_SetRxAddressMode,"ax",%progbits
 661              		.align	2
 662              		.global	LIN_1_UART_SetRxAddressMode
 663              		.thumb
 664              		.thumb_func
 665              		.type	LIN_1_UART_SetRxAddressMode, %function
 666              	LIN_1_UART_SetRxAddressMode:
 667              	.LFB13:
 802:.\Generated_Source\PSoC5/LIN_1_UART.c **** 
 803:.\Generated_Source\PSoC5/LIN_1_UART.c **** 
 804:.\Generated_Source\PSoC5/LIN_1_UART.c ****     /*******************************************************************************
 805:.\Generated_Source\PSoC5/LIN_1_UART.c ****     * Function Name: LIN_1_UART_SetRxAddressMode
 806:.\Generated_Source\PSoC5/LIN_1_UART.c ****     ********************************************************************************
 807:.\Generated_Source\PSoC5/LIN_1_UART.c ****     *
 808:.\Generated_Source\PSoC5/LIN_1_UART.c ****     * Summary:
 809:.\Generated_Source\PSoC5/LIN_1_UART.c ****     *  Set the receive addressing mode
 810:.\Generated_Source\PSoC5/LIN_1_UART.c ****     *
 811:.\Generated_Source\PSoC5/LIN_1_UART.c ****     * Parameters:
 812:.\Generated_Source\PSoC5/LIN_1_UART.c ****     *  addressMode: Enumerated value indicating the mode of RX addressing
 813:.\Generated_Source\PSoC5/LIN_1_UART.c ****     *  LIN_1_UART__B_UART__AM_SW_BYTE_BYTE -  Software Byte-by-Byte address
 814:.\Generated_Source\PSoC5/LIN_1_UART.c ****     *                                               detection
ARM GAS  C:\Users\MATSUD~1\AppData\Local\Temp\ccwDh0Hw.s 			page 27


 815:.\Generated_Source\PSoC5/LIN_1_UART.c ****     *  LIN_1_UART__B_UART__AM_SW_DETECT_TO_BUFFER - Software Detect to Buffer
 816:.\Generated_Source\PSoC5/LIN_1_UART.c ****     *                                               address detection
 817:.\Generated_Source\PSoC5/LIN_1_UART.c ****     *  LIN_1_UART__B_UART__AM_HW_BYTE_BY_BYTE - Hardware Byte-by-Byte address
 818:.\Generated_Source\PSoC5/LIN_1_UART.c ****     *                                               detection
 819:.\Generated_Source\PSoC5/LIN_1_UART.c ****     *  LIN_1_UART__B_UART__AM_HW_DETECT_TO_BUFFER - Hardware Detect to Buffer
 820:.\Generated_Source\PSoC5/LIN_1_UART.c ****     *                                               address detection
 821:.\Generated_Source\PSoC5/LIN_1_UART.c ****     *  LIN_1_UART__B_UART__AM_NONE - No address detection
 822:.\Generated_Source\PSoC5/LIN_1_UART.c ****     *
 823:.\Generated_Source\PSoC5/LIN_1_UART.c ****     * Return:
 824:.\Generated_Source\PSoC5/LIN_1_UART.c ****     *  None.
 825:.\Generated_Source\PSoC5/LIN_1_UART.c ****     *
 826:.\Generated_Source\PSoC5/LIN_1_UART.c ****     * Global Variables:
 827:.\Generated_Source\PSoC5/LIN_1_UART.c ****     *  LIN_1_UART_rxAddressMode - the parameter stored in this variable for
 828:.\Generated_Source\PSoC5/LIN_1_UART.c ****     *   the farther usage in RX ISR.
 829:.\Generated_Source\PSoC5/LIN_1_UART.c ****     *  LIN_1_UART_rxAddressDetected - set to initial state (0).
 830:.\Generated_Source\PSoC5/LIN_1_UART.c ****     *
 831:.\Generated_Source\PSoC5/LIN_1_UART.c ****     *******************************************************************************/
 832:.\Generated_Source\PSoC5/LIN_1_UART.c ****     void LIN_1_UART_SetRxAddressMode(uint8 addressMode)
 833:.\Generated_Source\PSoC5/LIN_1_UART.c ****                                                         
 834:.\Generated_Source\PSoC5/LIN_1_UART.c ****     {
 668              		.loc 1 834 0
 669              		.cfi_startproc
 670              		@ args = 0, pretend = 0, frame = 8
 671              		@ frame_needed = 1, uses_anonymous_args = 0
 672              		@ link register save eliminated.
 673 0000 80B4     		push	{r7}
 674              	.LCFI35:
 675              		.cfi_def_cfa_offset 4
 676              		.cfi_offset 7, -4
 677 0002 83B0     		sub	sp, sp, #12
 678              	.LCFI36:
 679              		.cfi_def_cfa_offset 16
 680 0004 00AF     		add	r7, sp, #0
 681              	.LCFI37:
 682              		.cfi_def_cfa_register 7
 683 0006 0346     		mov	r3, r0
 684 0008 FB71     		strb	r3, [r7, #7]
 835:.\Generated_Source\PSoC5/LIN_1_UART.c ****         #if(LIN_1_UART_RXHW_ADDRESS_ENABLED)
 836:.\Generated_Source\PSoC5/LIN_1_UART.c ****             #if(LIN_1_UART_CONTROL_REG_REMOVED)
 837:.\Generated_Source\PSoC5/LIN_1_UART.c ****                 if(addressMode != 0u) { }     /* release compiler warning */
 838:.\Generated_Source\PSoC5/LIN_1_UART.c ****             #else /* LIN_1_UART_CONTROL_REG_REMOVED */
 839:.\Generated_Source\PSoC5/LIN_1_UART.c ****                 uint8 tmpCtrl;
 840:.\Generated_Source\PSoC5/LIN_1_UART.c ****                 tmpCtrl = LIN_1_UART_CONTROL_REG & (uint8)~LIN_1_UART_CTRL_RXADDR_MODE_MASK;
 841:.\Generated_Source\PSoC5/LIN_1_UART.c ****                 tmpCtrl |= (uint8)(addressMode << LIN_1_UART_CTRL_RXADDR_MODE0_SHIFT);
 842:.\Generated_Source\PSoC5/LIN_1_UART.c ****                 LIN_1_UART_CONTROL_REG = tmpCtrl;
 843:.\Generated_Source\PSoC5/LIN_1_UART.c ****                 #if(LIN_1_UART_RX_INTERRUPT_ENABLED && \
 844:.\Generated_Source\PSoC5/LIN_1_UART.c ****                    (LIN_1_UART_RXBUFFERSIZE > LIN_1_UART_FIFO_LENGTH) )
 845:.\Generated_Source\PSoC5/LIN_1_UART.c ****                     LIN_1_UART_rxAddressMode = addressMode;
 846:.\Generated_Source\PSoC5/LIN_1_UART.c ****                     LIN_1_UART_rxAddressDetected = 0u;
 847:.\Generated_Source\PSoC5/LIN_1_UART.c ****                 #endif /* End LIN_1_UART_RXBUFFERSIZE > LIN_1_UART_FIFO_LENGTH*/
 848:.\Generated_Source\PSoC5/LIN_1_UART.c ****             #endif /* End LIN_1_UART_CONTROL_REG_REMOVED */
 849:.\Generated_Source\PSoC5/LIN_1_UART.c ****         #else /* LIN_1_UART_RXHW_ADDRESS_ENABLED */
 850:.\Generated_Source\PSoC5/LIN_1_UART.c ****             if(addressMode != 0u) { }     /* release compiler warning */
 851:.\Generated_Source\PSoC5/LIN_1_UART.c ****         #endif /* End LIN_1_UART_RXHW_ADDRESS_ENABLED */
 852:.\Generated_Source\PSoC5/LIN_1_UART.c ****     }
 685              		.loc 1 852 0
 686 000a 07F10C07 		add	r7, r7, #12
ARM GAS  C:\Users\MATSUD~1\AppData\Local\Temp\ccwDh0Hw.s 			page 28


 687 000e BD46     		mov	sp, r7
 688 0010 80BC     		pop	{r7}
 689 0012 7047     		bx	lr
 690              		.cfi_endproc
 691              	.LFE13:
 692              		.size	LIN_1_UART_SetRxAddressMode, .-LIN_1_UART_SetRxAddressMode
 693              		.section	.text.LIN_1_UART_SetRxAddress1,"ax",%progbits
 694              		.align	2
 695              		.global	LIN_1_UART_SetRxAddress1
 696              		.thumb
 697              		.thumb_func
 698              		.type	LIN_1_UART_SetRxAddress1, %function
 699              	LIN_1_UART_SetRxAddress1:
 700              	.LFB14:
 853:.\Generated_Source\PSoC5/LIN_1_UART.c **** 
 854:.\Generated_Source\PSoC5/LIN_1_UART.c **** 
 855:.\Generated_Source\PSoC5/LIN_1_UART.c ****     /*******************************************************************************
 856:.\Generated_Source\PSoC5/LIN_1_UART.c ****     * Function Name: LIN_1_UART_SetRxAddress1
 857:.\Generated_Source\PSoC5/LIN_1_UART.c ****     ********************************************************************************
 858:.\Generated_Source\PSoC5/LIN_1_UART.c ****     *
 859:.\Generated_Source\PSoC5/LIN_1_UART.c ****     * Summary:
 860:.\Generated_Source\PSoC5/LIN_1_UART.c ****     *  Set the first hardware address compare value
 861:.\Generated_Source\PSoC5/LIN_1_UART.c ****     *
 862:.\Generated_Source\PSoC5/LIN_1_UART.c ****     * Parameters:
 863:.\Generated_Source\PSoC5/LIN_1_UART.c ****     *  address
 864:.\Generated_Source\PSoC5/LIN_1_UART.c ****     *
 865:.\Generated_Source\PSoC5/LIN_1_UART.c ****     * Return:
 866:.\Generated_Source\PSoC5/LIN_1_UART.c ****     *  None.
 867:.\Generated_Source\PSoC5/LIN_1_UART.c ****     *
 868:.\Generated_Source\PSoC5/LIN_1_UART.c ****     *******************************************************************************/
 869:.\Generated_Source\PSoC5/LIN_1_UART.c ****     void LIN_1_UART_SetRxAddress1(uint8 address) 
 870:.\Generated_Source\PSoC5/LIN_1_UART.c **** 
 871:.\Generated_Source\PSoC5/LIN_1_UART.c ****     {
 701              		.loc 1 871 0
 702              		.cfi_startproc
 703              		@ args = 0, pretend = 0, frame = 8
 704              		@ frame_needed = 1, uses_anonymous_args = 0
 705              		@ link register save eliminated.
 706 0000 80B4     		push	{r7}
 707              	.LCFI38:
 708              		.cfi_def_cfa_offset 4
 709              		.cfi_offset 7, -4
 710 0002 83B0     		sub	sp, sp, #12
 711              	.LCFI39:
 712              		.cfi_def_cfa_offset 16
 713 0004 00AF     		add	r7, sp, #0
 714              	.LCFI40:
 715              		.cfi_def_cfa_register 7
 716 0006 0346     		mov	r3, r0
 717 0008 FB71     		strb	r3, [r7, #7]
 872:.\Generated_Source\PSoC5/LIN_1_UART.c ****         LIN_1_UART_RXADDRESS1_REG = address;
 718              		.loc 1 872 0
 719 000a 46F22453 		movw	r3, #25892
 720 000e C4F20003 		movt	r3, 16384
 721 0012 FA79     		ldrb	r2, [r7, #7]
 722 0014 1A70     		strb	r2, [r3, #0]
 873:.\Generated_Source\PSoC5/LIN_1_UART.c ****     }
ARM GAS  C:\Users\MATSUD~1\AppData\Local\Temp\ccwDh0Hw.s 			page 29


 723              		.loc 1 873 0
 724 0016 07F10C07 		add	r7, r7, #12
 725 001a BD46     		mov	sp, r7
 726 001c 80BC     		pop	{r7}
 727 001e 7047     		bx	lr
 728              		.cfi_endproc
 729              	.LFE14:
 730              		.size	LIN_1_UART_SetRxAddress1, .-LIN_1_UART_SetRxAddress1
 731              		.section	.text.LIN_1_UART_SetRxAddress2,"ax",%progbits
 732              		.align	2
 733              		.global	LIN_1_UART_SetRxAddress2
 734              		.thumb
 735              		.thumb_func
 736              		.type	LIN_1_UART_SetRxAddress2, %function
 737              	LIN_1_UART_SetRxAddress2:
 738              	.LFB15:
 874:.\Generated_Source\PSoC5/LIN_1_UART.c **** 
 875:.\Generated_Source\PSoC5/LIN_1_UART.c **** 
 876:.\Generated_Source\PSoC5/LIN_1_UART.c ****     /*******************************************************************************
 877:.\Generated_Source\PSoC5/LIN_1_UART.c ****     * Function Name: LIN_1_UART_SetRxAddress2
 878:.\Generated_Source\PSoC5/LIN_1_UART.c ****     ********************************************************************************
 879:.\Generated_Source\PSoC5/LIN_1_UART.c ****     *
 880:.\Generated_Source\PSoC5/LIN_1_UART.c ****     * Summary:
 881:.\Generated_Source\PSoC5/LIN_1_UART.c ****     *  Set the second hardware address compare value
 882:.\Generated_Source\PSoC5/LIN_1_UART.c ****     *
 883:.\Generated_Source\PSoC5/LIN_1_UART.c ****     * Parameters:
 884:.\Generated_Source\PSoC5/LIN_1_UART.c ****     *  address
 885:.\Generated_Source\PSoC5/LIN_1_UART.c ****     *
 886:.\Generated_Source\PSoC5/LIN_1_UART.c ****     * Return:
 887:.\Generated_Source\PSoC5/LIN_1_UART.c ****     *  None.
 888:.\Generated_Source\PSoC5/LIN_1_UART.c ****     *
 889:.\Generated_Source\PSoC5/LIN_1_UART.c ****     *******************************************************************************/
 890:.\Generated_Source\PSoC5/LIN_1_UART.c ****     void LIN_1_UART_SetRxAddress2(uint8 address) 
 891:.\Generated_Source\PSoC5/LIN_1_UART.c ****     {
 739              		.loc 1 891 0
 740              		.cfi_startproc
 741              		@ args = 0, pretend = 0, frame = 8
 742              		@ frame_needed = 1, uses_anonymous_args = 0
 743              		@ link register save eliminated.
 744 0000 80B4     		push	{r7}
 745              	.LCFI41:
 746              		.cfi_def_cfa_offset 4
 747              		.cfi_offset 7, -4
 748 0002 83B0     		sub	sp, sp, #12
 749              	.LCFI42:
 750              		.cfi_def_cfa_offset 16
 751 0004 00AF     		add	r7, sp, #0
 752              	.LCFI43:
 753              		.cfi_def_cfa_register 7
 754 0006 0346     		mov	r3, r0
 755 0008 FB71     		strb	r3, [r7, #7]
 892:.\Generated_Source\PSoC5/LIN_1_UART.c ****         LIN_1_UART_RXADDRESS2_REG = address;
 756              		.loc 1 892 0
 757 000a 46F23453 		movw	r3, #25908
 758 000e C4F20003 		movt	r3, 16384
 759 0012 FA79     		ldrb	r2, [r7, #7]
 760 0014 1A70     		strb	r2, [r3, #0]
ARM GAS  C:\Users\MATSUD~1\AppData\Local\Temp\ccwDh0Hw.s 			page 30


 893:.\Generated_Source\PSoC5/LIN_1_UART.c ****     }
 761              		.loc 1 893 0
 762 0016 07F10C07 		add	r7, r7, #12
 763 001a BD46     		mov	sp, r7
 764 001c 80BC     		pop	{r7}
 765 001e 7047     		bx	lr
 766              		.cfi_endproc
 767              	.LFE15:
 768              		.size	LIN_1_UART_SetRxAddress2, .-LIN_1_UART_SetRxAddress2
 769              		.section	.text.LIN_1_UART_SetTxInterruptMode,"ax",%progbits
 770              		.align	2
 771              		.global	LIN_1_UART_SetTxInterruptMode
 772              		.thumb
 773              		.thumb_func
 774              		.type	LIN_1_UART_SetTxInterruptMode, %function
 775              	LIN_1_UART_SetTxInterruptMode:
 776              	.LFB16:
 894:.\Generated_Source\PSoC5/LIN_1_UART.c **** 
 895:.\Generated_Source\PSoC5/LIN_1_UART.c **** #endif  /* LIN_1_UART_RX_ENABLED || LIN_1_UART_HD_ENABLED*/
 896:.\Generated_Source\PSoC5/LIN_1_UART.c **** 
 897:.\Generated_Source\PSoC5/LIN_1_UART.c **** 
 898:.\Generated_Source\PSoC5/LIN_1_UART.c **** #if( (LIN_1_UART_TX_ENABLED) || (LIN_1_UART_HD_ENABLED) )
 899:.\Generated_Source\PSoC5/LIN_1_UART.c **** 
 900:.\Generated_Source\PSoC5/LIN_1_UART.c ****     #if(LIN_1_UART_TX_INTERRUPT_ENABLED)
 901:.\Generated_Source\PSoC5/LIN_1_UART.c **** 
 902:.\Generated_Source\PSoC5/LIN_1_UART.c ****         /*******************************************************************************
 903:.\Generated_Source\PSoC5/LIN_1_UART.c ****         * Function Name: LIN_1_UART_EnableTxInt
 904:.\Generated_Source\PSoC5/LIN_1_UART.c ****         ********************************************************************************
 905:.\Generated_Source\PSoC5/LIN_1_UART.c ****         *
 906:.\Generated_Source\PSoC5/LIN_1_UART.c ****         * Summary:
 907:.\Generated_Source\PSoC5/LIN_1_UART.c ****         *  Enable TX interrupt generation
 908:.\Generated_Source\PSoC5/LIN_1_UART.c ****         *
 909:.\Generated_Source\PSoC5/LIN_1_UART.c ****         * Parameters:
 910:.\Generated_Source\PSoC5/LIN_1_UART.c ****         *  None.
 911:.\Generated_Source\PSoC5/LIN_1_UART.c ****         *
 912:.\Generated_Source\PSoC5/LIN_1_UART.c ****         * Return:
 913:.\Generated_Source\PSoC5/LIN_1_UART.c ****         *  None.
 914:.\Generated_Source\PSoC5/LIN_1_UART.c ****         *
 915:.\Generated_Source\PSoC5/LIN_1_UART.c ****         * Theory:
 916:.\Generated_Source\PSoC5/LIN_1_UART.c ****         *  Enable the interrupt output -or- the interrupt component itself
 917:.\Generated_Source\PSoC5/LIN_1_UART.c ****         *
 918:.\Generated_Source\PSoC5/LIN_1_UART.c ****         *******************************************************************************/
 919:.\Generated_Source\PSoC5/LIN_1_UART.c ****         void LIN_1_UART_EnableTxInt(void) 
 920:.\Generated_Source\PSoC5/LIN_1_UART.c ****         {
 921:.\Generated_Source\PSoC5/LIN_1_UART.c ****             CyIntEnable(LIN_1_UART_TX_VECT_NUM);
 922:.\Generated_Source\PSoC5/LIN_1_UART.c ****         }
 923:.\Generated_Source\PSoC5/LIN_1_UART.c **** 
 924:.\Generated_Source\PSoC5/LIN_1_UART.c **** 
 925:.\Generated_Source\PSoC5/LIN_1_UART.c ****         /*******************************************************************************
 926:.\Generated_Source\PSoC5/LIN_1_UART.c ****         * Function Name: LIN_1_UART_DisableTxInt
 927:.\Generated_Source\PSoC5/LIN_1_UART.c ****         ********************************************************************************
 928:.\Generated_Source\PSoC5/LIN_1_UART.c ****         *
 929:.\Generated_Source\PSoC5/LIN_1_UART.c ****         * Summary:
 930:.\Generated_Source\PSoC5/LIN_1_UART.c ****         *  Disable TX interrupt generation
 931:.\Generated_Source\PSoC5/LIN_1_UART.c ****         *
 932:.\Generated_Source\PSoC5/LIN_1_UART.c ****         * Parameters:
 933:.\Generated_Source\PSoC5/LIN_1_UART.c ****         *  None.
ARM GAS  C:\Users\MATSUD~1\AppData\Local\Temp\ccwDh0Hw.s 			page 31


 934:.\Generated_Source\PSoC5/LIN_1_UART.c ****         *
 935:.\Generated_Source\PSoC5/LIN_1_UART.c ****         * Return:
 936:.\Generated_Source\PSoC5/LIN_1_UART.c ****         *  None.
 937:.\Generated_Source\PSoC5/LIN_1_UART.c ****         *
 938:.\Generated_Source\PSoC5/LIN_1_UART.c ****         * Theory:
 939:.\Generated_Source\PSoC5/LIN_1_UART.c ****         *  Disable the interrupt output -or- the interrupt component itself
 940:.\Generated_Source\PSoC5/LIN_1_UART.c ****         *
 941:.\Generated_Source\PSoC5/LIN_1_UART.c ****         *******************************************************************************/
 942:.\Generated_Source\PSoC5/LIN_1_UART.c ****         void LIN_1_UART_DisableTxInt(void) 
 943:.\Generated_Source\PSoC5/LIN_1_UART.c ****         {
 944:.\Generated_Source\PSoC5/LIN_1_UART.c ****             CyIntDisable(LIN_1_UART_TX_VECT_NUM);
 945:.\Generated_Source\PSoC5/LIN_1_UART.c ****         }
 946:.\Generated_Source\PSoC5/LIN_1_UART.c **** 
 947:.\Generated_Source\PSoC5/LIN_1_UART.c ****     #endif /* LIN_1_UART_TX_INTERRUPT_ENABLED */
 948:.\Generated_Source\PSoC5/LIN_1_UART.c **** 
 949:.\Generated_Source\PSoC5/LIN_1_UART.c **** 
 950:.\Generated_Source\PSoC5/LIN_1_UART.c ****     /*******************************************************************************
 951:.\Generated_Source\PSoC5/LIN_1_UART.c ****     * Function Name: LIN_1_UART_SetTxInterruptMode
 952:.\Generated_Source\PSoC5/LIN_1_UART.c ****     ********************************************************************************
 953:.\Generated_Source\PSoC5/LIN_1_UART.c ****     *
 954:.\Generated_Source\PSoC5/LIN_1_UART.c ****     * Summary:
 955:.\Generated_Source\PSoC5/LIN_1_UART.c ****     *  Configure which status bits trigger an interrupt event
 956:.\Generated_Source\PSoC5/LIN_1_UART.c ****     *
 957:.\Generated_Source\PSoC5/LIN_1_UART.c ****     * Parameters:
 958:.\Generated_Source\PSoC5/LIN_1_UART.c ****     *  intSrc: An or'd combination of the desired status bit masks (defined in
 959:.\Generated_Source\PSoC5/LIN_1_UART.c ****     *          the header file)
 960:.\Generated_Source\PSoC5/LIN_1_UART.c ****     *
 961:.\Generated_Source\PSoC5/LIN_1_UART.c ****     * Return:
 962:.\Generated_Source\PSoC5/LIN_1_UART.c ****     *  None.
 963:.\Generated_Source\PSoC5/LIN_1_UART.c ****     *
 964:.\Generated_Source\PSoC5/LIN_1_UART.c ****     * Theory:
 965:.\Generated_Source\PSoC5/LIN_1_UART.c ****     *  Enables the output of specific status bits to the interrupt controller
 966:.\Generated_Source\PSoC5/LIN_1_UART.c ****     *
 967:.\Generated_Source\PSoC5/LIN_1_UART.c ****     *******************************************************************************/
 968:.\Generated_Source\PSoC5/LIN_1_UART.c ****     void LIN_1_UART_SetTxInterruptMode(uint8 intSrc) 
 969:.\Generated_Source\PSoC5/LIN_1_UART.c ****     {
 777              		.loc 1 969 0
 778              		.cfi_startproc
 779              		@ args = 0, pretend = 0, frame = 8
 780              		@ frame_needed = 1, uses_anonymous_args = 0
 781              		@ link register save eliminated.
 782 0000 80B4     		push	{r7}
 783              	.LCFI44:
 784              		.cfi_def_cfa_offset 4
 785              		.cfi_offset 7, -4
 786 0002 83B0     		sub	sp, sp, #12
 787              	.LCFI45:
 788              		.cfi_def_cfa_offset 16
 789 0004 00AF     		add	r7, sp, #0
 790              	.LCFI46:
 791              		.cfi_def_cfa_register 7
 792 0006 0346     		mov	r3, r0
 793 0008 FB71     		strb	r3, [r7, #7]
 970:.\Generated_Source\PSoC5/LIN_1_UART.c ****         LIN_1_UART_TXSTATUS_MASK_REG = intSrc;
 794              		.loc 1 970 0
 795 000a 46F28743 		movw	r3, #25735
 796 000e C4F20003 		movt	r3, 16384
ARM GAS  C:\Users\MATSUD~1\AppData\Local\Temp\ccwDh0Hw.s 			page 32


 797 0012 FA79     		ldrb	r2, [r7, #7]
 798 0014 1A70     		strb	r2, [r3, #0]
 971:.\Generated_Source\PSoC5/LIN_1_UART.c ****     }
 799              		.loc 1 971 0
 800 0016 07F10C07 		add	r7, r7, #12
 801 001a BD46     		mov	sp, r7
 802 001c 80BC     		pop	{r7}
 803 001e 7047     		bx	lr
 804              		.cfi_endproc
 805              	.LFE16:
 806              		.size	LIN_1_UART_SetTxInterruptMode, .-LIN_1_UART_SetTxInterruptMode
 807              		.section	.text.LIN_1_UART_WriteTxData,"ax",%progbits
 808              		.align	2
 809              		.global	LIN_1_UART_WriteTxData
 810              		.thumb
 811              		.thumb_func
 812              		.type	LIN_1_UART_WriteTxData, %function
 813              	LIN_1_UART_WriteTxData:
 814              	.LFB17:
 972:.\Generated_Source\PSoC5/LIN_1_UART.c **** 
 973:.\Generated_Source\PSoC5/LIN_1_UART.c **** 
 974:.\Generated_Source\PSoC5/LIN_1_UART.c ****     /*******************************************************************************
 975:.\Generated_Source\PSoC5/LIN_1_UART.c ****     * Function Name: LIN_1_UART_WriteTxData
 976:.\Generated_Source\PSoC5/LIN_1_UART.c ****     ********************************************************************************
 977:.\Generated_Source\PSoC5/LIN_1_UART.c ****     *
 978:.\Generated_Source\PSoC5/LIN_1_UART.c ****     * Summary:
 979:.\Generated_Source\PSoC5/LIN_1_UART.c ****     *  Write a byte of data to the Transmit FIFO or TX buffer to be sent when the
 980:.\Generated_Source\PSoC5/LIN_1_UART.c ****     *  bus is available. WriteTxData sends a byte without checking for buffer room
 981:.\Generated_Source\PSoC5/LIN_1_UART.c ****     *  or status. It is up to the user to separately check status.
 982:.\Generated_Source\PSoC5/LIN_1_UART.c ****     *
 983:.\Generated_Source\PSoC5/LIN_1_UART.c ****     * Parameters:
 984:.\Generated_Source\PSoC5/LIN_1_UART.c ****     *  TXDataByte: byte of data to place in the transmit FIFO
 985:.\Generated_Source\PSoC5/LIN_1_UART.c ****     *
 986:.\Generated_Source\PSoC5/LIN_1_UART.c ****     * Return:
 987:.\Generated_Source\PSoC5/LIN_1_UART.c ****     * void
 988:.\Generated_Source\PSoC5/LIN_1_UART.c ****     *
 989:.\Generated_Source\PSoC5/LIN_1_UART.c ****     * Global Variables:
 990:.\Generated_Source\PSoC5/LIN_1_UART.c ****     *  LIN_1_UART_txBuffer - RAM buffer pointer for save data for transmission
 991:.\Generated_Source\PSoC5/LIN_1_UART.c ****     *  LIN_1_UART_txBufferWrite - cyclic index for write to txBuffer,
 992:.\Generated_Source\PSoC5/LIN_1_UART.c ****     *    incremented after each byte saved to buffer.
 993:.\Generated_Source\PSoC5/LIN_1_UART.c ****     *  LIN_1_UART_txBufferRead - cyclic index for read from txBuffer,
 994:.\Generated_Source\PSoC5/LIN_1_UART.c ****     *    checked to identify the condition to write to FIFO directly or to TX buffer
 995:.\Generated_Source\PSoC5/LIN_1_UART.c ****     *  LIN_1_UART_initVar - checked to identify that the component has been
 996:.\Generated_Source\PSoC5/LIN_1_UART.c ****     *    initialized.
 997:.\Generated_Source\PSoC5/LIN_1_UART.c ****     *
 998:.\Generated_Source\PSoC5/LIN_1_UART.c ****     * Reentrant:
 999:.\Generated_Source\PSoC5/LIN_1_UART.c ****     *  No.
1000:.\Generated_Source\PSoC5/LIN_1_UART.c ****     *
1001:.\Generated_Source\PSoC5/LIN_1_UART.c ****     *******************************************************************************/
1002:.\Generated_Source\PSoC5/LIN_1_UART.c ****     void LIN_1_UART_WriteTxData(uint8 txDataByte) 
1003:.\Generated_Source\PSoC5/LIN_1_UART.c ****     {
 815              		.loc 1 1003 0
 816              		.cfi_startproc
 817              		@ args = 0, pretend = 0, frame = 8
 818              		@ frame_needed = 1, uses_anonymous_args = 0
 819              		@ link register save eliminated.
 820 0000 80B4     		push	{r7}
ARM GAS  C:\Users\MATSUD~1\AppData\Local\Temp\ccwDh0Hw.s 			page 33


 821              	.LCFI47:
 822              		.cfi_def_cfa_offset 4
 823              		.cfi_offset 7, -4
 824 0002 83B0     		sub	sp, sp, #12
 825              	.LCFI48:
 826              		.cfi_def_cfa_offset 16
 827 0004 00AF     		add	r7, sp, #0
 828              	.LCFI49:
 829              		.cfi_def_cfa_register 7
 830 0006 0346     		mov	r3, r0
 831 0008 FB71     		strb	r3, [r7, #7]
1004:.\Generated_Source\PSoC5/LIN_1_UART.c ****         /* If not Initialized then skip this function*/
1005:.\Generated_Source\PSoC5/LIN_1_UART.c ****         if(LIN_1_UART_initVar != 0u)
 832              		.loc 1 1005 0
 833 000a 40F20003 		movw	r3, #:lower16:LIN_1_UART_initVar
 834 000e C0F20003 		movt	r3, #:upper16:LIN_1_UART_initVar
 835 0012 1B78     		ldrb	r3, [r3, #0]	@ zero_extendqisi2
 836 0014 002B     		cmp	r3, #0
 837 0016 05D0     		beq	.L28
1006:.\Generated_Source\PSoC5/LIN_1_UART.c ****         {
1007:.\Generated_Source\PSoC5/LIN_1_UART.c ****             #if(LIN_1_UART_TXBUFFERSIZE > LIN_1_UART_FIFO_LENGTH)
1008:.\Generated_Source\PSoC5/LIN_1_UART.c **** 
1009:.\Generated_Source\PSoC5/LIN_1_UART.c ****                 /* Disable Tx interrupt. */
1010:.\Generated_Source\PSoC5/LIN_1_UART.c ****                 /* Protect variables that could change on interrupt. */
1011:.\Generated_Source\PSoC5/LIN_1_UART.c ****                 #if(LIN_1_UART_TX_INTERRUPT_ENABLED)
1012:.\Generated_Source\PSoC5/LIN_1_UART.c ****                     LIN_1_UART_DisableTxInt();
1013:.\Generated_Source\PSoC5/LIN_1_UART.c ****                 #endif /* End LIN_1_UART_TX_INTERRUPT_ENABLED */
1014:.\Generated_Source\PSoC5/LIN_1_UART.c **** 
1015:.\Generated_Source\PSoC5/LIN_1_UART.c ****                 if( (LIN_1_UART_txBufferRead == LIN_1_UART_txBufferWrite) &&
1016:.\Generated_Source\PSoC5/LIN_1_UART.c ****                     ((LIN_1_UART_TXSTATUS_REG & LIN_1_UART_TX_STS_FIFO_FULL) == 0u) )
1017:.\Generated_Source\PSoC5/LIN_1_UART.c ****                 {
1018:.\Generated_Source\PSoC5/LIN_1_UART.c ****                     /* Add directly to the FIFO. */
1019:.\Generated_Source\PSoC5/LIN_1_UART.c ****                     LIN_1_UART_TXDATA_REG = txDataByte;
1020:.\Generated_Source\PSoC5/LIN_1_UART.c ****                 }
1021:.\Generated_Source\PSoC5/LIN_1_UART.c ****                 else
1022:.\Generated_Source\PSoC5/LIN_1_UART.c ****                 {
1023:.\Generated_Source\PSoC5/LIN_1_UART.c ****                     if(LIN_1_UART_txBufferWrite >= LIN_1_UART_TXBUFFERSIZE)
1024:.\Generated_Source\PSoC5/LIN_1_UART.c ****                     {
1025:.\Generated_Source\PSoC5/LIN_1_UART.c ****                         LIN_1_UART_txBufferWrite = 0u;
1026:.\Generated_Source\PSoC5/LIN_1_UART.c ****                     }
1027:.\Generated_Source\PSoC5/LIN_1_UART.c **** 
1028:.\Generated_Source\PSoC5/LIN_1_UART.c ****                     LIN_1_UART_txBuffer[LIN_1_UART_txBufferWrite] = txDataByte;
1029:.\Generated_Source\PSoC5/LIN_1_UART.c **** 
1030:.\Generated_Source\PSoC5/LIN_1_UART.c ****                     /* Add to the software buffer. */
1031:.\Generated_Source\PSoC5/LIN_1_UART.c ****                     LIN_1_UART_txBufferWrite++;
1032:.\Generated_Source\PSoC5/LIN_1_UART.c **** 
1033:.\Generated_Source\PSoC5/LIN_1_UART.c ****                 }
1034:.\Generated_Source\PSoC5/LIN_1_UART.c **** 
1035:.\Generated_Source\PSoC5/LIN_1_UART.c ****                 /* Enable Tx interrupt. */
1036:.\Generated_Source\PSoC5/LIN_1_UART.c ****                 #if(LIN_1_UART_TX_INTERRUPT_ENABLED)
1037:.\Generated_Source\PSoC5/LIN_1_UART.c ****                     LIN_1_UART_EnableTxInt();
1038:.\Generated_Source\PSoC5/LIN_1_UART.c ****                 #endif /* End LIN_1_UART_TX_INTERRUPT_ENABLED */
1039:.\Generated_Source\PSoC5/LIN_1_UART.c **** 
1040:.\Generated_Source\PSoC5/LIN_1_UART.c ****             #else /* LIN_1_UART_TXBUFFERSIZE > LIN_1_UART_FIFO_LENGTH */
1041:.\Generated_Source\PSoC5/LIN_1_UART.c **** 
1042:.\Generated_Source\PSoC5/LIN_1_UART.c ****                 /* Add directly to the FIFO. */
1043:.\Generated_Source\PSoC5/LIN_1_UART.c ****                 LIN_1_UART_TXDATA_REG = txDataByte;
ARM GAS  C:\Users\MATSUD~1\AppData\Local\Temp\ccwDh0Hw.s 			page 34


 838              		.loc 1 1043 0
 839 0018 46F24743 		movw	r3, #25671
 840 001c C4F20003 		movt	r3, 16384
 841 0020 FA79     		ldrb	r2, [r7, #7]
 842 0022 1A70     		strb	r2, [r3, #0]
 843              	.L28:
1044:.\Generated_Source\PSoC5/LIN_1_UART.c **** 
1045:.\Generated_Source\PSoC5/LIN_1_UART.c ****             #endif /* End LIN_1_UART_TXBUFFERSIZE > LIN_1_UART_FIFO_LENGTH */
1046:.\Generated_Source\PSoC5/LIN_1_UART.c ****         }
1047:.\Generated_Source\PSoC5/LIN_1_UART.c ****     }
 844              		.loc 1 1047 0
 845 0024 07F10C07 		add	r7, r7, #12
 846 0028 BD46     		mov	sp, r7
 847 002a 80BC     		pop	{r7}
 848 002c 7047     		bx	lr
 849              		.cfi_endproc
 850              	.LFE17:
 851              		.size	LIN_1_UART_WriteTxData, .-LIN_1_UART_WriteTxData
 852 002e 00BF     		.section	.text.LIN_1_UART_ReadTxStatus,"ax",%progbits
 853              		.align	2
 854              		.global	LIN_1_UART_ReadTxStatus
 855              		.thumb
 856              		.thumb_func
 857              		.type	LIN_1_UART_ReadTxStatus, %function
 858              	LIN_1_UART_ReadTxStatus:
 859              	.LFB18:
1048:.\Generated_Source\PSoC5/LIN_1_UART.c **** 
1049:.\Generated_Source\PSoC5/LIN_1_UART.c **** 
1050:.\Generated_Source\PSoC5/LIN_1_UART.c ****     /*******************************************************************************
1051:.\Generated_Source\PSoC5/LIN_1_UART.c ****     * Function Name: LIN_1_UART_ReadTxStatus
1052:.\Generated_Source\PSoC5/LIN_1_UART.c ****     ********************************************************************************
1053:.\Generated_Source\PSoC5/LIN_1_UART.c ****     *
1054:.\Generated_Source\PSoC5/LIN_1_UART.c ****     * Summary:
1055:.\Generated_Source\PSoC5/LIN_1_UART.c ****     *  Read the status register for the component
1056:.\Generated_Source\PSoC5/LIN_1_UART.c ****     *
1057:.\Generated_Source\PSoC5/LIN_1_UART.c ****     * Parameters:
1058:.\Generated_Source\PSoC5/LIN_1_UART.c ****     *  None.
1059:.\Generated_Source\PSoC5/LIN_1_UART.c ****     *
1060:.\Generated_Source\PSoC5/LIN_1_UART.c ****     * Return:
1061:.\Generated_Source\PSoC5/LIN_1_UART.c ****     *  Contents of the status register
1062:.\Generated_Source\PSoC5/LIN_1_UART.c ****     *
1063:.\Generated_Source\PSoC5/LIN_1_UART.c ****     * Theory:
1064:.\Generated_Source\PSoC5/LIN_1_UART.c ****     *  This function reads the status register which is clear on read. It is up to
1065:.\Generated_Source\PSoC5/LIN_1_UART.c ****     *  the user to handle all bits in this return value accordingly, even if the bit
1066:.\Generated_Source\PSoC5/LIN_1_UART.c ****     *  was not enabled as an interrupt source the event happened and must be handled
1067:.\Generated_Source\PSoC5/LIN_1_UART.c ****     *  accordingly.
1068:.\Generated_Source\PSoC5/LIN_1_UART.c ****     *
1069:.\Generated_Source\PSoC5/LIN_1_UART.c ****     *******************************************************************************/
1070:.\Generated_Source\PSoC5/LIN_1_UART.c ****     uint8 LIN_1_UART_ReadTxStatus(void) 
1071:.\Generated_Source\PSoC5/LIN_1_UART.c ****     {
 860              		.loc 1 1071 0
 861              		.cfi_startproc
 862              		@ args = 0, pretend = 0, frame = 0
 863              		@ frame_needed = 1, uses_anonymous_args = 0
 864              		@ link register save eliminated.
 865 0000 80B4     		push	{r7}
 866              	.LCFI50:
ARM GAS  C:\Users\MATSUD~1\AppData\Local\Temp\ccwDh0Hw.s 			page 35


 867              		.cfi_def_cfa_offset 4
 868              		.cfi_offset 7, -4
 869 0002 00AF     		add	r7, sp, #0
 870              	.LCFI51:
 871              		.cfi_def_cfa_register 7
1072:.\Generated_Source\PSoC5/LIN_1_UART.c ****         return(LIN_1_UART_TXSTATUS_REG);
 872              		.loc 1 1072 0
 873 0004 46F26743 		movw	r3, #25703
 874 0008 C4F20003 		movt	r3, 16384
 875 000c 1B78     		ldrb	r3, [r3, #0]
 876 000e DBB2     		uxtb	r3, r3
1073:.\Generated_Source\PSoC5/LIN_1_UART.c ****     }
 877              		.loc 1 1073 0
 878 0010 1846     		mov	r0, r3
 879 0012 BD46     		mov	sp, r7
 880 0014 80BC     		pop	{r7}
 881 0016 7047     		bx	lr
 882              		.cfi_endproc
 883              	.LFE18:
 884              		.size	LIN_1_UART_ReadTxStatus, .-LIN_1_UART_ReadTxStatus
 885              		.section	.text.LIN_1_UART_PutChar,"ax",%progbits
 886              		.align	2
 887              		.global	LIN_1_UART_PutChar
 888              		.thumb
 889              		.thumb_func
 890              		.type	LIN_1_UART_PutChar, %function
 891              	LIN_1_UART_PutChar:
 892              	.LFB19:
1074:.\Generated_Source\PSoC5/LIN_1_UART.c **** 
1075:.\Generated_Source\PSoC5/LIN_1_UART.c **** 
1076:.\Generated_Source\PSoC5/LIN_1_UART.c ****     /*******************************************************************************
1077:.\Generated_Source\PSoC5/LIN_1_UART.c ****     * Function Name: LIN_1_UART_PutChar
1078:.\Generated_Source\PSoC5/LIN_1_UART.c ****     ********************************************************************************
1079:.\Generated_Source\PSoC5/LIN_1_UART.c ****     *
1080:.\Generated_Source\PSoC5/LIN_1_UART.c ****     * Summary:
1081:.\Generated_Source\PSoC5/LIN_1_UART.c ****     *  Wait to send byte until TX register or buffer has room.
1082:.\Generated_Source\PSoC5/LIN_1_UART.c ****     *
1083:.\Generated_Source\PSoC5/LIN_1_UART.c ****     * Parameters:
1084:.\Generated_Source\PSoC5/LIN_1_UART.c ****     *  txDataByte: The 8-bit data value to send across the UART.
1085:.\Generated_Source\PSoC5/LIN_1_UART.c ****     *
1086:.\Generated_Source\PSoC5/LIN_1_UART.c ****     * Return:
1087:.\Generated_Source\PSoC5/LIN_1_UART.c ****     *  None.
1088:.\Generated_Source\PSoC5/LIN_1_UART.c ****     *
1089:.\Generated_Source\PSoC5/LIN_1_UART.c ****     * Global Variables:
1090:.\Generated_Source\PSoC5/LIN_1_UART.c ****     *  LIN_1_UART_txBuffer - RAM buffer pointer for save data for transmission
1091:.\Generated_Source\PSoC5/LIN_1_UART.c ****     *  LIN_1_UART_txBufferWrite - cyclic index for write to txBuffer,
1092:.\Generated_Source\PSoC5/LIN_1_UART.c ****     *     checked to identify free space in txBuffer and incremented after each byte
1093:.\Generated_Source\PSoC5/LIN_1_UART.c ****     *     saved to buffer.
1094:.\Generated_Source\PSoC5/LIN_1_UART.c ****     *  LIN_1_UART_txBufferRead - cyclic index for read from txBuffer,
1095:.\Generated_Source\PSoC5/LIN_1_UART.c ****     *     checked to identify free space in txBuffer.
1096:.\Generated_Source\PSoC5/LIN_1_UART.c ****     *  LIN_1_UART_initVar - checked to identify that the component has been
1097:.\Generated_Source\PSoC5/LIN_1_UART.c ****     *     initialized.
1098:.\Generated_Source\PSoC5/LIN_1_UART.c ****     *
1099:.\Generated_Source\PSoC5/LIN_1_UART.c ****     * Reentrant:
1100:.\Generated_Source\PSoC5/LIN_1_UART.c ****     *  No.
1101:.\Generated_Source\PSoC5/LIN_1_UART.c ****     *
1102:.\Generated_Source\PSoC5/LIN_1_UART.c ****     * Theory:
ARM GAS  C:\Users\MATSUD~1\AppData\Local\Temp\ccwDh0Hw.s 			page 36


1103:.\Generated_Source\PSoC5/LIN_1_UART.c ****     *  Allows the user to transmit any byte of data in a single transfer
1104:.\Generated_Source\PSoC5/LIN_1_UART.c ****     *
1105:.\Generated_Source\PSoC5/LIN_1_UART.c ****     *******************************************************************************/
1106:.\Generated_Source\PSoC5/LIN_1_UART.c ****     void LIN_1_UART_PutChar(uint8 txDataByte) 
1107:.\Generated_Source\PSoC5/LIN_1_UART.c ****     {
 893              		.loc 1 1107 0
 894              		.cfi_startproc
 895              		@ args = 0, pretend = 0, frame = 8
 896              		@ frame_needed = 1, uses_anonymous_args = 0
 897              		@ link register save eliminated.
 898 0000 80B4     		push	{r7}
 899              	.LCFI52:
 900              		.cfi_def_cfa_offset 4
 901              		.cfi_offset 7, -4
 902 0002 83B0     		sub	sp, sp, #12
 903              	.LCFI53:
 904              		.cfi_def_cfa_offset 16
 905 0004 00AF     		add	r7, sp, #0
 906              	.LCFI54:
 907              		.cfi_def_cfa_register 7
 908 0006 0346     		mov	r3, r0
 909 0008 FB71     		strb	r3, [r7, #7]
1108:.\Generated_Source\PSoC5/LIN_1_UART.c ****             #if(LIN_1_UART_TXBUFFERSIZE > LIN_1_UART_FIFO_LENGTH)
1109:.\Generated_Source\PSoC5/LIN_1_UART.c ****                 /* The temporary output pointer is used since it takes two instructions
1110:.\Generated_Source\PSoC5/LIN_1_UART.c ****                 *  to increment with a wrap, and we can't risk doing that with the real
1111:.\Generated_Source\PSoC5/LIN_1_UART.c ****                 *  pointer and getting an interrupt in between instructions.
1112:.\Generated_Source\PSoC5/LIN_1_UART.c ****                 */
1113:.\Generated_Source\PSoC5/LIN_1_UART.c ****                 uint8 loc_txBufferWrite;
1114:.\Generated_Source\PSoC5/LIN_1_UART.c ****                 uint8 loc_txBufferRead;
1115:.\Generated_Source\PSoC5/LIN_1_UART.c **** 
1116:.\Generated_Source\PSoC5/LIN_1_UART.c ****                 do{
1117:.\Generated_Source\PSoC5/LIN_1_UART.c ****                     /* Block if software buffer is full, so we don't overwrite. */
1118:.\Generated_Source\PSoC5/LIN_1_UART.c ****                     #if ((LIN_1_UART_TXBUFFERSIZE > LIN_1_UART_MAX_BYTE_VALUE) && (CY_PSOC3))
1119:.\Generated_Source\PSoC5/LIN_1_UART.c ****                         /* Disable TX interrupt to protect variables that could change on interrupt
1120:.\Generated_Source\PSoC5/LIN_1_UART.c ****                         CyIntDisable(LIN_1_UART_TX_VECT_NUM);
1121:.\Generated_Source\PSoC5/LIN_1_UART.c ****                     #endif /* End TXBUFFERSIZE > 255 */
1122:.\Generated_Source\PSoC5/LIN_1_UART.c ****                     loc_txBufferWrite = LIN_1_UART_txBufferWrite;
1123:.\Generated_Source\PSoC5/LIN_1_UART.c ****                     loc_txBufferRead = LIN_1_UART_txBufferRead;
1124:.\Generated_Source\PSoC5/LIN_1_UART.c ****                     #if ((LIN_1_UART_TXBUFFERSIZE > LIN_1_UART_MAX_BYTE_VALUE) && (CY_PSOC3))
1125:.\Generated_Source\PSoC5/LIN_1_UART.c ****                         /* Enable interrupt to continue transmission */
1126:.\Generated_Source\PSoC5/LIN_1_UART.c ****                         CyIntEnable(LIN_1_UART_TX_VECT_NUM);
1127:.\Generated_Source\PSoC5/LIN_1_UART.c ****                     #endif /* End TXBUFFERSIZE > 255 */
1128:.\Generated_Source\PSoC5/LIN_1_UART.c ****                 }while( (loc_txBufferWrite < loc_txBufferRead) ? (loc_txBufferWrite == (loc_txBuffe
1129:.\Generated_Source\PSoC5/LIN_1_UART.c ****                                         ((loc_txBufferWrite - loc_txBufferRead) ==
1130:.\Generated_Source\PSoC5/LIN_1_UART.c ****                                         (uint8)(LIN_1_UART_TXBUFFERSIZE - 1u)) );
1131:.\Generated_Source\PSoC5/LIN_1_UART.c **** 
1132:.\Generated_Source\PSoC5/LIN_1_UART.c ****                 if( (loc_txBufferRead == loc_txBufferWrite) &&
1133:.\Generated_Source\PSoC5/LIN_1_UART.c ****                     ((LIN_1_UART_TXSTATUS_REG & LIN_1_UART_TX_STS_FIFO_FULL) == 0u) )
1134:.\Generated_Source\PSoC5/LIN_1_UART.c ****                 {
1135:.\Generated_Source\PSoC5/LIN_1_UART.c ****                     /* Add directly to the FIFO. */
1136:.\Generated_Source\PSoC5/LIN_1_UART.c ****                     LIN_1_UART_TXDATA_REG = txDataByte;
1137:.\Generated_Source\PSoC5/LIN_1_UART.c ****                 }
1138:.\Generated_Source\PSoC5/LIN_1_UART.c ****                 else
1139:.\Generated_Source\PSoC5/LIN_1_UART.c ****                 {
1140:.\Generated_Source\PSoC5/LIN_1_UART.c ****                     if(loc_txBufferWrite >= LIN_1_UART_TXBUFFERSIZE)
1141:.\Generated_Source\PSoC5/LIN_1_UART.c ****                     {
1142:.\Generated_Source\PSoC5/LIN_1_UART.c ****                         loc_txBufferWrite = 0u;
ARM GAS  C:\Users\MATSUD~1\AppData\Local\Temp\ccwDh0Hw.s 			page 37


1143:.\Generated_Source\PSoC5/LIN_1_UART.c ****                     }
1144:.\Generated_Source\PSoC5/LIN_1_UART.c ****                     /* Add to the software buffer. */
1145:.\Generated_Source\PSoC5/LIN_1_UART.c ****                     LIN_1_UART_txBuffer[loc_txBufferWrite] = txDataByte;
1146:.\Generated_Source\PSoC5/LIN_1_UART.c ****                     loc_txBufferWrite++;
1147:.\Generated_Source\PSoC5/LIN_1_UART.c **** 
1148:.\Generated_Source\PSoC5/LIN_1_UART.c ****                     /* Finally, update the real output pointer */
1149:.\Generated_Source\PSoC5/LIN_1_UART.c ****                     #if ((LIN_1_UART_TXBUFFERSIZE > LIN_1_UART_MAX_BYTE_VALUE) && (CY_PSOC3))
1150:.\Generated_Source\PSoC5/LIN_1_UART.c ****                         CyIntDisable(LIN_1_UART_TX_VECT_NUM);
1151:.\Generated_Source\PSoC5/LIN_1_UART.c ****                     #endif /* End TXBUFFERSIZE > 255 */
1152:.\Generated_Source\PSoC5/LIN_1_UART.c ****                     LIN_1_UART_txBufferWrite = loc_txBufferWrite;
1153:.\Generated_Source\PSoC5/LIN_1_UART.c ****                     #if ((LIN_1_UART_TXBUFFERSIZE > LIN_1_UART_MAX_BYTE_VALUE) && (CY_PSOC3))
1154:.\Generated_Source\PSoC5/LIN_1_UART.c ****                         CyIntEnable(LIN_1_UART_TX_VECT_NUM);
1155:.\Generated_Source\PSoC5/LIN_1_UART.c ****                     #endif /* End TXBUFFERSIZE > 255 */
1156:.\Generated_Source\PSoC5/LIN_1_UART.c ****                 }
1157:.\Generated_Source\PSoC5/LIN_1_UART.c **** 
1158:.\Generated_Source\PSoC5/LIN_1_UART.c ****             #else /* LIN_1_UART_TXBUFFERSIZE > LIN_1_UART_FIFO_LENGTH */
1159:.\Generated_Source\PSoC5/LIN_1_UART.c **** 
1160:.\Generated_Source\PSoC5/LIN_1_UART.c ****                 while((LIN_1_UART_TXSTATUS_REG & LIN_1_UART_TX_STS_FIFO_FULL) != 0u)
 910              		.loc 1 1160 0
 911 000a 00BF     		nop
 912              	.L33:
 913              		.loc 1 1160 0 is_stmt 0 discriminator 1
 914 000c 46F26743 		movw	r3, #25703
 915 0010 C4F20003 		movt	r3, 16384
 916 0014 1B78     		ldrb	r3, [r3, #0]
 917 0016 DBB2     		uxtb	r3, r3
 918 0018 03F00403 		and	r3, r3, #4
 919 001c 002B     		cmp	r3, #0
 920 001e F5D1     		bne	.L33
1161:.\Generated_Source\PSoC5/LIN_1_UART.c ****                 {
1162:.\Generated_Source\PSoC5/LIN_1_UART.c ****                     ; /* Wait for room in the FIFO. */
1163:.\Generated_Source\PSoC5/LIN_1_UART.c ****                 }
1164:.\Generated_Source\PSoC5/LIN_1_UART.c **** 
1165:.\Generated_Source\PSoC5/LIN_1_UART.c ****                 /* Add directly to the FIFO. */
1166:.\Generated_Source\PSoC5/LIN_1_UART.c ****                 LIN_1_UART_TXDATA_REG = txDataByte;
 921              		.loc 1 1166 0 is_stmt 1
 922 0020 46F24743 		movw	r3, #25671
 923 0024 C4F20003 		movt	r3, 16384
 924 0028 FA79     		ldrb	r2, [r7, #7]
 925 002a 1A70     		strb	r2, [r3, #0]
1167:.\Generated_Source\PSoC5/LIN_1_UART.c **** 
1168:.\Generated_Source\PSoC5/LIN_1_UART.c ****             #endif /* End LIN_1_UART_TXBUFFERSIZE > LIN_1_UART_FIFO_LENGTH */
1169:.\Generated_Source\PSoC5/LIN_1_UART.c ****     }
 926              		.loc 1 1169 0
 927 002c 07F10C07 		add	r7, r7, #12
 928 0030 BD46     		mov	sp, r7
 929 0032 80BC     		pop	{r7}
 930 0034 7047     		bx	lr
 931              		.cfi_endproc
 932              	.LFE19:
 933              		.size	LIN_1_UART_PutChar, .-LIN_1_UART_PutChar
 934 0036 00BF     		.section	.text.LIN_1_UART_PutString,"ax",%progbits
 935              		.align	2
 936              		.global	LIN_1_UART_PutString
 937              		.thumb
 938              		.thumb_func
 939              		.type	LIN_1_UART_PutString, %function
ARM GAS  C:\Users\MATSUD~1\AppData\Local\Temp\ccwDh0Hw.s 			page 38


 940              	LIN_1_UART_PutString:
 941              	.LFB20:
1170:.\Generated_Source\PSoC5/LIN_1_UART.c **** 
1171:.\Generated_Source\PSoC5/LIN_1_UART.c **** 
1172:.\Generated_Source\PSoC5/LIN_1_UART.c ****     /*******************************************************************************
1173:.\Generated_Source\PSoC5/LIN_1_UART.c ****     * Function Name: LIN_1_UART_PutString
1174:.\Generated_Source\PSoC5/LIN_1_UART.c ****     ********************************************************************************
1175:.\Generated_Source\PSoC5/LIN_1_UART.c ****     *
1176:.\Generated_Source\PSoC5/LIN_1_UART.c ****     * Summary:
1177:.\Generated_Source\PSoC5/LIN_1_UART.c ****     *  Write a Sequence of bytes on the Transmit line. Data comes from RAM or ROM.
1178:.\Generated_Source\PSoC5/LIN_1_UART.c ****     *
1179:.\Generated_Source\PSoC5/LIN_1_UART.c ****     * Parameters:
1180:.\Generated_Source\PSoC5/LIN_1_UART.c ****     *  string: char pointer to character string of Data to Send.
1181:.\Generated_Source\PSoC5/LIN_1_UART.c ****     *
1182:.\Generated_Source\PSoC5/LIN_1_UART.c ****     * Return:
1183:.\Generated_Source\PSoC5/LIN_1_UART.c ****     *  None.
1184:.\Generated_Source\PSoC5/LIN_1_UART.c ****     *
1185:.\Generated_Source\PSoC5/LIN_1_UART.c ****     * Global Variables:
1186:.\Generated_Source\PSoC5/LIN_1_UART.c ****     *  LIN_1_UART_initVar - checked to identify that the component has been
1187:.\Generated_Source\PSoC5/LIN_1_UART.c ****     *     initialized.
1188:.\Generated_Source\PSoC5/LIN_1_UART.c ****     *
1189:.\Generated_Source\PSoC5/LIN_1_UART.c ****     * Reentrant:
1190:.\Generated_Source\PSoC5/LIN_1_UART.c ****     *  No.
1191:.\Generated_Source\PSoC5/LIN_1_UART.c ****     *
1192:.\Generated_Source\PSoC5/LIN_1_UART.c ****     * Theory:
1193:.\Generated_Source\PSoC5/LIN_1_UART.c ****     *  This function will block if there is not enough memory to place the whole
1194:.\Generated_Source\PSoC5/LIN_1_UART.c ****     *  string, it will block until the entire string has been written to the
1195:.\Generated_Source\PSoC5/LIN_1_UART.c ****     *  transmit buffer.
1196:.\Generated_Source\PSoC5/LIN_1_UART.c ****     *
1197:.\Generated_Source\PSoC5/LIN_1_UART.c ****     *******************************************************************************/
1198:.\Generated_Source\PSoC5/LIN_1_UART.c ****     void LIN_1_UART_PutString(const char8 string[]) 
1199:.\Generated_Source\PSoC5/LIN_1_UART.c ****     {
 942              		.loc 1 1199 0
 943              		.cfi_startproc
 944              		@ args = 0, pretend = 0, frame = 16
 945              		@ frame_needed = 1, uses_anonymous_args = 0
 946 0000 80B5     		push	{r7, lr}
 947              	.LCFI55:
 948              		.cfi_def_cfa_offset 8
 949              		.cfi_offset 7, -8
 950              		.cfi_offset 14, -4
 951 0002 84B0     		sub	sp, sp, #16
 952              	.LCFI56:
 953              		.cfi_def_cfa_offset 24
 954 0004 00AF     		add	r7, sp, #0
 955              	.LCFI57:
 956              		.cfi_def_cfa_register 7
 957 0006 7860     		str	r0, [r7, #4]
1200:.\Generated_Source\PSoC5/LIN_1_UART.c ****         uint16 buf_index = 0u;
 958              		.loc 1 1200 0
 959 0008 4FF00003 		mov	r3, #0
 960 000c FB81     		strh	r3, [r7, #14]	@ movhi
1201:.\Generated_Source\PSoC5/LIN_1_UART.c ****         /* If not Initialized then skip this function*/
1202:.\Generated_Source\PSoC5/LIN_1_UART.c ****         if(LIN_1_UART_initVar != 0u)
 961              		.loc 1 1202 0
 962 000e 40F20003 		movw	r3, #:lower16:LIN_1_UART_initVar
 963 0012 C0F20003 		movt	r3, #:upper16:LIN_1_UART_initVar
ARM GAS  C:\Users\MATSUD~1\AppData\Local\Temp\ccwDh0Hw.s 			page 39


 964 0016 1B78     		ldrb	r3, [r3, #0]	@ zero_extendqisi2
 965 0018 002B     		cmp	r3, #0
 966 001a 11D0     		beq	.L34
1203:.\Generated_Source\PSoC5/LIN_1_UART.c ****         {
1204:.\Generated_Source\PSoC5/LIN_1_UART.c ****             /* This is a blocking function, it will not exit until all data is sent*/
1205:.\Generated_Source\PSoC5/LIN_1_UART.c ****             while(string[buf_index] != (char8)0)
 967              		.loc 1 1205 0
 968 001c 0AE0     		b	.L36
 969              	.L37:
1206:.\Generated_Source\PSoC5/LIN_1_UART.c ****             {
1207:.\Generated_Source\PSoC5/LIN_1_UART.c ****                 LIN_1_UART_PutChar((uint8)string[buf_index]);
 970              		.loc 1 1207 0
 971 001e FB89     		ldrh	r3, [r7, #14]
 972 0020 7A68     		ldr	r2, [r7, #4]
 973 0022 D318     		adds	r3, r2, r3
 974 0024 1B78     		ldrb	r3, [r3, #0]	@ zero_extendqisi2
 975 0026 1846     		mov	r0, r3
 976 0028 FFF7FEFF 		bl	LIN_1_UART_PutChar
1208:.\Generated_Source\PSoC5/LIN_1_UART.c ****                 buf_index++;
 977              		.loc 1 1208 0
 978 002c FB89     		ldrh	r3, [r7, #14]	@ movhi
 979 002e 03F10103 		add	r3, r3, #1
 980 0032 FB81     		strh	r3, [r7, #14]	@ movhi
 981              	.L36:
1205:.\Generated_Source\PSoC5/LIN_1_UART.c ****             while(string[buf_index] != (char8)0)
 982              		.loc 1 1205 0 discriminator 1
 983 0034 FB89     		ldrh	r3, [r7, #14]
 984 0036 7A68     		ldr	r2, [r7, #4]
 985 0038 D318     		adds	r3, r2, r3
 986 003a 1B78     		ldrb	r3, [r3, #0]	@ zero_extendqisi2
 987 003c 002B     		cmp	r3, #0
 988 003e EED1     		bne	.L37
 989              	.L34:
1209:.\Generated_Source\PSoC5/LIN_1_UART.c ****             }
1210:.\Generated_Source\PSoC5/LIN_1_UART.c ****         }
1211:.\Generated_Source\PSoC5/LIN_1_UART.c ****     }
 990              		.loc 1 1211 0
 991 0040 07F11007 		add	r7, r7, #16
 992 0044 BD46     		mov	sp, r7
 993 0046 80BD     		pop	{r7, pc}
 994              		.cfi_endproc
 995              	.LFE20:
 996              		.size	LIN_1_UART_PutString, .-LIN_1_UART_PutString
 997              		.section	.text.LIN_1_UART_PutArray,"ax",%progbits
 998              		.align	2
 999              		.global	LIN_1_UART_PutArray
 1000              		.thumb
 1001              		.thumb_func
 1002              		.type	LIN_1_UART_PutArray, %function
 1003              	LIN_1_UART_PutArray:
 1004              	.LFB21:
1212:.\Generated_Source\PSoC5/LIN_1_UART.c **** 
1213:.\Generated_Source\PSoC5/LIN_1_UART.c **** 
1214:.\Generated_Source\PSoC5/LIN_1_UART.c ****     /*******************************************************************************
1215:.\Generated_Source\PSoC5/LIN_1_UART.c ****     * Function Name: LIN_1_UART_PutArray
1216:.\Generated_Source\PSoC5/LIN_1_UART.c ****     ********************************************************************************
1217:.\Generated_Source\PSoC5/LIN_1_UART.c ****     *
ARM GAS  C:\Users\MATSUD~1\AppData\Local\Temp\ccwDh0Hw.s 			page 40


1218:.\Generated_Source\PSoC5/LIN_1_UART.c ****     * Summary:
1219:.\Generated_Source\PSoC5/LIN_1_UART.c ****     *  Write a Sequence of bytes on the Transmit line. Data comes from RAM or ROM.
1220:.\Generated_Source\PSoC5/LIN_1_UART.c ****     *
1221:.\Generated_Source\PSoC5/LIN_1_UART.c ****     * Parameters:
1222:.\Generated_Source\PSoC5/LIN_1_UART.c ****     *  string: Address of the memory array residing in RAM or ROM.
1223:.\Generated_Source\PSoC5/LIN_1_UART.c ****     *  byteCount: Number of Bytes to be transmitted.
1224:.\Generated_Source\PSoC5/LIN_1_UART.c ****     *
1225:.\Generated_Source\PSoC5/LIN_1_UART.c ****     * Return:
1226:.\Generated_Source\PSoC5/LIN_1_UART.c ****     *  None.
1227:.\Generated_Source\PSoC5/LIN_1_UART.c ****     *
1228:.\Generated_Source\PSoC5/LIN_1_UART.c ****     * Global Variables:
1229:.\Generated_Source\PSoC5/LIN_1_UART.c ****     *  LIN_1_UART_initVar - checked to identify that the component has been
1230:.\Generated_Source\PSoC5/LIN_1_UART.c ****     *     initialized.
1231:.\Generated_Source\PSoC5/LIN_1_UART.c ****     *
1232:.\Generated_Source\PSoC5/LIN_1_UART.c ****     * Reentrant:
1233:.\Generated_Source\PSoC5/LIN_1_UART.c ****     *  No.
1234:.\Generated_Source\PSoC5/LIN_1_UART.c ****     *
1235:.\Generated_Source\PSoC5/LIN_1_UART.c ****     *******************************************************************************/
1236:.\Generated_Source\PSoC5/LIN_1_UART.c ****     void LIN_1_UART_PutArray(const uint8 string[], uint8 byteCount)
1237:.\Generated_Source\PSoC5/LIN_1_UART.c ****                                                                     
1238:.\Generated_Source\PSoC5/LIN_1_UART.c ****     {
 1005              		.loc 1 1238 0
 1006              		.cfi_startproc
 1007              		@ args = 0, pretend = 0, frame = 16
 1008              		@ frame_needed = 1, uses_anonymous_args = 0
 1009 0000 80B5     		push	{r7, lr}
 1010              	.LCFI58:
 1011              		.cfi_def_cfa_offset 8
 1012              		.cfi_offset 7, -8
 1013              		.cfi_offset 14, -4
 1014 0002 84B0     		sub	sp, sp, #16
 1015              	.LCFI59:
 1016              		.cfi_def_cfa_offset 24
 1017 0004 00AF     		add	r7, sp, #0
 1018              	.LCFI60:
 1019              		.cfi_def_cfa_register 7
 1020 0006 7860     		str	r0, [r7, #4]
 1021 0008 0B46     		mov	r3, r1
 1022 000a FB70     		strb	r3, [r7, #3]
1239:.\Generated_Source\PSoC5/LIN_1_UART.c ****         uint8 buf_index = 0u;
 1023              		.loc 1 1239 0
 1024 000c 4FF00003 		mov	r3, #0
 1025 0010 FB73     		strb	r3, [r7, #15]
1240:.\Generated_Source\PSoC5/LIN_1_UART.c ****         /* If not Initialized then skip this function*/
1241:.\Generated_Source\PSoC5/LIN_1_UART.c ****         if(LIN_1_UART_initVar != 0u)
 1026              		.loc 1 1241 0
 1027 0012 40F20003 		movw	r3, #:lower16:LIN_1_UART_initVar
 1028 0016 C0F20003 		movt	r3, #:upper16:LIN_1_UART_initVar
 1029 001a 1B78     		ldrb	r3, [r3, #0]	@ zero_extendqisi2
 1030 001c 002B     		cmp	r3, #0
 1031 001e 0ED0     		beq	.L38
 1032              	.L40:
1242:.\Generated_Source\PSoC5/LIN_1_UART.c ****         {
1243:.\Generated_Source\PSoC5/LIN_1_UART.c ****             do
1244:.\Generated_Source\PSoC5/LIN_1_UART.c ****             {
1245:.\Generated_Source\PSoC5/LIN_1_UART.c ****                 LIN_1_UART_PutChar(string[buf_index]);
 1033              		.loc 1 1245 0 discriminator 1
ARM GAS  C:\Users\MATSUD~1\AppData\Local\Temp\ccwDh0Hw.s 			page 41


 1034 0020 FB7B     		ldrb	r3, [r7, #15]	@ zero_extendqisi2
 1035 0022 7A68     		ldr	r2, [r7, #4]
 1036 0024 D318     		adds	r3, r2, r3
 1037 0026 1B78     		ldrb	r3, [r3, #0]	@ zero_extendqisi2
 1038 0028 1846     		mov	r0, r3
 1039 002a FFF7FEFF 		bl	LIN_1_UART_PutChar
1246:.\Generated_Source\PSoC5/LIN_1_UART.c ****                 buf_index++;
 1040              		.loc 1 1246 0 discriminator 1
 1041 002e FB7B     		ldrb	r3, [r7, #15]
 1042 0030 03F10103 		add	r3, r3, #1
 1043 0034 FB73     		strb	r3, [r7, #15]
1247:.\Generated_Source\PSoC5/LIN_1_UART.c ****             }while(buf_index < byteCount);
 1044              		.loc 1 1247 0 discriminator 1
 1045 0036 FA7B     		ldrb	r2, [r7, #15]	@ zero_extendqisi2
 1046 0038 FB78     		ldrb	r3, [r7, #3]	@ zero_extendqisi2
 1047 003a 9A42     		cmp	r2, r3
 1048 003c F0D3     		bcc	.L40
 1049              	.L38:
1248:.\Generated_Source\PSoC5/LIN_1_UART.c ****         }
1249:.\Generated_Source\PSoC5/LIN_1_UART.c ****     }
 1050              		.loc 1 1249 0
 1051 003e 07F11007 		add	r7, r7, #16
 1052 0042 BD46     		mov	sp, r7
 1053 0044 80BD     		pop	{r7, pc}
 1054              		.cfi_endproc
 1055              	.LFE21:
 1056              		.size	LIN_1_UART_PutArray, .-LIN_1_UART_PutArray
 1057 0046 00BF     		.section	.text.LIN_1_UART_PutCRLF,"ax",%progbits
 1058              		.align	2
 1059              		.global	LIN_1_UART_PutCRLF
 1060              		.thumb
 1061              		.thumb_func
 1062              		.type	LIN_1_UART_PutCRLF, %function
 1063              	LIN_1_UART_PutCRLF:
 1064              	.LFB22:
1250:.\Generated_Source\PSoC5/LIN_1_UART.c **** 
1251:.\Generated_Source\PSoC5/LIN_1_UART.c **** 
1252:.\Generated_Source\PSoC5/LIN_1_UART.c ****     /*******************************************************************************
1253:.\Generated_Source\PSoC5/LIN_1_UART.c ****     * Function Name: LIN_1_UART_PutCRLF
1254:.\Generated_Source\PSoC5/LIN_1_UART.c ****     ********************************************************************************
1255:.\Generated_Source\PSoC5/LIN_1_UART.c ****     *
1256:.\Generated_Source\PSoC5/LIN_1_UART.c ****     * Summary:
1257:.\Generated_Source\PSoC5/LIN_1_UART.c ****     *  Write a character and then carriage return and line feed.
1258:.\Generated_Source\PSoC5/LIN_1_UART.c ****     *
1259:.\Generated_Source\PSoC5/LIN_1_UART.c ****     * Parameters:
1260:.\Generated_Source\PSoC5/LIN_1_UART.c ****     *  txDataByte: uint8 Character to send.
1261:.\Generated_Source\PSoC5/LIN_1_UART.c ****     *
1262:.\Generated_Source\PSoC5/LIN_1_UART.c ****     * Return:
1263:.\Generated_Source\PSoC5/LIN_1_UART.c ****     *  None.
1264:.\Generated_Source\PSoC5/LIN_1_UART.c ****     *
1265:.\Generated_Source\PSoC5/LIN_1_UART.c ****     * Global Variables:
1266:.\Generated_Source\PSoC5/LIN_1_UART.c ****     *  LIN_1_UART_initVar - checked to identify that the component has been
1267:.\Generated_Source\PSoC5/LIN_1_UART.c ****     *     initialized.
1268:.\Generated_Source\PSoC5/LIN_1_UART.c ****     *
1269:.\Generated_Source\PSoC5/LIN_1_UART.c ****     * Reentrant:
1270:.\Generated_Source\PSoC5/LIN_1_UART.c ****     *  No.
1271:.\Generated_Source\PSoC5/LIN_1_UART.c ****     *
ARM GAS  C:\Users\MATSUD~1\AppData\Local\Temp\ccwDh0Hw.s 			page 42


1272:.\Generated_Source\PSoC5/LIN_1_UART.c ****     *******************************************************************************/
1273:.\Generated_Source\PSoC5/LIN_1_UART.c ****     void LIN_1_UART_PutCRLF(uint8 txDataByte) 
1274:.\Generated_Source\PSoC5/LIN_1_UART.c ****     {
 1065              		.loc 1 1274 0
 1066              		.cfi_startproc
 1067              		@ args = 0, pretend = 0, frame = 8
 1068              		@ frame_needed = 1, uses_anonymous_args = 0
 1069 0000 80B5     		push	{r7, lr}
 1070              	.LCFI61:
 1071              		.cfi_def_cfa_offset 8
 1072              		.cfi_offset 7, -8
 1073              		.cfi_offset 14, -4
 1074 0002 82B0     		sub	sp, sp, #8
 1075              	.LCFI62:
 1076              		.cfi_def_cfa_offset 16
 1077 0004 00AF     		add	r7, sp, #0
 1078              	.LCFI63:
 1079              		.cfi_def_cfa_register 7
 1080 0006 0346     		mov	r3, r0
 1081 0008 FB71     		strb	r3, [r7, #7]
1275:.\Generated_Source\PSoC5/LIN_1_UART.c ****         /* If not Initialized then skip this function*/
1276:.\Generated_Source\PSoC5/LIN_1_UART.c ****         if(LIN_1_UART_initVar != 0u)
 1082              		.loc 1 1276 0
 1083 000a 40F20003 		movw	r3, #:lower16:LIN_1_UART_initVar
 1084 000e C0F20003 		movt	r3, #:upper16:LIN_1_UART_initVar
 1085 0012 1B78     		ldrb	r3, [r3, #0]	@ zero_extendqisi2
 1086 0014 002B     		cmp	r3, #0
 1087 0016 0BD0     		beq	.L41
1277:.\Generated_Source\PSoC5/LIN_1_UART.c ****         {
1278:.\Generated_Source\PSoC5/LIN_1_UART.c ****             LIN_1_UART_PutChar(txDataByte);
 1088              		.loc 1 1278 0
 1089 0018 FB79     		ldrb	r3, [r7, #7]	@ zero_extendqisi2
 1090 001a 1846     		mov	r0, r3
 1091 001c FFF7FEFF 		bl	LIN_1_UART_PutChar
1279:.\Generated_Source\PSoC5/LIN_1_UART.c ****             LIN_1_UART_PutChar(0x0Du);
 1092              		.loc 1 1279 0
 1093 0020 4FF00D00 		mov	r0, #13
 1094 0024 FFF7FEFF 		bl	LIN_1_UART_PutChar
1280:.\Generated_Source\PSoC5/LIN_1_UART.c ****             LIN_1_UART_PutChar(0x0Au);
 1095              		.loc 1 1280 0
 1096 0028 4FF00A00 		mov	r0, #10
 1097 002c FFF7FEFF 		bl	LIN_1_UART_PutChar
 1098              	.L41:
1281:.\Generated_Source\PSoC5/LIN_1_UART.c ****         }
1282:.\Generated_Source\PSoC5/LIN_1_UART.c ****     }
 1099              		.loc 1 1282 0
 1100 0030 07F10807 		add	r7, r7, #8
 1101 0034 BD46     		mov	sp, r7
 1102 0036 80BD     		pop	{r7, pc}
 1103              		.cfi_endproc
 1104              	.LFE22:
 1105              		.size	LIN_1_UART_PutCRLF, .-LIN_1_UART_PutCRLF
 1106              		.section	.text.LIN_1_UART_GetTxBufferSize,"ax",%progbits
 1107              		.align	2
 1108              		.global	LIN_1_UART_GetTxBufferSize
 1109              		.thumb
 1110              		.thumb_func
ARM GAS  C:\Users\MATSUD~1\AppData\Local\Temp\ccwDh0Hw.s 			page 43


 1111              		.type	LIN_1_UART_GetTxBufferSize, %function
 1112              	LIN_1_UART_GetTxBufferSize:
 1113              	.LFB23:
1283:.\Generated_Source\PSoC5/LIN_1_UART.c **** 
1284:.\Generated_Source\PSoC5/LIN_1_UART.c **** 
1285:.\Generated_Source\PSoC5/LIN_1_UART.c ****     /*******************************************************************************
1286:.\Generated_Source\PSoC5/LIN_1_UART.c ****     * Function Name: LIN_1_UART_GetTxBufferSize
1287:.\Generated_Source\PSoC5/LIN_1_UART.c ****     ********************************************************************************
1288:.\Generated_Source\PSoC5/LIN_1_UART.c ****     *
1289:.\Generated_Source\PSoC5/LIN_1_UART.c ****     * Summary:
1290:.\Generated_Source\PSoC5/LIN_1_UART.c ****     *  Determine the amount of space left in the TX buffer and return the count in
1291:.\Generated_Source\PSoC5/LIN_1_UART.c ****     *  bytes
1292:.\Generated_Source\PSoC5/LIN_1_UART.c ****     *
1293:.\Generated_Source\PSoC5/LIN_1_UART.c ****     * Parameters:
1294:.\Generated_Source\PSoC5/LIN_1_UART.c ****     *  None.
1295:.\Generated_Source\PSoC5/LIN_1_UART.c ****     *
1296:.\Generated_Source\PSoC5/LIN_1_UART.c ****     * Return:
1297:.\Generated_Source\PSoC5/LIN_1_UART.c ****     *  Integer count of the number of bytes left in the TX buffer
1298:.\Generated_Source\PSoC5/LIN_1_UART.c ****     *
1299:.\Generated_Source\PSoC5/LIN_1_UART.c ****     * Global Variables:
1300:.\Generated_Source\PSoC5/LIN_1_UART.c ****     *  LIN_1_UART_txBufferWrite - used to calculate left space.
1301:.\Generated_Source\PSoC5/LIN_1_UART.c ****     *  LIN_1_UART_txBufferRead - used to calculate left space.
1302:.\Generated_Source\PSoC5/LIN_1_UART.c ****     *
1303:.\Generated_Source\PSoC5/LIN_1_UART.c ****     * Reentrant:
1304:.\Generated_Source\PSoC5/LIN_1_UART.c ****     *  No.
1305:.\Generated_Source\PSoC5/LIN_1_UART.c ****     *
1306:.\Generated_Source\PSoC5/LIN_1_UART.c ****     * Theory:
1307:.\Generated_Source\PSoC5/LIN_1_UART.c ****     *  Allows the user to find out how full the TX Buffer is.
1308:.\Generated_Source\PSoC5/LIN_1_UART.c ****     *
1309:.\Generated_Source\PSoC5/LIN_1_UART.c ****     *******************************************************************************/
1310:.\Generated_Source\PSoC5/LIN_1_UART.c ****     uint8 LIN_1_UART_GetTxBufferSize(void)
1311:.\Generated_Source\PSoC5/LIN_1_UART.c ****                                                             
1312:.\Generated_Source\PSoC5/LIN_1_UART.c ****     {
 1114              		.loc 1 1312 0
 1115              		.cfi_startproc
 1116              		@ args = 0, pretend = 0, frame = 8
 1117              		@ frame_needed = 1, uses_anonymous_args = 0
 1118              		@ link register save eliminated.
 1119 0000 80B4     		push	{r7}
 1120              	.LCFI64:
 1121              		.cfi_def_cfa_offset 4
 1122              		.cfi_offset 7, -4
 1123 0002 83B0     		sub	sp, sp, #12
 1124              	.LCFI65:
 1125              		.cfi_def_cfa_offset 16
 1126 0004 00AF     		add	r7, sp, #0
 1127              	.LCFI66:
 1128              		.cfi_def_cfa_register 7
1313:.\Generated_Source\PSoC5/LIN_1_UART.c ****         uint8 size;
1314:.\Generated_Source\PSoC5/LIN_1_UART.c **** 
1315:.\Generated_Source\PSoC5/LIN_1_UART.c ****         #if(LIN_1_UART_TXBUFFERSIZE > LIN_1_UART_FIFO_LENGTH)
1316:.\Generated_Source\PSoC5/LIN_1_UART.c **** 
1317:.\Generated_Source\PSoC5/LIN_1_UART.c ****             /* Disable Tx interrupt. */
1318:.\Generated_Source\PSoC5/LIN_1_UART.c ****             /* Protect variables that could change on interrupt. */
1319:.\Generated_Source\PSoC5/LIN_1_UART.c ****             #if(LIN_1_UART_TX_INTERRUPT_ENABLED)
1320:.\Generated_Source\PSoC5/LIN_1_UART.c ****                 LIN_1_UART_DisableTxInt();
1321:.\Generated_Source\PSoC5/LIN_1_UART.c ****             #endif /* End LIN_1_UART_TX_INTERRUPT_ENABLED */
ARM GAS  C:\Users\MATSUD~1\AppData\Local\Temp\ccwDh0Hw.s 			page 44


1322:.\Generated_Source\PSoC5/LIN_1_UART.c **** 
1323:.\Generated_Source\PSoC5/LIN_1_UART.c ****             if(LIN_1_UART_txBufferRead == LIN_1_UART_txBufferWrite)
1324:.\Generated_Source\PSoC5/LIN_1_UART.c ****             {
1325:.\Generated_Source\PSoC5/LIN_1_UART.c ****                 size = 0u;
1326:.\Generated_Source\PSoC5/LIN_1_UART.c ****             }
1327:.\Generated_Source\PSoC5/LIN_1_UART.c ****             else if(LIN_1_UART_txBufferRead < LIN_1_UART_txBufferWrite)
1328:.\Generated_Source\PSoC5/LIN_1_UART.c ****             {
1329:.\Generated_Source\PSoC5/LIN_1_UART.c ****                 size = (LIN_1_UART_txBufferWrite - LIN_1_UART_txBufferRead);
1330:.\Generated_Source\PSoC5/LIN_1_UART.c ****             }
1331:.\Generated_Source\PSoC5/LIN_1_UART.c ****             else
1332:.\Generated_Source\PSoC5/LIN_1_UART.c ****             {
1333:.\Generated_Source\PSoC5/LIN_1_UART.c ****                 size = (LIN_1_UART_TXBUFFERSIZE - LIN_1_UART_txBufferRead) + LIN_1_UART_txBufferWri
1334:.\Generated_Source\PSoC5/LIN_1_UART.c ****             }
1335:.\Generated_Source\PSoC5/LIN_1_UART.c **** 
1336:.\Generated_Source\PSoC5/LIN_1_UART.c ****             /* Enable Tx interrupt. */
1337:.\Generated_Source\PSoC5/LIN_1_UART.c ****             #if(LIN_1_UART_TX_INTERRUPT_ENABLED)
1338:.\Generated_Source\PSoC5/LIN_1_UART.c ****                 LIN_1_UART_EnableTxInt();
1339:.\Generated_Source\PSoC5/LIN_1_UART.c ****             #endif /* End LIN_1_UART_TX_INTERRUPT_ENABLED */
1340:.\Generated_Source\PSoC5/LIN_1_UART.c **** 
1341:.\Generated_Source\PSoC5/LIN_1_UART.c ****         #else /* LIN_1_UART_TXBUFFERSIZE > LIN_1_UART_FIFO_LENGTH */
1342:.\Generated_Source\PSoC5/LIN_1_UART.c **** 
1343:.\Generated_Source\PSoC5/LIN_1_UART.c ****             size = LIN_1_UART_TXSTATUS_REG;
 1129              		.loc 1 1343 0
 1130 0006 46F26743 		movw	r3, #25703
 1131 000a C4F20003 		movt	r3, 16384
 1132 000e 1B78     		ldrb	r3, [r3, #0]
 1133 0010 FB71     		strb	r3, [r7, #7]
1344:.\Generated_Source\PSoC5/LIN_1_UART.c **** 
1345:.\Generated_Source\PSoC5/LIN_1_UART.c ****             /* Is the fifo is full. */
1346:.\Generated_Source\PSoC5/LIN_1_UART.c ****             if((size & LIN_1_UART_TX_STS_FIFO_FULL) != 0u)
 1134              		.loc 1 1346 0
 1135 0012 FB79     		ldrb	r3, [r7, #7]	@ zero_extendqisi2
 1136 0014 03F00403 		and	r3, r3, #4
 1137 0018 002B     		cmp	r3, #0
 1138 001a 03D0     		beq	.L44
1347:.\Generated_Source\PSoC5/LIN_1_UART.c ****             {
1348:.\Generated_Source\PSoC5/LIN_1_UART.c ****                 size = LIN_1_UART_FIFO_LENGTH;
 1139              		.loc 1 1348 0
 1140 001c 4FF00403 		mov	r3, #4
 1141 0020 FB71     		strb	r3, [r7, #7]
 1142 0022 0BE0     		b	.L45
 1143              	.L44:
1349:.\Generated_Source\PSoC5/LIN_1_UART.c ****             }
1350:.\Generated_Source\PSoC5/LIN_1_UART.c ****             else if((size & LIN_1_UART_TX_STS_FIFO_EMPTY) != 0u)
 1144              		.loc 1 1350 0
 1145 0024 FB79     		ldrb	r3, [r7, #7]	@ zero_extendqisi2
 1146 0026 03F00203 		and	r3, r3, #2
 1147 002a 002B     		cmp	r3, #0
 1148 002c 03D0     		beq	.L46
1351:.\Generated_Source\PSoC5/LIN_1_UART.c ****             {
1352:.\Generated_Source\PSoC5/LIN_1_UART.c ****                 size = 0u;
 1149              		.loc 1 1352 0
 1150 002e 4FF00003 		mov	r3, #0
 1151 0032 FB71     		strb	r3, [r7, #7]
 1152 0034 02E0     		b	.L45
 1153              	.L46:
1353:.\Generated_Source\PSoC5/LIN_1_UART.c ****             }
ARM GAS  C:\Users\MATSUD~1\AppData\Local\Temp\ccwDh0Hw.s 			page 45


1354:.\Generated_Source\PSoC5/LIN_1_UART.c ****             else
1355:.\Generated_Source\PSoC5/LIN_1_UART.c ****             {
1356:.\Generated_Source\PSoC5/LIN_1_UART.c ****                 /* We only know there is data in the fifo. */
1357:.\Generated_Source\PSoC5/LIN_1_UART.c ****                 size = 1u;
 1154              		.loc 1 1357 0
 1155 0036 4FF00103 		mov	r3, #1
 1156 003a FB71     		strb	r3, [r7, #7]
 1157              	.L45:
1358:.\Generated_Source\PSoC5/LIN_1_UART.c ****             }
1359:.\Generated_Source\PSoC5/LIN_1_UART.c **** 
1360:.\Generated_Source\PSoC5/LIN_1_UART.c ****         #endif /* End LIN_1_UART_TXBUFFERSIZE > LIN_1_UART_FIFO_LENGTH */
1361:.\Generated_Source\PSoC5/LIN_1_UART.c **** 
1362:.\Generated_Source\PSoC5/LIN_1_UART.c ****         return(size);
 1158              		.loc 1 1362 0
 1159 003c FB79     		ldrb	r3, [r7, #7]	@ zero_extendqisi2
1363:.\Generated_Source\PSoC5/LIN_1_UART.c ****     }
 1160              		.loc 1 1363 0
 1161 003e 1846     		mov	r0, r3
 1162 0040 07F10C07 		add	r7, r7, #12
 1163 0044 BD46     		mov	sp, r7
 1164 0046 80BC     		pop	{r7}
 1165 0048 7047     		bx	lr
 1166              		.cfi_endproc
 1167              	.LFE23:
 1168              		.size	LIN_1_UART_GetTxBufferSize, .-LIN_1_UART_GetTxBufferSize
 1169 004a 00BF     		.section	.text.LIN_1_UART_ClearTxBuffer,"ax",%progbits
 1170              		.align	2
 1171              		.global	LIN_1_UART_ClearTxBuffer
 1172              		.thumb
 1173              		.thumb_func
 1174              		.type	LIN_1_UART_ClearTxBuffer, %function
 1175              	LIN_1_UART_ClearTxBuffer:
 1176              	.LFB24:
1364:.\Generated_Source\PSoC5/LIN_1_UART.c **** 
1365:.\Generated_Source\PSoC5/LIN_1_UART.c **** 
1366:.\Generated_Source\PSoC5/LIN_1_UART.c ****     /*******************************************************************************
1367:.\Generated_Source\PSoC5/LIN_1_UART.c ****     * Function Name: LIN_1_UART_ClearTxBuffer
1368:.\Generated_Source\PSoC5/LIN_1_UART.c ****     ********************************************************************************
1369:.\Generated_Source\PSoC5/LIN_1_UART.c ****     *
1370:.\Generated_Source\PSoC5/LIN_1_UART.c ****     * Summary:
1371:.\Generated_Source\PSoC5/LIN_1_UART.c ****     *  Clears the TX RAM buffer by setting the read and write pointers both to zero.
1372:.\Generated_Source\PSoC5/LIN_1_UART.c ****     *  Clears the hardware TX FIFO.  Any data present in the FIFO will not be sent.
1373:.\Generated_Source\PSoC5/LIN_1_UART.c ****     *
1374:.\Generated_Source\PSoC5/LIN_1_UART.c ****     * Parameters:
1375:.\Generated_Source\PSoC5/LIN_1_UART.c ****     *  None.
1376:.\Generated_Source\PSoC5/LIN_1_UART.c ****     *
1377:.\Generated_Source\PSoC5/LIN_1_UART.c ****     * Return:
1378:.\Generated_Source\PSoC5/LIN_1_UART.c ****     *  None.
1379:.\Generated_Source\PSoC5/LIN_1_UART.c ****     *
1380:.\Generated_Source\PSoC5/LIN_1_UART.c ****     * Global Variables:
1381:.\Generated_Source\PSoC5/LIN_1_UART.c ****     *  LIN_1_UART_txBufferWrite - cleared to zero.
1382:.\Generated_Source\PSoC5/LIN_1_UART.c ****     *  LIN_1_UART_txBufferRead - cleared to zero.
1383:.\Generated_Source\PSoC5/LIN_1_UART.c ****     *
1384:.\Generated_Source\PSoC5/LIN_1_UART.c ****     * Reentrant:
1385:.\Generated_Source\PSoC5/LIN_1_UART.c ****     *  No.
1386:.\Generated_Source\PSoC5/LIN_1_UART.c ****     *
1387:.\Generated_Source\PSoC5/LIN_1_UART.c ****     * Theory:
ARM GAS  C:\Users\MATSUD~1\AppData\Local\Temp\ccwDh0Hw.s 			page 46


1388:.\Generated_Source\PSoC5/LIN_1_UART.c ****     *  Setting the pointers to zero makes the system believe there is no data to
1389:.\Generated_Source\PSoC5/LIN_1_UART.c ****     *  read and writing will resume at address 0 overwriting any data that may have
1390:.\Generated_Source\PSoC5/LIN_1_UART.c ****     *  remained in the RAM.
1391:.\Generated_Source\PSoC5/LIN_1_UART.c ****     *
1392:.\Generated_Source\PSoC5/LIN_1_UART.c ****     * Side Effects:
1393:.\Generated_Source\PSoC5/LIN_1_UART.c ****     *  Any received data not read from the RAM buffer will be lost when overwritten.
1394:.\Generated_Source\PSoC5/LIN_1_UART.c ****     *
1395:.\Generated_Source\PSoC5/LIN_1_UART.c ****     *******************************************************************************/
1396:.\Generated_Source\PSoC5/LIN_1_UART.c ****     void LIN_1_UART_ClearTxBuffer(void) 
1397:.\Generated_Source\PSoC5/LIN_1_UART.c ****     {
 1177              		.loc 1 1397 0
 1178              		.cfi_startproc
 1179              		@ args = 0, pretend = 0, frame = 8
 1180              		@ frame_needed = 1, uses_anonymous_args = 0
 1181 0000 80B5     		push	{r7, lr}
 1182              	.LCFI67:
 1183              		.cfi_def_cfa_offset 8
 1184              		.cfi_offset 7, -8
 1185              		.cfi_offset 14, -4
 1186 0002 82B0     		sub	sp, sp, #8
 1187              	.LCFI68:
 1188              		.cfi_def_cfa_offset 16
 1189 0004 00AF     		add	r7, sp, #0
 1190              	.LCFI69:
 1191              		.cfi_def_cfa_register 7
1398:.\Generated_Source\PSoC5/LIN_1_UART.c ****         uint8 enableInterrupts;
1399:.\Generated_Source\PSoC5/LIN_1_UART.c **** 
1400:.\Generated_Source\PSoC5/LIN_1_UART.c ****         /* Enter critical section */
1401:.\Generated_Source\PSoC5/LIN_1_UART.c ****         enableInterrupts = CyEnterCriticalSection();
 1192              		.loc 1 1401 0
 1193 0006 FFF7FEFF 		bl	CyEnterCriticalSection
 1194 000a 0346     		mov	r3, r0
 1195 000c FB71     		strb	r3, [r7, #7]
1402:.\Generated_Source\PSoC5/LIN_1_UART.c ****         /* clear the HW FIFO */
1403:.\Generated_Source\PSoC5/LIN_1_UART.c ****         LIN_1_UART_TXDATA_AUX_CTL_REG |=  LIN_1_UART_TX_FIFO_CLR;
 1196              		.loc 1 1403 0
 1197 000e 46F29743 		movw	r3, #25751
 1198 0012 C4F20003 		movt	r3, 16384
 1199 0016 46F29742 		movw	r2, #25751
 1200 001a C4F20002 		movt	r2, 16384
 1201 001e 1278     		ldrb	r2, [r2, #0]
 1202 0020 D2B2     		uxtb	r2, r2
 1203 0022 42F00102 		orr	r2, r2, #1
 1204 0026 D2B2     		uxtb	r2, r2
 1205 0028 1A70     		strb	r2, [r3, #0]
1404:.\Generated_Source\PSoC5/LIN_1_UART.c ****         LIN_1_UART_TXDATA_AUX_CTL_REG &= (uint8)~LIN_1_UART_TX_FIFO_CLR;
 1206              		.loc 1 1404 0
 1207 002a 46F29743 		movw	r3, #25751
 1208 002e C4F20003 		movt	r3, 16384
 1209 0032 46F29742 		movw	r2, #25751
 1210 0036 C4F20002 		movt	r2, 16384
 1211 003a 1278     		ldrb	r2, [r2, #0]
 1212 003c D2B2     		uxtb	r2, r2
 1213 003e 22F00102 		bic	r2, r2, #1
 1214 0042 D2B2     		uxtb	r2, r2
 1215 0044 1A70     		strb	r2, [r3, #0]
1405:.\Generated_Source\PSoC5/LIN_1_UART.c ****         /* Exit critical section */
ARM GAS  C:\Users\MATSUD~1\AppData\Local\Temp\ccwDh0Hw.s 			page 47


1406:.\Generated_Source\PSoC5/LIN_1_UART.c ****         CyExitCriticalSection(enableInterrupts);
 1216              		.loc 1 1406 0
 1217 0046 FB79     		ldrb	r3, [r7, #7]	@ zero_extendqisi2
 1218 0048 1846     		mov	r0, r3
 1219 004a FFF7FEFF 		bl	CyExitCriticalSection
1407:.\Generated_Source\PSoC5/LIN_1_UART.c **** 
1408:.\Generated_Source\PSoC5/LIN_1_UART.c ****         #if(LIN_1_UART_TXBUFFERSIZE > LIN_1_UART_FIFO_LENGTH)
1409:.\Generated_Source\PSoC5/LIN_1_UART.c **** 
1410:.\Generated_Source\PSoC5/LIN_1_UART.c ****             /* Disable Tx interrupt. */
1411:.\Generated_Source\PSoC5/LIN_1_UART.c ****             /* Protect variables that could change on interrupt. */
1412:.\Generated_Source\PSoC5/LIN_1_UART.c ****             #if(LIN_1_UART_TX_INTERRUPT_ENABLED)
1413:.\Generated_Source\PSoC5/LIN_1_UART.c ****                 LIN_1_UART_DisableTxInt();
1414:.\Generated_Source\PSoC5/LIN_1_UART.c ****             #endif /* End LIN_1_UART_TX_INTERRUPT_ENABLED */
1415:.\Generated_Source\PSoC5/LIN_1_UART.c **** 
1416:.\Generated_Source\PSoC5/LIN_1_UART.c ****             LIN_1_UART_txBufferRead = 0u;
1417:.\Generated_Source\PSoC5/LIN_1_UART.c ****             LIN_1_UART_txBufferWrite = 0u;
1418:.\Generated_Source\PSoC5/LIN_1_UART.c **** 
1419:.\Generated_Source\PSoC5/LIN_1_UART.c ****             /* Enable Tx interrupt. */
1420:.\Generated_Source\PSoC5/LIN_1_UART.c ****             #if(LIN_1_UART_TX_INTERRUPT_ENABLED)
1421:.\Generated_Source\PSoC5/LIN_1_UART.c ****                 LIN_1_UART_EnableTxInt();
1422:.\Generated_Source\PSoC5/LIN_1_UART.c ****             #endif /* End LIN_1_UART_TX_INTERRUPT_ENABLED */
1423:.\Generated_Source\PSoC5/LIN_1_UART.c **** 
1424:.\Generated_Source\PSoC5/LIN_1_UART.c ****         #endif /* End LIN_1_UART_TXBUFFERSIZE > LIN_1_UART_FIFO_LENGTH */
1425:.\Generated_Source\PSoC5/LIN_1_UART.c ****     }
 1220              		.loc 1 1425 0
 1221 004e 07F10807 		add	r7, r7, #8
 1222 0052 BD46     		mov	sp, r7
 1223 0054 80BD     		pop	{r7, pc}
 1224              		.cfi_endproc
 1225              	.LFE24:
 1226              		.size	LIN_1_UART_ClearTxBuffer, .-LIN_1_UART_ClearTxBuffer
 1227 0056 00BF     		.section	.text.LIN_1_UART_SendBreak,"ax",%progbits
 1228              		.align	2
 1229              		.global	LIN_1_UART_SendBreak
 1230              		.thumb
 1231              		.thumb_func
 1232              		.type	LIN_1_UART_SendBreak, %function
 1233              	LIN_1_UART_SendBreak:
 1234              	.LFB25:
1426:.\Generated_Source\PSoC5/LIN_1_UART.c **** 
1427:.\Generated_Source\PSoC5/LIN_1_UART.c **** 
1428:.\Generated_Source\PSoC5/LIN_1_UART.c ****     /*******************************************************************************
1429:.\Generated_Source\PSoC5/LIN_1_UART.c ****     * Function Name: LIN_1_UART_SendBreak
1430:.\Generated_Source\PSoC5/LIN_1_UART.c ****     ********************************************************************************
1431:.\Generated_Source\PSoC5/LIN_1_UART.c ****     *
1432:.\Generated_Source\PSoC5/LIN_1_UART.c ****     * Summary:
1433:.\Generated_Source\PSoC5/LIN_1_UART.c ****     *  Write a Break command to the UART
1434:.\Generated_Source\PSoC5/LIN_1_UART.c ****     *
1435:.\Generated_Source\PSoC5/LIN_1_UART.c ****     * Parameters:
1436:.\Generated_Source\PSoC5/LIN_1_UART.c ****     *  uint8 retMode:  Wait mode,
1437:.\Generated_Source\PSoC5/LIN_1_UART.c ****     *   0 - Initialize registers for Break, sends the Break signal and return
1438:.\Generated_Source\PSoC5/LIN_1_UART.c ****     *       imediately.
1439:.\Generated_Source\PSoC5/LIN_1_UART.c ****     *   1 - Wait until Break sending is complete, reinitialize registers to normal
1440:.\Generated_Source\PSoC5/LIN_1_UART.c ****     *       transmission mode then return.
1441:.\Generated_Source\PSoC5/LIN_1_UART.c ****     *   2 - Reinitialize registers to normal transmission mode then return.
1442:.\Generated_Source\PSoC5/LIN_1_UART.c ****     *   3 - both steps: 0 and 1
1443:.\Generated_Source\PSoC5/LIN_1_UART.c ****     *       init registers for Break, send Break signal
ARM GAS  C:\Users\MATSUD~1\AppData\Local\Temp\ccwDh0Hw.s 			page 48


1444:.\Generated_Source\PSoC5/LIN_1_UART.c ****     *       wait until Break sending is complete, reinit registers to normal
1445:.\Generated_Source\PSoC5/LIN_1_UART.c ****     *       transmission mode then return.
1446:.\Generated_Source\PSoC5/LIN_1_UART.c ****     *
1447:.\Generated_Source\PSoC5/LIN_1_UART.c ****     * Return:
1448:.\Generated_Source\PSoC5/LIN_1_UART.c ****     *  None.
1449:.\Generated_Source\PSoC5/LIN_1_UART.c ****     *
1450:.\Generated_Source\PSoC5/LIN_1_UART.c ****     * Global Variables:
1451:.\Generated_Source\PSoC5/LIN_1_UART.c ****     *  LIN_1_UART_initVar - checked to identify that the component has been
1452:.\Generated_Source\PSoC5/LIN_1_UART.c ****     *     initialized.
1453:.\Generated_Source\PSoC5/LIN_1_UART.c ****     *  tx_period - static variable, used for keeping TX period configuration.
1454:.\Generated_Source\PSoC5/LIN_1_UART.c ****     *
1455:.\Generated_Source\PSoC5/LIN_1_UART.c ****     * Reentrant:
1456:.\Generated_Source\PSoC5/LIN_1_UART.c ****     *  No.
1457:.\Generated_Source\PSoC5/LIN_1_UART.c ****     *
1458:.\Generated_Source\PSoC5/LIN_1_UART.c ****     * Theory:
1459:.\Generated_Source\PSoC5/LIN_1_UART.c ****     *  SendBreak function initializes registers to send 13-bit break signal. It is
1460:.\Generated_Source\PSoC5/LIN_1_UART.c ****     *  important to return the registers configuration to normal for continue 8-bit
1461:.\Generated_Source\PSoC5/LIN_1_UART.c ****     *  operation.
1462:.\Generated_Source\PSoC5/LIN_1_UART.c ****     *  Trere are 3 variants for this API usage:
1463:.\Generated_Source\PSoC5/LIN_1_UART.c ****     *  1) SendBreak(3) - function will send the Break signal and take care on the
1464:.\Generated_Source\PSoC5/LIN_1_UART.c ****     *     configuration returning. Funcition will block CPU untill transmition
1465:.\Generated_Source\PSoC5/LIN_1_UART.c ****     *     complete.
1466:.\Generated_Source\PSoC5/LIN_1_UART.c ****     *  2) User may want to use bloking time if UART configured to the low speed
1467:.\Generated_Source\PSoC5/LIN_1_UART.c ****     *     operation
1468:.\Generated_Source\PSoC5/LIN_1_UART.c ****     *     Emample for this case:
1469:.\Generated_Source\PSoC5/LIN_1_UART.c ****     *     SendBreak(0);     - init Break signal transmition
1470:.\Generated_Source\PSoC5/LIN_1_UART.c ****     *         Add your code here to use CPU time
1471:.\Generated_Source\PSoC5/LIN_1_UART.c ****     *     SendBreak(1);     - complete Break operation
1472:.\Generated_Source\PSoC5/LIN_1_UART.c ****     *  3) Same to 2) but user may want to init and use the interrupt for complete
1473:.\Generated_Source\PSoC5/LIN_1_UART.c ****     *     break operation.
1474:.\Generated_Source\PSoC5/LIN_1_UART.c ****     *     Example for this case:
1475:.\Generated_Source\PSoC5/LIN_1_UART.c ****     *     Init TX interrupt whith "TX - On TX Complete" parameter
1476:.\Generated_Source\PSoC5/LIN_1_UART.c ****     *     SendBreak(0);     - init Break signal transmition
1477:.\Generated_Source\PSoC5/LIN_1_UART.c ****     *         Add your code here to use CPU time
1478:.\Generated_Source\PSoC5/LIN_1_UART.c ****     *     When interrupt appear with UART_TX_STS_COMPLETE status:
1479:.\Generated_Source\PSoC5/LIN_1_UART.c ****     *     SendBreak(2);     - complete Break operation
1480:.\Generated_Source\PSoC5/LIN_1_UART.c ****     *
1481:.\Generated_Source\PSoC5/LIN_1_UART.c ****     * Side Effects:
1482:.\Generated_Source\PSoC5/LIN_1_UART.c ****     *   Uses static variable to keep registers configuration.
1483:.\Generated_Source\PSoC5/LIN_1_UART.c ****     *
1484:.\Generated_Source\PSoC5/LIN_1_UART.c ****     *******************************************************************************/
1485:.\Generated_Source\PSoC5/LIN_1_UART.c ****     void LIN_1_UART_SendBreak(uint8 retMode) 
1486:.\Generated_Source\PSoC5/LIN_1_UART.c ****     {
 1235              		.loc 1 1486 0
 1236              		.cfi_startproc
 1237              		@ args = 0, pretend = 0, frame = 16
 1238              		@ frame_needed = 1, uses_anonymous_args = 0
 1239              		@ link register save eliminated.
 1240 0000 80B4     		push	{r7}
 1241              	.LCFI70:
 1242              		.cfi_def_cfa_offset 4
 1243              		.cfi_offset 7, -4
 1244 0002 85B0     		sub	sp, sp, #20
 1245              	.LCFI71:
 1246              		.cfi_def_cfa_offset 24
 1247 0004 00AF     		add	r7, sp, #0
 1248              	.LCFI72:
ARM GAS  C:\Users\MATSUD~1\AppData\Local\Temp\ccwDh0Hw.s 			page 49


 1249              		.cfi_def_cfa_register 7
 1250 0006 0346     		mov	r3, r0
 1251 0008 FB71     		strb	r3, [r7, #7]
1487:.\Generated_Source\PSoC5/LIN_1_UART.c **** 
1488:.\Generated_Source\PSoC5/LIN_1_UART.c ****         /* If not Initialized then skip this function*/
1489:.\Generated_Source\PSoC5/LIN_1_UART.c ****         if(LIN_1_UART_initVar != 0u)
 1252              		.loc 1 1489 0
 1253 000a 40F20003 		movw	r3, #:lower16:LIN_1_UART_initVar
 1254 000e C0F20003 		movt	r3, #:upper16:LIN_1_UART_initVar
 1255 0012 1B78     		ldrb	r3, [r3, #0]	@ zero_extendqisi2
 1256 0014 002B     		cmp	r3, #0
 1257 0016 50D0     		beq	.L49
 1258              	.LBB2:
1490:.\Generated_Source\PSoC5/LIN_1_UART.c ****         {
1491:.\Generated_Source\PSoC5/LIN_1_UART.c ****             /*Set the Counter to 13-bits and transmit a 00 byte*/
1492:.\Generated_Source\PSoC5/LIN_1_UART.c ****             /*When that is done then reset the counter value back*/
1493:.\Generated_Source\PSoC5/LIN_1_UART.c ****             uint8 tmpStat;
1494:.\Generated_Source\PSoC5/LIN_1_UART.c **** 
1495:.\Generated_Source\PSoC5/LIN_1_UART.c ****             #if(LIN_1_UART_HD_ENABLED) /* Half Duplex mode*/
1496:.\Generated_Source\PSoC5/LIN_1_UART.c **** 
1497:.\Generated_Source\PSoC5/LIN_1_UART.c ****                 if( (retMode == LIN_1_UART_SEND_BREAK) ||
1498:.\Generated_Source\PSoC5/LIN_1_UART.c ****                     (retMode == LIN_1_UART_SEND_WAIT_REINIT ) )
1499:.\Generated_Source\PSoC5/LIN_1_UART.c ****                 {
1500:.\Generated_Source\PSoC5/LIN_1_UART.c ****                     /* CTRL_HD_SEND_BREAK - sends break bits in HD mode*/
1501:.\Generated_Source\PSoC5/LIN_1_UART.c ****                     LIN_1_UART_WriteControlRegister(LIN_1_UART_ReadControlRegister() |
1502:.\Generated_Source\PSoC5/LIN_1_UART.c ****                                                           LIN_1_UART_CTRL_HD_SEND_BREAK);
1503:.\Generated_Source\PSoC5/LIN_1_UART.c ****                     /* Send zeros*/
1504:.\Generated_Source\PSoC5/LIN_1_UART.c ****                     LIN_1_UART_TXDATA_REG = 0u;
1505:.\Generated_Source\PSoC5/LIN_1_UART.c **** 
1506:.\Generated_Source\PSoC5/LIN_1_UART.c ****                     do /*wait until transmit starts*/
1507:.\Generated_Source\PSoC5/LIN_1_UART.c ****                     {
1508:.\Generated_Source\PSoC5/LIN_1_UART.c ****                         tmpStat = LIN_1_UART_TXSTATUS_REG;
1509:.\Generated_Source\PSoC5/LIN_1_UART.c ****                     }while((tmpStat & LIN_1_UART_TX_STS_FIFO_EMPTY) != 0u);
1510:.\Generated_Source\PSoC5/LIN_1_UART.c ****                 }
1511:.\Generated_Source\PSoC5/LIN_1_UART.c **** 
1512:.\Generated_Source\PSoC5/LIN_1_UART.c ****                 if( (retMode == LIN_1_UART_WAIT_FOR_COMPLETE_REINIT) ||
1513:.\Generated_Source\PSoC5/LIN_1_UART.c ****                     (retMode == LIN_1_UART_SEND_WAIT_REINIT) )
1514:.\Generated_Source\PSoC5/LIN_1_UART.c ****                 {
1515:.\Generated_Source\PSoC5/LIN_1_UART.c ****                     do /*wait until transmit complete*/
1516:.\Generated_Source\PSoC5/LIN_1_UART.c ****                     {
1517:.\Generated_Source\PSoC5/LIN_1_UART.c ****                         tmpStat = LIN_1_UART_TXSTATUS_REG;
1518:.\Generated_Source\PSoC5/LIN_1_UART.c ****                     }while(((uint8)~tmpStat & LIN_1_UART_TX_STS_COMPLETE) != 0u);
1519:.\Generated_Source\PSoC5/LIN_1_UART.c ****                 }
1520:.\Generated_Source\PSoC5/LIN_1_UART.c **** 
1521:.\Generated_Source\PSoC5/LIN_1_UART.c ****                 if( (retMode == LIN_1_UART_WAIT_FOR_COMPLETE_REINIT) ||
1522:.\Generated_Source\PSoC5/LIN_1_UART.c ****                     (retMode == LIN_1_UART_REINIT) ||
1523:.\Generated_Source\PSoC5/LIN_1_UART.c ****                     (retMode == LIN_1_UART_SEND_WAIT_REINIT) )
1524:.\Generated_Source\PSoC5/LIN_1_UART.c ****                 {
1525:.\Generated_Source\PSoC5/LIN_1_UART.c ****                     LIN_1_UART_WriteControlRegister(LIN_1_UART_ReadControlRegister() &
1526:.\Generated_Source\PSoC5/LIN_1_UART.c ****                                                   (uint8)~LIN_1_UART_CTRL_HD_SEND_BREAK);
1527:.\Generated_Source\PSoC5/LIN_1_UART.c ****                 }
1528:.\Generated_Source\PSoC5/LIN_1_UART.c **** 
1529:.\Generated_Source\PSoC5/LIN_1_UART.c ****             #else /* LIN_1_UART_HD_ENABLED Full Duplex mode */
1530:.\Generated_Source\PSoC5/LIN_1_UART.c **** 
1531:.\Generated_Source\PSoC5/LIN_1_UART.c ****                 static uint8 tx_period;
1532:.\Generated_Source\PSoC5/LIN_1_UART.c **** 
1533:.\Generated_Source\PSoC5/LIN_1_UART.c ****                 if( (retMode == LIN_1_UART_SEND_BREAK) ||
ARM GAS  C:\Users\MATSUD~1\AppData\Local\Temp\ccwDh0Hw.s 			page 50


 1259              		.loc 1 1533 0
 1260 0018 FB79     		ldrb	r3, [r7, #7]	@ zero_extendqisi2
 1261 001a 002B     		cmp	r3, #0
 1262 001c 02D0     		beq	.L51
 1263              		.loc 1 1533 0 is_stmt 0 discriminator 1
 1264 001e FB79     		ldrb	r3, [r7, #7]	@ zero_extendqisi2
 1265 0020 032B     		cmp	r3, #3
 1266 0022 23D1     		bne	.L52
 1267              	.L51:
1534:.\Generated_Source\PSoC5/LIN_1_UART.c ****                     (retMode == LIN_1_UART_SEND_WAIT_REINIT) )
1535:.\Generated_Source\PSoC5/LIN_1_UART.c ****                 {
1536:.\Generated_Source\PSoC5/LIN_1_UART.c ****                     /* CTRL_HD_SEND_BREAK - skip to send parity bit at Break signal in Full Duplex 
1537:.\Generated_Source\PSoC5/LIN_1_UART.c ****                     #if( (LIN_1_UART_PARITY_TYPE != LIN_1_UART__B_UART__NONE_REVB) || \
1538:.\Generated_Source\PSoC5/LIN_1_UART.c ****                                         (LIN_1_UART_PARITY_TYPE_SW != 0u) )
1539:.\Generated_Source\PSoC5/LIN_1_UART.c ****                         LIN_1_UART_WriteControlRegister(LIN_1_UART_ReadControlRegister() |
1540:.\Generated_Source\PSoC5/LIN_1_UART.c ****                                                               LIN_1_UART_CTRL_HD_SEND_BREAK);
1541:.\Generated_Source\PSoC5/LIN_1_UART.c ****                     #endif /* End LIN_1_UART_PARITY_TYPE != LIN_1_UART__B_UART__NONE_REVB  */
1542:.\Generated_Source\PSoC5/LIN_1_UART.c **** 
1543:.\Generated_Source\PSoC5/LIN_1_UART.c ****                     #if(LIN_1_UART_TXCLKGEN_DP)
1544:.\Generated_Source\PSoC5/LIN_1_UART.c ****                         tx_period = LIN_1_UART_TXBITCLKTX_COMPLETE_REG;
1545:.\Generated_Source\PSoC5/LIN_1_UART.c ****                         LIN_1_UART_TXBITCLKTX_COMPLETE_REG = LIN_1_UART_TXBITCTR_BREAKBITS;
1546:.\Generated_Source\PSoC5/LIN_1_UART.c ****                     #else
1547:.\Generated_Source\PSoC5/LIN_1_UART.c ****                         tx_period = LIN_1_UART_TXBITCTR_PERIOD_REG;
 1268              		.loc 1 1547 0 is_stmt 1
 1269 0024 46F28343 		movw	r3, #25731
 1270 0028 C4F20003 		movt	r3, 16384
 1271 002c 1B78     		ldrb	r3, [r3, #0]
 1272 002e DAB2     		uxtb	r2, r3
 1273 0030 40F20003 		movw	r3, #:lower16:tx_period.4895
 1274 0034 C0F20003 		movt	r3, #:upper16:tx_period.4895
 1275 0038 1A70     		strb	r2, [r3, #0]
1548:.\Generated_Source\PSoC5/LIN_1_UART.c ****                         LIN_1_UART_TXBITCTR_PERIOD_REG = LIN_1_UART_TXBITCTR_BREAKBITS8X;
 1276              		.loc 1 1548 0
 1277 003a 46F28343 		movw	r3, #25731
 1278 003e C4F20003 		movt	r3, 16384
 1279 0042 4FF06702 		mov	r2, #103
 1280 0046 1A70     		strb	r2, [r3, #0]
1549:.\Generated_Source\PSoC5/LIN_1_UART.c ****                     #endif /* End LIN_1_UART_TXCLKGEN_DP */
1550:.\Generated_Source\PSoC5/LIN_1_UART.c **** 
1551:.\Generated_Source\PSoC5/LIN_1_UART.c ****                     /* Send zeros*/
1552:.\Generated_Source\PSoC5/LIN_1_UART.c ****                     LIN_1_UART_TXDATA_REG = 0u;
 1281              		.loc 1 1552 0
 1282 0048 46F24743 		movw	r3, #25671
 1283 004c C4F20003 		movt	r3, 16384
 1284 0050 4FF00002 		mov	r2, #0
 1285 0054 1A70     		strb	r2, [r3, #0]
 1286              	.L53:
1553:.\Generated_Source\PSoC5/LIN_1_UART.c **** 
1554:.\Generated_Source\PSoC5/LIN_1_UART.c ****                     do /* wait until transmit starts */
1555:.\Generated_Source\PSoC5/LIN_1_UART.c ****                     {
1556:.\Generated_Source\PSoC5/LIN_1_UART.c ****                         tmpStat = LIN_1_UART_TXSTATUS_REG;
 1287              		.loc 1 1556 0 discriminator 1
 1288 0056 46F26743 		movw	r3, #25703
 1289 005a C4F20003 		movt	r3, 16384
 1290 005e 1B78     		ldrb	r3, [r3, #0]
 1291 0060 FB73     		strb	r3, [r7, #15]
1557:.\Generated_Source\PSoC5/LIN_1_UART.c ****                     }while((tmpStat & LIN_1_UART_TX_STS_FIFO_EMPTY) != 0u);
ARM GAS  C:\Users\MATSUD~1\AppData\Local\Temp\ccwDh0Hw.s 			page 51


 1292              		.loc 1 1557 0 discriminator 1
 1293 0062 FB7B     		ldrb	r3, [r7, #15]	@ zero_extendqisi2
 1294 0064 03F00203 		and	r3, r3, #2
 1295 0068 002B     		cmp	r3, #0
 1296 006a F4D1     		bne	.L53
 1297              	.L52:
1558:.\Generated_Source\PSoC5/LIN_1_UART.c ****                 }
1559:.\Generated_Source\PSoC5/LIN_1_UART.c **** 
1560:.\Generated_Source\PSoC5/LIN_1_UART.c ****                 if( (retMode == LIN_1_UART_WAIT_FOR_COMPLETE_REINIT) ||
 1298              		.loc 1 1560 0
 1299 006c FB79     		ldrb	r3, [r7, #7]	@ zero_extendqisi2
 1300 006e 012B     		cmp	r3, #1
 1301 0070 02D0     		beq	.L54
 1302              		.loc 1 1560 0 is_stmt 0 discriminator 1
 1303 0072 FB79     		ldrb	r3, [r7, #7]	@ zero_extendqisi2
 1304 0074 032B     		cmp	r3, #3
 1305 0076 0DD1     		bne	.L55
 1306              	.L54:
1561:.\Generated_Source\PSoC5/LIN_1_UART.c ****                     (retMode == LIN_1_UART_SEND_WAIT_REINIT) )
1562:.\Generated_Source\PSoC5/LIN_1_UART.c ****                 {
1563:.\Generated_Source\PSoC5/LIN_1_UART.c ****                     do /*wait until transmit complete*/
1564:.\Generated_Source\PSoC5/LIN_1_UART.c ****                     {
1565:.\Generated_Source\PSoC5/LIN_1_UART.c ****                         tmpStat = LIN_1_UART_TXSTATUS_REG;
 1307              		.loc 1 1565 0 is_stmt 1 discriminator 1
 1308 0078 46F26743 		movw	r3, #25703
 1309 007c C4F20003 		movt	r3, 16384
 1310 0080 1B78     		ldrb	r3, [r3, #0]
 1311 0082 FB73     		strb	r3, [r7, #15]
1566:.\Generated_Source\PSoC5/LIN_1_UART.c ****                     }while(((uint8)~tmpStat & LIN_1_UART_TX_STS_COMPLETE) != 0u);
 1312              		.loc 1 1566 0 discriminator 1
 1313 0084 FB7B     		ldrb	r3, [r7, #15]
 1314 0086 6FEA0303 		mvn	r3, r3
 1315 008a DBB2     		uxtb	r3, r3
 1316 008c 03F00103 		and	r3, r3, #1
 1317 0090 002B     		cmp	r3, #0
 1318 0092 F1D1     		bne	.L54
 1319              	.L55:
1567:.\Generated_Source\PSoC5/LIN_1_UART.c ****                 }
1568:.\Generated_Source\PSoC5/LIN_1_UART.c **** 
1569:.\Generated_Source\PSoC5/LIN_1_UART.c ****                 if( (retMode == LIN_1_UART_WAIT_FOR_COMPLETE_REINIT) ||
 1320              		.loc 1 1569 0
 1321 0094 FB79     		ldrb	r3, [r7, #7]	@ zero_extendqisi2
 1322 0096 012B     		cmp	r3, #1
 1323 0098 05D0     		beq	.L56
 1324              		.loc 1 1569 0 is_stmt 0 discriminator 1
 1325 009a FB79     		ldrb	r3, [r7, #7]	@ zero_extendqisi2
 1326 009c 022B     		cmp	r3, #2
 1327 009e 02D0     		beq	.L56
1570:.\Generated_Source\PSoC5/LIN_1_UART.c ****                     (retMode == LIN_1_UART_REINIT) ||
 1328              		.loc 1 1570 0 is_stmt 1
 1329 00a0 FB79     		ldrb	r3, [r7, #7]	@ zero_extendqisi2
 1330 00a2 032B     		cmp	r3, #3
 1331 00a4 09D1     		bne	.L49
 1332              	.L56:
1571:.\Generated_Source\PSoC5/LIN_1_UART.c ****                     (retMode == LIN_1_UART_SEND_WAIT_REINIT) )
1572:.\Generated_Source\PSoC5/LIN_1_UART.c ****                 {
1573:.\Generated_Source\PSoC5/LIN_1_UART.c **** 
ARM GAS  C:\Users\MATSUD~1\AppData\Local\Temp\ccwDh0Hw.s 			page 52


1574:.\Generated_Source\PSoC5/LIN_1_UART.c ****                     #if(LIN_1_UART_TXCLKGEN_DP)
1575:.\Generated_Source\PSoC5/LIN_1_UART.c ****                         LIN_1_UART_TXBITCLKTX_COMPLETE_REG = tx_period;
1576:.\Generated_Source\PSoC5/LIN_1_UART.c ****                     #else
1577:.\Generated_Source\PSoC5/LIN_1_UART.c ****                         LIN_1_UART_TXBITCTR_PERIOD_REG = tx_period;
 1333              		.loc 1 1577 0
 1334 00a6 46F28343 		movw	r3, #25731
 1335 00aa C4F20003 		movt	r3, 16384
 1336 00ae 40F20002 		movw	r2, #:lower16:tx_period.4895
 1337 00b2 C0F20002 		movt	r2, #:upper16:tx_period.4895
 1338 00b6 1278     		ldrb	r2, [r2, #0]	@ zero_extendqisi2
 1339 00b8 1A70     		strb	r2, [r3, #0]
 1340              	.L49:
 1341              	.LBE2:
1578:.\Generated_Source\PSoC5/LIN_1_UART.c ****                     #endif /* End LIN_1_UART_TXCLKGEN_DP */
1579:.\Generated_Source\PSoC5/LIN_1_UART.c **** 
1580:.\Generated_Source\PSoC5/LIN_1_UART.c ****                     #if( (LIN_1_UART_PARITY_TYPE != LIN_1_UART__B_UART__NONE_REVB) || \
1581:.\Generated_Source\PSoC5/LIN_1_UART.c ****                          (LIN_1_UART_PARITY_TYPE_SW != 0u) )
1582:.\Generated_Source\PSoC5/LIN_1_UART.c ****                         LIN_1_UART_WriteControlRegister(LIN_1_UART_ReadControlRegister() &
1583:.\Generated_Source\PSoC5/LIN_1_UART.c ****                                                       (uint8)~LIN_1_UART_CTRL_HD_SEND_BREAK);
1584:.\Generated_Source\PSoC5/LIN_1_UART.c ****                     #endif /* End LIN_1_UART_PARITY_TYPE != NONE */
1585:.\Generated_Source\PSoC5/LIN_1_UART.c ****                 }
1586:.\Generated_Source\PSoC5/LIN_1_UART.c ****             #endif    /* End LIN_1_UART_HD_ENABLED */
1587:.\Generated_Source\PSoC5/LIN_1_UART.c ****         }
1588:.\Generated_Source\PSoC5/LIN_1_UART.c ****     }
 1342              		.loc 1 1588 0
 1343 00ba 07F11407 		add	r7, r7, #20
 1344 00be BD46     		mov	sp, r7
 1345 00c0 80BC     		pop	{r7}
 1346 00c2 7047     		bx	lr
 1347              		.cfi_endproc
 1348              	.LFE25:
 1349              		.size	LIN_1_UART_SendBreak, .-LIN_1_UART_SendBreak
 1350              		.section	.text.LIN_1_UART_SetTxAddressMode,"ax",%progbits
 1351              		.align	2
 1352              		.global	LIN_1_UART_SetTxAddressMode
 1353              		.thumb
 1354              		.thumb_func
 1355              		.type	LIN_1_UART_SetTxAddressMode, %function
 1356              	LIN_1_UART_SetTxAddressMode:
 1357              	.LFB26:
1589:.\Generated_Source\PSoC5/LIN_1_UART.c **** 
1590:.\Generated_Source\PSoC5/LIN_1_UART.c **** 
1591:.\Generated_Source\PSoC5/LIN_1_UART.c ****     /*******************************************************************************
1592:.\Generated_Source\PSoC5/LIN_1_UART.c ****     * Function Name: LIN_1_UART_SetTxAddressMode
1593:.\Generated_Source\PSoC5/LIN_1_UART.c ****     ********************************************************************************
1594:.\Generated_Source\PSoC5/LIN_1_UART.c ****     *
1595:.\Generated_Source\PSoC5/LIN_1_UART.c ****     * Summary:
1596:.\Generated_Source\PSoC5/LIN_1_UART.c ****     *  Set the transmit addressing mode
1597:.\Generated_Source\PSoC5/LIN_1_UART.c ****     *
1598:.\Generated_Source\PSoC5/LIN_1_UART.c ****     * Parameters:
1599:.\Generated_Source\PSoC5/LIN_1_UART.c ****     *  addressMode: 0 -> Space
1600:.\Generated_Source\PSoC5/LIN_1_UART.c ****     *               1 -> Mark
1601:.\Generated_Source\PSoC5/LIN_1_UART.c ****     *
1602:.\Generated_Source\PSoC5/LIN_1_UART.c ****     * Return:
1603:.\Generated_Source\PSoC5/LIN_1_UART.c ****     *  None.
1604:.\Generated_Source\PSoC5/LIN_1_UART.c ****     *
1605:.\Generated_Source\PSoC5/LIN_1_UART.c ****     *******************************************************************************/
ARM GAS  C:\Users\MATSUD~1\AppData\Local\Temp\ccwDh0Hw.s 			page 53


1606:.\Generated_Source\PSoC5/LIN_1_UART.c ****     void LIN_1_UART_SetTxAddressMode(uint8 addressMode) 
1607:.\Generated_Source\PSoC5/LIN_1_UART.c ****     {
 1358              		.loc 1 1607 0
 1359              		.cfi_startproc
 1360              		@ args = 0, pretend = 0, frame = 8
 1361              		@ frame_needed = 1, uses_anonymous_args = 0
 1362              		@ link register save eliminated.
 1363 0000 80B4     		push	{r7}
 1364              	.LCFI73:
 1365              		.cfi_def_cfa_offset 4
 1366              		.cfi_offset 7, -4
 1367 0002 83B0     		sub	sp, sp, #12
 1368              	.LCFI74:
 1369              		.cfi_def_cfa_offset 16
 1370 0004 00AF     		add	r7, sp, #0
 1371              	.LCFI75:
 1372              		.cfi_def_cfa_register 7
 1373 0006 0346     		mov	r3, r0
 1374 0008 FB71     		strb	r3, [r7, #7]
1608:.\Generated_Source\PSoC5/LIN_1_UART.c ****         /* Mark/Space sending enable*/
1609:.\Generated_Source\PSoC5/LIN_1_UART.c ****         if(addressMode != 0u)
1610:.\Generated_Source\PSoC5/LIN_1_UART.c ****         {
1611:.\Generated_Source\PSoC5/LIN_1_UART.c ****             #if( LIN_1_UART_CONTROL_REG_REMOVED == 0u )
1612:.\Generated_Source\PSoC5/LIN_1_UART.c ****                 LIN_1_UART_WriteControlRegister(LIN_1_UART_ReadControlRegister() |
1613:.\Generated_Source\PSoC5/LIN_1_UART.c ****                                                       LIN_1_UART_CTRL_MARK);
1614:.\Generated_Source\PSoC5/LIN_1_UART.c ****             #endif /* End LIN_1_UART_CONTROL_REG_REMOVED == 0u */
1615:.\Generated_Source\PSoC5/LIN_1_UART.c ****         }
1616:.\Generated_Source\PSoC5/LIN_1_UART.c ****         else
1617:.\Generated_Source\PSoC5/LIN_1_UART.c ****         {
1618:.\Generated_Source\PSoC5/LIN_1_UART.c ****             #if( LIN_1_UART_CONTROL_REG_REMOVED == 0u )
1619:.\Generated_Source\PSoC5/LIN_1_UART.c ****                 LIN_1_UART_WriteControlRegister(LIN_1_UART_ReadControlRegister() &
1620:.\Generated_Source\PSoC5/LIN_1_UART.c ****                                                     (uint8)~LIN_1_UART_CTRL_MARK);
1621:.\Generated_Source\PSoC5/LIN_1_UART.c ****             #endif /* End LIN_1_UART_CONTROL_REG_REMOVED == 0u */
1622:.\Generated_Source\PSoC5/LIN_1_UART.c ****         }
1623:.\Generated_Source\PSoC5/LIN_1_UART.c ****     }
 1375              		.loc 1 1623 0
 1376 000a 07F10C07 		add	r7, r7, #12
 1377 000e BD46     		mov	sp, r7
 1378 0010 80BC     		pop	{r7}
 1379 0012 7047     		bx	lr
 1380              		.cfi_endproc
 1381              	.LFE26:
 1382              		.size	LIN_1_UART_SetTxAddressMode, .-LIN_1_UART_SetTxAddressMode
 1383              		.bss
 1384              	tx_period.4895:
 1385 0001 00       		.space	1
 1386              		.text
 1387              	.Letext0:
 1388              		.file 2 ".\\Generated_Source\\PSoC5\\cytypes.h"
 1389              		.section	.debug_info,"",%progbits
 1390              	.Ldebug_info0:
 1391 0000 87050000 		.4byte	0x587
 1392 0004 0200     		.2byte	0x2
 1393 0006 00000000 		.4byte	.Ldebug_abbrev0
 1394 000a 04       		.byte	0x4
 1395 000b 01       		.uleb128 0x1
 1396 000c 91020000 		.4byte	.LASF60
ARM GAS  C:\Users\MATSUD~1\AppData\Local\Temp\ccwDh0Hw.s 			page 54


 1397 0010 01       		.byte	0x1
 1398 0011 CE030000 		.4byte	.LASF61
 1399 0015 1E040000 		.4byte	.LASF62
 1400 0019 00000000 		.4byte	.Ldebug_ranges0+0
 1401 001d 00000000 		.4byte	0
 1402 0021 00000000 		.4byte	0
 1403 0025 00000000 		.4byte	.Ldebug_line0
 1404 0029 02       		.uleb128 0x2
 1405 002a 01       		.byte	0x1
 1406 002b 06       		.byte	0x6
 1407 002c 9B000000 		.4byte	.LASF0
 1408 0030 02       		.uleb128 0x2
 1409 0031 01       		.byte	0x1
 1410 0032 08       		.byte	0x8
 1411 0033 DF020000 		.4byte	.LASF1
 1412 0037 02       		.uleb128 0x2
 1413 0038 02       		.byte	0x2
 1414 0039 05       		.byte	0x5
 1415 003a 1A030000 		.4byte	.LASF2
 1416 003e 02       		.uleb128 0x2
 1417 003f 02       		.byte	0x2
 1418 0040 07       		.byte	0x7
 1419 0041 6C010000 		.4byte	.LASF3
 1420 0045 02       		.uleb128 0x2
 1421 0046 04       		.byte	0x4
 1422 0047 05       		.byte	0x5
 1423 0048 BA000000 		.4byte	.LASF4
 1424 004c 02       		.uleb128 0x2
 1425 004d 04       		.byte	0x4
 1426 004e 07       		.byte	0x7
 1427 004f F9000000 		.4byte	.LASF5
 1428 0053 02       		.uleb128 0x2
 1429 0054 08       		.byte	0x8
 1430 0055 05       		.byte	0x5
 1431 0056 8D000000 		.4byte	.LASF6
 1432 005a 02       		.uleb128 0x2
 1433 005b 08       		.byte	0x8
 1434 005c 07       		.byte	0x7
 1435 005d 5D000000 		.4byte	.LASF7
 1436 0061 03       		.uleb128 0x3
 1437 0062 04       		.byte	0x4
 1438 0063 05       		.byte	0x5
 1439 0064 696E7400 		.ascii	"int\000"
 1440 0068 02       		.uleb128 0x2
 1441 0069 04       		.byte	0x4
 1442 006a 07       		.byte	0x7
 1443 006b EC000000 		.4byte	.LASF8
 1444 006f 04       		.uleb128 0x4
 1445 0070 C3000000 		.4byte	.LASF9
 1446 0074 02       		.byte	0x2
 1447 0075 5B       		.byte	0x5b
 1448 0076 30000000 		.4byte	0x30
 1449 007a 04       		.uleb128 0x4
 1450 007b 1B000000 		.4byte	.LASF10
 1451 007f 02       		.byte	0x2
 1452 0080 5C       		.byte	0x5c
 1453 0081 3E000000 		.4byte	0x3e
ARM GAS  C:\Users\MATSUD~1\AppData\Local\Temp\ccwDh0Hw.s 			page 55


 1454 0085 02       		.uleb128 0x2
 1455 0086 04       		.byte	0x4
 1456 0087 04       		.byte	0x4
 1457 0088 2E020000 		.4byte	.LASF11
 1458 008c 02       		.uleb128 0x2
 1459 008d 08       		.byte	0x8
 1460 008e 04       		.byte	0x4
 1461 008f C9000000 		.4byte	.LASF12
 1462 0093 04       		.uleb128 0x4
 1463 0094 86030000 		.4byte	.LASF13
 1464 0098 02       		.byte	0x2
 1465 0099 6C       		.byte	0x6c
 1466 009a 9E000000 		.4byte	0x9e
 1467 009e 02       		.uleb128 0x2
 1468 009f 01       		.byte	0x1
 1469 00a0 08       		.byte	0x8
 1470 00a1 63030000 		.4byte	.LASF14
 1471 00a5 04       		.uleb128 0x4
 1472 00a6 DA020000 		.4byte	.LASF15
 1473 00aa 02       		.byte	0x2
 1474 00ab F0       		.byte	0xf0
 1475 00ac B0000000 		.4byte	0xb0
 1476 00b0 05       		.uleb128 0x5
 1477 00b1 6F000000 		.4byte	0x6f
 1478 00b5 02       		.uleb128 0x2
 1479 00b6 04       		.byte	0x4
 1480 00b7 07       		.byte	0x7
 1481 00b8 E2010000 		.4byte	.LASF16
 1482 00bc 06       		.uleb128 0x6
 1483 00bd 01       		.byte	0x1
 1484 00be 09030000 		.4byte	.LASF17
 1485 00c2 01       		.byte	0x1
 1486 00c3 49       		.byte	0x49
 1487 00c4 01       		.byte	0x1
 1488 00c5 00000000 		.4byte	.LFB0
 1489 00c9 2A000000 		.4byte	.LFE0
 1490 00cd 00000000 		.4byte	.LLST0
 1491 00d1 01       		.byte	0x1
 1492 00d2 07       		.uleb128 0x7
 1493 00d3 01       		.byte	0x1
 1494 00d4 FB030000 		.4byte	.LASF18
 1495 00d8 01       		.byte	0x1
 1496 00d9 65       		.byte	0x65
 1497 00da 01       		.byte	0x1
 1498 00db 00000000 		.4byte	.LFB1
 1499 00df 42000000 		.4byte	.LFE1
 1500 00e3 2C000000 		.4byte	.LLST1
 1501 00e7 01       		.byte	0x1
 1502 00e8 08       		.uleb128 0x8
 1503 00e9 01       		.byte	0x1
 1504 00ea 66020000 		.4byte	.LASF19
 1505 00ee 01       		.byte	0x1
 1506 00ef AE       		.byte	0xae
 1507 00f0 01       		.byte	0x1
 1508 00f1 00000000 		.4byte	.LFB2
 1509 00f5 8E000000 		.4byte	.LFE2
 1510 00f9 58000000 		.4byte	.LLST2
ARM GAS  C:\Users\MATSUD~1\AppData\Local\Temp\ccwDh0Hw.s 			page 56


 1511 00fd 01       		.byte	0x1
 1512 00fe 11010000 		.4byte	0x111
 1513 0102 09       		.uleb128 0x9
 1514 0103 BD030000 		.4byte	.LASF21
 1515 0107 01       		.byte	0x1
 1516 0108 B0       		.byte	0xb0
 1517 0109 6F000000 		.4byte	0x6f
 1518 010d 02       		.byte	0x2
 1519 010e 91       		.byte	0x91
 1520 010f 77       		.sleb128 -9
 1521 0110 00       		.byte	0
 1522 0111 08       		.uleb128 0x8
 1523 0112 01       		.byte	0x1
 1524 0113 20010000 		.4byte	.LASF20
 1525 0117 01       		.byte	0x1
 1526 0118 E3       		.byte	0xe3
 1527 0119 01       		.byte	0x1
 1528 011a 00000000 		.4byte	.LFB3
 1529 011e 8E000000 		.4byte	.LFE3
 1530 0122 90000000 		.4byte	.LLST3
 1531 0126 01       		.byte	0x1
 1532 0127 3A010000 		.4byte	0x13a
 1533 012b 09       		.uleb128 0x9
 1534 012c BD030000 		.4byte	.LASF21
 1535 0130 01       		.byte	0x1
 1536 0131 E5       		.byte	0xe5
 1537 0132 6F000000 		.4byte	0x6f
 1538 0136 02       		.byte	0x2
 1539 0137 91       		.byte	0x91
 1540 0138 77       		.sleb128 -9
 1541 0139 00       		.byte	0
 1542 013a 0A       		.uleb128 0xa
 1543 013b 01       		.byte	0x1
 1544 013c 48010000 		.4byte	.LASF32
 1545 0140 01       		.byte	0x1
 1546 0141 1901     		.2byte	0x119
 1547 0143 01       		.byte	0x1
 1548 0144 6F000000 		.4byte	0x6f
 1549 0148 00000000 		.4byte	.LFB4
 1550 014c 10000000 		.4byte	.LFE4
 1551 0150 C8000000 		.4byte	.LLST4
 1552 0154 01       		.byte	0x1
 1553 0155 0B       		.uleb128 0xb
 1554 0156 01       		.byte	0x1
 1555 0157 C2010000 		.4byte	.LASF22
 1556 015b 01       		.byte	0x1
 1557 015c 3101     		.2byte	0x131
 1558 015e 01       		.byte	0x1
 1559 015f 00000000 		.4byte	.LFB5
 1560 0163 14000000 		.4byte	.LFE5
 1561 0167 F4000000 		.4byte	.LLST5
 1562 016b 01       		.byte	0x1
 1563 016c 80010000 		.4byte	0x180
 1564 0170 0C       		.uleb128 0xc
 1565 0171 DC000000 		.4byte	.LASF24
 1566 0175 01       		.byte	0x1
 1567 0176 3101     		.2byte	0x131
ARM GAS  C:\Users\MATSUD~1\AppData\Local\Temp\ccwDh0Hw.s 			page 57


 1568 0178 6F000000 		.4byte	0x6f
 1569 017c 02       		.byte	0x2
 1570 017d 91       		.byte	0x91
 1571 017e 77       		.sleb128 -9
 1572 017f 00       		.byte	0
 1573 0180 0B       		.uleb128 0xb
 1574 0181 01       		.byte	0x1
 1575 0182 48020000 		.4byte	.LASF23
 1576 0186 01       		.byte	0x1
 1577 0187 8101     		.2byte	0x181
 1578 0189 01       		.byte	0x1
 1579 018a 00000000 		.4byte	.LFB6
 1580 018e 20000000 		.4byte	.LFE6
 1581 0192 2C010000 		.4byte	.LLST6
 1582 0196 01       		.byte	0x1
 1583 0197 AB010000 		.4byte	0x1ab
 1584 019b 0C       		.uleb128 0xc
 1585 019c 89010000 		.4byte	.LASF25
 1586 01a0 01       		.byte	0x1
 1587 01a1 8101     		.2byte	0x181
 1588 01a3 6F000000 		.4byte	0x6f
 1589 01a7 02       		.byte	0x2
 1590 01a8 91       		.byte	0x91
 1591 01a9 77       		.sleb128 -9
 1592 01aa 00       		.byte	0
 1593 01ab 0D       		.uleb128 0xd
 1594 01ac 01       		.byte	0x1
 1595 01ad 2D000000 		.4byte	.LASF27
 1596 01b1 01       		.byte	0x1
 1597 01b2 A201     		.2byte	0x1a2
 1598 01b4 01       		.byte	0x1
 1599 01b5 6F000000 		.4byte	0x6f
 1600 01b9 00000000 		.4byte	.LFB7
 1601 01bd 20000000 		.4byte	.LFE7
 1602 01c1 64010000 		.4byte	.LLST7
 1603 01c5 01       		.byte	0x1
 1604 01c6 DA010000 		.4byte	0x1da
 1605 01ca 0E       		.uleb128 0xe
 1606 01cb 41030000 		.4byte	.LASF26
 1607 01cf 01       		.byte	0x1
 1608 01d0 A401     		.2byte	0x1a4
 1609 01d2 6F000000 		.4byte	0x6f
 1610 01d6 02       		.byte	0x2
 1611 01d7 91       		.byte	0x91
 1612 01d8 77       		.sleb128 -9
 1613 01d9 00       		.byte	0
 1614 01da 0D       		.uleb128 0xd
 1615 01db 01       		.byte	0x1
 1616 01dc 7E040000 		.4byte	.LASF28
 1617 01e0 01       		.byte	0x1
 1618 01e1 FD01     		.2byte	0x1fd
 1619 01e3 01       		.byte	0x1
 1620 01e4 6F000000 		.4byte	0x6f
 1621 01e8 00000000 		.4byte	.LFB8
 1622 01ec 26000000 		.4byte	.LFE8
 1623 01f0 9C010000 		.4byte	.LLST8
 1624 01f4 01       		.byte	0x1
ARM GAS  C:\Users\MATSUD~1\AppData\Local\Temp\ccwDh0Hw.s 			page 58


 1625 01f5 09020000 		.4byte	0x209
 1626 01f9 0E       		.uleb128 0xe
 1627 01fa F4030000 		.4byte	.LASF29
 1628 01fe 01       		.byte	0x1
 1629 01ff FF01     		.2byte	0x1ff
 1630 0201 6F000000 		.4byte	0x6f
 1631 0205 02       		.byte	0x2
 1632 0206 91       		.byte	0x91
 1633 0207 77       		.sleb128 -9
 1634 0208 00       		.byte	0
 1635 0209 0D       		.uleb128 0xd
 1636 020a 01       		.byte	0x1
 1637 020b 0B040000 		.4byte	.LASF30
 1638 020f 01       		.byte	0x1
 1639 0210 2C02     		.2byte	0x22c
 1640 0212 01       		.byte	0x1
 1641 0213 6F000000 		.4byte	0x6f
 1642 0217 00000000 		.4byte	.LFB9
 1643 021b 4C000000 		.4byte	.LFE9
 1644 021f D4010000 		.4byte	.LLST9
 1645 0223 01       		.byte	0x1
 1646 0224 47020000 		.4byte	0x247
 1647 0228 0E       		.uleb128 0xe
 1648 0229 41030000 		.4byte	.LASF26
 1649 022d 01       		.byte	0x1
 1650 022e 2E02     		.2byte	0x22e
 1651 0230 6F000000 		.4byte	0x6f
 1652 0234 02       		.byte	0x2
 1653 0235 91       		.byte	0x91
 1654 0236 77       		.sleb128 -9
 1655 0237 0E       		.uleb128 0xe
 1656 0238 25020000 		.4byte	.LASF31
 1657 023c 01       		.byte	0x1
 1658 023d 2F02     		.2byte	0x22f
 1659 023f 6F000000 		.4byte	0x6f
 1660 0243 02       		.byte	0x2
 1661 0244 91       		.byte	0x91
 1662 0245 76       		.sleb128 -10
 1663 0246 00       		.byte	0
 1664 0247 0F       		.uleb128 0xf
 1665 0248 01       		.byte	0x1
 1666 0249 A7010000 		.4byte	.LASF33
 1667 024d 01       		.byte	0x1
 1668 024e 9202     		.2byte	0x292
 1669 0250 01       		.byte	0x1
 1670 0251 7A000000 		.4byte	0x7a
 1671 0255 00000000 		.4byte	.LFB10
 1672 0259 22000000 		.4byte	.LFE10
 1673 025d 0C020000 		.4byte	.LLST10
 1674 0261 01       		.byte	0x1
 1675 0262 0D       		.uleb128 0xd
 1676 0263 01       		.byte	0x1
 1677 0264 00000000 		.4byte	.LASF34
 1678 0268 01       		.byte	0x1
 1679 0269 B302     		.2byte	0x2b3
 1680 026b 01       		.byte	0x1
 1681 026c 6F000000 		.4byte	0x6f
ARM GAS  C:\Users\MATSUD~1\AppData\Local\Temp\ccwDh0Hw.s 			page 59


 1682 0270 00000000 		.4byte	.LFB11
 1683 0274 34000000 		.4byte	.LFE11
 1684 0278 38020000 		.4byte	.LLST11
 1685 027c 01       		.byte	0x1
 1686 027d 91020000 		.4byte	0x291
 1687 0281 0E       		.uleb128 0xe
 1688 0282 67010000 		.4byte	.LASF35
 1689 0286 01       		.byte	0x1
 1690 0287 B602     		.2byte	0x2b6
 1691 0289 6F000000 		.4byte	0x6f
 1692 028d 02       		.byte	0x2
 1693 028e 91       		.byte	0x91
 1694 028f 77       		.sleb128 -9
 1695 0290 00       		.byte	0
 1696 0291 10       		.uleb128 0x10
 1697 0292 01       		.byte	0x1
 1698 0293 78020000 		.4byte	.LASF36
 1699 0297 01       		.byte	0x1
 1700 0298 0303     		.2byte	0x303
 1701 029a 01       		.byte	0x1
 1702 029b 00000000 		.4byte	.LFB12
 1703 029f 56000000 		.4byte	.LFE12
 1704 02a3 70020000 		.4byte	.LLST12
 1705 02a7 01       		.byte	0x1
 1706 02a8 BC020000 		.4byte	0x2bc
 1707 02ac 0E       		.uleb128 0xe
 1708 02ad BD030000 		.4byte	.LASF21
 1709 02b1 01       		.byte	0x1
 1710 02b2 0503     		.2byte	0x305
 1711 02b4 6F000000 		.4byte	0x6f
 1712 02b8 02       		.byte	0x2
 1713 02b9 91       		.byte	0x91
 1714 02ba 77       		.sleb128 -9
 1715 02bb 00       		.byte	0
 1716 02bc 0B       		.uleb128 0xb
 1717 02bd 01       		.byte	0x1
 1718 02be A1030000 		.4byte	.LASF37
 1719 02c2 01       		.byte	0x1
 1720 02c3 4003     		.2byte	0x340
 1721 02c5 01       		.byte	0x1
 1722 02c6 00000000 		.4byte	.LFB13
 1723 02ca 14000000 		.4byte	.LFE13
 1724 02ce A8020000 		.4byte	.LLST13
 1725 02d2 01       		.byte	0x1
 1726 02d3 E7020000 		.4byte	0x2e7
 1727 02d7 0C       		.uleb128 0xc
 1728 02d8 D0000000 		.4byte	.LASF38
 1729 02dc 01       		.byte	0x1
 1730 02dd 4003     		.2byte	0x340
 1731 02df 6F000000 		.4byte	0x6f
 1732 02e3 02       		.byte	0x2
 1733 02e4 91       		.byte	0x91
 1734 02e5 77       		.sleb128 -9
 1735 02e6 00       		.byte	0
 1736 02e7 0B       		.uleb128 0xb
 1737 02e8 01       		.byte	0x1
 1738 02e9 F3010000 		.4byte	.LASF39
ARM GAS  C:\Users\MATSUD~1\AppData\Local\Temp\ccwDh0Hw.s 			page 60


 1739 02ed 01       		.byte	0x1
 1740 02ee 6503     		.2byte	0x365
 1741 02f0 01       		.byte	0x1
 1742 02f1 00000000 		.4byte	.LFB14
 1743 02f5 20000000 		.4byte	.LFE14
 1744 02f9 E0020000 		.4byte	.LLST14
 1745 02fd 01       		.byte	0x1
 1746 02fe 12030000 		.4byte	0x312
 1747 0302 0C       		.uleb128 0xc
 1748 0303 EB010000 		.4byte	.LASF40
 1749 0307 01       		.byte	0x1
 1750 0308 6503     		.2byte	0x365
 1751 030a 6F000000 		.4byte	0x6f
 1752 030e 02       		.byte	0x2
 1753 030f 91       		.byte	0x91
 1754 0310 77       		.sleb128 -9
 1755 0311 00       		.byte	0
 1756 0312 0B       		.uleb128 0xb
 1757 0313 01       		.byte	0x1
 1758 0314 0C020000 		.4byte	.LASF41
 1759 0318 01       		.byte	0x1
 1760 0319 7A03     		.2byte	0x37a
 1761 031b 01       		.byte	0x1
 1762 031c 00000000 		.4byte	.LFB15
 1763 0320 20000000 		.4byte	.LFE15
 1764 0324 18030000 		.4byte	.LLST15
 1765 0328 01       		.byte	0x1
 1766 0329 3D030000 		.4byte	0x33d
 1767 032d 0C       		.uleb128 0xc
 1768 032e EB010000 		.4byte	.LASF40
 1769 0332 01       		.byte	0x1
 1770 0333 7A03     		.2byte	0x37a
 1771 0335 6F000000 		.4byte	0x6f
 1772 0339 02       		.byte	0x2
 1773 033a 91       		.byte	0x91
 1774 033b 77       		.sleb128 -9
 1775 033c 00       		.byte	0
 1776 033d 0B       		.uleb128 0xb
 1777 033e 01       		.byte	0x1
 1778 033f 68030000 		.4byte	.LASF42
 1779 0343 01       		.byte	0x1
 1780 0344 C803     		.2byte	0x3c8
 1781 0346 01       		.byte	0x1
 1782 0347 00000000 		.4byte	.LFB16
 1783 034b 20000000 		.4byte	.LFE16
 1784 034f 50030000 		.4byte	.LLST16
 1785 0353 01       		.byte	0x1
 1786 0354 68030000 		.4byte	0x368
 1787 0358 0C       		.uleb128 0xc
 1788 0359 89010000 		.4byte	.LASF25
 1789 035d 01       		.byte	0x1
 1790 035e C803     		.2byte	0x3c8
 1791 0360 6F000000 		.4byte	0x6f
 1792 0364 02       		.byte	0x2
 1793 0365 91       		.byte	0x91
 1794 0366 77       		.sleb128 -9
 1795 0367 00       		.byte	0
ARM GAS  C:\Users\MATSUD~1\AppData\Local\Temp\ccwDh0Hw.s 			page 61


 1796 0368 0B       		.uleb128 0xb
 1797 0369 01       		.byte	0x1
 1798 036a 90010000 		.4byte	.LASF43
 1799 036e 01       		.byte	0x1
 1800 036f EA03     		.2byte	0x3ea
 1801 0371 01       		.byte	0x1
 1802 0372 00000000 		.4byte	.LFB17
 1803 0376 2E000000 		.4byte	.LFE17
 1804 037a 88030000 		.4byte	.LLST17
 1805 037e 01       		.byte	0x1
 1806 037f 93030000 		.4byte	0x393
 1807 0383 0C       		.uleb128 0xc
 1808 0384 22000000 		.4byte	.LASF44
 1809 0388 01       		.byte	0x1
 1810 0389 EA03     		.2byte	0x3ea
 1811 038b 6F000000 		.4byte	0x6f
 1812 038f 02       		.byte	0x2
 1813 0390 91       		.byte	0x91
 1814 0391 77       		.sleb128 -9
 1815 0392 00       		.byte	0
 1816 0393 0A       		.uleb128 0xa
 1817 0394 01       		.byte	0x1
 1818 0395 30010000 		.4byte	.LASF45
 1819 0399 01       		.byte	0x1
 1820 039a 2E04     		.2byte	0x42e
 1821 039c 01       		.byte	0x1
 1822 039d 6F000000 		.4byte	0x6f
 1823 03a1 00000000 		.4byte	.LFB18
 1824 03a5 18000000 		.4byte	.LFE18
 1825 03a9 C0030000 		.4byte	.LLST18
 1826 03ad 01       		.byte	0x1
 1827 03ae 0B       		.uleb128 0xb
 1828 03af 01       		.byte	0x1
 1829 03b0 43000000 		.4byte	.LASF46
 1830 03b4 01       		.byte	0x1
 1831 03b5 5204     		.2byte	0x452
 1832 03b7 01       		.byte	0x1
 1833 03b8 00000000 		.4byte	.LFB19
 1834 03bc 36000000 		.4byte	.LFE19
 1835 03c0 EC030000 		.4byte	.LLST19
 1836 03c4 01       		.byte	0x1
 1837 03c5 D9030000 		.4byte	0x3d9
 1838 03c9 0C       		.uleb128 0xc
 1839 03ca 22000000 		.4byte	.LASF44
 1840 03ce 01       		.byte	0x1
 1841 03cf 5204     		.2byte	0x452
 1842 03d1 6F000000 		.4byte	0x6f
 1843 03d5 02       		.byte	0x2
 1844 03d6 91       		.byte	0x91
 1845 03d7 77       		.sleb128 -9
 1846 03d8 00       		.byte	0
 1847 03d9 10       		.uleb128 0x10
 1848 03da 01       		.byte	0x1
 1849 03db 0B010000 		.4byte	.LASF47
 1850 03df 01       		.byte	0x1
 1851 03e0 AE04     		.2byte	0x4ae
 1852 03e2 01       		.byte	0x1
ARM GAS  C:\Users\MATSUD~1\AppData\Local\Temp\ccwDh0Hw.s 			page 62


 1853 03e3 00000000 		.4byte	.LFB20
 1854 03e7 48000000 		.4byte	.LFE20
 1855 03eb 24040000 		.4byte	.LLST20
 1856 03ef 01       		.byte	0x1
 1857 03f0 13040000 		.4byte	0x413
 1858 03f4 0C       		.uleb128 0xc
 1859 03f5 56000000 		.4byte	.LASF48
 1860 03f9 01       		.byte	0x1
 1861 03fa AE04     		.2byte	0x4ae
 1862 03fc 13040000 		.4byte	0x413
 1863 0400 02       		.byte	0x2
 1864 0401 91       		.byte	0x91
 1865 0402 6C       		.sleb128 -20
 1866 0403 0E       		.uleb128 0xe
 1867 0404 74040000 		.4byte	.LASF49
 1868 0408 01       		.byte	0x1
 1869 0409 B004     		.2byte	0x4b0
 1870 040b 7A000000 		.4byte	0x7a
 1871 040f 02       		.byte	0x2
 1872 0410 91       		.byte	0x91
 1873 0411 76       		.sleb128 -10
 1874 0412 00       		.byte	0
 1875 0413 11       		.uleb128 0x11
 1876 0414 04       		.byte	0x4
 1877 0415 19040000 		.4byte	0x419
 1878 0419 12       		.uleb128 0x12
 1879 041a 93000000 		.4byte	0x93
 1880 041e 10       		.uleb128 0x10
 1881 041f 01       		.byte	0x1
 1882 0420 34020000 		.4byte	.LASF50
 1883 0424 01       		.byte	0x1
 1884 0425 D404     		.2byte	0x4d4
 1885 0427 01       		.byte	0x1
 1886 0428 00000000 		.4byte	.LFB21
 1887 042c 46000000 		.4byte	.LFE21
 1888 0430 5C040000 		.4byte	.LLST21
 1889 0434 01       		.byte	0x1
 1890 0435 67040000 		.4byte	0x467
 1891 0439 0C       		.uleb128 0xc
 1892 043a 56000000 		.4byte	.LASF48
 1893 043e 01       		.byte	0x1
 1894 043f D404     		.2byte	0x4d4
 1895 0441 67040000 		.4byte	0x467
 1896 0445 02       		.byte	0x2
 1897 0446 91       		.byte	0x91
 1898 0447 6C       		.sleb128 -20
 1899 0448 0C       		.uleb128 0xc
 1900 0449 24030000 		.4byte	.LASF51
 1901 044d 01       		.byte	0x1
 1902 044e D404     		.2byte	0x4d4
 1903 0450 6F000000 		.4byte	0x6f
 1904 0454 02       		.byte	0x2
 1905 0455 91       		.byte	0x91
 1906 0456 6B       		.sleb128 -21
 1907 0457 0E       		.uleb128 0xe
 1908 0458 74040000 		.4byte	.LASF49
 1909 045c 01       		.byte	0x1
ARM GAS  C:\Users\MATSUD~1\AppData\Local\Temp\ccwDh0Hw.s 			page 63


 1910 045d D704     		.2byte	0x4d7
 1911 045f 6F000000 		.4byte	0x6f
 1912 0463 02       		.byte	0x2
 1913 0464 91       		.byte	0x91
 1914 0465 77       		.sleb128 -9
 1915 0466 00       		.byte	0
 1916 0467 11       		.uleb128 0x11
 1917 0468 04       		.byte	0x4
 1918 0469 6D040000 		.4byte	0x46d
 1919 046d 12       		.uleb128 0x12
 1920 046e 6F000000 		.4byte	0x6f
 1921 0472 10       		.uleb128 0x10
 1922 0473 01       		.byte	0x1
 1923 0474 A7000000 		.4byte	.LASF52
 1924 0478 01       		.byte	0x1
 1925 0479 F904     		.2byte	0x4f9
 1926 047b 01       		.byte	0x1
 1927 047c 00000000 		.4byte	.LFB22
 1928 0480 38000000 		.4byte	.LFE22
 1929 0484 94040000 		.4byte	.LLST22
 1930 0488 01       		.byte	0x1
 1931 0489 9D040000 		.4byte	0x49d
 1932 048d 0C       		.uleb128 0xc
 1933 048e 22000000 		.4byte	.LASF44
 1934 0492 01       		.byte	0x1
 1935 0493 F904     		.2byte	0x4f9
 1936 0495 6F000000 		.4byte	0x6f
 1937 0499 02       		.byte	0x2
 1938 049a 91       		.byte	0x91
 1939 049b 77       		.sleb128 -9
 1940 049c 00       		.byte	0
 1941 049d 0D       		.uleb128 0xd
 1942 049e 01       		.byte	0x1
 1943 049f 48030000 		.4byte	.LASF53
 1944 04a3 01       		.byte	0x1
 1945 04a4 1E05     		.2byte	0x51e
 1946 04a6 01       		.byte	0x1
 1947 04a7 6F000000 		.4byte	0x6f
 1948 04ab 00000000 		.4byte	.LFB23
 1949 04af 4A000000 		.4byte	.LFE23
 1950 04b3 CC040000 		.4byte	.LLST23
 1951 04b7 01       		.byte	0x1
 1952 04b8 CC040000 		.4byte	0x4cc
 1953 04bc 0E       		.uleb128 0xe
 1954 04bd 67010000 		.4byte	.LASF35
 1955 04c1 01       		.byte	0x1
 1956 04c2 2105     		.2byte	0x521
 1957 04c4 6F000000 		.4byte	0x6f
 1958 04c8 02       		.byte	0x2
 1959 04c9 91       		.byte	0x91
 1960 04ca 77       		.sleb128 -9
 1961 04cb 00       		.byte	0
 1962 04cc 10       		.uleb128 0x10
 1963 04cd 01       		.byte	0x1
 1964 04ce 74000000 		.4byte	.LASF54
 1965 04d2 01       		.byte	0x1
 1966 04d3 7405     		.2byte	0x574
ARM GAS  C:\Users\MATSUD~1\AppData\Local\Temp\ccwDh0Hw.s 			page 64


 1967 04d5 01       		.byte	0x1
 1968 04d6 00000000 		.4byte	.LFB24
 1969 04da 56000000 		.4byte	.LFE24
 1970 04de 04050000 		.4byte	.LLST24
 1971 04e2 01       		.byte	0x1
 1972 04e3 F7040000 		.4byte	0x4f7
 1973 04e7 0E       		.uleb128 0xe
 1974 04e8 BD030000 		.4byte	.LASF21
 1975 04ec 01       		.byte	0x1
 1976 04ed 7605     		.2byte	0x576
 1977 04ef 6F000000 		.4byte	0x6f
 1978 04f3 02       		.byte	0x2
 1979 04f4 91       		.byte	0x91
 1980 04f5 77       		.sleb128 -9
 1981 04f6 00       		.byte	0
 1982 04f7 0B       		.uleb128 0xb
 1983 04f8 01       		.byte	0x1
 1984 04f9 8C030000 		.4byte	.LASF55
 1985 04fd 01       		.byte	0x1
 1986 04fe CD05     		.2byte	0x5cd
 1987 0500 01       		.byte	0x1
 1988 0501 00000000 		.4byte	.LFB25
 1989 0505 C4000000 		.4byte	.LFE25
 1990 0509 3C050000 		.4byte	.LLST25
 1991 050d 01       		.byte	0x1
 1992 050e 4D050000 		.4byte	0x54d
 1993 0512 0C       		.uleb128 0xc
 1994 0513 E4000000 		.4byte	.LASF56
 1995 0517 01       		.byte	0x1
 1996 0518 CD05     		.2byte	0x5cd
 1997 051a 6F000000 		.4byte	0x6f
 1998 051e 02       		.byte	0x2
 1999 051f 91       		.byte	0x91
 2000 0520 6F       		.sleb128 -17
 2001 0521 13       		.uleb128 0x13
 2002 0522 18000000 		.4byte	.LBB2
 2003 0526 BA000000 		.4byte	.LBE2
 2004 052a 0E       		.uleb128 0xe
 2005 052b BA010000 		.4byte	.LASF57
 2006 052f 01       		.byte	0x1
 2007 0530 D505     		.2byte	0x5d5
 2008 0532 6F000000 		.4byte	0x6f
 2009 0536 02       		.byte	0x2
 2010 0537 91       		.byte	0x91
 2011 0538 77       		.sleb128 -9
 2012 0539 0E       		.uleb128 0xe
 2013 053a 7F010000 		.4byte	.LASF58
 2014 053e 01       		.byte	0x1
 2015 053f FB05     		.2byte	0x5fb
 2016 0541 6F000000 		.4byte	0x6f
 2017 0545 05       		.byte	0x5
 2018 0546 03       		.byte	0x3
 2019 0547 01000000 		.4byte	tx_period.4895
 2020 054b 00       		.byte	0
 2021 054c 00       		.byte	0
 2022 054d 0B       		.uleb128 0xb
 2023 054e 01       		.byte	0x1
ARM GAS  C:\Users\MATSUD~1\AppData\Local\Temp\ccwDh0Hw.s 			page 65


 2024 054f ED020000 		.4byte	.LASF59
 2025 0553 01       		.byte	0x1
 2026 0554 4606     		.2byte	0x646
 2027 0556 01       		.byte	0x1
 2028 0557 00000000 		.4byte	.LFB26
 2029 055b 14000000 		.4byte	.LFE26
 2030 055f 74050000 		.4byte	.LLST26
 2031 0563 01       		.byte	0x1
 2032 0564 78050000 		.4byte	0x578
 2033 0568 0C       		.uleb128 0xc
 2034 0569 D0000000 		.4byte	.LASF38
 2035 056d 01       		.byte	0x1
 2036 056e 4606     		.2byte	0x646
 2037 0570 6F000000 		.4byte	0x6f
 2038 0574 02       		.byte	0x2
 2039 0575 91       		.byte	0x91
 2040 0576 77       		.sleb128 -9
 2041 0577 00       		.byte	0
 2042 0578 14       		.uleb128 0x14
 2043 0579 2E030000 		.4byte	.LASF63
 2044 057d 01       		.byte	0x1
 2045 057e 1C       		.byte	0x1c
 2046 057f 6F000000 		.4byte	0x6f
 2047 0583 01       		.byte	0x1
 2048 0584 05       		.byte	0x5
 2049 0585 03       		.byte	0x3
 2050 0586 00000000 		.4byte	LIN_1_UART_initVar
 2051 058a 00       		.byte	0
 2052              		.section	.debug_abbrev,"",%progbits
 2053              	.Ldebug_abbrev0:
 2054 0000 01       		.uleb128 0x1
 2055 0001 11       		.uleb128 0x11
 2056 0002 01       		.byte	0x1
 2057 0003 25       		.uleb128 0x25
 2058 0004 0E       		.uleb128 0xe
 2059 0005 13       		.uleb128 0x13
 2060 0006 0B       		.uleb128 0xb
 2061 0007 03       		.uleb128 0x3
 2062 0008 0E       		.uleb128 0xe
 2063 0009 1B       		.uleb128 0x1b
 2064 000a 0E       		.uleb128 0xe
 2065 000b 55       		.uleb128 0x55
 2066 000c 06       		.uleb128 0x6
 2067 000d 11       		.uleb128 0x11
 2068 000e 01       		.uleb128 0x1
 2069 000f 52       		.uleb128 0x52
 2070 0010 01       		.uleb128 0x1
 2071 0011 10       		.uleb128 0x10
 2072 0012 06       		.uleb128 0x6
 2073 0013 00       		.byte	0
 2074 0014 00       		.byte	0
 2075 0015 02       		.uleb128 0x2
 2076 0016 24       		.uleb128 0x24
 2077 0017 00       		.byte	0
 2078 0018 0B       		.uleb128 0xb
 2079 0019 0B       		.uleb128 0xb
 2080 001a 3E       		.uleb128 0x3e
ARM GAS  C:\Users\MATSUD~1\AppData\Local\Temp\ccwDh0Hw.s 			page 66


 2081 001b 0B       		.uleb128 0xb
 2082 001c 03       		.uleb128 0x3
 2083 001d 0E       		.uleb128 0xe
 2084 001e 00       		.byte	0
 2085 001f 00       		.byte	0
 2086 0020 03       		.uleb128 0x3
 2087 0021 24       		.uleb128 0x24
 2088 0022 00       		.byte	0
 2089 0023 0B       		.uleb128 0xb
 2090 0024 0B       		.uleb128 0xb
 2091 0025 3E       		.uleb128 0x3e
 2092 0026 0B       		.uleb128 0xb
 2093 0027 03       		.uleb128 0x3
 2094 0028 08       		.uleb128 0x8
 2095 0029 00       		.byte	0
 2096 002a 00       		.byte	0
 2097 002b 04       		.uleb128 0x4
 2098 002c 16       		.uleb128 0x16
 2099 002d 00       		.byte	0
 2100 002e 03       		.uleb128 0x3
 2101 002f 0E       		.uleb128 0xe
 2102 0030 3A       		.uleb128 0x3a
 2103 0031 0B       		.uleb128 0xb
 2104 0032 3B       		.uleb128 0x3b
 2105 0033 0B       		.uleb128 0xb
 2106 0034 49       		.uleb128 0x49
 2107 0035 13       		.uleb128 0x13
 2108 0036 00       		.byte	0
 2109 0037 00       		.byte	0
 2110 0038 05       		.uleb128 0x5
 2111 0039 35       		.uleb128 0x35
 2112 003a 00       		.byte	0
 2113 003b 49       		.uleb128 0x49
 2114 003c 13       		.uleb128 0x13
 2115 003d 00       		.byte	0
 2116 003e 00       		.byte	0
 2117 003f 06       		.uleb128 0x6
 2118 0040 2E       		.uleb128 0x2e
 2119 0041 00       		.byte	0
 2120 0042 3F       		.uleb128 0x3f
 2121 0043 0C       		.uleb128 0xc
 2122 0044 03       		.uleb128 0x3
 2123 0045 0E       		.uleb128 0xe
 2124 0046 3A       		.uleb128 0x3a
 2125 0047 0B       		.uleb128 0xb
 2126 0048 3B       		.uleb128 0x3b
 2127 0049 0B       		.uleb128 0xb
 2128 004a 27       		.uleb128 0x27
 2129 004b 0C       		.uleb128 0xc
 2130 004c 11       		.uleb128 0x11
 2131 004d 01       		.uleb128 0x1
 2132 004e 12       		.uleb128 0x12
 2133 004f 01       		.uleb128 0x1
 2134 0050 40       		.uleb128 0x40
 2135 0051 06       		.uleb128 0x6
 2136 0052 9642     		.uleb128 0x2116
 2137 0054 0C       		.uleb128 0xc
ARM GAS  C:\Users\MATSUD~1\AppData\Local\Temp\ccwDh0Hw.s 			page 67


 2138 0055 00       		.byte	0
 2139 0056 00       		.byte	0
 2140 0057 07       		.uleb128 0x7
 2141 0058 2E       		.uleb128 0x2e
 2142 0059 00       		.byte	0
 2143 005a 3F       		.uleb128 0x3f
 2144 005b 0C       		.uleb128 0xc
 2145 005c 03       		.uleb128 0x3
 2146 005d 0E       		.uleb128 0xe
 2147 005e 3A       		.uleb128 0x3a
 2148 005f 0B       		.uleb128 0xb
 2149 0060 3B       		.uleb128 0x3b
 2150 0061 0B       		.uleb128 0xb
 2151 0062 27       		.uleb128 0x27
 2152 0063 0C       		.uleb128 0xc
 2153 0064 11       		.uleb128 0x11
 2154 0065 01       		.uleb128 0x1
 2155 0066 12       		.uleb128 0x12
 2156 0067 01       		.uleb128 0x1
 2157 0068 40       		.uleb128 0x40
 2158 0069 06       		.uleb128 0x6
 2159 006a 9742     		.uleb128 0x2117
 2160 006c 0C       		.uleb128 0xc
 2161 006d 00       		.byte	0
 2162 006e 00       		.byte	0
 2163 006f 08       		.uleb128 0x8
 2164 0070 2E       		.uleb128 0x2e
 2165 0071 01       		.byte	0x1
 2166 0072 3F       		.uleb128 0x3f
 2167 0073 0C       		.uleb128 0xc
 2168 0074 03       		.uleb128 0x3
 2169 0075 0E       		.uleb128 0xe
 2170 0076 3A       		.uleb128 0x3a
 2171 0077 0B       		.uleb128 0xb
 2172 0078 3B       		.uleb128 0x3b
 2173 0079 0B       		.uleb128 0xb
 2174 007a 27       		.uleb128 0x27
 2175 007b 0C       		.uleb128 0xc
 2176 007c 11       		.uleb128 0x11
 2177 007d 01       		.uleb128 0x1
 2178 007e 12       		.uleb128 0x12
 2179 007f 01       		.uleb128 0x1
 2180 0080 40       		.uleb128 0x40
 2181 0081 06       		.uleb128 0x6
 2182 0082 9642     		.uleb128 0x2116
 2183 0084 0C       		.uleb128 0xc
 2184 0085 01       		.uleb128 0x1
 2185 0086 13       		.uleb128 0x13
 2186 0087 00       		.byte	0
 2187 0088 00       		.byte	0
 2188 0089 09       		.uleb128 0x9
 2189 008a 34       		.uleb128 0x34
 2190 008b 00       		.byte	0
 2191 008c 03       		.uleb128 0x3
 2192 008d 0E       		.uleb128 0xe
 2193 008e 3A       		.uleb128 0x3a
 2194 008f 0B       		.uleb128 0xb
ARM GAS  C:\Users\MATSUD~1\AppData\Local\Temp\ccwDh0Hw.s 			page 68


 2195 0090 3B       		.uleb128 0x3b
 2196 0091 0B       		.uleb128 0xb
 2197 0092 49       		.uleb128 0x49
 2198 0093 13       		.uleb128 0x13
 2199 0094 02       		.uleb128 0x2
 2200 0095 0A       		.uleb128 0xa
 2201 0096 00       		.byte	0
 2202 0097 00       		.byte	0
 2203 0098 0A       		.uleb128 0xa
 2204 0099 2E       		.uleb128 0x2e
 2205 009a 00       		.byte	0
 2206 009b 3F       		.uleb128 0x3f
 2207 009c 0C       		.uleb128 0xc
 2208 009d 03       		.uleb128 0x3
 2209 009e 0E       		.uleb128 0xe
 2210 009f 3A       		.uleb128 0x3a
 2211 00a0 0B       		.uleb128 0xb
 2212 00a1 3B       		.uleb128 0x3b
 2213 00a2 05       		.uleb128 0x5
 2214 00a3 27       		.uleb128 0x27
 2215 00a4 0C       		.uleb128 0xc
 2216 00a5 49       		.uleb128 0x49
 2217 00a6 13       		.uleb128 0x13
 2218 00a7 11       		.uleb128 0x11
 2219 00a8 01       		.uleb128 0x1
 2220 00a9 12       		.uleb128 0x12
 2221 00aa 01       		.uleb128 0x1
 2222 00ab 40       		.uleb128 0x40
 2223 00ac 06       		.uleb128 0x6
 2224 00ad 9742     		.uleb128 0x2117
 2225 00af 0C       		.uleb128 0xc
 2226 00b0 00       		.byte	0
 2227 00b1 00       		.byte	0
 2228 00b2 0B       		.uleb128 0xb
 2229 00b3 2E       		.uleb128 0x2e
 2230 00b4 01       		.byte	0x1
 2231 00b5 3F       		.uleb128 0x3f
 2232 00b6 0C       		.uleb128 0xc
 2233 00b7 03       		.uleb128 0x3
 2234 00b8 0E       		.uleb128 0xe
 2235 00b9 3A       		.uleb128 0x3a
 2236 00ba 0B       		.uleb128 0xb
 2237 00bb 3B       		.uleb128 0x3b
 2238 00bc 05       		.uleb128 0x5
 2239 00bd 27       		.uleb128 0x27
 2240 00be 0C       		.uleb128 0xc
 2241 00bf 11       		.uleb128 0x11
 2242 00c0 01       		.uleb128 0x1
 2243 00c1 12       		.uleb128 0x12
 2244 00c2 01       		.uleb128 0x1
 2245 00c3 40       		.uleb128 0x40
 2246 00c4 06       		.uleb128 0x6
 2247 00c5 9742     		.uleb128 0x2117
 2248 00c7 0C       		.uleb128 0xc
 2249 00c8 01       		.uleb128 0x1
 2250 00c9 13       		.uleb128 0x13
 2251 00ca 00       		.byte	0
ARM GAS  C:\Users\MATSUD~1\AppData\Local\Temp\ccwDh0Hw.s 			page 69


 2252 00cb 00       		.byte	0
 2253 00cc 0C       		.uleb128 0xc
 2254 00cd 05       		.uleb128 0x5
 2255 00ce 00       		.byte	0
 2256 00cf 03       		.uleb128 0x3
 2257 00d0 0E       		.uleb128 0xe
 2258 00d1 3A       		.uleb128 0x3a
 2259 00d2 0B       		.uleb128 0xb
 2260 00d3 3B       		.uleb128 0x3b
 2261 00d4 05       		.uleb128 0x5
 2262 00d5 49       		.uleb128 0x49
 2263 00d6 13       		.uleb128 0x13
 2264 00d7 02       		.uleb128 0x2
 2265 00d8 0A       		.uleb128 0xa
 2266 00d9 00       		.byte	0
 2267 00da 00       		.byte	0
 2268 00db 0D       		.uleb128 0xd
 2269 00dc 2E       		.uleb128 0x2e
 2270 00dd 01       		.byte	0x1
 2271 00de 3F       		.uleb128 0x3f
 2272 00df 0C       		.uleb128 0xc
 2273 00e0 03       		.uleb128 0x3
 2274 00e1 0E       		.uleb128 0xe
 2275 00e2 3A       		.uleb128 0x3a
 2276 00e3 0B       		.uleb128 0xb
 2277 00e4 3B       		.uleb128 0x3b
 2278 00e5 05       		.uleb128 0x5
 2279 00e6 27       		.uleb128 0x27
 2280 00e7 0C       		.uleb128 0xc
 2281 00e8 49       		.uleb128 0x49
 2282 00e9 13       		.uleb128 0x13
 2283 00ea 11       		.uleb128 0x11
 2284 00eb 01       		.uleb128 0x1
 2285 00ec 12       		.uleb128 0x12
 2286 00ed 01       		.uleb128 0x1
 2287 00ee 40       		.uleb128 0x40
 2288 00ef 06       		.uleb128 0x6
 2289 00f0 9742     		.uleb128 0x2117
 2290 00f2 0C       		.uleb128 0xc
 2291 00f3 01       		.uleb128 0x1
 2292 00f4 13       		.uleb128 0x13
 2293 00f5 00       		.byte	0
 2294 00f6 00       		.byte	0
 2295 00f7 0E       		.uleb128 0xe
 2296 00f8 34       		.uleb128 0x34
 2297 00f9 00       		.byte	0
 2298 00fa 03       		.uleb128 0x3
 2299 00fb 0E       		.uleb128 0xe
 2300 00fc 3A       		.uleb128 0x3a
 2301 00fd 0B       		.uleb128 0xb
 2302 00fe 3B       		.uleb128 0x3b
 2303 00ff 05       		.uleb128 0x5
 2304 0100 49       		.uleb128 0x49
 2305 0101 13       		.uleb128 0x13
 2306 0102 02       		.uleb128 0x2
 2307 0103 0A       		.uleb128 0xa
 2308 0104 00       		.byte	0
ARM GAS  C:\Users\MATSUD~1\AppData\Local\Temp\ccwDh0Hw.s 			page 70


 2309 0105 00       		.byte	0
 2310 0106 0F       		.uleb128 0xf
 2311 0107 2E       		.uleb128 0x2e
 2312 0108 00       		.byte	0
 2313 0109 3F       		.uleb128 0x3f
 2314 010a 0C       		.uleb128 0xc
 2315 010b 03       		.uleb128 0x3
 2316 010c 0E       		.uleb128 0xe
 2317 010d 3A       		.uleb128 0x3a
 2318 010e 0B       		.uleb128 0xb
 2319 010f 3B       		.uleb128 0x3b
 2320 0110 05       		.uleb128 0x5
 2321 0111 27       		.uleb128 0x27
 2322 0112 0C       		.uleb128 0xc
 2323 0113 49       		.uleb128 0x49
 2324 0114 13       		.uleb128 0x13
 2325 0115 11       		.uleb128 0x11
 2326 0116 01       		.uleb128 0x1
 2327 0117 12       		.uleb128 0x12
 2328 0118 01       		.uleb128 0x1
 2329 0119 40       		.uleb128 0x40
 2330 011a 06       		.uleb128 0x6
 2331 011b 9642     		.uleb128 0x2116
 2332 011d 0C       		.uleb128 0xc
 2333 011e 00       		.byte	0
 2334 011f 00       		.byte	0
 2335 0120 10       		.uleb128 0x10
 2336 0121 2E       		.uleb128 0x2e
 2337 0122 01       		.byte	0x1
 2338 0123 3F       		.uleb128 0x3f
 2339 0124 0C       		.uleb128 0xc
 2340 0125 03       		.uleb128 0x3
 2341 0126 0E       		.uleb128 0xe
 2342 0127 3A       		.uleb128 0x3a
 2343 0128 0B       		.uleb128 0xb
 2344 0129 3B       		.uleb128 0x3b
 2345 012a 05       		.uleb128 0x5
 2346 012b 27       		.uleb128 0x27
 2347 012c 0C       		.uleb128 0xc
 2348 012d 11       		.uleb128 0x11
 2349 012e 01       		.uleb128 0x1
 2350 012f 12       		.uleb128 0x12
 2351 0130 01       		.uleb128 0x1
 2352 0131 40       		.uleb128 0x40
 2353 0132 06       		.uleb128 0x6
 2354 0133 9642     		.uleb128 0x2116
 2355 0135 0C       		.uleb128 0xc
 2356 0136 01       		.uleb128 0x1
 2357 0137 13       		.uleb128 0x13
 2358 0138 00       		.byte	0
 2359 0139 00       		.byte	0
 2360 013a 11       		.uleb128 0x11
 2361 013b 0F       		.uleb128 0xf
 2362 013c 00       		.byte	0
 2363 013d 0B       		.uleb128 0xb
 2364 013e 0B       		.uleb128 0xb
 2365 013f 49       		.uleb128 0x49
ARM GAS  C:\Users\MATSUD~1\AppData\Local\Temp\ccwDh0Hw.s 			page 71


 2366 0140 13       		.uleb128 0x13
 2367 0141 00       		.byte	0
 2368 0142 00       		.byte	0
 2369 0143 12       		.uleb128 0x12
 2370 0144 26       		.uleb128 0x26
 2371 0145 00       		.byte	0
 2372 0146 49       		.uleb128 0x49
 2373 0147 13       		.uleb128 0x13
 2374 0148 00       		.byte	0
 2375 0149 00       		.byte	0
 2376 014a 13       		.uleb128 0x13
 2377 014b 0B       		.uleb128 0xb
 2378 014c 01       		.byte	0x1
 2379 014d 11       		.uleb128 0x11
 2380 014e 01       		.uleb128 0x1
 2381 014f 12       		.uleb128 0x12
 2382 0150 01       		.uleb128 0x1
 2383 0151 00       		.byte	0
 2384 0152 00       		.byte	0
 2385 0153 14       		.uleb128 0x14
 2386 0154 34       		.uleb128 0x34
 2387 0155 00       		.byte	0
 2388 0156 03       		.uleb128 0x3
 2389 0157 0E       		.uleb128 0xe
 2390 0158 3A       		.uleb128 0x3a
 2391 0159 0B       		.uleb128 0xb
 2392 015a 3B       		.uleb128 0x3b
 2393 015b 0B       		.uleb128 0xb
 2394 015c 49       		.uleb128 0x49
 2395 015d 13       		.uleb128 0x13
 2396 015e 3F       		.uleb128 0x3f
 2397 015f 0C       		.uleb128 0xc
 2398 0160 02       		.uleb128 0x2
 2399 0161 0A       		.uleb128 0xa
 2400 0162 00       		.byte	0
 2401 0163 00       		.byte	0
 2402 0164 00       		.byte	0
 2403              		.section	.debug_loc,"",%progbits
 2404              	.Ldebug_loc0:
 2405              	.LLST0:
 2406 0000 00000000 		.4byte	.LFB0
 2407 0004 02000000 		.4byte	.LCFI0
 2408 0008 0200     		.2byte	0x2
 2409 000a 7D       		.byte	0x7d
 2410 000b 00       		.sleb128 0
 2411 000c 02000000 		.4byte	.LCFI0
 2412 0010 04000000 		.4byte	.LCFI1
 2413 0014 0200     		.2byte	0x2
 2414 0016 7D       		.byte	0x7d
 2415 0017 08       		.sleb128 8
 2416 0018 04000000 		.4byte	.LCFI1
 2417 001c 2A000000 		.4byte	.LFE0
 2418 0020 0200     		.2byte	0x2
 2419 0022 77       		.byte	0x77
 2420 0023 08       		.sleb128 8
 2421 0024 00000000 		.4byte	0
 2422 0028 00000000 		.4byte	0
ARM GAS  C:\Users\MATSUD~1\AppData\Local\Temp\ccwDh0Hw.s 			page 72


 2423              	.LLST1:
 2424 002c 00000000 		.4byte	.LFB1
 2425 0030 02000000 		.4byte	.LCFI2
 2426 0034 0200     		.2byte	0x2
 2427 0036 7D       		.byte	0x7d
 2428 0037 00       		.sleb128 0
 2429 0038 02000000 		.4byte	.LCFI2
 2430 003c 04000000 		.4byte	.LCFI3
 2431 0040 0200     		.2byte	0x2
 2432 0042 7D       		.byte	0x7d
 2433 0043 04       		.sleb128 4
 2434 0044 04000000 		.4byte	.LCFI3
 2435 0048 42000000 		.4byte	.LFE1
 2436 004c 0200     		.2byte	0x2
 2437 004e 77       		.byte	0x77
 2438 004f 04       		.sleb128 4
 2439 0050 00000000 		.4byte	0
 2440 0054 00000000 		.4byte	0
 2441              	.LLST2:
 2442 0058 00000000 		.4byte	.LFB2
 2443 005c 02000000 		.4byte	.LCFI4
 2444 0060 0200     		.2byte	0x2
 2445 0062 7D       		.byte	0x7d
 2446 0063 00       		.sleb128 0
 2447 0064 02000000 		.4byte	.LCFI4
 2448 0068 04000000 		.4byte	.LCFI5
 2449 006c 0200     		.2byte	0x2
 2450 006e 7D       		.byte	0x7d
 2451 006f 08       		.sleb128 8
 2452 0070 04000000 		.4byte	.LCFI5
 2453 0074 06000000 		.4byte	.LCFI6
 2454 0078 0200     		.2byte	0x2
 2455 007a 7D       		.byte	0x7d
 2456 007b 10       		.sleb128 16
 2457 007c 06000000 		.4byte	.LCFI6
 2458 0080 8E000000 		.4byte	.LFE2
 2459 0084 0200     		.2byte	0x2
 2460 0086 77       		.byte	0x77
 2461 0087 10       		.sleb128 16
 2462 0088 00000000 		.4byte	0
 2463 008c 00000000 		.4byte	0
 2464              	.LLST3:
 2465 0090 00000000 		.4byte	.LFB3
 2466 0094 02000000 		.4byte	.LCFI7
 2467 0098 0200     		.2byte	0x2
 2468 009a 7D       		.byte	0x7d
 2469 009b 00       		.sleb128 0
 2470 009c 02000000 		.4byte	.LCFI7
 2471 00a0 04000000 		.4byte	.LCFI8
 2472 00a4 0200     		.2byte	0x2
 2473 00a6 7D       		.byte	0x7d
 2474 00a7 08       		.sleb128 8
 2475 00a8 04000000 		.4byte	.LCFI8
 2476 00ac 06000000 		.4byte	.LCFI9
 2477 00b0 0200     		.2byte	0x2
 2478 00b2 7D       		.byte	0x7d
 2479 00b3 10       		.sleb128 16
ARM GAS  C:\Users\MATSUD~1\AppData\Local\Temp\ccwDh0Hw.s 			page 73


 2480 00b4 06000000 		.4byte	.LCFI9
 2481 00b8 8E000000 		.4byte	.LFE3
 2482 00bc 0200     		.2byte	0x2
 2483 00be 77       		.byte	0x77
 2484 00bf 10       		.sleb128 16
 2485 00c0 00000000 		.4byte	0
 2486 00c4 00000000 		.4byte	0
 2487              	.LLST4:
 2488 00c8 00000000 		.4byte	.LFB4
 2489 00cc 02000000 		.4byte	.LCFI10
 2490 00d0 0200     		.2byte	0x2
 2491 00d2 7D       		.byte	0x7d
 2492 00d3 00       		.sleb128 0
 2493 00d4 02000000 		.4byte	.LCFI10
 2494 00d8 04000000 		.4byte	.LCFI11
 2495 00dc 0200     		.2byte	0x2
 2496 00de 7D       		.byte	0x7d
 2497 00df 04       		.sleb128 4
 2498 00e0 04000000 		.4byte	.LCFI11
 2499 00e4 10000000 		.4byte	.LFE4
 2500 00e8 0200     		.2byte	0x2
 2501 00ea 77       		.byte	0x77
 2502 00eb 04       		.sleb128 4
 2503 00ec 00000000 		.4byte	0
 2504 00f0 00000000 		.4byte	0
 2505              	.LLST5:
 2506 00f4 00000000 		.4byte	.LFB5
 2507 00f8 02000000 		.4byte	.LCFI12
 2508 00fc 0200     		.2byte	0x2
 2509 00fe 7D       		.byte	0x7d
 2510 00ff 00       		.sleb128 0
 2511 0100 02000000 		.4byte	.LCFI12
 2512 0104 04000000 		.4byte	.LCFI13
 2513 0108 0200     		.2byte	0x2
 2514 010a 7D       		.byte	0x7d
 2515 010b 04       		.sleb128 4
 2516 010c 04000000 		.4byte	.LCFI13
 2517 0110 06000000 		.4byte	.LCFI14
 2518 0114 0200     		.2byte	0x2
 2519 0116 7D       		.byte	0x7d
 2520 0117 10       		.sleb128 16
 2521 0118 06000000 		.4byte	.LCFI14
 2522 011c 14000000 		.4byte	.LFE5
 2523 0120 0200     		.2byte	0x2
 2524 0122 77       		.byte	0x77
 2525 0123 10       		.sleb128 16
 2526 0124 00000000 		.4byte	0
 2527 0128 00000000 		.4byte	0
 2528              	.LLST6:
 2529 012c 00000000 		.4byte	.LFB6
 2530 0130 02000000 		.4byte	.LCFI15
 2531 0134 0200     		.2byte	0x2
 2532 0136 7D       		.byte	0x7d
 2533 0137 00       		.sleb128 0
 2534 0138 02000000 		.4byte	.LCFI15
 2535 013c 04000000 		.4byte	.LCFI16
 2536 0140 0200     		.2byte	0x2
ARM GAS  C:\Users\MATSUD~1\AppData\Local\Temp\ccwDh0Hw.s 			page 74


 2537 0142 7D       		.byte	0x7d
 2538 0143 04       		.sleb128 4
 2539 0144 04000000 		.4byte	.LCFI16
 2540 0148 06000000 		.4byte	.LCFI17
 2541 014c 0200     		.2byte	0x2
 2542 014e 7D       		.byte	0x7d
 2543 014f 10       		.sleb128 16
 2544 0150 06000000 		.4byte	.LCFI17
 2545 0154 20000000 		.4byte	.LFE6
 2546 0158 0200     		.2byte	0x2
 2547 015a 77       		.byte	0x77
 2548 015b 10       		.sleb128 16
 2549 015c 00000000 		.4byte	0
 2550 0160 00000000 		.4byte	0
 2551              	.LLST7:
 2552 0164 00000000 		.4byte	.LFB7
 2553 0168 02000000 		.4byte	.LCFI18
 2554 016c 0200     		.2byte	0x2
 2555 016e 7D       		.byte	0x7d
 2556 016f 00       		.sleb128 0
 2557 0170 02000000 		.4byte	.LCFI18
 2558 0174 04000000 		.4byte	.LCFI19
 2559 0178 0200     		.2byte	0x2
 2560 017a 7D       		.byte	0x7d
 2561 017b 04       		.sleb128 4
 2562 017c 04000000 		.4byte	.LCFI19
 2563 0180 06000000 		.4byte	.LCFI20
 2564 0184 0200     		.2byte	0x2
 2565 0186 7D       		.byte	0x7d
 2566 0187 10       		.sleb128 16
 2567 0188 06000000 		.4byte	.LCFI20
 2568 018c 20000000 		.4byte	.LFE7
 2569 0190 0200     		.2byte	0x2
 2570 0192 77       		.byte	0x77
 2571 0193 10       		.sleb128 16
 2572 0194 00000000 		.4byte	0
 2573 0198 00000000 		.4byte	0
 2574              	.LLST8:
 2575 019c 00000000 		.4byte	.LFB8
 2576 01a0 02000000 		.4byte	.LCFI21
 2577 01a4 0200     		.2byte	0x2
 2578 01a6 7D       		.byte	0x7d
 2579 01a7 00       		.sleb128 0
 2580 01a8 02000000 		.4byte	.LCFI21
 2581 01ac 04000000 		.4byte	.LCFI22
 2582 01b0 0200     		.2byte	0x2
 2583 01b2 7D       		.byte	0x7d
 2584 01b3 04       		.sleb128 4
 2585 01b4 04000000 		.4byte	.LCFI22
 2586 01b8 06000000 		.4byte	.LCFI23
 2587 01bc 0200     		.2byte	0x2
 2588 01be 7D       		.byte	0x7d
 2589 01bf 10       		.sleb128 16
 2590 01c0 06000000 		.4byte	.LCFI23
 2591 01c4 26000000 		.4byte	.LFE8
 2592 01c8 0200     		.2byte	0x2
 2593 01ca 77       		.byte	0x77
ARM GAS  C:\Users\MATSUD~1\AppData\Local\Temp\ccwDh0Hw.s 			page 75


 2594 01cb 10       		.sleb128 16
 2595 01cc 00000000 		.4byte	0
 2596 01d0 00000000 		.4byte	0
 2597              	.LLST9:
 2598 01d4 00000000 		.4byte	.LFB9
 2599 01d8 02000000 		.4byte	.LCFI24
 2600 01dc 0200     		.2byte	0x2
 2601 01de 7D       		.byte	0x7d
 2602 01df 00       		.sleb128 0
 2603 01e0 02000000 		.4byte	.LCFI24
 2604 01e4 04000000 		.4byte	.LCFI25
 2605 01e8 0200     		.2byte	0x2
 2606 01ea 7D       		.byte	0x7d
 2607 01eb 04       		.sleb128 4
 2608 01ec 04000000 		.4byte	.LCFI25
 2609 01f0 06000000 		.4byte	.LCFI26
 2610 01f4 0200     		.2byte	0x2
 2611 01f6 7D       		.byte	0x7d
 2612 01f7 10       		.sleb128 16
 2613 01f8 06000000 		.4byte	.LCFI26
 2614 01fc 4C000000 		.4byte	.LFE9
 2615 0200 0200     		.2byte	0x2
 2616 0202 77       		.byte	0x77
 2617 0203 10       		.sleb128 16
 2618 0204 00000000 		.4byte	0
 2619 0208 00000000 		.4byte	0
 2620              	.LLST10:
 2621 020c 00000000 		.4byte	.LFB10
 2622 0210 02000000 		.4byte	.LCFI27
 2623 0214 0200     		.2byte	0x2
 2624 0216 7D       		.byte	0x7d
 2625 0217 00       		.sleb128 0
 2626 0218 02000000 		.4byte	.LCFI27
 2627 021c 04000000 		.4byte	.LCFI28
 2628 0220 0200     		.2byte	0x2
 2629 0222 7D       		.byte	0x7d
 2630 0223 10       		.sleb128 16
 2631 0224 04000000 		.4byte	.LCFI28
 2632 0228 22000000 		.4byte	.LFE10
 2633 022c 0200     		.2byte	0x2
 2634 022e 77       		.byte	0x77
 2635 022f 10       		.sleb128 16
 2636 0230 00000000 		.4byte	0
 2637 0234 00000000 		.4byte	0
 2638              	.LLST11:
 2639 0238 00000000 		.4byte	.LFB11
 2640 023c 02000000 		.4byte	.LCFI29
 2641 0240 0200     		.2byte	0x2
 2642 0242 7D       		.byte	0x7d
 2643 0243 00       		.sleb128 0
 2644 0244 02000000 		.4byte	.LCFI29
 2645 0248 04000000 		.4byte	.LCFI30
 2646 024c 0200     		.2byte	0x2
 2647 024e 7D       		.byte	0x7d
 2648 024f 04       		.sleb128 4
 2649 0250 04000000 		.4byte	.LCFI30
 2650 0254 06000000 		.4byte	.LCFI31
ARM GAS  C:\Users\MATSUD~1\AppData\Local\Temp\ccwDh0Hw.s 			page 76


 2651 0258 0200     		.2byte	0x2
 2652 025a 7D       		.byte	0x7d
 2653 025b 10       		.sleb128 16
 2654 025c 06000000 		.4byte	.LCFI31
 2655 0260 34000000 		.4byte	.LFE11
 2656 0264 0200     		.2byte	0x2
 2657 0266 77       		.byte	0x77
 2658 0267 10       		.sleb128 16
 2659 0268 00000000 		.4byte	0
 2660 026c 00000000 		.4byte	0
 2661              	.LLST12:
 2662 0270 00000000 		.4byte	.LFB12
 2663 0274 02000000 		.4byte	.LCFI32
 2664 0278 0200     		.2byte	0x2
 2665 027a 7D       		.byte	0x7d
 2666 027b 00       		.sleb128 0
 2667 027c 02000000 		.4byte	.LCFI32
 2668 0280 04000000 		.4byte	.LCFI33
 2669 0284 0200     		.2byte	0x2
 2670 0286 7D       		.byte	0x7d
 2671 0287 08       		.sleb128 8
 2672 0288 04000000 		.4byte	.LCFI33
 2673 028c 06000000 		.4byte	.LCFI34
 2674 0290 0200     		.2byte	0x2
 2675 0292 7D       		.byte	0x7d
 2676 0293 10       		.sleb128 16
 2677 0294 06000000 		.4byte	.LCFI34
 2678 0298 56000000 		.4byte	.LFE12
 2679 029c 0200     		.2byte	0x2
 2680 029e 77       		.byte	0x77
 2681 029f 10       		.sleb128 16
 2682 02a0 00000000 		.4byte	0
 2683 02a4 00000000 		.4byte	0
 2684              	.LLST13:
 2685 02a8 00000000 		.4byte	.LFB13
 2686 02ac 02000000 		.4byte	.LCFI35
 2687 02b0 0200     		.2byte	0x2
 2688 02b2 7D       		.byte	0x7d
 2689 02b3 00       		.sleb128 0
 2690 02b4 02000000 		.4byte	.LCFI35
 2691 02b8 04000000 		.4byte	.LCFI36
 2692 02bc 0200     		.2byte	0x2
 2693 02be 7D       		.byte	0x7d
 2694 02bf 04       		.sleb128 4
 2695 02c0 04000000 		.4byte	.LCFI36
 2696 02c4 06000000 		.4byte	.LCFI37
 2697 02c8 0200     		.2byte	0x2
 2698 02ca 7D       		.byte	0x7d
 2699 02cb 10       		.sleb128 16
 2700 02cc 06000000 		.4byte	.LCFI37
 2701 02d0 14000000 		.4byte	.LFE13
 2702 02d4 0200     		.2byte	0x2
 2703 02d6 77       		.byte	0x77
 2704 02d7 10       		.sleb128 16
 2705 02d8 00000000 		.4byte	0
 2706 02dc 00000000 		.4byte	0
 2707              	.LLST14:
ARM GAS  C:\Users\MATSUD~1\AppData\Local\Temp\ccwDh0Hw.s 			page 77


 2708 02e0 00000000 		.4byte	.LFB14
 2709 02e4 02000000 		.4byte	.LCFI38
 2710 02e8 0200     		.2byte	0x2
 2711 02ea 7D       		.byte	0x7d
 2712 02eb 00       		.sleb128 0
 2713 02ec 02000000 		.4byte	.LCFI38
 2714 02f0 04000000 		.4byte	.LCFI39
 2715 02f4 0200     		.2byte	0x2
 2716 02f6 7D       		.byte	0x7d
 2717 02f7 04       		.sleb128 4
 2718 02f8 04000000 		.4byte	.LCFI39
 2719 02fc 06000000 		.4byte	.LCFI40
 2720 0300 0200     		.2byte	0x2
 2721 0302 7D       		.byte	0x7d
 2722 0303 10       		.sleb128 16
 2723 0304 06000000 		.4byte	.LCFI40
 2724 0308 20000000 		.4byte	.LFE14
 2725 030c 0200     		.2byte	0x2
 2726 030e 77       		.byte	0x77
 2727 030f 10       		.sleb128 16
 2728 0310 00000000 		.4byte	0
 2729 0314 00000000 		.4byte	0
 2730              	.LLST15:
 2731 0318 00000000 		.4byte	.LFB15
 2732 031c 02000000 		.4byte	.LCFI41
 2733 0320 0200     		.2byte	0x2
 2734 0322 7D       		.byte	0x7d
 2735 0323 00       		.sleb128 0
 2736 0324 02000000 		.4byte	.LCFI41
 2737 0328 04000000 		.4byte	.LCFI42
 2738 032c 0200     		.2byte	0x2
 2739 032e 7D       		.byte	0x7d
 2740 032f 04       		.sleb128 4
 2741 0330 04000000 		.4byte	.LCFI42
 2742 0334 06000000 		.4byte	.LCFI43
 2743 0338 0200     		.2byte	0x2
 2744 033a 7D       		.byte	0x7d
 2745 033b 10       		.sleb128 16
 2746 033c 06000000 		.4byte	.LCFI43
 2747 0340 20000000 		.4byte	.LFE15
 2748 0344 0200     		.2byte	0x2
 2749 0346 77       		.byte	0x77
 2750 0347 10       		.sleb128 16
 2751 0348 00000000 		.4byte	0
 2752 034c 00000000 		.4byte	0
 2753              	.LLST16:
 2754 0350 00000000 		.4byte	.LFB16
 2755 0354 02000000 		.4byte	.LCFI44
 2756 0358 0200     		.2byte	0x2
 2757 035a 7D       		.byte	0x7d
 2758 035b 00       		.sleb128 0
 2759 035c 02000000 		.4byte	.LCFI44
 2760 0360 04000000 		.4byte	.LCFI45
 2761 0364 0200     		.2byte	0x2
 2762 0366 7D       		.byte	0x7d
 2763 0367 04       		.sleb128 4
 2764 0368 04000000 		.4byte	.LCFI45
ARM GAS  C:\Users\MATSUD~1\AppData\Local\Temp\ccwDh0Hw.s 			page 78


 2765 036c 06000000 		.4byte	.LCFI46
 2766 0370 0200     		.2byte	0x2
 2767 0372 7D       		.byte	0x7d
 2768 0373 10       		.sleb128 16
 2769 0374 06000000 		.4byte	.LCFI46
 2770 0378 20000000 		.4byte	.LFE16
 2771 037c 0200     		.2byte	0x2
 2772 037e 77       		.byte	0x77
 2773 037f 10       		.sleb128 16
 2774 0380 00000000 		.4byte	0
 2775 0384 00000000 		.4byte	0
 2776              	.LLST17:
 2777 0388 00000000 		.4byte	.LFB17
 2778 038c 02000000 		.4byte	.LCFI47
 2779 0390 0200     		.2byte	0x2
 2780 0392 7D       		.byte	0x7d
 2781 0393 00       		.sleb128 0
 2782 0394 02000000 		.4byte	.LCFI47
 2783 0398 04000000 		.4byte	.LCFI48
 2784 039c 0200     		.2byte	0x2
 2785 039e 7D       		.byte	0x7d
 2786 039f 04       		.sleb128 4
 2787 03a0 04000000 		.4byte	.LCFI48
 2788 03a4 06000000 		.4byte	.LCFI49
 2789 03a8 0200     		.2byte	0x2
 2790 03aa 7D       		.byte	0x7d
 2791 03ab 10       		.sleb128 16
 2792 03ac 06000000 		.4byte	.LCFI49
 2793 03b0 2E000000 		.4byte	.LFE17
 2794 03b4 0200     		.2byte	0x2
 2795 03b6 77       		.byte	0x77
 2796 03b7 10       		.sleb128 16
 2797 03b8 00000000 		.4byte	0
 2798 03bc 00000000 		.4byte	0
 2799              	.LLST18:
 2800 03c0 00000000 		.4byte	.LFB18
 2801 03c4 02000000 		.4byte	.LCFI50
 2802 03c8 0200     		.2byte	0x2
 2803 03ca 7D       		.byte	0x7d
 2804 03cb 00       		.sleb128 0
 2805 03cc 02000000 		.4byte	.LCFI50
 2806 03d0 04000000 		.4byte	.LCFI51
 2807 03d4 0200     		.2byte	0x2
 2808 03d6 7D       		.byte	0x7d
 2809 03d7 04       		.sleb128 4
 2810 03d8 04000000 		.4byte	.LCFI51
 2811 03dc 18000000 		.4byte	.LFE18
 2812 03e0 0200     		.2byte	0x2
 2813 03e2 77       		.byte	0x77
 2814 03e3 04       		.sleb128 4
 2815 03e4 00000000 		.4byte	0
 2816 03e8 00000000 		.4byte	0
 2817              	.LLST19:
 2818 03ec 00000000 		.4byte	.LFB19
 2819 03f0 02000000 		.4byte	.LCFI52
 2820 03f4 0200     		.2byte	0x2
 2821 03f6 7D       		.byte	0x7d
ARM GAS  C:\Users\MATSUD~1\AppData\Local\Temp\ccwDh0Hw.s 			page 79


 2822 03f7 00       		.sleb128 0
 2823 03f8 02000000 		.4byte	.LCFI52
 2824 03fc 04000000 		.4byte	.LCFI53
 2825 0400 0200     		.2byte	0x2
 2826 0402 7D       		.byte	0x7d
 2827 0403 04       		.sleb128 4
 2828 0404 04000000 		.4byte	.LCFI53
 2829 0408 06000000 		.4byte	.LCFI54
 2830 040c 0200     		.2byte	0x2
 2831 040e 7D       		.byte	0x7d
 2832 040f 10       		.sleb128 16
 2833 0410 06000000 		.4byte	.LCFI54
 2834 0414 36000000 		.4byte	.LFE19
 2835 0418 0200     		.2byte	0x2
 2836 041a 77       		.byte	0x77
 2837 041b 10       		.sleb128 16
 2838 041c 00000000 		.4byte	0
 2839 0420 00000000 		.4byte	0
 2840              	.LLST20:
 2841 0424 00000000 		.4byte	.LFB20
 2842 0428 02000000 		.4byte	.LCFI55
 2843 042c 0200     		.2byte	0x2
 2844 042e 7D       		.byte	0x7d
 2845 042f 00       		.sleb128 0
 2846 0430 02000000 		.4byte	.LCFI55
 2847 0434 04000000 		.4byte	.LCFI56
 2848 0438 0200     		.2byte	0x2
 2849 043a 7D       		.byte	0x7d
 2850 043b 08       		.sleb128 8
 2851 043c 04000000 		.4byte	.LCFI56
 2852 0440 06000000 		.4byte	.LCFI57
 2853 0444 0200     		.2byte	0x2
 2854 0446 7D       		.byte	0x7d
 2855 0447 18       		.sleb128 24
 2856 0448 06000000 		.4byte	.LCFI57
 2857 044c 48000000 		.4byte	.LFE20
 2858 0450 0200     		.2byte	0x2
 2859 0452 77       		.byte	0x77
 2860 0453 18       		.sleb128 24
 2861 0454 00000000 		.4byte	0
 2862 0458 00000000 		.4byte	0
 2863              	.LLST21:
 2864 045c 00000000 		.4byte	.LFB21
 2865 0460 02000000 		.4byte	.LCFI58
 2866 0464 0200     		.2byte	0x2
 2867 0466 7D       		.byte	0x7d
 2868 0467 00       		.sleb128 0
 2869 0468 02000000 		.4byte	.LCFI58
 2870 046c 04000000 		.4byte	.LCFI59
 2871 0470 0200     		.2byte	0x2
 2872 0472 7D       		.byte	0x7d
 2873 0473 08       		.sleb128 8
 2874 0474 04000000 		.4byte	.LCFI59
 2875 0478 06000000 		.4byte	.LCFI60
 2876 047c 0200     		.2byte	0x2
 2877 047e 7D       		.byte	0x7d
 2878 047f 18       		.sleb128 24
ARM GAS  C:\Users\MATSUD~1\AppData\Local\Temp\ccwDh0Hw.s 			page 80


 2879 0480 06000000 		.4byte	.LCFI60
 2880 0484 46000000 		.4byte	.LFE21
 2881 0488 0200     		.2byte	0x2
 2882 048a 77       		.byte	0x77
 2883 048b 18       		.sleb128 24
 2884 048c 00000000 		.4byte	0
 2885 0490 00000000 		.4byte	0
 2886              	.LLST22:
 2887 0494 00000000 		.4byte	.LFB22
 2888 0498 02000000 		.4byte	.LCFI61
 2889 049c 0200     		.2byte	0x2
 2890 049e 7D       		.byte	0x7d
 2891 049f 00       		.sleb128 0
 2892 04a0 02000000 		.4byte	.LCFI61
 2893 04a4 04000000 		.4byte	.LCFI62
 2894 04a8 0200     		.2byte	0x2
 2895 04aa 7D       		.byte	0x7d
 2896 04ab 08       		.sleb128 8
 2897 04ac 04000000 		.4byte	.LCFI62
 2898 04b0 06000000 		.4byte	.LCFI63
 2899 04b4 0200     		.2byte	0x2
 2900 04b6 7D       		.byte	0x7d
 2901 04b7 10       		.sleb128 16
 2902 04b8 06000000 		.4byte	.LCFI63
 2903 04bc 38000000 		.4byte	.LFE22
 2904 04c0 0200     		.2byte	0x2
 2905 04c2 77       		.byte	0x77
 2906 04c3 10       		.sleb128 16
 2907 04c4 00000000 		.4byte	0
 2908 04c8 00000000 		.4byte	0
 2909              	.LLST23:
 2910 04cc 00000000 		.4byte	.LFB23
 2911 04d0 02000000 		.4byte	.LCFI64
 2912 04d4 0200     		.2byte	0x2
 2913 04d6 7D       		.byte	0x7d
 2914 04d7 00       		.sleb128 0
 2915 04d8 02000000 		.4byte	.LCFI64
 2916 04dc 04000000 		.4byte	.LCFI65
 2917 04e0 0200     		.2byte	0x2
 2918 04e2 7D       		.byte	0x7d
 2919 04e3 04       		.sleb128 4
 2920 04e4 04000000 		.4byte	.LCFI65
 2921 04e8 06000000 		.4byte	.LCFI66
 2922 04ec 0200     		.2byte	0x2
 2923 04ee 7D       		.byte	0x7d
 2924 04ef 10       		.sleb128 16
 2925 04f0 06000000 		.4byte	.LCFI66
 2926 04f4 4A000000 		.4byte	.LFE23
 2927 04f8 0200     		.2byte	0x2
 2928 04fa 77       		.byte	0x77
 2929 04fb 10       		.sleb128 16
 2930 04fc 00000000 		.4byte	0
 2931 0500 00000000 		.4byte	0
 2932              	.LLST24:
 2933 0504 00000000 		.4byte	.LFB24
 2934 0508 02000000 		.4byte	.LCFI67
 2935 050c 0200     		.2byte	0x2
ARM GAS  C:\Users\MATSUD~1\AppData\Local\Temp\ccwDh0Hw.s 			page 81


 2936 050e 7D       		.byte	0x7d
 2937 050f 00       		.sleb128 0
 2938 0510 02000000 		.4byte	.LCFI67
 2939 0514 04000000 		.4byte	.LCFI68
 2940 0518 0200     		.2byte	0x2
 2941 051a 7D       		.byte	0x7d
 2942 051b 08       		.sleb128 8
 2943 051c 04000000 		.4byte	.LCFI68
 2944 0520 06000000 		.4byte	.LCFI69
 2945 0524 0200     		.2byte	0x2
 2946 0526 7D       		.byte	0x7d
 2947 0527 10       		.sleb128 16
 2948 0528 06000000 		.4byte	.LCFI69
 2949 052c 56000000 		.4byte	.LFE24
 2950 0530 0200     		.2byte	0x2
 2951 0532 77       		.byte	0x77
 2952 0533 10       		.sleb128 16
 2953 0534 00000000 		.4byte	0
 2954 0538 00000000 		.4byte	0
 2955              	.LLST25:
 2956 053c 00000000 		.4byte	.LFB25
 2957 0540 02000000 		.4byte	.LCFI70
 2958 0544 0200     		.2byte	0x2
 2959 0546 7D       		.byte	0x7d
 2960 0547 00       		.sleb128 0
 2961 0548 02000000 		.4byte	.LCFI70
 2962 054c 04000000 		.4byte	.LCFI71
 2963 0550 0200     		.2byte	0x2
 2964 0552 7D       		.byte	0x7d
 2965 0553 04       		.sleb128 4
 2966 0554 04000000 		.4byte	.LCFI71
 2967 0558 06000000 		.4byte	.LCFI72
 2968 055c 0200     		.2byte	0x2
 2969 055e 7D       		.byte	0x7d
 2970 055f 18       		.sleb128 24
 2971 0560 06000000 		.4byte	.LCFI72
 2972 0564 C4000000 		.4byte	.LFE25
 2973 0568 0200     		.2byte	0x2
 2974 056a 77       		.byte	0x77
 2975 056b 18       		.sleb128 24
 2976 056c 00000000 		.4byte	0
 2977 0570 00000000 		.4byte	0
 2978              	.LLST26:
 2979 0574 00000000 		.4byte	.LFB26
 2980 0578 02000000 		.4byte	.LCFI73
 2981 057c 0200     		.2byte	0x2
 2982 057e 7D       		.byte	0x7d
 2983 057f 00       		.sleb128 0
 2984 0580 02000000 		.4byte	.LCFI73
 2985 0584 04000000 		.4byte	.LCFI74
 2986 0588 0200     		.2byte	0x2
 2987 058a 7D       		.byte	0x7d
 2988 058b 04       		.sleb128 4
 2989 058c 04000000 		.4byte	.LCFI74
 2990 0590 06000000 		.4byte	.LCFI75
 2991 0594 0200     		.2byte	0x2
 2992 0596 7D       		.byte	0x7d
ARM GAS  C:\Users\MATSUD~1\AppData\Local\Temp\ccwDh0Hw.s 			page 82


 2993 0597 10       		.sleb128 16
 2994 0598 06000000 		.4byte	.LCFI75
 2995 059c 14000000 		.4byte	.LFE26
 2996 05a0 0200     		.2byte	0x2
 2997 05a2 77       		.byte	0x77
 2998 05a3 10       		.sleb128 16
 2999 05a4 00000000 		.4byte	0
 3000 05a8 00000000 		.4byte	0
 3001              		.section	.debug_aranges,"",%progbits
 3002 0000 EC000000 		.4byte	0xec
 3003 0004 0200     		.2byte	0x2
 3004 0006 00000000 		.4byte	.Ldebug_info0
 3005 000a 04       		.byte	0x4
 3006 000b 00       		.byte	0
 3007 000c 0000     		.2byte	0
 3008 000e 0000     		.2byte	0
 3009 0010 00000000 		.4byte	.LFB0
 3010 0014 2A000000 		.4byte	.LFE0-.LFB0
 3011 0018 00000000 		.4byte	.LFB1
 3012 001c 42000000 		.4byte	.LFE1-.LFB1
 3013 0020 00000000 		.4byte	.LFB2
 3014 0024 8E000000 		.4byte	.LFE2-.LFB2
 3015 0028 00000000 		.4byte	.LFB3
 3016 002c 8E000000 		.4byte	.LFE3-.LFB3
 3017 0030 00000000 		.4byte	.LFB4
 3018 0034 10000000 		.4byte	.LFE4-.LFB4
 3019 0038 00000000 		.4byte	.LFB5
 3020 003c 14000000 		.4byte	.LFE5-.LFB5
 3021 0040 00000000 		.4byte	.LFB6
 3022 0044 20000000 		.4byte	.LFE6-.LFB6
 3023 0048 00000000 		.4byte	.LFB7
 3024 004c 20000000 		.4byte	.LFE7-.LFB7
 3025 0050 00000000 		.4byte	.LFB8
 3026 0054 26000000 		.4byte	.LFE8-.LFB8
 3027 0058 00000000 		.4byte	.LFB9
 3028 005c 4C000000 		.4byte	.LFE9-.LFB9
 3029 0060 00000000 		.4byte	.LFB10
 3030 0064 22000000 		.4byte	.LFE10-.LFB10
 3031 0068 00000000 		.4byte	.LFB11
 3032 006c 34000000 		.4byte	.LFE11-.LFB11
 3033 0070 00000000 		.4byte	.LFB12
 3034 0074 56000000 		.4byte	.LFE12-.LFB12
 3035 0078 00000000 		.4byte	.LFB13
 3036 007c 14000000 		.4byte	.LFE13-.LFB13
 3037 0080 00000000 		.4byte	.LFB14
 3038 0084 20000000 		.4byte	.LFE14-.LFB14
 3039 0088 00000000 		.4byte	.LFB15
 3040 008c 20000000 		.4byte	.LFE15-.LFB15
 3041 0090 00000000 		.4byte	.LFB16
 3042 0094 20000000 		.4byte	.LFE16-.LFB16
 3043 0098 00000000 		.4byte	.LFB17
 3044 009c 2E000000 		.4byte	.LFE17-.LFB17
 3045 00a0 00000000 		.4byte	.LFB18
 3046 00a4 18000000 		.4byte	.LFE18-.LFB18
 3047 00a8 00000000 		.4byte	.LFB19
 3048 00ac 36000000 		.4byte	.LFE19-.LFB19
 3049 00b0 00000000 		.4byte	.LFB20
ARM GAS  C:\Users\MATSUD~1\AppData\Local\Temp\ccwDh0Hw.s 			page 83


 3050 00b4 48000000 		.4byte	.LFE20-.LFB20
 3051 00b8 00000000 		.4byte	.LFB21
 3052 00bc 46000000 		.4byte	.LFE21-.LFB21
 3053 00c0 00000000 		.4byte	.LFB22
 3054 00c4 38000000 		.4byte	.LFE22-.LFB22
 3055 00c8 00000000 		.4byte	.LFB23
 3056 00cc 4A000000 		.4byte	.LFE23-.LFB23
 3057 00d0 00000000 		.4byte	.LFB24
 3058 00d4 56000000 		.4byte	.LFE24-.LFB24
 3059 00d8 00000000 		.4byte	.LFB25
 3060 00dc C4000000 		.4byte	.LFE25-.LFB25
 3061 00e0 00000000 		.4byte	.LFB26
 3062 00e4 14000000 		.4byte	.LFE26-.LFB26
 3063 00e8 00000000 		.4byte	0
 3064 00ec 00000000 		.4byte	0
 3065              		.section	.debug_ranges,"",%progbits
 3066              	.Ldebug_ranges0:
 3067 0000 00000000 		.4byte	.LFB0
 3068 0004 2A000000 		.4byte	.LFE0
 3069 0008 00000000 		.4byte	.LFB1
 3070 000c 42000000 		.4byte	.LFE1
 3071 0010 00000000 		.4byte	.LFB2
 3072 0014 8E000000 		.4byte	.LFE2
 3073 0018 00000000 		.4byte	.LFB3
 3074 001c 8E000000 		.4byte	.LFE3
 3075 0020 00000000 		.4byte	.LFB4
 3076 0024 10000000 		.4byte	.LFE4
 3077 0028 00000000 		.4byte	.LFB5
 3078 002c 14000000 		.4byte	.LFE5
 3079 0030 00000000 		.4byte	.LFB6
 3080 0034 20000000 		.4byte	.LFE6
 3081 0038 00000000 		.4byte	.LFB7
 3082 003c 20000000 		.4byte	.LFE7
 3083 0040 00000000 		.4byte	.LFB8
 3084 0044 26000000 		.4byte	.LFE8
 3085 0048 00000000 		.4byte	.LFB9
 3086 004c 4C000000 		.4byte	.LFE9
 3087 0050 00000000 		.4byte	.LFB10
 3088 0054 22000000 		.4byte	.LFE10
 3089 0058 00000000 		.4byte	.LFB11
 3090 005c 34000000 		.4byte	.LFE11
 3091 0060 00000000 		.4byte	.LFB12
 3092 0064 56000000 		.4byte	.LFE12
 3093 0068 00000000 		.4byte	.LFB13
 3094 006c 14000000 		.4byte	.LFE13
 3095 0070 00000000 		.4byte	.LFB14
 3096 0074 20000000 		.4byte	.LFE14
 3097 0078 00000000 		.4byte	.LFB15
 3098 007c 20000000 		.4byte	.LFE15
 3099 0080 00000000 		.4byte	.LFB16
 3100 0084 20000000 		.4byte	.LFE16
 3101 0088 00000000 		.4byte	.LFB17
 3102 008c 2E000000 		.4byte	.LFE17
 3103 0090 00000000 		.4byte	.LFB18
 3104 0094 18000000 		.4byte	.LFE18
 3105 0098 00000000 		.4byte	.LFB19
 3106 009c 36000000 		.4byte	.LFE19
ARM GAS  C:\Users\MATSUD~1\AppData\Local\Temp\ccwDh0Hw.s 			page 84


 3107 00a0 00000000 		.4byte	.LFB20
 3108 00a4 48000000 		.4byte	.LFE20
 3109 00a8 00000000 		.4byte	.LFB21
 3110 00ac 46000000 		.4byte	.LFE21
 3111 00b0 00000000 		.4byte	.LFB22
 3112 00b4 38000000 		.4byte	.LFE22
 3113 00b8 00000000 		.4byte	.LFB23
 3114 00bc 4A000000 		.4byte	.LFE23
 3115 00c0 00000000 		.4byte	.LFB24
 3116 00c4 56000000 		.4byte	.LFE24
 3117 00c8 00000000 		.4byte	.LFB25
 3118 00cc C4000000 		.4byte	.LFE25
 3119 00d0 00000000 		.4byte	.LFB26
 3120 00d4 14000000 		.4byte	.LFE26
 3121 00d8 00000000 		.4byte	0
 3122 00dc 00000000 		.4byte	0
 3123              		.section	.debug_line,"",%progbits
 3124              	.Ldebug_line0:
 3125 0000 F0020000 		.section	.debug_str,"MS",%progbits,1
 3125      02004900 
 3125      00000201 
 3125      FB0E0D00 
 3125      01010101 
 3126              	.LASF34:
 3127 0000 4C494E5F 		.ascii	"LIN_1_UART_GetRxBufferSize\000"
 3127      315F5541 
 3127      52545F47 
 3127      65745278 
 3127      42756666 
 3128              	.LASF10:
 3129 001b 75696E74 		.ascii	"uint16\000"
 3129      313600
 3130              	.LASF44:
 3131 0022 74784461 		.ascii	"txDataByte\000"
 3131      74614279 
 3131      746500
 3132              	.LASF27:
 3133 002d 4C494E5F 		.ascii	"LIN_1_UART_ReadRxData\000"
 3133      315F5541 
 3133      52545F52 
 3133      65616452 
 3133      78446174 
 3134              	.LASF46:
 3135 0043 4C494E5F 		.ascii	"LIN_1_UART_PutChar\000"
 3135      315F5541 
 3135      52545F50 
 3135      75744368 
 3135      617200
 3136              	.LASF48:
 3137 0056 73747269 		.ascii	"string\000"
 3137      6E6700
 3138              	.LASF7:
 3139 005d 6C6F6E67 		.ascii	"long long unsigned int\000"
 3139      206C6F6E 
 3139      6720756E 
 3139      7369676E 
 3139      65642069 
ARM GAS  C:\Users\MATSUD~1\AppData\Local\Temp\ccwDh0Hw.s 			page 85


 3140              	.LASF54:
 3141 0074 4C494E5F 		.ascii	"LIN_1_UART_ClearTxBuffer\000"
 3141      315F5541 
 3141      52545F43 
 3141      6C656172 
 3141      54784275 
 3142              	.LASF6:
 3143 008d 6C6F6E67 		.ascii	"long long int\000"
 3143      206C6F6E 
 3143      6720696E 
 3143      7400
 3144              	.LASF0:
 3145 009b 7369676E 		.ascii	"signed char\000"
 3145      65642063 
 3145      68617200 
 3146              	.LASF52:
 3147 00a7 4C494E5F 		.ascii	"LIN_1_UART_PutCRLF\000"
 3147      315F5541 
 3147      52545F50 
 3147      75744352 
 3147      4C4600
 3148              	.LASF4:
 3149 00ba 6C6F6E67 		.ascii	"long int\000"
 3149      20696E74 
 3149      00
 3150              	.LASF9:
 3151 00c3 75696E74 		.ascii	"uint8\000"
 3151      3800
 3152              	.LASF12:
 3153 00c9 646F7562 		.ascii	"double\000"
 3153      6C6500
 3154              	.LASF38:
 3155 00d0 61646472 		.ascii	"addressMode\000"
 3155      6573734D 
 3155      6F646500 
 3156              	.LASF24:
 3157 00dc 636F6E74 		.ascii	"control\000"
 3157      726F6C00 
 3158              	.LASF56:
 3159 00e4 7265744D 		.ascii	"retMode\000"
 3159      6F646500 
 3160              	.LASF8:
 3161 00ec 756E7369 		.ascii	"unsigned int\000"
 3161      676E6564 
 3161      20696E74 
 3161      00
 3162              	.LASF5:
 3163 00f9 6C6F6E67 		.ascii	"long unsigned int\000"
 3163      20756E73 
 3163      69676E65 
 3163      6420696E 
 3163      7400
 3164              	.LASF47:
 3165 010b 4C494E5F 		.ascii	"LIN_1_UART_PutString\000"
 3165      315F5541 
 3165      52545F50 
 3165      75745374 
ARM GAS  C:\Users\MATSUD~1\AppData\Local\Temp\ccwDh0Hw.s 			page 86


 3165      72696E67 
 3166              	.LASF20:
 3167 0120 4C494E5F 		.ascii	"LIN_1_UART_Stop\000"
 3167      315F5541 
 3167      52545F53 
 3167      746F7000 
 3168              	.LASF45:
 3169 0130 4C494E5F 		.ascii	"LIN_1_UART_ReadTxStatus\000"
 3169      315F5541 
 3169      52545F52 
 3169      65616454 
 3169      78537461 
 3170              	.LASF32:
 3171 0148 4C494E5F 		.ascii	"LIN_1_UART_ReadControlRegister\000"
 3171      315F5541 
 3171      52545F52 
 3171      65616443 
 3171      6F6E7472 
 3172              	.LASF35:
 3173 0167 73697A65 		.ascii	"size\000"
 3173      00
 3174              	.LASF3:
 3175 016c 73686F72 		.ascii	"short unsigned int\000"
 3175      7420756E 
 3175      7369676E 
 3175      65642069 
 3175      6E7400
 3176              	.LASF58:
 3177 017f 74785F70 		.ascii	"tx_period\000"
 3177      6572696F 
 3177      6400
 3178              	.LASF25:
 3179 0189 696E7453 		.ascii	"intSrc\000"
 3179      726300
 3180              	.LASF43:
 3181 0190 4C494E5F 		.ascii	"LIN_1_UART_WriteTxData\000"
 3181      315F5541 
 3181      52545F57 
 3181      72697465 
 3181      54784461 
 3182              	.LASF33:
 3183 01a7 4C494E5F 		.ascii	"LIN_1_UART_GetByte\000"
 3183      315F5541 
 3183      52545F47 
 3183      65744279 
 3183      746500
 3184              	.LASF57:
 3185 01ba 746D7053 		.ascii	"tmpStat\000"
 3185      74617400 
 3186              	.LASF22:
 3187 01c2 4C494E5F 		.ascii	"LIN_1_UART_WriteControlRegister\000"
 3187      315F5541 
 3187      52545F57 
 3187      72697465 
 3187      436F6E74 
 3188              	.LASF16:
 3189 01e2 73697A65 		.ascii	"sizetype\000"
ARM GAS  C:\Users\MATSUD~1\AppData\Local\Temp\ccwDh0Hw.s 			page 87


 3189      74797065 
 3189      00
 3190              	.LASF40:
 3191 01eb 61646472 		.ascii	"address\000"
 3191      65737300 
 3192              	.LASF39:
 3193 01f3 4C494E5F 		.ascii	"LIN_1_UART_SetRxAddress1\000"
 3193      315F5541 
 3193      52545F53 
 3193      65745278 
 3193      41646472 
 3194              	.LASF41:
 3195 020c 4C494E5F 		.ascii	"LIN_1_UART_SetRxAddress2\000"
 3195      315F5541 
 3195      52545F53 
 3195      65745278 
 3195      41646472 
 3196              	.LASF31:
 3197 0225 72785374 		.ascii	"rxStatus\000"
 3197      61747573 
 3197      00
 3198              	.LASF11:
 3199 022e 666C6F61 		.ascii	"float\000"
 3199      7400
 3200              	.LASF50:
 3201 0234 4C494E5F 		.ascii	"LIN_1_UART_PutArray\000"
 3201      315F5541 
 3201      52545F50 
 3201      75744172 
 3201      72617900 
 3202              	.LASF23:
 3203 0248 4C494E5F 		.ascii	"LIN_1_UART_SetRxInterruptMode\000"
 3203      315F5541 
 3203      52545F53 
 3203      65745278 
 3203      496E7465 
 3204              	.LASF19:
 3205 0266 4C494E5F 		.ascii	"LIN_1_UART_Enable\000"
 3205      315F5541 
 3205      52545F45 
 3205      6E61626C 
 3205      6500
 3206              	.LASF36:
 3207 0278 4C494E5F 		.ascii	"LIN_1_UART_ClearRxBuffer\000"
 3207      315F5541 
 3207      52545F43 
 3207      6C656172 
 3207      52784275 
 3208              	.LASF60:
 3209 0291 474E5520 		.ascii	"GNU C 4.7.3 20130312 (release) [ARM/embedded-4_7-br"
 3209      4320342E 
 3209      372E3320 
 3209      32303133 
 3209      30333132 
 3210 02c4 616E6368 		.ascii	"anch revision 196615]\000"
 3210      20726576 
 3210      6973696F 
ARM GAS  C:\Users\MATSUD~1\AppData\Local\Temp\ccwDh0Hw.s 			page 88


 3210      6E203139 
 3210      36363135 
 3211              	.LASF15:
 3212 02da 72656738 		.ascii	"reg8\000"
 3212      00
 3213              	.LASF1:
 3214 02df 756E7369 		.ascii	"unsigned char\000"
 3214      676E6564 
 3214      20636861 
 3214      7200
 3215              	.LASF59:
 3216 02ed 4C494E5F 		.ascii	"LIN_1_UART_SetTxAddressMode\000"
 3216      315F5541 
 3216      52545F53 
 3216      65745478 
 3216      41646472 
 3217              	.LASF17:
 3218 0309 4C494E5F 		.ascii	"LIN_1_UART_Start\000"
 3218      315F5541 
 3218      52545F53 
 3218      74617274 
 3218      00
 3219              	.LASF2:
 3220 031a 73686F72 		.ascii	"short int\000"
 3220      7420696E 
 3220      7400
 3221              	.LASF51:
 3222 0324 62797465 		.ascii	"byteCount\000"
 3222      436F756E 
 3222      7400
 3223              	.LASF63:
 3224 032e 4C494E5F 		.ascii	"LIN_1_UART_initVar\000"
 3224      315F5541 
 3224      52545F69 
 3224      6E697456 
 3224      617200
 3225              	.LASF26:
 3226 0341 72784461 		.ascii	"rxData\000"
 3226      746100
 3227              	.LASF53:
 3228 0348 4C494E5F 		.ascii	"LIN_1_UART_GetTxBufferSize\000"
 3228      315F5541 
 3228      52545F47 
 3228      65745478 
 3228      42756666 
 3229              	.LASF14:
 3230 0363 63686172 		.ascii	"char\000"
 3230      00
 3231              	.LASF42:
 3232 0368 4C494E5F 		.ascii	"LIN_1_UART_SetTxInterruptMode\000"
 3232      315F5541 
 3232      52545F53 
 3232      65745478 
 3232      496E7465 
 3233              	.LASF13:
 3234 0386 63686172 		.ascii	"char8\000"
 3234      3800
ARM GAS  C:\Users\MATSUD~1\AppData\Local\Temp\ccwDh0Hw.s 			page 89


 3235              	.LASF55:
 3236 038c 4C494E5F 		.ascii	"LIN_1_UART_SendBreak\000"
 3236      315F5541 
 3236      52545F53 
 3236      656E6442 
 3236      7265616B 
 3237              	.LASF37:
 3238 03a1 4C494E5F 		.ascii	"LIN_1_UART_SetRxAddressMode\000"
 3238      315F5541 
 3238      52545F53 
 3238      65745278 
 3238      41646472 
 3239              	.LASF21:
 3240 03bd 656E6162 		.ascii	"enableInterrupts\000"
 3240      6C65496E 
 3240      74657272 
 3240      75707473 
 3240      00
 3241              	.LASF61:
 3242 03ce 2E5C4765 		.ascii	".\\Generated_Source\\PSoC5\\LIN_1_UART.c\000"
 3242      6E657261 
 3242      7465645F 
 3242      536F7572 
 3242      63655C50 
 3243              	.LASF29:
 3244 03f4 73746174 		.ascii	"status\000"
 3244      757300
 3245              	.LASF18:
 3246 03fb 4C494E5F 		.ascii	"LIN_1_UART_Init\000"
 3246      315F5541 
 3246      52545F49 
 3246      6E697400 
 3247              	.LASF30:
 3248 040b 4C494E5F 		.ascii	"LIN_1_UART_GetChar\000"
 3248      315F5541 
 3248      52545F47 
 3248      65744368 
 3248      617200
 3249              	.LASF62:
 3250 041e 433A5C55 		.ascii	"C:\\Users\\matsuda_kazuaki\\Documents\\PSoC Creator"
 3250      73657273 
 3250      5C6D6174 
 3250      73756461 
 3250      5F6B617A 
 3251 044d 5C726F62 		.ascii	"\\roboconn_MT_arm\\roboconn_MT_arm.cydsn\000"
 3251      6F636F6E 
 3251      6E5F4D54 
 3251      5F61726D 
 3251      5C726F62 
 3252              	.LASF49:
 3253 0474 6275665F 		.ascii	"buf_index\000"
 3253      696E6465 
 3253      7800
 3254              	.LASF28:
 3255 047e 4C494E5F 		.ascii	"LIN_1_UART_ReadRxStatus\000"
 3255      315F5541 
 3255      52545F52 
ARM GAS  C:\Users\MATSUD~1\AppData\Local\Temp\ccwDh0Hw.s 			page 90


 3255      65616452 
 3255      78537461 
 3256              		.ident	"GCC: (GNU Tools for ARM Embedded Processors) 4.7.3 20130312 (release) [ARM/embedded-4_7-br
