ARM GAS  C:\Users\MATSUD~1\AppData\Local\Temp\ccLjdAaK.s 			page 1


   1              		.syntax unified
   2              		.cpu cortex-m3
   3              		.fpu softvfp
   4              		.eabi_attribute 20, 1
   5              		.eabi_attribute 21, 1
   6              		.eabi_attribute 23, 3
   7              		.eabi_attribute 24, 1
   8              		.eabi_attribute 25, 1
   9              		.eabi_attribute 26, 1
  10              		.eabi_attribute 30, 6
  11              		.eabi_attribute 34, 1
  12              		.eabi_attribute 18, 4
  13              		.thumb
  14              		.file	"LIN_1.c"
  15              		.text
  16              	.Ltext0:
  17              		.cfi_sections	.debug_frame
  18              		.bss
  19              	LIN_1_periodCounter:
  20 0000 00       		.space	1
  21              	LIN_1_status:
  22 0001 00       		.space	1
  23              	LIN_1_syncCounts:
  24 0002 00       		.space	1
  25              	LIN_1_auxStatus:
  26 0003 00       		.space	1
  27              		.align	1
  28              	LIN_1_ioctlStatus:
  29 0004 0000     		.space	2
  30              		.align	1
  31              	LIN_1_ifcStatus:
  32 0006 0000     		.space	2
  33              	LIN_1_uartFsmState:
  34 0008 00       		.space	1
  35              	LIN_1_fsmFlags:
  36 0009 00       		.space	1
  37              		.align	1
  38              	LIN_1_initialClockDivider:
  39 000a 0000     		.space	2
  40              		.align	2
  41              	LIN_1_statusFlagArray:
  42 000c 0000     		.space	2
  43 000e 0000     		.align	2
  44              	LIN_1_volatileConfig:
  45 0010 0000     		.space	2
  46              		.section	.rodata
  47              		.align	2
  48              		.type	LIN_1_LinSlaveConfig, %object
  49              		.size	LIN_1_LinSlaveConfig, 2
  50              	LIN_1_LinSlaveConfig:
  51 0000 C1       		.byte	-63
  52 0001 03       		.byte	3
  53              		.data
  54              		.align	2
  55              		.type	LIN_1_Buffer_Frame1, %object
  56              		.size	LIN_1_Buffer_Frame1, 1
  57              	LIN_1_Buffer_Frame1:
ARM GAS  C:\Users\MATSUD~1\AppData\Local\Temp\ccLjdAaK.s 			page 2


  58 0000 FB       		.byte	-5
  59 0001 000000   		.align	2
  60              		.type	LIN_1_Buffer_Frame2, %object
  61              		.size	LIN_1_Buffer_Frame2, 1
  62              	LIN_1_Buffer_Frame2:
  63 0004 3F       		.byte	63
  64 0005 000000   		.section	.text.LIN_1_Start,"ax",%progbits
  65              		.align	2
  66              		.global	LIN_1_Start
  67              		.thumb
  68              		.thumb_func
  69              		.type	LIN_1_Start, %function
  70              	LIN_1_Start:
  71              	.LFB0:
  72              		.file 1 ".\\Generated_Source\\PSoC5\\LIN_1.c"
   1:.\Generated_Source\PSoC5/LIN_1.c **** /*******************************************************************************
   2:.\Generated_Source\PSoC5/LIN_1.c **** * File Name: LIN_1.c
   3:.\Generated_Source\PSoC5/LIN_1.c **** * Version 1.30
   4:.\Generated_Source\PSoC5/LIN_1.c **** *
   5:.\Generated_Source\PSoC5/LIN_1.c **** * Description:
   6:.\Generated_Source\PSoC5/LIN_1.c **** *  This file contains implementation of LIN Slave component.
   7:.\Generated_Source\PSoC5/LIN_1.c **** *
   8:.\Generated_Source\PSoC5/LIN_1.c **** ********************************************************************************
   9:.\Generated_Source\PSoC5/LIN_1.c **** * Copyright 2011-2013, Cypress Semiconductor Corporation.  All rights reserved.
  10:.\Generated_Source\PSoC5/LIN_1.c **** * You may use this file only in accordance with the license, terms, conditions,
  11:.\Generated_Source\PSoC5/LIN_1.c **** * disclaimers, and limitations in the end user license agreement accompanying
  12:.\Generated_Source\PSoC5/LIN_1.c **** * the software package with which this file was provided.
  13:.\Generated_Source\PSoC5/LIN_1.c **** *******************************************************************************/
  14:.\Generated_Source\PSoC5/LIN_1.c **** 
  15:.\Generated_Source\PSoC5/LIN_1.c **** #include "LIN_1.h"
  16:.\Generated_Source\PSoC5/LIN_1.c **** 
  17:.\Generated_Source\PSoC5/LIN_1.c **** 
  18:.\Generated_Source\PSoC5/LIN_1.c **** /*******************************************************************************
  19:.\Generated_Source\PSoC5/LIN_1.c **** *  Place your includes, defines and variable declarations here
  20:.\Generated_Source\PSoC5/LIN_1.c **** *******************************************************************************/
  21:.\Generated_Source\PSoC5/LIN_1.c **** /* `#START LIN_1_DECLARATIONS` */
  22:.\Generated_Source\PSoC5/LIN_1.c **** 
  23:.\Generated_Source\PSoC5/LIN_1.c **** /* `#END` */
  24:.\Generated_Source\PSoC5/LIN_1.c **** 
  25:.\Generated_Source\PSoC5/LIN_1.c **** /* Internal APIs */
  26:.\Generated_Source\PSoC5/LIN_1.c **** static l_u8    LIN_1_FindPidIndex(l_u8 pid);
  27:.\Generated_Source\PSoC5/LIN_1.c **** static void    LIN_1_EndFrame(l_u8 status);
  28:.\Generated_Source\PSoC5/LIN_1.c **** static void    LIN_1_SetAssociatedFlags(l_u8 pIndex);
  29:.\Generated_Source\PSoC5/LIN_1.c **** 
  30:.\Generated_Source\PSoC5/LIN_1.c **** /* SAE J2602 is disabled */
  31:.\Generated_Source\PSoC5/LIN_1.c **** #if(0u == LIN_1_SAE_J2602)
  32:.\Generated_Source\PSoC5/LIN_1.c **** 
  33:.\Generated_Source\PSoC5/LIN_1.c ****     static l_bool  LIN_1_GetEtFlagValue(l_u8 pidIndex);
  34:.\Generated_Source\PSoC5/LIN_1.c ****     static void    LIN_1_ClearEtFlagValue(l_u8 pidIndex);
  35:.\Generated_Source\PSoC5/LIN_1.c **** 
  36:.\Generated_Source\PSoC5/LIN_1.c **** #endif /* (0u == LIN_1_SAE_J2602) */
  37:.\Generated_Source\PSoC5/LIN_1.c **** 
  38:.\Generated_Source\PSoC5/LIN_1.c **** #if(1u == LIN_1_TL_ENABLED)
  39:.\Generated_Source\PSoC5/LIN_1.c **** 
  40:.\Generated_Source\PSoC5/LIN_1.c ****     static void LIN_1_ProcessMrf(l_u8 frame[]);
  41:.\Generated_Source\PSoC5/LIN_1.c **** 
  42:.\Generated_Source\PSoC5/LIN_1.c ****     #if(1u == LIN_1_CS_ENABLED)
ARM GAS  C:\Users\MATSUD~1\AppData\Local\Temp\ccLjdAaK.s 			page 3


  43:.\Generated_Source\PSoC5/LIN_1.c ****     
  44:.\Generated_Source\PSoC5/LIN_1.c ****         #if((0u != (LIN_1_CS_SEL_SERVICES01 & LIN_1_NCS_0xB0_SEL)) || \
  45:.\Generated_Source\PSoC5/LIN_1.c ****             (0u != (LIN_1_CS_SEL_SERVICES01 & LIN_1_NCS_0xB2_SEL)))
  46:.\Generated_Source\PSoC5/LIN_1.c **** 
  47:.\Generated_Source\PSoC5/LIN_1.c ****             static l_bool LIN_1_LinProductId(volatile const l_u8 frameData[]);
  48:.\Generated_Source\PSoC5/LIN_1.c ****             
  49:.\Generated_Source\PSoC5/LIN_1.c ****         #endif /*((0u != (LIN_1_CS_SEL_SERVICES01 & LIN_1_NCS_0xB0_SEL)) || \
  50:.\Generated_Source\PSoC5/LIN_1.c ****                * (0u != (LIN_1_CS_SEL_SERVICES01 & LIN_1_NCS_0xB2_SEL)))
  51:.\Generated_Source\PSoC5/LIN_1.c ****                */
  52:.\Generated_Source\PSoC5/LIN_1.c ****                
  53:.\Generated_Source\PSoC5/LIN_1.c ****         #if(0u != (LIN_1_CS_SEL_SERVICES01 & LIN_1_NCS_0xB1_SEL))
  54:.\Generated_Source\PSoC5/LIN_1.c ****             #if(1u == LIN_1_LIN_2_0)
  55:.\Generated_Source\PSoC5/LIN_1.c **** 
  56:.\Generated_Source\PSoC5/LIN_1.c ****                 static l_u8 LIN_1_MessageId(volatile const l_u8* frameData);
  57:.\Generated_Source\PSoC5/LIN_1.c **** 
  58:.\Generated_Source\PSoC5/LIN_1.c ****             #endif /* (1u == LIN_1_LIN_2_0) */
  59:.\Generated_Source\PSoC5/LIN_1.c ****         #endif /* (0u != (LIN_1_CS_SEL_SERVICES01 & LIN_1_NCS_0xB1_SEL)) */
  60:.\Generated_Source\PSoC5/LIN_1.c **** 
  61:.\Generated_Source\PSoC5/LIN_1.c ****     #endif /* (1u == LIN_1_CS_ENABLED) */
  62:.\Generated_Source\PSoC5/LIN_1.c **** 
  63:.\Generated_Source\PSoC5/LIN_1.c ****     /* RAM copy of the slave NAD */
  64:.\Generated_Source\PSoC5/LIN_1.c ****     static volatile l_u8 LIN_1_nad;
  65:.\Generated_Source\PSoC5/LIN_1.c **** 
  66:.\Generated_Source\PSoC5/LIN_1.c **** #endif /* (1u == LIN_1_TL_ENABLED) */
  67:.\Generated_Source\PSoC5/LIN_1.c **** 
  68:.\Generated_Source\PSoC5/LIN_1.c **** #if(1u == LIN_1_TL_ENABLED)
  69:.\Generated_Source\PSoC5/LIN_1.c **** 
  70:.\Generated_Source\PSoC5/LIN_1.c ****     #if(1u == LIN_1_LIN_2_0)
  71:.\Generated_Source\PSoC5/LIN_1.c ****         #if(0u != (LIN_1_CS_SEL_SERVICES01 & (LIN_1_NCS_0xB2_SEL | \
  72:.\Generated_Source\PSoC5/LIN_1.c ****                 LIN_1_NCS_0xB1_SEL)))
  73:.\Generated_Source\PSoC5/LIN_1.c **** 
  74:.\Generated_Source\PSoC5/LIN_1.c ****         
  75:.\Generated_Source\PSoC5/LIN_1.c **** 
  76:.\Generated_Source\PSoC5/LIN_1.c ****         #endif /* (0u != (LIN_1_CS_SEL_SERVICES01 & (LIN_1_NCS_0xB2_SEL |
  77:.\Generated_Source\PSoC5/LIN_1.c ****                * LIN_1_NCS_0xB1_SEL)))
  78:.\Generated_Source\PSoC5/LIN_1.c ****                */
  79:.\Generated_Source\PSoC5/LIN_1.c **** 
  80:.\Generated_Source\PSoC5/LIN_1.c ****     #endif /* (1u == LIN_1_LIN_2_0) */
  81:.\Generated_Source\PSoC5/LIN_1.c **** 
  82:.\Generated_Source\PSoC5/LIN_1.c **** #endif /* (1u == LIN_1_TL_ENABLED) */
  83:.\Generated_Source\PSoC5/LIN_1.c **** 
  84:.\Generated_Source\PSoC5/LIN_1.c **** #if(1u == LIN_1_INACTIVITY_ENABLED)
  85:.\Generated_Source\PSoC5/LIN_1.c **** 
  86:.\Generated_Source\PSoC5/LIN_1.c ****     /* Free-running timer */
  87:.\Generated_Source\PSoC5/LIN_1.c ****     static l_u8    LIN_1_periodCounter;
  88:.\Generated_Source\PSoC5/LIN_1.c **** 
  89:.\Generated_Source\PSoC5/LIN_1.c **** #endif /* (1u == LIN_1_INACTIVITY_ENABLED) */
  90:.\Generated_Source\PSoC5/LIN_1.c **** 
  91:.\Generated_Source\PSoC5/LIN_1.c **** static volatile l_u8  LIN_1_status;       /* Internal Status                  */
  92:.\Generated_Source\PSoC5/LIN_1.c **** static volatile l_u8  LIN_1_syncCounts;   /* Sync Field Timer Counts          */
  93:.\Generated_Source\PSoC5/LIN_1.c **** static volatile l_u8  LIN_1_auxStatus;    /* Internal AUX ISR shadow status   */
  94:.\Generated_Source\PSoC5/LIN_1.c **** static volatile l_u16 LIN_1_ioctlStatus;  /* Status used by l_ifc_ioctl()     */
  95:.\Generated_Source\PSoC5/LIN_1.c **** static volatile l_u16 LIN_1_ifcStatus;    /* Interface communication status   */
  96:.\Generated_Source\PSoC5/LIN_1.c **** static volatile l_u8  LIN_1_uartFsmState; /* Current state of the UART ISR    */
  97:.\Generated_Source\PSoC5/LIN_1.c **** static volatile l_u8  LIN_1_fsmFlags;
  98:.\Generated_Source\PSoC5/LIN_1.c **** 
  99:.\Generated_Source\PSoC5/LIN_1.c **** #if(1u == LIN_1_AUTO_BAUD_RATE_SYNC)
ARM GAS  C:\Users\MATSUD~1\AppData\Local\Temp\ccLjdAaK.s 			page 4


 100:.\Generated_Source\PSoC5/LIN_1.c **** 
 101:.\Generated_Source\PSoC5/LIN_1.c ****     /* Initial clock divider */
 102:.\Generated_Source\PSoC5/LIN_1.c ****     static l_u16   LIN_1_initialClockDivider;
 103:.\Generated_Source\PSoC5/LIN_1.c **** 
 104:.\Generated_Source\PSoC5/LIN_1.c **** #endif  /* (1u == LIN_1_AUTO_BAUD_RATE_SYNC) */
 105:.\Generated_Source\PSoC5/LIN_1.c **** 
 106:.\Generated_Source\PSoC5/LIN_1.c **** #if(1u == LIN_1_SAE_J2602)
 107:.\Generated_Source\PSoC5/LIN_1.c **** 
 108:.\Generated_Source\PSoC5/LIN_1.c ****     /* J2602 status variable */
 109:.\Generated_Source\PSoC5/LIN_1.c ****     static l_u8 LIN_1_j2602Status;
 110:.\Generated_Source\PSoC5/LIN_1.c **** 
 111:.\Generated_Source\PSoC5/LIN_1.c **** #endif  /* (1u == LIN_1_SAE_J2602) */
 112:.\Generated_Source\PSoC5/LIN_1.c **** 
 113:.\Generated_Source\PSoC5/LIN_1.c **** /* Notification API statuses */
 114:.\Generated_Source\PSoC5/LIN_1.c **** static l_u8 LIN_1_statusFlagArray[LIN_1_SIG_FRAME_FLAGS_SIZE];
 115:.\Generated_Source\PSoC5/LIN_1.c **** 
 116:.\Generated_Source\PSoC5/LIN_1.c **** /* SAE J2602 is disabled */
 117:.\Generated_Source\PSoC5/LIN_1.c **** #if(0u == LIN_1_SAE_J2602)
 118:.\Generated_Source\PSoC5/LIN_1.c **** 
 119:.\Generated_Source\PSoC5/LIN_1.c ****     #if (0u != LIN_1_NUM_ET_FRAMES)
 120:.\Generated_Source\PSoC5/LIN_1.c ****         static l_u8 LIN_1_etFrameFlags[LIN_1_ET_FRAMES_FLAGS_SIZE];
 121:.\Generated_Source\PSoC5/LIN_1.c ****     #endif /* (0u != LIN_1_NUM_ET_FRAMES) */
 122:.\Generated_Source\PSoC5/LIN_1.c **** 
 123:.\Generated_Source\PSoC5/LIN_1.c **** #endif /* (0u == LIN_1_SAE_J2602) */
 124:.\Generated_Source\PSoC5/LIN_1.c **** 
 125:.\Generated_Source\PSoC5/LIN_1.c **** /* RAM copy of the slave configuration data */
 126:.\Generated_Source\PSoC5/LIN_1.c **** static volatile l_u8 LIN_1_volatileConfig[LIN_1_NUM_FRAMES];
 127:.\Generated_Source\PSoC5/LIN_1.c **** 
 128:.\Generated_Source\PSoC5/LIN_1.c **** 
 129:.\Generated_Source\PSoC5/LIN_1.c **** /****************************************************
 130:.\Generated_Source\PSoC5/LIN_1.c **** *   Transport Layer API
 131:.\Generated_Source\PSoC5/LIN_1.c **** *****************************************************/
 132:.\Generated_Source\PSoC5/LIN_1.c **** #if(1u == LIN_1_TL_ENABLED)
 133:.\Generated_Source\PSoC5/LIN_1.c **** 
 134:.\Generated_Source\PSoC5/LIN_1.c ****     #if(1u == LIN_1_CS_ENABLED)
 135:.\Generated_Source\PSoC5/LIN_1.c ****         
 136:.\Generated_Source\PSoC5/LIN_1.c ****         #if(0u != (LIN_1_CS_SEL_SERVICES01 & (LIN_1_NCS_0xB0_SEL | LIN_1_NCS_0xB1_SEL \
 137:.\Generated_Source\PSoC5/LIN_1.c ****                     | LIN_1_NCS_0xB2_SEL | LIN_1_NCS_0xB3_SEL)))
 138:.\Generated_Source\PSoC5/LIN_1.c ****         
 139:.\Generated_Source\PSoC5/LIN_1.c ****             /* LIN Slave Identification */
 140:.\Generated_Source\PSoC5/LIN_1.c ****             static const LIN_1_SLAVE_ID CYCODE LIN_1_slaveId =
 141:.\Generated_Source\PSoC5/LIN_1.c ****             {
 142:.\Generated_Source\PSoC5/LIN_1.c ****                 LIN_1_CS_SUPPLIER_ID,
 143:.\Generated_Source\PSoC5/LIN_1.c ****                 LIN_1_CS_FUNCTION_ID,
 144:.\Generated_Source\PSoC5/LIN_1.c ****                 LIN_1_CS_VARIANT
 145:.\Generated_Source\PSoC5/LIN_1.c ****             };
 146:.\Generated_Source\PSoC5/LIN_1.c ****             
 147:.\Generated_Source\PSoC5/LIN_1.c ****         #endif /*(0u != (LIN_1_CS_SEL_SERVICES01 & (LIN_1_NCS_0xB0_SEL 
 148:.\Generated_Source\PSoC5/LIN_1.c ****                * | LIN_1_NCS_0xB1_SEL | LIN_1_NCS_0xB2_SEL | 
 149:.\Generated_Source\PSoC5/LIN_1.c ****                * LIN_1_NCS_0xB3_SEL))
 150:.\Generated_Source\PSoC5/LIN_1.c ****                */
 151:.\Generated_Source\PSoC5/LIN_1.c **** 
 152:.\Generated_Source\PSoC5/LIN_1.c **** 
 153:.\Generated_Source\PSoC5/LIN_1.c ****         /* Serial Number */
 154:.\Generated_Source\PSoC5/LIN_1.c ****         static l_u8* LIN_1_serialNumber;
 155:.\Generated_Source\PSoC5/LIN_1.c **** 
 156:.\Generated_Source\PSoC5/LIN_1.c ****     #endif /* (1u == LIN_1_CS_ENABLED) */
ARM GAS  C:\Users\MATSUD~1\AppData\Local\Temp\ccLjdAaK.s 			page 5


 157:.\Generated_Source\PSoC5/LIN_1.c **** 
 158:.\Generated_Source\PSoC5/LIN_1.c ****     /* SRF buffer */
 159:.\Generated_Source\PSoC5/LIN_1.c ****     static volatile l_u8 LIN_1_srfBuffer[LIN_1_FRAME_BUFF_LEN];
 160:.\Generated_Source\PSoC5/LIN_1.c **** 
 161:.\Generated_Source\PSoC5/LIN_1.c ****     /* Transport Layer Rx and Tx Statuses */
 162:.\Generated_Source\PSoC5/LIN_1.c ****     static volatile l_u8   LIN_1_txTlStatus;
 163:.\Generated_Source\PSoC5/LIN_1.c ****     static volatile l_u8   LIN_1_rxTlStatus;
 164:.\Generated_Source\PSoC5/LIN_1.c **** 
 165:.\Generated_Source\PSoC5/LIN_1.c ****     /* Flags that are used for Transport Layer */
 166:.\Generated_Source\PSoC5/LIN_1.c ****     static volatile l_u8   LIN_1_tlFlags;
 167:.\Generated_Source\PSoC5/LIN_1.c **** 
 168:.\Generated_Source\PSoC5/LIN_1.c ****     #if(1u == LIN_1_TL_API_FORMAT)
 169:.\Generated_Source\PSoC5/LIN_1.c **** 
 170:.\Generated_Source\PSoC5/LIN_1.c ****         /* Internal variable used to store the PCI of the previous frame */
 171:.\Generated_Source\PSoC5/LIN_1.c ****         static l_u8 LIN_1_prevPci;
 172:.\Generated_Source\PSoC5/LIN_1.c ****     
 173:.\Generated_Source\PSoC5/LIN_1.c ****         static const    l_u8*   LIN_1_txTlDataPointer     = NULL;
 174:.\Generated_Source\PSoC5/LIN_1.c ****         static volatile l_u16   LIN_1_txTlDataCount;
 175:.\Generated_Source\PSoC5/LIN_1.c ****         static volatile l_u8*   LIN_1_rxTlDataPointer     = NULL;
 176:.\Generated_Source\PSoC5/LIN_1.c ****         static volatile l_u8*   LIN_1_rxTlInitDataPointer = NULL;
 177:.\Generated_Source\PSoC5/LIN_1.c ****         static volatile l_u8*   LIN_1_tlNadPointer      = NULL;
 178:.\Generated_Source\PSoC5/LIN_1.c ****         static volatile l_u16*  LIN_1_tlLengthPointer   = NULL;
 179:.\Generated_Source\PSoC5/LIN_1.c **** 
 180:.\Generated_Source\PSoC5/LIN_1.c ****         static volatile l_u16   LIN_1_txMessageLength = 0u;
 181:.\Generated_Source\PSoC5/LIN_1.c ****         static volatile l_u16   LIN_1_rxMessageLength = 0u;
 182:.\Generated_Source\PSoC5/LIN_1.c **** 
 183:.\Generated_Source\PSoC5/LIN_1.c ****         static volatile l_u8 LIN_1_txFrameCounter = 0u;
 184:.\Generated_Source\PSoC5/LIN_1.c ****         static l_u8 LIN_1_rxFrameCounter = 0u;
 185:.\Generated_Source\PSoC5/LIN_1.c ****         static volatile l_u8 LIN_1_tlTimeoutCnt   = 0u;
 186:.\Generated_Source\PSoC5/LIN_1.c **** 
 187:.\Generated_Source\PSoC5/LIN_1.c ****     #else
 188:.\Generated_Source\PSoC5/LIN_1.c **** 
 189:.\Generated_Source\PSoC5/LIN_1.c ****         /* Internal variables for buffer indexing */
 190:.\Generated_Source\PSoC5/LIN_1.c ****         static l_u8 LIN_1_txBufDepth;
 191:.\Generated_Source\PSoC5/LIN_1.c ****         static l_u8 LIN_1_rxBufDepth;
 192:.\Generated_Source\PSoC5/LIN_1.c **** 
 193:.\Generated_Source\PSoC5/LIN_1.c ****         /* The Master Request Frame (MRF) buffer */
 194:.\Generated_Source\PSoC5/LIN_1.c ****         static volatile l_u8 LIN_1_rawRxQueue[LIN_1_TL_RX_QUEUE_LEN];
 195:.\Generated_Source\PSoC5/LIN_1.c **** 
 196:.\Generated_Source\PSoC5/LIN_1.c ****         /* The Slave Response Frame (SRF) buffer */
 197:.\Generated_Source\PSoC5/LIN_1.c ****         static volatile l_u8 LIN_1_rawTxQueue[LIN_1_TL_TX_QUEUE_LEN];
 198:.\Generated_Source\PSoC5/LIN_1.c **** 
 199:.\Generated_Source\PSoC5/LIN_1.c ****         /* TX buffer indexes */
 200:.\Generated_Source\PSoC5/LIN_1.c ****         static volatile l_u16 LIN_1_txWrIndex;
 201:.\Generated_Source\PSoC5/LIN_1.c ****         static volatile l_u16 LIN_1_txRdIndex;
 202:.\Generated_Source\PSoC5/LIN_1.c **** 
 203:.\Generated_Source\PSoC5/LIN_1.c ****         /* RX buffer indexes */
 204:.\Generated_Source\PSoC5/LIN_1.c ****         static volatile l_u16 LIN_1_rxWrIndex;
 205:.\Generated_Source\PSoC5/LIN_1.c ****         static volatile l_u16 LIN_1_rxRdIndex;
 206:.\Generated_Source\PSoC5/LIN_1.c **** 
 207:.\Generated_Source\PSoC5/LIN_1.c ****     #endif /* (1u == LIN_1_TL_API_FORMAT) */
 208:.\Generated_Source\PSoC5/LIN_1.c **** 
 209:.\Generated_Source\PSoC5/LIN_1.c **** #endif /* (1u == LIN_1_TL_ENABLED) */
 210:.\Generated_Source\PSoC5/LIN_1.c **** 
 211:.\Generated_Source\PSoC5/LIN_1.c **** 
 212:.\Generated_Source\PSoC5/LIN_1.c **** /* LIN slave configuration data */
 213:.\Generated_Source\PSoC5/LIN_1.c **** static LIN_1_SLAVE_CONFIG const CYCODE LIN_1_LinSlaveConfig = {
ARM GAS  C:\Users\MATSUD~1\AppData\Local\Temp\ccLjdAaK.s 			page 6


 214:.\Generated_Source\PSoC5/LIN_1.c ****     /* Frame PID Table */
 215:.\Generated_Source\PSoC5/LIN_1.c ****     {0xC1u, 0x03u}
 216:.\Generated_Source\PSoC5/LIN_1.c **** };
 217:.\Generated_Source\PSoC5/LIN_1.c **** 
 218:.\Generated_Source\PSoC5/LIN_1.c **** 
 219:.\Generated_Source\PSoC5/LIN_1.c **** /* Frames declaration with initial signals values */
 220:.\Generated_Source\PSoC5/LIN_1.c **** static volatile l_u8  LIN_1_Buffer_Frame1[1u] = {0xFBu};
 221:.\Generated_Source\PSoC5/LIN_1.c **** static volatile l_u8  LIN_1_Buffer_Frame2[1u] = {0x3Fu};
 222:.\Generated_Source\PSoC5/LIN_1.c **** 
 223:.\Generated_Source\PSoC5/LIN_1.c **** 
 224:.\Generated_Source\PSoC5/LIN_1.c **** 
 225:.\Generated_Source\PSoC5/LIN_1.c **** /*******************************************************************************
 226:.\Generated_Source\PSoC5/LIN_1.c **** *  Place your code here
 227:.\Generated_Source\PSoC5/LIN_1.c **** *******************************************************************************/
 228:.\Generated_Source\PSoC5/LIN_1.c **** /* `#START LIN_1_CODE` */
 229:.\Generated_Source\PSoC5/LIN_1.c **** 
 230:.\Generated_Source\PSoC5/LIN_1.c **** /* `#END` */
 231:.\Generated_Source\PSoC5/LIN_1.c **** 
 232:.\Generated_Source\PSoC5/LIN_1.c **** 
 233:.\Generated_Source\PSoC5/LIN_1.c **** /*******************************************************************************
 234:.\Generated_Source\PSoC5/LIN_1.c **** * Function Name: LIN_1_Start
 235:.\Generated_Source\PSoC5/LIN_1.c **** ********************************************************************************
 236:.\Generated_Source\PSoC5/LIN_1.c **** *
 237:.\Generated_Source\PSoC5/LIN_1.c **** * Summary:
 238:.\Generated_Source\PSoC5/LIN_1.c **** *  Starts the component operation. This function is not required to be used.
 239:.\Generated_Source\PSoC5/LIN_1.c **** *
 240:.\Generated_Source\PSoC5/LIN_1.c **** * Parameters:
 241:.\Generated_Source\PSoC5/LIN_1.c **** *  None
 242:.\Generated_Source\PSoC5/LIN_1.c **** *
 243:.\Generated_Source\PSoC5/LIN_1.c **** * Return:
 244:.\Generated_Source\PSoC5/LIN_1.c **** *  Zero     - if the initialization succeeded.
 245:.\Generated_Source\PSoC5/LIN_1.c **** *  Non-zero - if the initialization failed.
 246:.\Generated_Source\PSoC5/LIN_1.c **** *
 247:.\Generated_Source\PSoC5/LIN_1.c **** * Reentrant:
 248:.\Generated_Source\PSoC5/LIN_1.c **** *  No
 249:.\Generated_Source\PSoC5/LIN_1.c **** *
 250:.\Generated_Source\PSoC5/LIN_1.c **** *******************************************************************************/
 251:.\Generated_Source\PSoC5/LIN_1.c **** l_bool LIN_1_Start(void) 
 252:.\Generated_Source\PSoC5/LIN_1.c **** {
  73              		.loc 1 252 0
  74              		.cfi_startproc
  75              		@ args = 0, pretend = 0, frame = 8
  76              		@ frame_needed = 1, uses_anonymous_args = 0
  77 0000 80B5     		push	{r7, lr}
  78              	.LCFI0:
  79              		.cfi_def_cfa_offset 8
  80              		.cfi_offset 7, -8
  81              		.cfi_offset 14, -4
  82 0002 82B0     		sub	sp, sp, #8
  83              	.LCFI1:
  84              		.cfi_def_cfa_offset 16
  85 0004 00AF     		add	r7, sp, #0
  86              	.LCFI2:
  87              		.cfi_def_cfa_register 7
 253:.\Generated_Source\PSoC5/LIN_1.c ****     l_bool returnValue;
 254:.\Generated_Source\PSoC5/LIN_1.c **** 
 255:.\Generated_Source\PSoC5/LIN_1.c ****     /* Call initialization function */
ARM GAS  C:\Users\MATSUD~1\AppData\Local\Temp\ccLjdAaK.s 			page 7


 256:.\Generated_Source\PSoC5/LIN_1.c ****     returnValue = l_sys_init();
  88              		.loc 1 256 0
  89 0006 FFF7FEFF 		bl	l_sys_init
  90 000a 0346     		mov	r3, r0
  91 000c FB71     		strb	r3, [r7, #7]
 257:.\Generated_Source\PSoC5/LIN_1.c **** 
 258:.\Generated_Source\PSoC5/LIN_1.c ****     /* Start LIN components. Ignore the return value. */
 259:.\Generated_Source\PSoC5/LIN_1.c ****     (void) l_ifc_init_LIN_1();
  92              		.loc 1 259 0
  93 000e FFF7FEFF 		bl	l_ifc_init_LIN_1
 260:.\Generated_Source\PSoC5/LIN_1.c **** 
 261:.\Generated_Source\PSoC5/LIN_1.c ****     return (returnValue);
  94              		.loc 1 261 0
  95 0012 FB79     		ldrb	r3, [r7, #7]	@ zero_extendqisi2
 262:.\Generated_Source\PSoC5/LIN_1.c **** }
  96              		.loc 1 262 0
  97 0014 1846     		mov	r0, r3
  98 0016 07F10807 		add	r7, r7, #8
  99 001a BD46     		mov	sp, r7
 100 001c 80BD     		pop	{r7, pc}
 101              		.cfi_endproc
 102              	.LFE0:
 103              		.size	LIN_1_Start, .-LIN_1_Start
 104 001e 00BF     		.section	.text.LIN_1_Stop,"ax",%progbits
 105              		.align	2
 106              		.global	LIN_1_Stop
 107              		.thumb
 108              		.thumb_func
 109              		.type	LIN_1_Stop, %function
 110              	LIN_1_Stop:
 111              	.LFB1:
 263:.\Generated_Source\PSoC5/LIN_1.c **** 
 264:.\Generated_Source\PSoC5/LIN_1.c **** 
 265:.\Generated_Source\PSoC5/LIN_1.c **** /*******************************************************************************
 266:.\Generated_Source\PSoC5/LIN_1.c **** * Function Name: LIN_1_Stop
 267:.\Generated_Source\PSoC5/LIN_1.c **** ********************************************************************************
 268:.\Generated_Source\PSoC5/LIN_1.c **** *
 269:.\Generated_Source\PSoC5/LIN_1.c **** * Summary:
 270:.\Generated_Source\PSoC5/LIN_1.c **** *  Starts the component operation. This function is not required to be used.
 271:.\Generated_Source\PSoC5/LIN_1.c **** *
 272:.\Generated_Source\PSoC5/LIN_1.c **** * Parameters:
 273:.\Generated_Source\PSoC5/LIN_1.c **** *  None
 274:.\Generated_Source\PSoC5/LIN_1.c **** *
 275:.\Generated_Source\PSoC5/LIN_1.c **** * Return:
 276:.\Generated_Source\PSoC5/LIN_1.c **** *  None
 277:.\Generated_Source\PSoC5/LIN_1.c **** *
 278:.\Generated_Source\PSoC5/LIN_1.c **** *******************************************************************************/
 279:.\Generated_Source\PSoC5/LIN_1.c **** l_u8 LIN_1_Stop(void) 
 280:.\Generated_Source\PSoC5/LIN_1.c **** {
 112              		.loc 1 280 0
 113              		.cfi_startproc
 114              		@ args = 0, pretend = 0, frame = 0
 115              		@ frame_needed = 1, uses_anonymous_args = 0
 116 0000 80B5     		push	{r7, lr}
 117              	.LCFI3:
 118              		.cfi_def_cfa_offset 8
 119              		.cfi_offset 7, -8
ARM GAS  C:\Users\MATSUD~1\AppData\Local\Temp\ccLjdAaK.s 			page 8


 120              		.cfi_offset 14, -4
 121 0002 00AF     		add	r7, sp, #0
 122              	.LCFI4:
 123              		.cfi_def_cfa_register 7
 281:.\Generated_Source\PSoC5/LIN_1.c ****     /* Stop UART */
 282:.\Generated_Source\PSoC5/LIN_1.c ****     LIN_1_UART_Stop();
 124              		.loc 1 282 0
 125 0004 FFF7FEFF 		bl	LIN_1_UART_Stop
 283:.\Generated_Source\PSoC5/LIN_1.c **** 
 284:.\Generated_Source\PSoC5/LIN_1.c ****     /* Disable hardware blocks operation */
 285:.\Generated_Source\PSoC5/LIN_1.c ****     LIN_1_CONTROL_REG &= (l_u8) ~LIN_1_CONTROL_ENABLE;
 126              		.loc 1 285 0
 127 0008 46F27643 		movw	r3, #25718
 128 000c C4F20003 		movt	r3, 16384
 129 0010 46F27642 		movw	r2, #25718
 130 0014 C4F20002 		movt	r2, 16384
 131 0018 1278     		ldrb	r2, [r2, #0]
 132 001a D2B2     		uxtb	r2, r2
 133 001c 22F00102 		bic	r2, r2, #1
 134 0020 D2B2     		uxtb	r2, r2
 135 0022 1A70     		strb	r2, [r3, #0]
 286:.\Generated_Source\PSoC5/LIN_1.c **** 
 287:.\Generated_Source\PSoC5/LIN_1.c ****     /* Disable interrupts */
 288:.\Generated_Source\PSoC5/LIN_1.c ****     return(l_sys_irq_disable());
 136              		.loc 1 288 0
 137 0024 FFF7FEFF 		bl	l_sys_irq_disable
 138 0028 0346     		mov	r3, r0
 289:.\Generated_Source\PSoC5/LIN_1.c **** }
 139              		.loc 1 289 0
 140 002a 1846     		mov	r0, r3
 141 002c 80BD     		pop	{r7, pc}
 142              		.cfi_endproc
 143              	.LFE1:
 144              		.size	LIN_1_Stop, .-LIN_1_Stop
 145 002e 00BF     		.section	.text.l_sys_init,"ax",%progbits
 146              		.align	2
 147              		.global	l_sys_init
 148              		.thumb
 149              		.thumb_func
 150              		.type	l_sys_init, %function
 151              	l_sys_init:
 152              	.LFB2:
 290:.\Generated_Source\PSoC5/LIN_1.c **** 
 291:.\Generated_Source\PSoC5/LIN_1.c **** 
 292:.\Generated_Source\PSoC5/LIN_1.c **** /*******************************************************************************
 293:.\Generated_Source\PSoC5/LIN_1.c **** * Function Name: l_sys_init
 294:.\Generated_Source\PSoC5/LIN_1.c **** ********************************************************************************
 295:.\Generated_Source\PSoC5/LIN_1.c **** *
 296:.\Generated_Source\PSoC5/LIN_1.c **** * Summary:
 297:.\Generated_Source\PSoC5/LIN_1.c **** *  Performs the initialization of the LIN core. This function does nothing and
 298:.\Generated_Source\PSoC5/LIN_1.c **** *  and always returns zero.
 299:.\Generated_Source\PSoC5/LIN_1.c **** *
 300:.\Generated_Source\PSoC5/LIN_1.c **** * Parameters:
 301:.\Generated_Source\PSoC5/LIN_1.c **** *  None
 302:.\Generated_Source\PSoC5/LIN_1.c **** *
 303:.\Generated_Source\PSoC5/LIN_1.c **** * Return:
 304:.\Generated_Source\PSoC5/LIN_1.c **** *  Zero     - if the initialization succeeded.
ARM GAS  C:\Users\MATSUD~1\AppData\Local\Temp\ccLjdAaK.s 			page 9


 305:.\Generated_Source\PSoC5/LIN_1.c **** *  Non-zero - if the initialization failed.
 306:.\Generated_Source\PSoC5/LIN_1.c **** *
 307:.\Generated_Source\PSoC5/LIN_1.c **** *******************************************************************************/
 308:.\Generated_Source\PSoC5/LIN_1.c **** l_bool l_sys_init(void)  
 309:.\Generated_Source\PSoC5/LIN_1.c **** {
 153              		.loc 1 309 0
 154              		.cfi_startproc
 155              		@ args = 0, pretend = 0, frame = 0
 156              		@ frame_needed = 1, uses_anonymous_args = 0
 157              		@ link register save eliminated.
 158 0000 80B4     		push	{r7}
 159              	.LCFI5:
 160              		.cfi_def_cfa_offset 4
 161              		.cfi_offset 7, -4
 162 0002 00AF     		add	r7, sp, #0
 163              	.LCFI6:
 164              		.cfi_def_cfa_register 7
 310:.\Generated_Source\PSoC5/LIN_1.c ****     return (LIN_1_FALSE);
 165              		.loc 1 310 0
 166 0004 4FF00003 		mov	r3, #0
 311:.\Generated_Source\PSoC5/LIN_1.c **** }
 167              		.loc 1 311 0
 168 0008 1846     		mov	r0, r3
 169 000a BD46     		mov	sp, r7
 170 000c 80BC     		pop	{r7}
 171 000e 7047     		bx	lr
 172              		.cfi_endproc
 173              	.LFE2:
 174              		.size	l_sys_init, .-l_sys_init
 175              		.section	.text.l_u8_rd,"ax",%progbits
 176              		.align	2
 177              		.global	l_u8_rd
 178              		.thumb
 179              		.thumb_func
 180              		.type	l_u8_rd, %function
 181              	l_u8_rd:
 182              	.LFB3:
 312:.\Generated_Source\PSoC5/LIN_1.c **** 
 313:.\Generated_Source\PSoC5/LIN_1.c **** 
 314:.\Generated_Source\PSoC5/LIN_1.c **** /* Signal interaction and notification API */
 315:.\Generated_Source\PSoC5/LIN_1.c **** 
 316:.\Generated_Source\PSoC5/LIN_1.c **** 
 317:.\Generated_Source\PSoC5/LIN_1.c **** /*******************************************************************************
 318:.\Generated_Source\PSoC5/LIN_1.c **** * Function Name: l_u8_rd
 319:.\Generated_Source\PSoC5/LIN_1.c **** ********************************************************************************
 320:.\Generated_Source\PSoC5/LIN_1.c **** *
 321:.\Generated_Source\PSoC5/LIN_1.c **** * Summary:
 322:.\Generated_Source\PSoC5/LIN_1.c **** *  Reads and returns the current value of the signal for signals of the size
 323:.\Generated_Source\PSoC5/LIN_1.c **** *  2 - 8 bits. If an invalid signal handle is passed into the function, no
 324:.\Generated_Source\PSoC5/LIN_1.c **** *  action is done.
 325:.\Generated_Source\PSoC5/LIN_1.c **** *
 326:.\Generated_Source\PSoC5/LIN_1.c **** * Parameters:
 327:.\Generated_Source\PSoC5/LIN_1.c **** *  sss - signal handle of the signal to read.
 328:.\Generated_Source\PSoC5/LIN_1.c **** *
 329:.\Generated_Source\PSoC5/LIN_1.c **** * Return:
 330:.\Generated_Source\PSoC5/LIN_1.c **** *  Returns current value of signal.
 331:.\Generated_Source\PSoC5/LIN_1.c **** *
ARM GAS  C:\Users\MATSUD~1\AppData\Local\Temp\ccLjdAaK.s 			page 10


 332:.\Generated_Source\PSoC5/LIN_1.c **** *******************************************************************************/
 333:.\Generated_Source\PSoC5/LIN_1.c **** l_u8 l_u8_rd(l_signal_handle sss) 
 334:.\Generated_Source\PSoC5/LIN_1.c **** {
 183              		.loc 1 334 0
 184              		.cfi_startproc
 185              		@ args = 0, pretend = 0, frame = 16
 186              		@ frame_needed = 1, uses_anonymous_args = 0
 187 0000 80B5     		push	{r7, lr}
 188              	.LCFI7:
 189              		.cfi_def_cfa_offset 8
 190              		.cfi_offset 7, -8
 191              		.cfi_offset 14, -4
 192 0002 84B0     		sub	sp, sp, #16
 193              	.LCFI8:
 194              		.cfi_def_cfa_offset 24
 195 0004 00AF     		add	r7, sp, #0
 196              	.LCFI9:
 197              		.cfi_def_cfa_register 7
 198 0006 0346     		mov	r3, r0
 199 0008 FB71     		strb	r3, [r7, #7]
 335:.\Generated_Source\PSoC5/LIN_1.c ****     l_u8 returnValue;
 336:.\Generated_Source\PSoC5/LIN_1.c **** 
 337:.\Generated_Source\PSoC5/LIN_1.c ****     switch(sss)
 200              		.loc 1 337 0
 201 000a FB79     		ldrb	r3, [r7, #7]	@ zero_extendqisi2
 202 000c 012B     		cmp	r3, #1
 203 000e 04D1     		bne	.L12
 204              	.L9:
 338:.\Generated_Source\PSoC5/LIN_1.c ****     {
 339:.\Generated_Source\PSoC5/LIN_1.c ****         case arm_SIGNAL_HANDLE:
 340:.\Generated_Source\PSoC5/LIN_1.c ****             returnValue = l_u8_rd_arm();
 205              		.loc 1 340 0
 206 0010 FFF7FEFF 		bl	l_u8_rd_arm
 207 0014 0346     		mov	r3, r0
 208 0016 FB73     		strb	r3, [r7, #15]
 341:.\Generated_Source\PSoC5/LIN_1.c ****         break;
 209              		.loc 1 341 0
 210 0018 03E0     		b	.L10
 211              	.L12:
 342:.\Generated_Source\PSoC5/LIN_1.c **** 
 343:.\Generated_Source\PSoC5/LIN_1.c ****         default:
 344:.\Generated_Source\PSoC5/LIN_1.c ****             returnValue = (l_u8) 0xFFu;
 212              		.loc 1 344 0
 213 001a 4FF0FF03 		mov	r3, #255
 214 001e FB73     		strb	r3, [r7, #15]
 345:.\Generated_Source\PSoC5/LIN_1.c ****         break;
 215              		.loc 1 345 0
 216 0020 00BF     		nop
 217              	.L10:
 346:.\Generated_Source\PSoC5/LIN_1.c ****     }
 347:.\Generated_Source\PSoC5/LIN_1.c **** 
 348:.\Generated_Source\PSoC5/LIN_1.c ****     return(returnValue);
 218              		.loc 1 348 0
 219 0022 FB7B     		ldrb	r3, [r7, #15]	@ zero_extendqisi2
 349:.\Generated_Source\PSoC5/LIN_1.c **** }
 220              		.loc 1 349 0
 221 0024 1846     		mov	r0, r3
ARM GAS  C:\Users\MATSUD~1\AppData\Local\Temp\ccLjdAaK.s 			page 11


 222 0026 07F11007 		add	r7, r7, #16
 223 002a BD46     		mov	sp, r7
 224 002c 80BD     		pop	{r7, pc}
 225              		.cfi_endproc
 226              	.LFE3:
 227              		.size	l_u8_rd, .-l_u8_rd
 228 002e 00BF     		.section	.text.l_u8_rd_arm,"ax",%progbits
 229              		.align	2
 230              		.global	l_u8_rd_arm
 231              		.thumb
 232              		.thumb_func
 233              		.type	l_u8_rd_arm, %function
 234              	l_u8_rd_arm:
 235              	.LFB4:
 350:.\Generated_Source\PSoC5/LIN_1.c **** 
 351:.\Generated_Source\PSoC5/LIN_1.c **** 
 352:.\Generated_Source\PSoC5/LIN_1.c **** /*******************************************************************************
 353:.\Generated_Source\PSoC5/LIN_1.c **** * Function Name: l_u8_rd_arm
 354:.\Generated_Source\PSoC5/LIN_1.c **** ********************************************************************************
 355:.\Generated_Source\PSoC5/LIN_1.c **** *
 356:.\Generated_Source\PSoC5/LIN_1.c **** * Summary:
 357:.\Generated_Source\PSoC5/LIN_1.c **** *  Reads and returns the current value of the signal for signals of the size
 358:.\Generated_Source\PSoC5/LIN_1.c **** *  2 - 8 bits.
 359:.\Generated_Source\PSoC5/LIN_1.c **** *
 360:.\Generated_Source\PSoC5/LIN_1.c **** * Parameters:
 361:.\Generated_Source\PSoC5/LIN_1.c **** *  None
 362:.\Generated_Source\PSoC5/LIN_1.c **** *
 363:.\Generated_Source\PSoC5/LIN_1.c **** * Return:
 364:.\Generated_Source\PSoC5/LIN_1.c **** *  Returns current value of signal.
 365:.\Generated_Source\PSoC5/LIN_1.c **** *
 366:.\Generated_Source\PSoC5/LIN_1.c **** *******************************************************************************/
 367:.\Generated_Source\PSoC5/LIN_1.c **** l_u8 l_u8_rd_arm(void) 
 368:.\Generated_Source\PSoC5/LIN_1.c **** {
 236              		.loc 1 368 0
 237              		.cfi_startproc
 238              		@ args = 0, pretend = 0, frame = 0
 239              		@ frame_needed = 1, uses_anonymous_args = 0
 240              		@ link register save eliminated.
 241 0000 80B4     		push	{r7}
 242              	.LCFI10:
 243              		.cfi_def_cfa_offset 4
 244              		.cfi_offset 7, -4
 245 0002 00AF     		add	r7, sp, #0
 246              	.LCFI11:
 247              		.cfi_def_cfa_register 7
 369:.\Generated_Source\PSoC5/LIN_1.c ****     /* Get one byte signal from the LSB, shift for correction and mask off unnecessary bit */
 370:.\Generated_Source\PSoC5/LIN_1.c ****     return((LIN_1_Buffer_Frame2[LIN_1_arm_Frame2_SIG_BYTE_OFFSET] & ((l_u8) ~LIN_1_arm_Frame2_SIG_M
 248              		.loc 1 370 0
 249 0004 40F20003 		movw	r3, #:lower16:LIN_1_Buffer_Frame2
 250 0008 C0F20003 		movt	r3, #:upper16:LIN_1_Buffer_Frame2
 251 000c 1B78     		ldrb	r3, [r3, #0]
 252 000e DBB2     		uxtb	r3, r3
 253 0010 03F00303 		and	r3, r3, #3
 254 0014 DBB2     		uxtb	r3, r3
 371:.\Generated_Source\PSoC5/LIN_1.c ****                 LIN_1_arm_Frame2_SIG_BIT_SHIFT);
 372:.\Generated_Source\PSoC5/LIN_1.c **** }
 255              		.loc 1 372 0
ARM GAS  C:\Users\MATSUD~1\AppData\Local\Temp\ccLjdAaK.s 			page 12


 256 0016 1846     		mov	r0, r3
 257 0018 BD46     		mov	sp, r7
 258 001a 80BC     		pop	{r7}
 259 001c 7047     		bx	lr
 260              		.cfi_endproc
 261              	.LFE4:
 262              		.size	l_u8_rd_arm, .-l_u8_rd_arm
 263 001e 00BF     		.section	.text.l_bool_wr,"ax",%progbits
 264              		.align	2
 265              		.global	l_bool_wr
 266              		.thumb
 267              		.thumb_func
 268              		.type	l_bool_wr, %function
 269              	l_bool_wr:
 270              	.LFB5:
 373:.\Generated_Source\PSoC5/LIN_1.c **** 
 374:.\Generated_Source\PSoC5/LIN_1.c **** 
 375:.\Generated_Source\PSoC5/LIN_1.c **** 
 376:.\Generated_Source\PSoC5/LIN_1.c **** 
 377:.\Generated_Source\PSoC5/LIN_1.c **** 
 378:.\Generated_Source\PSoC5/LIN_1.c **** 
 379:.\Generated_Source\PSoC5/LIN_1.c **** 
 380:.\Generated_Source\PSoC5/LIN_1.c **** 
 381:.\Generated_Source\PSoC5/LIN_1.c **** 
 382:.\Generated_Source\PSoC5/LIN_1.c **** 
 383:.\Generated_Source\PSoC5/LIN_1.c **** /*******************************************************************************
 384:.\Generated_Source\PSoC5/LIN_1.c **** * Function Name: l_bool_wr
 385:.\Generated_Source\PSoC5/LIN_1.c **** ********************************************************************************
 386:.\Generated_Source\PSoC5/LIN_1.c **** *
 387:.\Generated_Source\PSoC5/LIN_1.c **** * Summary:
 388:.\Generated_Source\PSoC5/LIN_1.c **** *  Sets the current value of the signal for one bit signals to "v".
 389:.\Generated_Source\PSoC5/LIN_1.c **** *  If an invalid signal handle is passed into the function, no action is done. 
 390:.\Generated_Source\PSoC5/LIN_1.c **** *
 391:.\Generated_Source\PSoC5/LIN_1.c **** * Parameters:
 392:.\Generated_Source\PSoC5/LIN_1.c **** *  sss - signal handle of the signal to be set.
 393:.\Generated_Source\PSoC5/LIN_1.c **** *  v - value of the signal to be set.
 394:.\Generated_Source\PSoC5/LIN_1.c **** *
 395:.\Generated_Source\PSoC5/LIN_1.c **** * Return:
 396:.\Generated_Source\PSoC5/LIN_1.c **** *  None
 397:.\Generated_Source\PSoC5/LIN_1.c **** *
 398:.\Generated_Source\PSoC5/LIN_1.c **** * Reentrant:
 399:.\Generated_Source\PSoC5/LIN_1.c **** *  No
 400:.\Generated_Source\PSoC5/LIN_1.c **** *
 401:.\Generated_Source\PSoC5/LIN_1.c **** *******************************************************************************/
 402:.\Generated_Source\PSoC5/LIN_1.c **** void l_bool_wr(l_signal_handle sss, l_bool v)
 403:.\Generated_Source\PSoC5/LIN_1.c **** {
 271              		.loc 1 403 0
 272              		.cfi_startproc
 273              		@ args = 0, pretend = 0, frame = 8
 274              		@ frame_needed = 1, uses_anonymous_args = 0
 275 0000 80B5     		push	{r7, lr}
 276              	.LCFI12:
 277              		.cfi_def_cfa_offset 8
 278              		.cfi_offset 7, -8
 279              		.cfi_offset 14, -4
 280 0002 82B0     		sub	sp, sp, #8
 281              	.LCFI13:
ARM GAS  C:\Users\MATSUD~1\AppData\Local\Temp\ccLjdAaK.s 			page 13


 282              		.cfi_def_cfa_offset 16
 283 0004 00AF     		add	r7, sp, #0
 284              	.LCFI14:
 285              		.cfi_def_cfa_register 7
 286 0006 0246     		mov	r2, r0
 287 0008 0B46     		mov	r3, r1
 288 000a FA71     		strb	r2, [r7, #7]
 289 000c BB71     		strb	r3, [r7, #6]
 404:.\Generated_Source\PSoC5/LIN_1.c ****     switch(sss)
 290              		.loc 1 404 0
 291 000e FB79     		ldrb	r3, [r7, #7]	@ zero_extendqisi2
 292 0010 002B     		cmp	r3, #0
 293 0012 04D1     		bne	.L19
 294              	.L17:
 405:.\Generated_Source\PSoC5/LIN_1.c ****     {
 406:.\Generated_Source\PSoC5/LIN_1.c ****         case Response_Error_SIGNAL_HANDLE:
 407:.\Generated_Source\PSoC5/LIN_1.c ****             l_bool_wr_Response_Error(v);
 295              		.loc 1 407 0
 296 0014 BB79     		ldrb	r3, [r7, #6]	@ zero_extendqisi2
 297 0016 1846     		mov	r0, r3
 298 0018 FFF7FEFF 		bl	l_bool_wr_Response_Error
 408:.\Generated_Source\PSoC5/LIN_1.c ****         break;
 299              		.loc 1 408 0
 300 001c 00E0     		b	.L15
 301              	.L19:
 409:.\Generated_Source\PSoC5/LIN_1.c **** 
 410:.\Generated_Source\PSoC5/LIN_1.c ****         default:
 411:.\Generated_Source\PSoC5/LIN_1.c ****         break;
 302              		.loc 1 411 0
 303 001e 00BF     		nop
 304              	.L15:
 412:.\Generated_Source\PSoC5/LIN_1.c ****     }
 413:.\Generated_Source\PSoC5/LIN_1.c **** }
 305              		.loc 1 413 0
 306 0020 07F10807 		add	r7, r7, #8
 307 0024 BD46     		mov	sp, r7
 308 0026 80BD     		pop	{r7, pc}
 309              		.cfi_endproc
 310              	.LFE5:
 311              		.size	l_bool_wr, .-l_bool_wr
 312              		.section	.text.l_bool_wr_Response_Error,"ax",%progbits
 313              		.align	2
 314              		.global	l_bool_wr_Response_Error
 315              		.thumb
 316              		.thumb_func
 317              		.type	l_bool_wr_Response_Error, %function
 318              	l_bool_wr_Response_Error:
 319              	.LFB6:
 414:.\Generated_Source\PSoC5/LIN_1.c **** 
 415:.\Generated_Source\PSoC5/LIN_1.c **** 
 416:.\Generated_Source\PSoC5/LIN_1.c **** /*******************************************************************************
 417:.\Generated_Source\PSoC5/LIN_1.c **** * Function Name: l_bool_wr_Response_Error
 418:.\Generated_Source\PSoC5/LIN_1.c **** ********************************************************************************
 419:.\Generated_Source\PSoC5/LIN_1.c **** *
 420:.\Generated_Source\PSoC5/LIN_1.c **** * Summary:
 421:.\Generated_Source\PSoC5/LIN_1.c **** *  Sets the current value of the signal for one bit signals to v.
 422:.\Generated_Source\PSoC5/LIN_1.c **** *
ARM GAS  C:\Users\MATSUD~1\AppData\Local\Temp\ccLjdAaK.s 			page 14


 423:.\Generated_Source\PSoC5/LIN_1.c **** * Parameters:
 424:.\Generated_Source\PSoC5/LIN_1.c **** *  v - value of the signal to be set.
 425:.\Generated_Source\PSoC5/LIN_1.c **** *
 426:.\Generated_Source\PSoC5/LIN_1.c **** * Return:
 427:.\Generated_Source\PSoC5/LIN_1.c **** *  None
 428:.\Generated_Source\PSoC5/LIN_1.c **** *
 429:.\Generated_Source\PSoC5/LIN_1.c **** * Reentrant:
 430:.\Generated_Source\PSoC5/LIN_1.c **** *  No
 431:.\Generated_Source\PSoC5/LIN_1.c **** *
 432:.\Generated_Source\PSoC5/LIN_1.c **** *******************************************************************************/
 433:.\Generated_Source\PSoC5/LIN_1.c **** void l_bool_wr_Response_Error(l_bool v)
 434:.\Generated_Source\PSoC5/LIN_1.c **** {
 320              		.loc 1 434 0
 321              		.cfi_startproc
 322              		@ args = 0, pretend = 0, frame = 16
 323              		@ frame_needed = 1, uses_anonymous_args = 0
 324 0000 80B5     		push	{r7, lr}
 325              	.LCFI15:
 326              		.cfi_def_cfa_offset 8
 327              		.cfi_offset 7, -8
 328              		.cfi_offset 14, -4
 329 0002 84B0     		sub	sp, sp, #16
 330              	.LCFI16:
 331              		.cfi_def_cfa_offset 24
 332 0004 00AF     		add	r7, sp, #0
 333              	.LCFI17:
 334              		.cfi_def_cfa_register 7
 335 0006 0346     		mov	r3, r0
 336 0008 FB71     		strb	r3, [r7, #7]
 435:.\Generated_Source\PSoC5/LIN_1.c ****     uint8 interruptState;
 436:.\Generated_Source\PSoC5/LIN_1.c **** 
 437:.\Generated_Source\PSoC5/LIN_1.c ****     /* Save current global interrupt enable and disable it */
 438:.\Generated_Source\PSoC5/LIN_1.c ****     interruptState = CyEnterCriticalSection();
 337              		.loc 1 438 0
 338 000a FFF7FEFF 		bl	CyEnterCriticalSection
 339 000e 0346     		mov	r3, r0
 340 0010 FB73     		strb	r3, [r7, #15]
 439:.\Generated_Source\PSoC5/LIN_1.c **** 
 440:.\Generated_Source\PSoC5/LIN_1.c ****     if(0u != v)
 341              		.loc 1 440 0
 342 0012 FB79     		ldrb	r3, [r7, #7]	@ zero_extendqisi2
 343 0014 002B     		cmp	r3, #0
 344 0016 0ED0     		beq	.L21
 441:.\Generated_Source\PSoC5/LIN_1.c ****     {
 442:.\Generated_Source\PSoC5/LIN_1.c ****         LIN_1_Buffer_Frame1[LIN_1_Response_Error_Frame1_SIG_BYTE_OFFSET] |= 
 345              		.loc 1 442 0
 346 0018 40F20003 		movw	r3, #:lower16:LIN_1_Buffer_Frame1
 347 001c C0F20003 		movt	r3, #:upper16:LIN_1_Buffer_Frame1
 348 0020 1B78     		ldrb	r3, [r3, #0]
 349 0022 DBB2     		uxtb	r3, r3
 350 0024 43F00403 		orr	r3, r3, #4
 351 0028 DAB2     		uxtb	r2, r3
 352 002a 40F20003 		movw	r3, #:lower16:LIN_1_Buffer_Frame1
 353 002e C0F20003 		movt	r3, #:upper16:LIN_1_Buffer_Frame1
 354 0032 1A70     		strb	r2, [r3, #0]
 355 0034 0DE0     		b	.L22
 356              	.L21:
ARM GAS  C:\Users\MATSUD~1\AppData\Local\Temp\ccLjdAaK.s 			page 15


 443:.\Generated_Source\PSoC5/LIN_1.c ****                             LIN_1_Response_Error_Frame1_SIG_MASK_0;
 444:.\Generated_Source\PSoC5/LIN_1.c ****     }
 445:.\Generated_Source\PSoC5/LIN_1.c ****     else
 446:.\Generated_Source\PSoC5/LIN_1.c ****     {
 447:.\Generated_Source\PSoC5/LIN_1.c ****         LIN_1_Buffer_Frame1[LIN_1_Response_Error_Frame1_SIG_BYTE_OFFSET] &= 
 357              		.loc 1 447 0
 358 0036 40F20003 		movw	r3, #:lower16:LIN_1_Buffer_Frame1
 359 003a C0F20003 		movt	r3, #:upper16:LIN_1_Buffer_Frame1
 360 003e 1B78     		ldrb	r3, [r3, #0]
 361 0040 DBB2     		uxtb	r3, r3
 362 0042 23F00403 		bic	r3, r3, #4
 363 0046 DAB2     		uxtb	r2, r3
 364 0048 40F20003 		movw	r3, #:lower16:LIN_1_Buffer_Frame1
 365 004c C0F20003 		movt	r3, #:upper16:LIN_1_Buffer_Frame1
 366 0050 1A70     		strb	r2, [r3, #0]
 367              	.L22:
 448:.\Generated_Source\PSoC5/LIN_1.c ****                             (l_u8) ~LIN_1_Response_Error_Frame1_SIG_MASK_0;
 449:.\Generated_Source\PSoC5/LIN_1.c ****     }
 450:.\Generated_Source\PSoC5/LIN_1.c **** 
 451:.\Generated_Source\PSoC5/LIN_1.c ****     /* Restore global interrupt enable state */
 452:.\Generated_Source\PSoC5/LIN_1.c ****     CyExitCriticalSection(interruptState);
 368              		.loc 1 452 0
 369 0052 FB7B     		ldrb	r3, [r7, #15]	@ zero_extendqisi2
 370 0054 1846     		mov	r0, r3
 371 0056 FFF7FEFF 		bl	CyExitCriticalSection
 453:.\Generated_Source\PSoC5/LIN_1.c **** }
 372              		.loc 1 453 0
 373 005a 07F11007 		add	r7, r7, #16
 374 005e BD46     		mov	sp, r7
 375 0060 80BD     		pop	{r7, pc}
 376              		.cfi_endproc
 377              	.LFE6:
 378              		.size	l_bool_wr_Response_Error, .-l_bool_wr_Response_Error
 379 0062 00BF     		.section	.text.l_flg_tst,"ax",%progbits
 380              		.align	2
 381              		.global	l_flg_tst
 382              		.thumb
 383              		.thumb_func
 384              		.type	l_flg_tst, %function
 385              	l_flg_tst:
 386              	.LFB7:
 454:.\Generated_Source\PSoC5/LIN_1.c **** 
 455:.\Generated_Source\PSoC5/LIN_1.c **** 
 456:.\Generated_Source\PSoC5/LIN_1.c **** 
 457:.\Generated_Source\PSoC5/LIN_1.c **** 
 458:.\Generated_Source\PSoC5/LIN_1.c **** 
 459:.\Generated_Source\PSoC5/LIN_1.c **** 
 460:.\Generated_Source\PSoC5/LIN_1.c **** 
 461:.\Generated_Source\PSoC5/LIN_1.c **** 
 462:.\Generated_Source\PSoC5/LIN_1.c **** 
 463:.\Generated_Source\PSoC5/LIN_1.c **** 
 464:.\Generated_Source\PSoC5/LIN_1.c **** 
 465:.\Generated_Source\PSoC5/LIN_1.c **** /*******************************************************************************
 466:.\Generated_Source\PSoC5/LIN_1.c **** * Function Name: l_flg_tst
 467:.\Generated_Source\PSoC5/LIN_1.c **** ********************************************************************************
 468:.\Generated_Source\PSoC5/LIN_1.c **** *
 469:.\Generated_Source\PSoC5/LIN_1.c **** * Summary:
ARM GAS  C:\Users\MATSUD~1\AppData\Local\Temp\ccLjdAaK.s 			page 16


 470:.\Generated_Source\PSoC5/LIN_1.c **** *  Returns a C boolean indicating the current state of the flag specified by
 471:.\Generated_Source\PSoC5/LIN_1.c **** *  the name fff, i.e. returns zero if the flag is cleared, non-zero otherwise.
 472:.\Generated_Source\PSoC5/LIN_1.c **** *
 473:.\Generated_Source\PSoC5/LIN_1.c **** * Parameters:
 474:.\Generated_Source\PSoC5/LIN_1.c **** *  fff - is the name of the flag handle.
 475:.\Generated_Source\PSoC5/LIN_1.c **** *
 476:.\Generated_Source\PSoC5/LIN_1.c **** * Return:
 477:.\Generated_Source\PSoC5/LIN_1.c **** *  Returns a C boolean indicating the current state of the flag specified by
 478:.\Generated_Source\PSoC5/LIN_1.c **** *  the name fff:
 479:.\Generated_Source\PSoC5/LIN_1.c **** *  False - if the flag is cleared;
 480:.\Generated_Source\PSoC5/LIN_1.c **** *  True - if the flag is not cleared.
 481:.\Generated_Source\PSoC5/LIN_1.c **** *
 482:.\Generated_Source\PSoC5/LIN_1.c **** *******************************************************************************/
 483:.\Generated_Source\PSoC5/LIN_1.c **** l_bool l_flg_tst(l_flag_handle fff)
 484:.\Generated_Source\PSoC5/LIN_1.c **** {
 387              		.loc 1 484 0
 388              		.cfi_startproc
 389              		@ args = 0, pretend = 0, frame = 16
 390              		@ frame_needed = 1, uses_anonymous_args = 0
 391 0000 80B5     		push	{r7, lr}
 392              	.LCFI18:
 393              		.cfi_def_cfa_offset 8
 394              		.cfi_offset 7, -8
 395              		.cfi_offset 14, -4
 396 0002 84B0     		sub	sp, sp, #16
 397              	.LCFI19:
 398              		.cfi_def_cfa_offset 24
 399 0004 00AF     		add	r7, sp, #0
 400              	.LCFI20:
 401              		.cfi_def_cfa_register 7
 402 0006 0346     		mov	r3, r0
 403 0008 FB71     		strb	r3, [r7, #7]
 485:.\Generated_Source\PSoC5/LIN_1.c ****     l_bool returnValue;
 486:.\Generated_Source\PSoC5/LIN_1.c **** 
 487:.\Generated_Source\PSoC5/LIN_1.c ****     switch(fff)
 404              		.loc 1 487 0
 405 000a FB79     		ldrb	r3, [r7, #7]	@ zero_extendqisi2
 406 000c 012B     		cmp	r3, #1
 407 000e 08D0     		beq	.L26
 408 0010 022B     		cmp	r3, #2
 409 0012 0BD0     		beq	.L27
 410 0014 002B     		cmp	r3, #0
 411 0016 0ED1     		bne	.L30
 412              	.L25:
 488:.\Generated_Source\PSoC5/LIN_1.c ****     {
 489:.\Generated_Source\PSoC5/LIN_1.c ****         case arm_FLAG_HANDLE:
 490:.\Generated_Source\PSoC5/LIN_1.c ****             returnValue = l_flg_tst_arm();
 413              		.loc 1 490 0
 414 0018 FFF7FEFF 		bl	l_flg_tst_arm
 415 001c 0346     		mov	r3, r0
 416 001e FB73     		strb	r3, [r7, #15]
 491:.\Generated_Source\PSoC5/LIN_1.c ****         break;
 417              		.loc 1 491 0
 418 0020 0DE0     		b	.L28
 419              	.L26:
 492:.\Generated_Source\PSoC5/LIN_1.c **** 
 493:.\Generated_Source\PSoC5/LIN_1.c ****         case Frame1_FLAG_HANDLE:
ARM GAS  C:\Users\MATSUD~1\AppData\Local\Temp\ccLjdAaK.s 			page 17


 494:.\Generated_Source\PSoC5/LIN_1.c ****             returnValue = l_flg_tst_Frame1();
 420              		.loc 1 494 0
 421 0022 FFF7FEFF 		bl	l_flg_tst_Frame1
 422 0026 0346     		mov	r3, r0
 423 0028 FB73     		strb	r3, [r7, #15]
 495:.\Generated_Source\PSoC5/LIN_1.c ****         break;
 424              		.loc 1 495 0
 425 002a 08E0     		b	.L28
 426              	.L27:
 496:.\Generated_Source\PSoC5/LIN_1.c **** 
 497:.\Generated_Source\PSoC5/LIN_1.c ****         case Frame2_FLAG_HANDLE:
 498:.\Generated_Source\PSoC5/LIN_1.c ****             returnValue = l_flg_tst_Frame2();
 427              		.loc 1 498 0
 428 002c FFF7FEFF 		bl	l_flg_tst_Frame2
 429 0030 0346     		mov	r3, r0
 430 0032 FB73     		strb	r3, [r7, #15]
 499:.\Generated_Source\PSoC5/LIN_1.c ****         break;
 431              		.loc 1 499 0
 432 0034 03E0     		b	.L28
 433              	.L30:
 500:.\Generated_Source\PSoC5/LIN_1.c **** 
 501:.\Generated_Source\PSoC5/LIN_1.c ****         default:
 502:.\Generated_Source\PSoC5/LIN_1.c ****             returnValue = LIN_1_TRUE;
 434              		.loc 1 502 0
 435 0036 4FF00103 		mov	r3, #1
 436 003a FB73     		strb	r3, [r7, #15]
 503:.\Generated_Source\PSoC5/LIN_1.c ****         break;
 437              		.loc 1 503 0
 438 003c 00BF     		nop
 439              	.L28:
 504:.\Generated_Source\PSoC5/LIN_1.c ****     }
 505:.\Generated_Source\PSoC5/LIN_1.c **** 
 506:.\Generated_Source\PSoC5/LIN_1.c ****     return(returnValue);
 440              		.loc 1 506 0
 441 003e FB7B     		ldrb	r3, [r7, #15]	@ zero_extendqisi2
 507:.\Generated_Source\PSoC5/LIN_1.c **** }
 442              		.loc 1 507 0
 443 0040 1846     		mov	r0, r3
 444 0042 07F11007 		add	r7, r7, #16
 445 0046 BD46     		mov	sp, r7
 446 0048 80BD     		pop	{r7, pc}
 447              		.cfi_endproc
 448              	.LFE7:
 449              		.size	l_flg_tst, .-l_flg_tst
 450 004a 00BF     		.section	.text.l_flg_tst_arm,"ax",%progbits
 451              		.align	2
 452              		.global	l_flg_tst_arm
 453              		.thumb
 454              		.thumb_func
 455              		.type	l_flg_tst_arm, %function
 456              	l_flg_tst_arm:
 457              	.LFB8:
 508:.\Generated_Source\PSoC5/LIN_1.c **** 
 509:.\Generated_Source\PSoC5/LIN_1.c **** 
 510:.\Generated_Source\PSoC5/LIN_1.c **** /*******************************************************************************
 511:.\Generated_Source\PSoC5/LIN_1.c **** * Function Name: l_flg_tst_arm
 512:.\Generated_Source\PSoC5/LIN_1.c **** ********************************************************************************
ARM GAS  C:\Users\MATSUD~1\AppData\Local\Temp\ccLjdAaK.s 			page 18


 513:.\Generated_Source\PSoC5/LIN_1.c **** *
 514:.\Generated_Source\PSoC5/LIN_1.c **** * Summary:
 515:.\Generated_Source\PSoC5/LIN_1.c **** *  Returns a C boolean indicating the current state of the flag specified by
 516:.\Generated_Source\PSoC5/LIN_1.c **** *  the name fff, i.e. returns zero if the flag is cleared, non-zero otherwise.
 517:.\Generated_Source\PSoC5/LIN_1.c **** *
 518:.\Generated_Source\PSoC5/LIN_1.c **** * Parameters:
 519:.\Generated_Source\PSoC5/LIN_1.c **** *  None
 520:.\Generated_Source\PSoC5/LIN_1.c **** *
 521:.\Generated_Source\PSoC5/LIN_1.c **** * Return:
 522:.\Generated_Source\PSoC5/LIN_1.c **** *  Returns a C boolean indicating the current state of the flag specified by
 523:.\Generated_Source\PSoC5/LIN_1.c **** *  the name fff:
 524:.\Generated_Source\PSoC5/LIN_1.c **** *  False - if the flag is cleared;
 525:.\Generated_Source\PSoC5/LIN_1.c **** *  True - if the flag is not cleared.
 526:.\Generated_Source\PSoC5/LIN_1.c **** *
 527:.\Generated_Source\PSoC5/LIN_1.c **** *******************************************************************************/
 528:.\Generated_Source\PSoC5/LIN_1.c **** l_bool l_flg_tst_arm(void)
 529:.\Generated_Source\PSoC5/LIN_1.c **** {
 458              		.loc 1 529 0
 459              		.cfi_startproc
 460              		@ args = 0, pretend = 0, frame = 8
 461              		@ frame_needed = 1, uses_anonymous_args = 0
 462              		@ link register save eliminated.
 463 0000 80B4     		push	{r7}
 464              	.LCFI21:
 465              		.cfi_def_cfa_offset 4
 466              		.cfi_offset 7, -4
 467 0002 83B0     		sub	sp, sp, #12
 468              	.LCFI22:
 469              		.cfi_def_cfa_offset 16
 470 0004 00AF     		add	r7, sp, #0
 471              	.LCFI23:
 472              		.cfi_def_cfa_register 7
 530:.\Generated_Source\PSoC5/LIN_1.c ****     l_bool result = LIN_1_FALSE;
 473              		.loc 1 530 0
 474 0006 4FF00003 		mov	r3, #0
 475 000a FB71     		strb	r3, [r7, #7]
 531:.\Generated_Source\PSoC5/LIN_1.c **** 
 532:.\Generated_Source\PSoC5/LIN_1.c ****     if(0u != (LIN_1_statusFlagArray[LIN_1_arm_FRAME_FLAG_BYTE_OFFSET_0] &
 476              		.loc 1 532 0
 477 000c 40F20003 		movw	r3, #:lower16:LIN_1_statusFlagArray
 478 0010 C0F20003 		movt	r3, #:upper16:LIN_1_statusFlagArray
 479 0014 1B78     		ldrb	r3, [r3, #0]	@ zero_extendqisi2
 480 0016 03F00103 		and	r3, r3, #1
 481 001a 002B     		cmp	r3, #0
 482 001c 02D0     		beq	.L32
 533:.\Generated_Source\PSoC5/LIN_1.c ****     LIN_1_arm_FRAME_FLAG_MASK_0))
 534:.\Generated_Source\PSoC5/LIN_1.c ****     {
 535:.\Generated_Source\PSoC5/LIN_1.c ****         result = LIN_1_TRUE;
 483              		.loc 1 535 0
 484 001e 4FF00103 		mov	r3, #1
 485 0022 FB71     		strb	r3, [r7, #7]
 486              	.L32:
 536:.\Generated_Source\PSoC5/LIN_1.c ****     }
 537:.\Generated_Source\PSoC5/LIN_1.c **** 
 538:.\Generated_Source\PSoC5/LIN_1.c ****     return(result);
 487              		.loc 1 538 0
 488 0024 FB79     		ldrb	r3, [r7, #7]	@ zero_extendqisi2
ARM GAS  C:\Users\MATSUD~1\AppData\Local\Temp\ccLjdAaK.s 			page 19


 539:.\Generated_Source\PSoC5/LIN_1.c **** }
 489              		.loc 1 539 0
 490 0026 1846     		mov	r0, r3
 491 0028 07F10C07 		add	r7, r7, #12
 492 002c BD46     		mov	sp, r7
 493 002e 80BC     		pop	{r7}
 494 0030 7047     		bx	lr
 495              		.cfi_endproc
 496              	.LFE8:
 497              		.size	l_flg_tst_arm, .-l_flg_tst_arm
 498 0032 00BF     		.section	.text.l_flg_tst_Frame1,"ax",%progbits
 499              		.align	2
 500              		.global	l_flg_tst_Frame1
 501              		.thumb
 502              		.thumb_func
 503              		.type	l_flg_tst_Frame1, %function
 504              	l_flg_tst_Frame1:
 505              	.LFB9:
 540:.\Generated_Source\PSoC5/LIN_1.c **** 
 541:.\Generated_Source\PSoC5/LIN_1.c **** /*******************************************************************************
 542:.\Generated_Source\PSoC5/LIN_1.c **** * Function Name: l_flg_tst_Frame1
 543:.\Generated_Source\PSoC5/LIN_1.c **** ********************************************************************************
 544:.\Generated_Source\PSoC5/LIN_1.c **** *
 545:.\Generated_Source\PSoC5/LIN_1.c **** * Summary:
 546:.\Generated_Source\PSoC5/LIN_1.c **** *  Returns a C boolean indicating the current state of the flag specified by
 547:.\Generated_Source\PSoC5/LIN_1.c **** *  the name fff, i.e. returns zero if the flag is cleared, non-zero otherwise.
 548:.\Generated_Source\PSoC5/LIN_1.c **** *
 549:.\Generated_Source\PSoC5/LIN_1.c **** * Parameters:
 550:.\Generated_Source\PSoC5/LIN_1.c **** *  None
 551:.\Generated_Source\PSoC5/LIN_1.c **** *
 552:.\Generated_Source\PSoC5/LIN_1.c **** * Return:
 553:.\Generated_Source\PSoC5/LIN_1.c **** *  Returns a C boolean indicating the current state of the flag specified by
 554:.\Generated_Source\PSoC5/LIN_1.c **** *  the name fff:
 555:.\Generated_Source\PSoC5/LIN_1.c **** *  False - if the flag is cleared;
 556:.\Generated_Source\PSoC5/LIN_1.c **** *  True - if the flag is not cleared.
 557:.\Generated_Source\PSoC5/LIN_1.c **** *
 558:.\Generated_Source\PSoC5/LIN_1.c **** *******************************************************************************/
 559:.\Generated_Source\PSoC5/LIN_1.c **** l_bool l_flg_tst_Frame1(void)
 560:.\Generated_Source\PSoC5/LIN_1.c **** {
 506              		.loc 1 560 0
 507              		.cfi_startproc
 508              		@ args = 0, pretend = 0, frame = 8
 509              		@ frame_needed = 1, uses_anonymous_args = 0
 510              		@ link register save eliminated.
 511 0000 80B4     		push	{r7}
 512              	.LCFI24:
 513              		.cfi_def_cfa_offset 4
 514              		.cfi_offset 7, -4
 515 0002 83B0     		sub	sp, sp, #12
 516              	.LCFI25:
 517              		.cfi_def_cfa_offset 16
 518 0004 00AF     		add	r7, sp, #0
 519              	.LCFI26:
 520              		.cfi_def_cfa_register 7
 561:.\Generated_Source\PSoC5/LIN_1.c ****     l_bool result = LIN_1_FALSE;
 521              		.loc 1 561 0
 522 0006 4FF00003 		mov	r3, #0
ARM GAS  C:\Users\MATSUD~1\AppData\Local\Temp\ccLjdAaK.s 			page 20


 523 000a FB71     		strb	r3, [r7, #7]
 562:.\Generated_Source\PSoC5/LIN_1.c **** 
 563:.\Generated_Source\PSoC5/LIN_1.c ****     if(0u != (LIN_1_statusFlagArray[LIN_1_Frame1_FRAME_FLAG_BYTE_OFFSET_0] &
 524              		.loc 1 563 0
 525 000c 40F20003 		movw	r3, #:lower16:LIN_1_statusFlagArray
 526 0010 C0F20003 		movt	r3, #:upper16:LIN_1_statusFlagArray
 527 0014 1B78     		ldrb	r3, [r3, #0]	@ zero_extendqisi2
 528 0016 03F00203 		and	r3, r3, #2
 529 001a 002B     		cmp	r3, #0
 530 001c 02D0     		beq	.L35
 564:.\Generated_Source\PSoC5/LIN_1.c ****     LIN_1_Frame1_FRAME_FLAG_MASK_0))
 565:.\Generated_Source\PSoC5/LIN_1.c ****     {
 566:.\Generated_Source\PSoC5/LIN_1.c ****         result = LIN_1_TRUE;
 531              		.loc 1 566 0
 532 001e 4FF00103 		mov	r3, #1
 533 0022 FB71     		strb	r3, [r7, #7]
 534              	.L35:
 567:.\Generated_Source\PSoC5/LIN_1.c ****     }
 568:.\Generated_Source\PSoC5/LIN_1.c **** 
 569:.\Generated_Source\PSoC5/LIN_1.c ****     return(result);
 535              		.loc 1 569 0
 536 0024 FB79     		ldrb	r3, [r7, #7]	@ zero_extendqisi2
 570:.\Generated_Source\PSoC5/LIN_1.c **** }
 537              		.loc 1 570 0
 538 0026 1846     		mov	r0, r3
 539 0028 07F10C07 		add	r7, r7, #12
 540 002c BD46     		mov	sp, r7
 541 002e 80BC     		pop	{r7}
 542 0030 7047     		bx	lr
 543              		.cfi_endproc
 544              	.LFE9:
 545              		.size	l_flg_tst_Frame1, .-l_flg_tst_Frame1
 546 0032 00BF     		.section	.text.l_flg_tst_Frame2,"ax",%progbits
 547              		.align	2
 548              		.global	l_flg_tst_Frame2
 549              		.thumb
 550              		.thumb_func
 551              		.type	l_flg_tst_Frame2, %function
 552              	l_flg_tst_Frame2:
 553              	.LFB10:
 571:.\Generated_Source\PSoC5/LIN_1.c **** 
 572:.\Generated_Source\PSoC5/LIN_1.c **** /*******************************************************************************
 573:.\Generated_Source\PSoC5/LIN_1.c **** * Function Name: l_flg_tst_Frame2
 574:.\Generated_Source\PSoC5/LIN_1.c **** ********************************************************************************
 575:.\Generated_Source\PSoC5/LIN_1.c **** *
 576:.\Generated_Source\PSoC5/LIN_1.c **** * Summary:
 577:.\Generated_Source\PSoC5/LIN_1.c **** *  Returns a C boolean indicating the current state of the flag specified by
 578:.\Generated_Source\PSoC5/LIN_1.c **** *  the name fff, i.e. returns zero if the flag is cleared, non-zero otherwise.
 579:.\Generated_Source\PSoC5/LIN_1.c **** *
 580:.\Generated_Source\PSoC5/LIN_1.c **** * Parameters:
 581:.\Generated_Source\PSoC5/LIN_1.c **** *  None
 582:.\Generated_Source\PSoC5/LIN_1.c **** *
 583:.\Generated_Source\PSoC5/LIN_1.c **** * Return:
 584:.\Generated_Source\PSoC5/LIN_1.c **** *  Returns a C boolean indicating the current state of the flag specified by
 585:.\Generated_Source\PSoC5/LIN_1.c **** *  the name fff:
 586:.\Generated_Source\PSoC5/LIN_1.c **** *  False - if the flag is cleared;
 587:.\Generated_Source\PSoC5/LIN_1.c **** *  True - if the flag is not cleared.
ARM GAS  C:\Users\MATSUD~1\AppData\Local\Temp\ccLjdAaK.s 			page 21


 588:.\Generated_Source\PSoC5/LIN_1.c **** *
 589:.\Generated_Source\PSoC5/LIN_1.c **** *******************************************************************************/
 590:.\Generated_Source\PSoC5/LIN_1.c **** l_bool l_flg_tst_Frame2(void)
 591:.\Generated_Source\PSoC5/LIN_1.c **** {
 554              		.loc 1 591 0
 555              		.cfi_startproc
 556              		@ args = 0, pretend = 0, frame = 8
 557              		@ frame_needed = 1, uses_anonymous_args = 0
 558              		@ link register save eliminated.
 559 0000 80B4     		push	{r7}
 560              	.LCFI27:
 561              		.cfi_def_cfa_offset 4
 562              		.cfi_offset 7, -4
 563 0002 83B0     		sub	sp, sp, #12
 564              	.LCFI28:
 565              		.cfi_def_cfa_offset 16
 566 0004 00AF     		add	r7, sp, #0
 567              	.LCFI29:
 568              		.cfi_def_cfa_register 7
 592:.\Generated_Source\PSoC5/LIN_1.c ****     l_bool result = LIN_1_FALSE;
 569              		.loc 1 592 0
 570 0006 4FF00003 		mov	r3, #0
 571 000a FB71     		strb	r3, [r7, #7]
 593:.\Generated_Source\PSoC5/LIN_1.c **** 
 594:.\Generated_Source\PSoC5/LIN_1.c ****     if(0u != (LIN_1_statusFlagArray[LIN_1_Frame2_FRAME_FLAG_BYTE_OFFSET_0] &
 572              		.loc 1 594 0
 573 000c 40F20003 		movw	r3, #:lower16:LIN_1_statusFlagArray
 574 0010 C0F20003 		movt	r3, #:upper16:LIN_1_statusFlagArray
 575 0014 1B78     		ldrb	r3, [r3, #0]	@ zero_extendqisi2
 576 0016 03F00403 		and	r3, r3, #4
 577 001a 002B     		cmp	r3, #0
 578 001c 02D0     		beq	.L38
 595:.\Generated_Source\PSoC5/LIN_1.c ****     LIN_1_Frame2_FRAME_FLAG_MASK_0))
 596:.\Generated_Source\PSoC5/LIN_1.c ****     {
 597:.\Generated_Source\PSoC5/LIN_1.c ****         result = LIN_1_TRUE;
 579              		.loc 1 597 0
 580 001e 4FF00103 		mov	r3, #1
 581 0022 FB71     		strb	r3, [r7, #7]
 582              	.L38:
 598:.\Generated_Source\PSoC5/LIN_1.c ****     }
 599:.\Generated_Source\PSoC5/LIN_1.c **** 
 600:.\Generated_Source\PSoC5/LIN_1.c ****     return(result);
 583              		.loc 1 600 0
 584 0024 FB79     		ldrb	r3, [r7, #7]	@ zero_extendqisi2
 601:.\Generated_Source\PSoC5/LIN_1.c **** }
 585              		.loc 1 601 0
 586 0026 1846     		mov	r0, r3
 587 0028 07F10C07 		add	r7, r7, #12
 588 002c BD46     		mov	sp, r7
 589 002e 80BC     		pop	{r7}
 590 0030 7047     		bx	lr
 591              		.cfi_endproc
 592              	.LFE10:
 593              		.size	l_flg_tst_Frame2, .-l_flg_tst_Frame2
 594 0032 00BF     		.section	.text.l_flg_clr,"ax",%progbits
 595              		.align	2
 596              		.global	l_flg_clr
ARM GAS  C:\Users\MATSUD~1\AppData\Local\Temp\ccLjdAaK.s 			page 22


 597              		.thumb
 598              		.thumb_func
 599              		.type	l_flg_clr, %function
 600              	l_flg_clr:
 601              	.LFB11:
 602:.\Generated_Source\PSoC5/LIN_1.c **** 
 603:.\Generated_Source\PSoC5/LIN_1.c **** 
 604:.\Generated_Source\PSoC5/LIN_1.c **** 
 605:.\Generated_Source\PSoC5/LIN_1.c **** 
 606:.\Generated_Source\PSoC5/LIN_1.c **** 
 607:.\Generated_Source\PSoC5/LIN_1.c **** 
 608:.\Generated_Source\PSoC5/LIN_1.c **** /*******************************************************************************
 609:.\Generated_Source\PSoC5/LIN_1.c **** * Function Name: l_flg_clr
 610:.\Generated_Source\PSoC5/LIN_1.c **** ********************************************************************************
 611:.\Generated_Source\PSoC5/LIN_1.c **** *
 612:.\Generated_Source\PSoC5/LIN_1.c **** * Summary:
 613:.\Generated_Source\PSoC5/LIN_1.c **** *  Sets the current value of the flag specified by the name fff to zero.
 614:.\Generated_Source\PSoC5/LIN_1.c **** *
 615:.\Generated_Source\PSoC5/LIN_1.c **** * Parameters:
 616:.\Generated_Source\PSoC5/LIN_1.c **** *  fff - is the name of the flag handle.
 617:.\Generated_Source\PSoC5/LIN_1.c **** *
 618:.\Generated_Source\PSoC5/LIN_1.c **** * Return:
 619:.\Generated_Source\PSoC5/LIN_1.c **** *  None
 620:.\Generated_Source\PSoC5/LIN_1.c **** *
 621:.\Generated_Source\PSoC5/LIN_1.c **** * Reentrant:
 622:.\Generated_Source\PSoC5/LIN_1.c **** *  No
 623:.\Generated_Source\PSoC5/LIN_1.c **** *
 624:.\Generated_Source\PSoC5/LIN_1.c **** *******************************************************************************/
 625:.\Generated_Source\PSoC5/LIN_1.c **** void l_flg_clr(l_flag_handle fff)
 626:.\Generated_Source\PSoC5/LIN_1.c **** {
 602              		.loc 1 626 0
 603              		.cfi_startproc
 604              		@ args = 0, pretend = 0, frame = 8
 605              		@ frame_needed = 1, uses_anonymous_args = 0
 606 0000 80B5     		push	{r7, lr}
 607              	.LCFI30:
 608              		.cfi_def_cfa_offset 8
 609              		.cfi_offset 7, -8
 610              		.cfi_offset 14, -4
 611 0002 82B0     		sub	sp, sp, #8
 612              	.LCFI31:
 613              		.cfi_def_cfa_offset 16
 614 0004 00AF     		add	r7, sp, #0
 615              	.LCFI32:
 616              		.cfi_def_cfa_register 7
 617 0006 0346     		mov	r3, r0
 618 0008 FB71     		strb	r3, [r7, #7]
 627:.\Generated_Source\PSoC5/LIN_1.c ****     switch(fff)
 619              		.loc 1 627 0
 620 000a FB79     		ldrb	r3, [r7, #7]	@ zero_extendqisi2
 621 000c 012B     		cmp	r3, #1
 622 000e 06D0     		beq	.L43
 623 0010 022B     		cmp	r3, #2
 624 0012 07D0     		beq	.L44
 625 0014 002B     		cmp	r3, #0
 626 0016 08D1     		bne	.L46
 627              	.L42:
ARM GAS  C:\Users\MATSUD~1\AppData\Local\Temp\ccLjdAaK.s 			page 23


 628:.\Generated_Source\PSoC5/LIN_1.c ****     {
 629:.\Generated_Source\PSoC5/LIN_1.c ****         case arm_FLAG_HANDLE:
 630:.\Generated_Source\PSoC5/LIN_1.c ****             l_flg_clr_arm();
 628              		.loc 1 630 0
 629 0018 FFF7FEFF 		bl	l_flg_clr_arm
 631:.\Generated_Source\PSoC5/LIN_1.c ****         break;
 630              		.loc 1 631 0
 631 001c 06E0     		b	.L40
 632              	.L43:
 632:.\Generated_Source\PSoC5/LIN_1.c **** 
 633:.\Generated_Source\PSoC5/LIN_1.c ****         case Frame1_FLAG_HANDLE:
 634:.\Generated_Source\PSoC5/LIN_1.c ****             l_flg_clr_Frame1();
 633              		.loc 1 634 0
 634 001e FFF7FEFF 		bl	l_flg_clr_Frame1
 635:.\Generated_Source\PSoC5/LIN_1.c ****         break;
 635              		.loc 1 635 0
 636 0022 03E0     		b	.L40
 637              	.L44:
 636:.\Generated_Source\PSoC5/LIN_1.c **** 
 637:.\Generated_Source\PSoC5/LIN_1.c ****         case Frame2_FLAG_HANDLE:
 638:.\Generated_Source\PSoC5/LIN_1.c ****             l_flg_clr_Frame2();
 638              		.loc 1 638 0
 639 0024 FFF7FEFF 		bl	l_flg_clr_Frame2
 639:.\Generated_Source\PSoC5/LIN_1.c ****         break;
 640              		.loc 1 639 0
 641 0028 00E0     		b	.L40
 642              	.L46:
 640:.\Generated_Source\PSoC5/LIN_1.c **** 
 641:.\Generated_Source\PSoC5/LIN_1.c ****         default:
 642:.\Generated_Source\PSoC5/LIN_1.c ****         break;
 643              		.loc 1 642 0
 644 002a 00BF     		nop
 645              	.L40:
 643:.\Generated_Source\PSoC5/LIN_1.c ****     }
 644:.\Generated_Source\PSoC5/LIN_1.c **** }
 646              		.loc 1 644 0
 647 002c 07F10807 		add	r7, r7, #8
 648 0030 BD46     		mov	sp, r7
 649 0032 80BD     		pop	{r7, pc}
 650              		.cfi_endproc
 651              	.LFE11:
 652              		.size	l_flg_clr, .-l_flg_clr
 653              		.section	.text.l_flg_clr_arm,"ax",%progbits
 654              		.align	2
 655              		.global	l_flg_clr_arm
 656              		.thumb
 657              		.thumb_func
 658              		.type	l_flg_clr_arm, %function
 659              	l_flg_clr_arm:
 660              	.LFB12:
 645:.\Generated_Source\PSoC5/LIN_1.c **** 
 646:.\Generated_Source\PSoC5/LIN_1.c **** 
 647:.\Generated_Source\PSoC5/LIN_1.c **** /*******************************************************************************
 648:.\Generated_Source\PSoC5/LIN_1.c **** * Function Name: l_flg_clr_arm
 649:.\Generated_Source\PSoC5/LIN_1.c **** ********************************************************************************
 650:.\Generated_Source\PSoC5/LIN_1.c **** *
 651:.\Generated_Source\PSoC5/LIN_1.c **** * Summary:
ARM GAS  C:\Users\MATSUD~1\AppData\Local\Temp\ccLjdAaK.s 			page 24


 652:.\Generated_Source\PSoC5/LIN_1.c **** *  Sets the current value of the flag specified by the name fff to zero.
 653:.\Generated_Source\PSoC5/LIN_1.c **** *
 654:.\Generated_Source\PSoC5/LIN_1.c **** * Parameters:
 655:.\Generated_Source\PSoC5/LIN_1.c **** *  None
 656:.\Generated_Source\PSoC5/LIN_1.c **** *
 657:.\Generated_Source\PSoC5/LIN_1.c **** * Return:
 658:.\Generated_Source\PSoC5/LIN_1.c **** *  None
 659:.\Generated_Source\PSoC5/LIN_1.c **** *
 660:.\Generated_Source\PSoC5/LIN_1.c **** * Reentrant:
 661:.\Generated_Source\PSoC5/LIN_1.c **** *  No
 662:.\Generated_Source\PSoC5/LIN_1.c **** *
 663:.\Generated_Source\PSoC5/LIN_1.c **** *******************************************************************************/
 664:.\Generated_Source\PSoC5/LIN_1.c **** void l_flg_clr_arm(void)
 665:.\Generated_Source\PSoC5/LIN_1.c **** {
 661              		.loc 1 665 0
 662              		.cfi_startproc
 663              		@ args = 0, pretend = 0, frame = 0
 664              		@ frame_needed = 1, uses_anonymous_args = 0
 665              		@ link register save eliminated.
 666 0000 80B4     		push	{r7}
 667              	.LCFI33:
 668              		.cfi_def_cfa_offset 4
 669              		.cfi_offset 7, -4
 670 0002 00AF     		add	r7, sp, #0
 671              	.LCFI34:
 672              		.cfi_def_cfa_register 7
 666:.\Generated_Source\PSoC5/LIN_1.c ****     LIN_1_statusFlagArray[LIN_1_arm_FRAME_FLAG_BYTE_OFFSET_0] &=
 673              		.loc 1 666 0
 674 0004 40F20003 		movw	r3, #:lower16:LIN_1_statusFlagArray
 675 0008 C0F20003 		movt	r3, #:upper16:LIN_1_statusFlagArray
 676 000c 1B78     		ldrb	r3, [r3, #0]	@ zero_extendqisi2
 677 000e 23F00103 		bic	r3, r3, #1
 678 0012 DAB2     		uxtb	r2, r3
 679 0014 40F20003 		movw	r3, #:lower16:LIN_1_statusFlagArray
 680 0018 C0F20003 		movt	r3, #:upper16:LIN_1_statusFlagArray
 681 001c 1A70     		strb	r2, [r3, #0]
 667:.\Generated_Source\PSoC5/LIN_1.c ****        ((l_u8) ~LIN_1_arm_FRAME_FLAG_MASK_0);
 668:.\Generated_Source\PSoC5/LIN_1.c **** }
 682              		.loc 1 668 0
 683 001e BD46     		mov	sp, r7
 684 0020 80BC     		pop	{r7}
 685 0022 7047     		bx	lr
 686              		.cfi_endproc
 687              	.LFE12:
 688              		.size	l_flg_clr_arm, .-l_flg_clr_arm
 689              		.section	.text.l_flg_clr_Frame1,"ax",%progbits
 690              		.align	2
 691              		.global	l_flg_clr_Frame1
 692              		.thumb
 693              		.thumb_func
 694              		.type	l_flg_clr_Frame1, %function
 695              	l_flg_clr_Frame1:
 696              	.LFB13:
 669:.\Generated_Source\PSoC5/LIN_1.c **** 
 670:.\Generated_Source\PSoC5/LIN_1.c **** /*******************************************************************************
 671:.\Generated_Source\PSoC5/LIN_1.c **** * Function Name: l_flg_clr_Frame1
 672:.\Generated_Source\PSoC5/LIN_1.c **** ********************************************************************************
ARM GAS  C:\Users\MATSUD~1\AppData\Local\Temp\ccLjdAaK.s 			page 25


 673:.\Generated_Source\PSoC5/LIN_1.c **** *
 674:.\Generated_Source\PSoC5/LIN_1.c **** * Summary:
 675:.\Generated_Source\PSoC5/LIN_1.c **** *  Sets the current value of the flag specified by the name fff to zero.
 676:.\Generated_Source\PSoC5/LIN_1.c **** *
 677:.\Generated_Source\PSoC5/LIN_1.c **** * Parameters:
 678:.\Generated_Source\PSoC5/LIN_1.c **** *  None
 679:.\Generated_Source\PSoC5/LIN_1.c **** *
 680:.\Generated_Source\PSoC5/LIN_1.c **** * Return:
 681:.\Generated_Source\PSoC5/LIN_1.c **** *  None
 682:.\Generated_Source\PSoC5/LIN_1.c **** *
 683:.\Generated_Source\PSoC5/LIN_1.c **** * Reentrant:
 684:.\Generated_Source\PSoC5/LIN_1.c **** *  No
 685:.\Generated_Source\PSoC5/LIN_1.c **** *
 686:.\Generated_Source\PSoC5/LIN_1.c **** *******************************************************************************/
 687:.\Generated_Source\PSoC5/LIN_1.c **** void l_flg_clr_Frame1(void)
 688:.\Generated_Source\PSoC5/LIN_1.c **** {
 697              		.loc 1 688 0
 698              		.cfi_startproc
 699              		@ args = 0, pretend = 0, frame = 0
 700              		@ frame_needed = 1, uses_anonymous_args = 0
 701              		@ link register save eliminated.
 702 0000 80B4     		push	{r7}
 703              	.LCFI35:
 704              		.cfi_def_cfa_offset 4
 705              		.cfi_offset 7, -4
 706 0002 00AF     		add	r7, sp, #0
 707              	.LCFI36:
 708              		.cfi_def_cfa_register 7
 689:.\Generated_Source\PSoC5/LIN_1.c ****     LIN_1_statusFlagArray[LIN_1_Frame1_FRAME_FLAG_BYTE_OFFSET_0] &=
 709              		.loc 1 689 0
 710 0004 40F20003 		movw	r3, #:lower16:LIN_1_statusFlagArray
 711 0008 C0F20003 		movt	r3, #:upper16:LIN_1_statusFlagArray
 712 000c 1B78     		ldrb	r3, [r3, #0]	@ zero_extendqisi2
 713 000e 23F00203 		bic	r3, r3, #2
 714 0012 DAB2     		uxtb	r2, r3
 715 0014 40F20003 		movw	r3, #:lower16:LIN_1_statusFlagArray
 716 0018 C0F20003 		movt	r3, #:upper16:LIN_1_statusFlagArray
 717 001c 1A70     		strb	r2, [r3, #0]
 690:.\Generated_Source\PSoC5/LIN_1.c ****        ((l_u8) ~LIN_1_Frame1_FRAME_FLAG_MASK_0);
 691:.\Generated_Source\PSoC5/LIN_1.c **** }
 718              		.loc 1 691 0
 719 001e BD46     		mov	sp, r7
 720 0020 80BC     		pop	{r7}
 721 0022 7047     		bx	lr
 722              		.cfi_endproc
 723              	.LFE13:
 724              		.size	l_flg_clr_Frame1, .-l_flg_clr_Frame1
 725              		.section	.text.l_flg_clr_Frame2,"ax",%progbits
 726              		.align	2
 727              		.global	l_flg_clr_Frame2
 728              		.thumb
 729              		.thumb_func
 730              		.type	l_flg_clr_Frame2, %function
 731              	l_flg_clr_Frame2:
 732              	.LFB14:
 692:.\Generated_Source\PSoC5/LIN_1.c **** 
 693:.\Generated_Source\PSoC5/LIN_1.c **** /*******************************************************************************
ARM GAS  C:\Users\MATSUD~1\AppData\Local\Temp\ccLjdAaK.s 			page 26


 694:.\Generated_Source\PSoC5/LIN_1.c **** * Function Name: l_flg_clr_Frame2
 695:.\Generated_Source\PSoC5/LIN_1.c **** ********************************************************************************
 696:.\Generated_Source\PSoC5/LIN_1.c **** *
 697:.\Generated_Source\PSoC5/LIN_1.c **** * Summary:
 698:.\Generated_Source\PSoC5/LIN_1.c **** *  Sets the current value of the flag specified by the name fff to zero.
 699:.\Generated_Source\PSoC5/LIN_1.c **** *
 700:.\Generated_Source\PSoC5/LIN_1.c **** * Parameters:
 701:.\Generated_Source\PSoC5/LIN_1.c **** *  None
 702:.\Generated_Source\PSoC5/LIN_1.c **** *
 703:.\Generated_Source\PSoC5/LIN_1.c **** * Return:
 704:.\Generated_Source\PSoC5/LIN_1.c **** *  None
 705:.\Generated_Source\PSoC5/LIN_1.c **** *
 706:.\Generated_Source\PSoC5/LIN_1.c **** * Reentrant:
 707:.\Generated_Source\PSoC5/LIN_1.c **** *  No
 708:.\Generated_Source\PSoC5/LIN_1.c **** *
 709:.\Generated_Source\PSoC5/LIN_1.c **** *******************************************************************************/
 710:.\Generated_Source\PSoC5/LIN_1.c **** void l_flg_clr_Frame2(void)
 711:.\Generated_Source\PSoC5/LIN_1.c **** {
 733              		.loc 1 711 0
 734              		.cfi_startproc
 735              		@ args = 0, pretend = 0, frame = 0
 736              		@ frame_needed = 1, uses_anonymous_args = 0
 737              		@ link register save eliminated.
 738 0000 80B4     		push	{r7}
 739              	.LCFI37:
 740              		.cfi_def_cfa_offset 4
 741              		.cfi_offset 7, -4
 742 0002 00AF     		add	r7, sp, #0
 743              	.LCFI38:
 744              		.cfi_def_cfa_register 7
 712:.\Generated_Source\PSoC5/LIN_1.c ****     LIN_1_statusFlagArray[LIN_1_Frame2_FRAME_FLAG_BYTE_OFFSET_0] &=
 745              		.loc 1 712 0
 746 0004 40F20003 		movw	r3, #:lower16:LIN_1_statusFlagArray
 747 0008 C0F20003 		movt	r3, #:upper16:LIN_1_statusFlagArray
 748 000c 1B78     		ldrb	r3, [r3, #0]	@ zero_extendqisi2
 749 000e 23F00403 		bic	r3, r3, #4
 750 0012 DAB2     		uxtb	r2, r3
 751 0014 40F20003 		movw	r3, #:lower16:LIN_1_statusFlagArray
 752 0018 C0F20003 		movt	r3, #:upper16:LIN_1_statusFlagArray
 753 001c 1A70     		strb	r2, [r3, #0]
 713:.\Generated_Source\PSoC5/LIN_1.c ****        ((l_u8) ~LIN_1_Frame2_FRAME_FLAG_MASK_0);
 714:.\Generated_Source\PSoC5/LIN_1.c **** }
 754              		.loc 1 714 0
 755 001e BD46     		mov	sp, r7
 756 0020 80BC     		pop	{r7}
 757 0022 7047     		bx	lr
 758              		.cfi_endproc
 759              	.LFE14:
 760              		.size	l_flg_clr_Frame2, .-l_flg_clr_Frame2
 761              		.section	.text.l_ifc_init_LIN_1,"ax",%progbits
 762              		.align	2
 763              		.global	l_ifc_init_LIN_1
 764              		.thumb
 765              		.thumb_func
 766              		.type	l_ifc_init_LIN_1, %function
 767              	l_ifc_init_LIN_1:
 768              	.LFB15:
ARM GAS  C:\Users\MATSUD~1\AppData\Local\Temp\ccLjdAaK.s 			page 27


 715:.\Generated_Source\PSoC5/LIN_1.c **** 
 716:.\Generated_Source\PSoC5/LIN_1.c **** 
 717:.\Generated_Source\PSoC5/LIN_1.c **** 
 718:.\Generated_Source\PSoC5/LIN_1.c **** 
 719:.\Generated_Source\PSoC5/LIN_1.c **** 
 720:.\Generated_Source\PSoC5/LIN_1.c **** 
 721:.\Generated_Source\PSoC5/LIN_1.c **** 
 722:.\Generated_Source\PSoC5/LIN_1.c **** /*******************************************************************************
 723:.\Generated_Source\PSoC5/LIN_1.c **** * Function Name: l_ifc_init_LIN_1
 724:.\Generated_Source\PSoC5/LIN_1.c **** ********************************************************************************
 725:.\Generated_Source\PSoC5/LIN_1.c **** *
 726:.\Generated_Source\PSoC5/LIN_1.c **** * Summary:
 727:.\Generated_Source\PSoC5/LIN_1.c **** *  The function initializes the LIN Slave component instance that is specified
 728:.\Generated_Source\PSoC5/LIN_1.c **** *  by the name iii. It sets up internal functions such as the baud rate and
 729:.\Generated_Source\PSoC5/LIN_1.c **** *  starts up digital blocks that are used by the LIN Slave component. This is
 730:.\Generated_Source\PSoC5/LIN_1.c **** *  the first call that must be performed, before using any other interface-
 731:.\Generated_Source\PSoC5/LIN_1.c **** *  related LIN Slave API functions.
 732:.\Generated_Source\PSoC5/LIN_1.c **** *
 733:.\Generated_Source\PSoC5/LIN_1.c **** * Parameters:
 734:.\Generated_Source\PSoC5/LIN_1.c **** *  None
 735:.\Generated_Source\PSoC5/LIN_1.c **** *
 736:.\Generated_Source\PSoC5/LIN_1.c **** * Return:
 737:.\Generated_Source\PSoC5/LIN_1.c **** *  The 0 is returned if operation succeeded and 1 if an invalid operation
 738:.\Generated_Source\PSoC5/LIN_1.c **** *  parameter was passed to the function.
 739:.\Generated_Source\PSoC5/LIN_1.c **** *
 740:.\Generated_Source\PSoC5/LIN_1.c **** * Reentrant:
 741:.\Generated_Source\PSoC5/LIN_1.c **** *  No
 742:.\Generated_Source\PSoC5/LIN_1.c **** *
 743:.\Generated_Source\PSoC5/LIN_1.c **** *******************************************************************************/
 744:.\Generated_Source\PSoC5/LIN_1.c **** l_bool l_ifc_init_LIN_1(void) 
 745:.\Generated_Source\PSoC5/LIN_1.c **** {
 769              		.loc 1 745 0
 770              		.cfi_startproc
 771              		@ args = 0, pretend = 0, frame = 8
 772              		@ frame_needed = 1, uses_anonymous_args = 0
 773 0000 80B5     		push	{r7, lr}
 774              	.LCFI39:
 775              		.cfi_def_cfa_offset 8
 776              		.cfi_offset 7, -8
 777              		.cfi_offset 14, -4
 778 0002 82B0     		sub	sp, sp, #8
 779              	.LCFI40:
 780              		.cfi_def_cfa_offset 16
 781 0004 00AF     		add	r7, sp, #0
 782              	.LCFI41:
 783              		.cfi_def_cfa_register 7
 746:.\Generated_Source\PSoC5/LIN_1.c ****     l_u8 interruptState;
 747:.\Generated_Source\PSoC5/LIN_1.c ****     l_u8 i;
 748:.\Generated_Source\PSoC5/LIN_1.c **** 
 749:.\Generated_Source\PSoC5/LIN_1.c ****     /* Set bLIN interrupt priority */
 750:.\Generated_Source\PSoC5/LIN_1.c ****     CyIntSetPriority(LIN_1_BLIN_ISR_NUMBER, LIN_1_BLIN_ISR_PRIORITY);
 784              		.loc 1 750 0
 785 0006 4FF00000 		mov	r0, #0
 786 000a 4FF00701 		mov	r1, #7
 787 000e FFF7FEFF 		bl	CyIntSetPriority
 751:.\Generated_Source\PSoC5/LIN_1.c **** 
 752:.\Generated_Source\PSoC5/LIN_1.c ****     /* Set bLIN interrupt vector */
ARM GAS  C:\Users\MATSUD~1\AppData\Local\Temp\ccLjdAaK.s 			page 28


 753:.\Generated_Source\PSoC5/LIN_1.c ****     (void) CyIntSetVector(LIN_1_BLIN_ISR_NUMBER, &LIN_1_BLIN_ISR);
 788              		.loc 1 753 0
 789 0012 4FF00000 		mov	r0, #0
 790 0016 40F20001 		movw	r1, #:lower16:LIN_1_BLIN_ISR
 791 001a C0F20001 		movt	r1, #:upper16:LIN_1_BLIN_ISR
 792 001e FFF7FEFF 		bl	CyIntSetVector
 754:.\Generated_Source\PSoC5/LIN_1.c **** 
 755:.\Generated_Source\PSoC5/LIN_1.c ****     /* Clear any pending bLIN interrupt */
 756:.\Generated_Source\PSoC5/LIN_1.c ****     CyIntClearPending(LIN_1_BLIN_ISR_NUMBER);
 793              		.loc 1 756 0
 794 0022 4EF28023 		movw	r3, #57984
 795 0026 CEF20003 		movt	r3, 57344
 796 002a 4FF00102 		mov	r2, #1
 797 002e 1A60     		str	r2, [r3, #0]
 757:.\Generated_Source\PSoC5/LIN_1.c **** 
 758:.\Generated_Source\PSoC5/LIN_1.c ****     /* Clear any pending bLIN interrupt */
 759:.\Generated_Source\PSoC5/LIN_1.c ****     CyIntClearPending(LIN_1_BLIN_ISR_NUMBER);
 798              		.loc 1 759 0
 799 0030 4EF28023 		movw	r3, #57984
 800 0034 CEF20003 		movt	r3, 57344
 801 0038 4FF00102 		mov	r2, #1
 802 003c 1A60     		str	r2, [r3, #0]
 760:.\Generated_Source\PSoC5/LIN_1.c **** 
 761:.\Generated_Source\PSoC5/LIN_1.c ****     /* Set UART interrupt priority */
 762:.\Generated_Source\PSoC5/LIN_1.c ****     CyIntSetPriority(LIN_1_UART_ISR_NUMBER, LIN_1_UART_ISR_PRIORITY);
 803              		.loc 1 762 0
 804 003e 4FF00100 		mov	r0, #1
 805 0042 4FF00701 		mov	r1, #7
 806 0046 FFF7FEFF 		bl	CyIntSetPriority
 763:.\Generated_Source\PSoC5/LIN_1.c **** 
 764:.\Generated_Source\PSoC5/LIN_1.c ****     /* Set UART interrupt vector */
 765:.\Generated_Source\PSoC5/LIN_1.c ****     (void) CyIntSetVector(LIN_1_UART_ISR_NUMBER, &LIN_1_UART_ISR);
 807              		.loc 1 765 0
 808 004a 4FF00100 		mov	r0, #1
 809 004e 40F20001 		movw	r1, #:lower16:LIN_1_UART_ISR
 810 0052 C0F20001 		movt	r1, #:upper16:LIN_1_UART_ISR
 811 0056 FFF7FEFF 		bl	CyIntSetVector
 766:.\Generated_Source\PSoC5/LIN_1.c **** 
 767:.\Generated_Source\PSoC5/LIN_1.c ****     /* Start UART */
 768:.\Generated_Source\PSoC5/LIN_1.c ****     LIN_1_UART_Start();
 812              		.loc 1 768 0
 813 005a FFF7FEFF 		bl	LIN_1_UART_Start
 769:.\Generated_Source\PSoC5/LIN_1.c **** 
 770:.\Generated_Source\PSoC5/LIN_1.c ****     /* Set Break Detection Threshold in counts */
 771:.\Generated_Source\PSoC5/LIN_1.c ****     LIN_1_BREAK_THRESHOLD_REG = (l_u8) LIN_1_BREAK_THRESHOLD_VALUE;
 814              		.loc 1 771 0
 815 005e 46F22543 		movw	r3, #25637
 816 0062 C4F20003 		movt	r3, 16384
 817 0066 4FF0B002 		mov	r2, #176
 818 006a 1A70     		strb	r2, [r3, #0]
 772:.\Generated_Source\PSoC5/LIN_1.c **** 
 773:.\Generated_Source\PSoC5/LIN_1.c ****     /* Allow interrupts on break, sync and inactivity (optional) events */
 774:.\Generated_Source\PSoC5/LIN_1.c ****     LIN_1_INT_MASK_REG |= (LIN_1_INT_MASK_BREAK     |
 819              		.loc 1 774 0
 820 006c 46F28643 		movw	r3, #25734
 821 0070 C4F20003 		movt	r3, 16384
 822 0074 46F28642 		movw	r2, #25734
ARM GAS  C:\Users\MATSUD~1\AppData\Local\Temp\ccLjdAaK.s 			page 29


 823 0078 C4F20002 		movt	r2, 16384
 824 007c 1278     		ldrb	r2, [r2, #0]
 825 007e D2B2     		uxtb	r2, r2
 826 0080 42F00D02 		orr	r2, r2, #13
 827 0084 D2B2     		uxtb	r2, r2
 828 0086 1A70     		strb	r2, [r3, #0]
 775:.\Generated_Source\PSoC5/LIN_1.c ****                                       LIN_1_INT_MASK_SYNC      |
 776:.\Generated_Source\PSoC5/LIN_1.c ****                                       LIN_1_INT_MASK_INACTIVITY);
 777:.\Generated_Source\PSoC5/LIN_1.c **** 
 778:.\Generated_Source\PSoC5/LIN_1.c ****     interruptState = CyEnterCriticalSection();
 829              		.loc 1 778 0
 830 0088 FFF7FEFF 		bl	CyEnterCriticalSection
 831 008c 0346     		mov	r3, r0
 832 008e BB71     		strb	r3, [r7, #6]
 779:.\Generated_Source\PSoC5/LIN_1.c **** 
 780:.\Generated_Source\PSoC5/LIN_1.c ****     LIN_1_STATUS_AUX_CONTROL_REG |= LIN_1_STATUS_AUX_CONTROL_INT_EN;
 833              		.loc 1 780 0
 834 0090 46F29643 		movw	r3, #25750
 835 0094 C4F20003 		movt	r3, 16384
 836 0098 46F29642 		movw	r2, #25750
 837 009c C4F20002 		movt	r2, 16384
 838 00a0 1278     		ldrb	r2, [r2, #0]
 839 00a2 D2B2     		uxtb	r2, r2
 840 00a4 42F01002 		orr	r2, r2, #16
 841 00a8 D2B2     		uxtb	r2, r2
 842 00aa 1A70     		strb	r2, [r3, #0]
 781:.\Generated_Source\PSoC5/LIN_1.c **** 
 782:.\Generated_Source\PSoC5/LIN_1.c ****     CyExitCriticalSection(interruptState);
 843              		.loc 1 782 0
 844 00ac BB79     		ldrb	r3, [r7, #6]	@ zero_extendqisi2
 845 00ae 1846     		mov	r0, r3
 846 00b0 FFF7FEFF 		bl	CyExitCriticalSection
 783:.\Generated_Source\PSoC5/LIN_1.c **** 
 784:.\Generated_Source\PSoC5/LIN_1.c ****     /* Bus inactivity block configuration */
 785:.\Generated_Source\PSoC5/LIN_1.c ****     #if(1u == LIN_1_INACTIVITY_ENABLED)
 786:.\Generated_Source\PSoC5/LIN_1.c **** 
 787:.\Generated_Source\PSoC5/LIN_1.c ****         /* Bus inactivity block configuration to issue interrupt every 100 ms */
 788:.\Generated_Source\PSoC5/LIN_1.c ****         LIN_1_INACTIVITY_DIV0_REG = LIN_1_INACT_DIV0;
 847              		.loc 1 788 0
 848 00b4 46F22653 		movw	r3, #25894
 849 00b8 C4F20003 		movt	r3, 16384
 850 00bc 4FF00002 		mov	r2, #0
 851 00c0 1A70     		strb	r2, [r3, #0]
 789:.\Generated_Source\PSoC5/LIN_1.c ****         LIN_1_INACTIVITY_DIV1_REG = LIN_1_INACT_DIV1;
 852              		.loc 1 789 0
 853 00c2 46F23653 		movw	r3, #25910
 854 00c6 C4F20003 		movt	r3, 16384
 855 00ca 4FF07802 		mov	r2, #120
 856 00ce 1A70     		strb	r2, [r3, #0]
 790:.\Generated_Source\PSoC5/LIN_1.c **** 
 791:.\Generated_Source\PSoC5/LIN_1.c ****     #endif  /* (1u == LIN_1_INACTIVITY_ENABLED) */
 792:.\Generated_Source\PSoC5/LIN_1.c **** 
 793:.\Generated_Source\PSoC5/LIN_1.c **** 
 794:.\Generated_Source\PSoC5/LIN_1.c ****     /* Save clock divider */
 795:.\Generated_Source\PSoC5/LIN_1.c ****      #if(1u == LIN_1_AUTO_BAUD_RATE_SYNC)
 796:.\Generated_Source\PSoC5/LIN_1.c **** 
 797:.\Generated_Source\PSoC5/LIN_1.c ****         /* Save default clock divider */
ARM GAS  C:\Users\MATSUD~1\AppData\Local\Temp\ccLjdAaK.s 			page 30


 798:.\Generated_Source\PSoC5/LIN_1.c ****         LIN_1_initialClockDivider = LIN_1_IntClk_GetDividerRegister();
 857              		.loc 1 798 0
 858 00d0 FFF7FEFF 		bl	LIN_1_IntClk_GetDividerRegister
 859 00d4 0346     		mov	r3, r0
 860 00d6 1A46     		mov	r2, r3
 861 00d8 40F20003 		movw	r3, #:lower16:LIN_1_initialClockDivider
 862 00dc C0F20003 		movt	r3, #:upper16:LIN_1_initialClockDivider
 863 00e0 1A80     		strh	r2, [r3, #0]	@ movhi
 799:.\Generated_Source\PSoC5/LIN_1.c **** 
 800:.\Generated_Source\PSoC5/LIN_1.c ****     #endif  /* (1u == LIN_1_AUTO_BAUD_RATE_SYNC) */
 801:.\Generated_Source\PSoC5/LIN_1.c **** 
 802:.\Generated_Source\PSoC5/LIN_1.c ****     /* Enable hardware blocks operation */
 803:.\Generated_Source\PSoC5/LIN_1.c ****     LIN_1_CONTROL_REG |= LIN_1_CONTROL_ENABLE;
 864              		.loc 1 803 0
 865 00e2 46F27643 		movw	r3, #25718
 866 00e6 C4F20003 		movt	r3, 16384
 867 00ea 46F27642 		movw	r2, #25718
 868 00ee C4F20002 		movt	r2, 16384
 869 00f2 1278     		ldrb	r2, [r2, #0]
 870 00f4 D2B2     		uxtb	r2, r2
 871 00f6 42F00102 		orr	r2, r2, #1
 872 00fa D2B2     		uxtb	r2, r2
 873 00fc 1A70     		strb	r2, [r3, #0]
 804:.\Generated_Source\PSoC5/LIN_1.c **** 
 805:.\Generated_Source\PSoC5/LIN_1.c ****     /* Copy PIDs from NVRAM to VRAM */
 806:.\Generated_Source\PSoC5/LIN_1.c ****     for(i = 0u; i < LIN_1_NUM_FRAMES; i++)
 874              		.loc 1 806 0
 875 00fe 4FF00003 		mov	r3, #0
 876 0102 FB71     		strb	r3, [r7, #7]
 877 0104 0FE0     		b	.L51
 878              	.L52:
 807:.\Generated_Source\PSoC5/LIN_1.c ****     {
 808:.\Generated_Source\PSoC5/LIN_1.c ****         LIN_1_volatileConfig[i] = LIN_1_LinSlaveConfig.pidTable[i];
 879              		.loc 1 808 0 discriminator 2
 880 0106 FA79     		ldrb	r2, [r7, #7]	@ zero_extendqisi2
 881 0108 F979     		ldrb	r1, [r7, #7]	@ zero_extendqisi2
 882 010a 40F20003 		movw	r3, #:lower16:LIN_1_LinSlaveConfig
 883 010e C0F20003 		movt	r3, #:upper16:LIN_1_LinSlaveConfig
 884 0112 595C     		ldrb	r1, [r3, r1]	@ zero_extendqisi2
 885 0114 40F20003 		movw	r3, #:lower16:LIN_1_volatileConfig
 886 0118 C0F20003 		movt	r3, #:upper16:LIN_1_volatileConfig
 887 011c 9954     		strb	r1, [r3, r2]
 806:.\Generated_Source\PSoC5/LIN_1.c ****     for(i = 0u; i < LIN_1_NUM_FRAMES; i++)
 888              		.loc 1 806 0 discriminator 2
 889 011e FB79     		ldrb	r3, [r7, #7]
 890 0120 03F10103 		add	r3, r3, #1
 891 0124 FB71     		strb	r3, [r7, #7]
 892              	.L51:
 806:.\Generated_Source\PSoC5/LIN_1.c ****     for(i = 0u; i < LIN_1_NUM_FRAMES; i++)
 893              		.loc 1 806 0 is_stmt 0 discriminator 1
 894 0126 FB79     		ldrb	r3, [r7, #7]	@ zero_extendqisi2
 895 0128 012B     		cmp	r3, #1
 896 012a ECD9     		bls	.L52
 809:.\Generated_Source\PSoC5/LIN_1.c ****     }
 810:.\Generated_Source\PSoC5/LIN_1.c **** 
 811:.\Generated_Source\PSoC5/LIN_1.c ****     #if(1u == LIN_1_TL_ENABLED)
 812:.\Generated_Source\PSoC5/LIN_1.c **** 
ARM GAS  C:\Users\MATSUD~1\AppData\Local\Temp\ccLjdAaK.s 			page 31


 813:.\Generated_Source\PSoC5/LIN_1.c ****         LIN_1_nad = LIN_1_LinSlaveConfig.initialNad;
 814:.\Generated_Source\PSoC5/LIN_1.c **** 
 815:.\Generated_Source\PSoC5/LIN_1.c ****     #endif /* (1u == LIN_1_TL_ENABLED) */
 816:.\Generated_Source\PSoC5/LIN_1.c **** 
 817:.\Generated_Source\PSoC5/LIN_1.c ****     /*  Clear interface status */
 818:.\Generated_Source\PSoC5/LIN_1.c ****     LIN_1_ifcStatus &= (l_u16) ~LIN_1_IFC_STS_MASK;
 897              		.loc 1 818 0 is_stmt 1
 898 012c 40F20003 		movw	r3, #:lower16:LIN_1_ifcStatus
 899 0130 C0F20003 		movt	r3, #:upper16:LIN_1_ifcStatus
 900 0134 1B88     		ldrh	r3, [r3, #0]	@ movhi
 901 0136 40F20003 		movw	r3, #:lower16:LIN_1_ifcStatus
 902 013a C0F20003 		movt	r3, #:upper16:LIN_1_ifcStatus
 903 013e 4FF00002 		mov	r2, #0
 904 0142 1A80     		strh	r2, [r3, #0]	@ movhi
 819:.\Generated_Source\PSoC5/LIN_1.c **** 
 820:.\Generated_Source\PSoC5/LIN_1.c ****     /* Enable bLIN interrupt */
 821:.\Generated_Source\PSoC5/LIN_1.c ****     CyIntEnable(LIN_1_BLIN_ISR_NUMBER);
 905              		.loc 1 821 0
 906 0144 4FF46143 		mov	r3, #57600
 907 0148 CEF20003 		movt	r3, 57344
 908 014c 4FF00102 		mov	r2, #1
 909 0150 1A60     		str	r2, [r3, #0]
 822:.\Generated_Source\PSoC5/LIN_1.c **** 
 823:.\Generated_Source\PSoC5/LIN_1.c ****     /* Initialization is always expected to succeeded */
 824:.\Generated_Source\PSoC5/LIN_1.c ****     return (LIN_1_FALSE);
 910              		.loc 1 824 0
 911 0152 4FF00003 		mov	r3, #0
 825:.\Generated_Source\PSoC5/LIN_1.c **** }
 912              		.loc 1 825 0
 913 0156 1846     		mov	r0, r3
 914 0158 07F10807 		add	r7, r7, #8
 915 015c BD46     		mov	sp, r7
 916 015e 80BD     		pop	{r7, pc}
 917              		.cfi_endproc
 918              	.LFE15:
 919              		.size	l_ifc_init_LIN_1, .-l_ifc_init_LIN_1
 920              		.section	.text.l_ifc_init,"ax",%progbits
 921              		.align	2
 922              		.global	l_ifc_init
 923              		.thumb
 924              		.thumb_func
 925              		.type	l_ifc_init, %function
 926              	l_ifc_init:
 927              	.LFB16:
 826:.\Generated_Source\PSoC5/LIN_1.c **** 
 827:.\Generated_Source\PSoC5/LIN_1.c **** 
 828:.\Generated_Source\PSoC5/LIN_1.c **** /*******************************************************************************
 829:.\Generated_Source\PSoC5/LIN_1.c **** * Function Name: l_ifc_init
 830:.\Generated_Source\PSoC5/LIN_1.c **** ********************************************************************************
 831:.\Generated_Source\PSoC5/LIN_1.c **** *
 832:.\Generated_Source\PSoC5/LIN_1.c **** * Summary:
 833:.\Generated_Source\PSoC5/LIN_1.c **** *  The function initializes the LIN Slave component instance that is specified
 834:.\Generated_Source\PSoC5/LIN_1.c **** *  by the name iii. It sets up internal functions such as the baud rate and
 835:.\Generated_Source\PSoC5/LIN_1.c **** *  starts up digital blocks that are used by the LIN Slave component. This is
 836:.\Generated_Source\PSoC5/LIN_1.c **** *  the first call that must be performed, before using any other interface-
 837:.\Generated_Source\PSoC5/LIN_1.c **** *  related LIN Slave API functions.
 838:.\Generated_Source\PSoC5/LIN_1.c **** *
ARM GAS  C:\Users\MATSUD~1\AppData\Local\Temp\ccLjdAaK.s 			page 32


 839:.\Generated_Source\PSoC5/LIN_1.c **** * Parameters:
 840:.\Generated_Source\PSoC5/LIN_1.c **** *  iii - is the name of the interface handle.
 841:.\Generated_Source\PSoC5/LIN_1.c **** *
 842:.\Generated_Source\PSoC5/LIN_1.c **** * Return:
 843:.\Generated_Source\PSoC5/LIN_1.c **** *  The 0 is returned if operation succeeded and 1 if an invalid operation
 844:.\Generated_Source\PSoC5/LIN_1.c **** *  parameter was passed to the function.
 845:.\Generated_Source\PSoC5/LIN_1.c **** *
 846:.\Generated_Source\PSoC5/LIN_1.c **** * Reentrant:
 847:.\Generated_Source\PSoC5/LIN_1.c **** *  No
 848:.\Generated_Source\PSoC5/LIN_1.c **** *
 849:.\Generated_Source\PSoC5/LIN_1.c **** *******************************************************************************/
 850:.\Generated_Source\PSoC5/LIN_1.c **** l_bool l_ifc_init(l_ifc_handle iii) 
 851:.\Generated_Source\PSoC5/LIN_1.c **** {
 928              		.loc 1 851 0
 929              		.cfi_startproc
 930              		@ args = 0, pretend = 0, frame = 16
 931              		@ frame_needed = 1, uses_anonymous_args = 0
 932 0000 80B5     		push	{r7, lr}
 933              	.LCFI42:
 934              		.cfi_def_cfa_offset 8
 935              		.cfi_offset 7, -8
 936              		.cfi_offset 14, -4
 937 0002 84B0     		sub	sp, sp, #16
 938              	.LCFI43:
 939              		.cfi_def_cfa_offset 24
 940 0004 00AF     		add	r7, sp, #0
 941              	.LCFI44:
 942              		.cfi_def_cfa_register 7
 943 0006 0346     		mov	r3, r0
 944 0008 FB71     		strb	r3, [r7, #7]
 852:.\Generated_Source\PSoC5/LIN_1.c ****     l_bool returnValue;
 853:.\Generated_Source\PSoC5/LIN_1.c **** 
 854:.\Generated_Source\PSoC5/LIN_1.c ****     switch(iii)
 945              		.loc 1 854 0
 946 000a FB79     		ldrb	r3, [r7, #7]	@ zero_extendqisi2
 947 000c 002B     		cmp	r3, #0
 948 000e 04D1     		bne	.L59
 949              	.L56:
 855:.\Generated_Source\PSoC5/LIN_1.c ****     {
 856:.\Generated_Source\PSoC5/LIN_1.c ****         case LIN_1_IFC_HANDLE:
 857:.\Generated_Source\PSoC5/LIN_1.c ****             returnValue = l_ifc_init_LIN_1();
 950              		.loc 1 857 0
 951 0010 FFF7FEFF 		bl	l_ifc_init_LIN_1
 952 0014 0346     		mov	r3, r0
 953 0016 FB73     		strb	r3, [r7, #15]
 858:.\Generated_Source\PSoC5/LIN_1.c ****         break;
 954              		.loc 1 858 0
 955 0018 03E0     		b	.L57
 956              	.L59:
 859:.\Generated_Source\PSoC5/LIN_1.c **** 
 860:.\Generated_Source\PSoC5/LIN_1.c ****         default:
 861:.\Generated_Source\PSoC5/LIN_1.c ****             /* Unknown interface handle */
 862:.\Generated_Source\PSoC5/LIN_1.c ****             returnValue = LIN_1_TRUE;
 957              		.loc 1 862 0
 958 001a 4FF00103 		mov	r3, #1
 959 001e FB73     		strb	r3, [r7, #15]
 863:.\Generated_Source\PSoC5/LIN_1.c ****         break;
ARM GAS  C:\Users\MATSUD~1\AppData\Local\Temp\ccLjdAaK.s 			page 33


 960              		.loc 1 863 0
 961 0020 00BF     		nop
 962              	.L57:
 864:.\Generated_Source\PSoC5/LIN_1.c ****     }
 865:.\Generated_Source\PSoC5/LIN_1.c **** 
 866:.\Generated_Source\PSoC5/LIN_1.c ****     return (returnValue);
 963              		.loc 1 866 0
 964 0022 FB7B     		ldrb	r3, [r7, #15]	@ zero_extendqisi2
 867:.\Generated_Source\PSoC5/LIN_1.c **** }
 965              		.loc 1 867 0
 966 0024 1846     		mov	r0, r3
 967 0026 07F11007 		add	r7, r7, #16
 968 002a BD46     		mov	sp, r7
 969 002c 80BD     		pop	{r7, pc}
 970              		.cfi_endproc
 971              	.LFE16:
 972              		.size	l_ifc_init, .-l_ifc_init
 973 002e 00BF     		.section	.text.l_ifc_wake_up_LIN_1,"ax",%progbits
 974              		.align	2
 975              		.global	l_ifc_wake_up_LIN_1
 976              		.thumb
 977              		.thumb_func
 978              		.type	l_ifc_wake_up_LIN_1, %function
 979              	l_ifc_wake_up_LIN_1:
 980              	.LFB17:
 868:.\Generated_Source\PSoC5/LIN_1.c **** 
 869:.\Generated_Source\PSoC5/LIN_1.c **** 
 870:.\Generated_Source\PSoC5/LIN_1.c **** /*******************************************************************************
 871:.\Generated_Source\PSoC5/LIN_1.c **** * Function Name: l_ifc_wake_up
 872:.\Generated_Source\PSoC5/LIN_1.c **** ********************************************************************************
 873:.\Generated_Source\PSoC5/LIN_1.c **** *
 874:.\Generated_Source\PSoC5/LIN_1.c **** * Summary:
 875:.\Generated_Source\PSoC5/LIN_1.c **** *  This function transmits one wakeup signal. The wakeup signal is transmitted
 876:.\Generated_Source\PSoC5/LIN_1.c **** *  directly when this function is called. When you call this API function, the
 877:.\Generated_Source\PSoC5/LIN_1.c **** *  application is blocked until a wakeup signal is transmitted on the LIN bus.
 878:.\Generated_Source\PSoC5/LIN_1.c **** *  The CyDelayUs() function is used as the timing source. The delay is
 879:.\Generated_Source\PSoC5/LIN_1.c **** *  calculated based on the clock configuration entered in PSoC Creator.
 880:.\Generated_Source\PSoC5/LIN_1.c **** *
 881:.\Generated_Source\PSoC5/LIN_1.c **** * Parameters:
 882:.\Generated_Source\PSoC5/LIN_1.c **** *  None
 883:.\Generated_Source\PSoC5/LIN_1.c **** *
 884:.\Generated_Source\PSoC5/LIN_1.c **** * Return:
 885:.\Generated_Source\PSoC5/LIN_1.c **** *  None
 886:.\Generated_Source\PSoC5/LIN_1.c **** *
 887:.\Generated_Source\PSoC5/LIN_1.c **** *******************************************************************************/
 888:.\Generated_Source\PSoC5/LIN_1.c **** void l_ifc_wake_up_LIN_1(void) 
 889:.\Generated_Source\PSoC5/LIN_1.c **** {
 981              		.loc 1 889 0
 982              		.cfi_startproc
 983              		@ args = 0, pretend = 0, frame = 0
 984              		@ frame_needed = 1, uses_anonymous_args = 0
 985 0000 80B5     		push	{r7, lr}
 986              	.LCFI45:
 987              		.cfi_def_cfa_offset 8
 988              		.cfi_offset 7, -8
 989              		.cfi_offset 14, -4
 990 0002 00AF     		add	r7, sp, #0
ARM GAS  C:\Users\MATSUD~1\AppData\Local\Temp\ccLjdAaK.s 			page 34


 991              	.LCFI46:
 992              		.cfi_def_cfa_register 7
 890:.\Generated_Source\PSoC5/LIN_1.c ****     /* Force TXD low */
 891:.\Generated_Source\PSoC5/LIN_1.c ****     LIN_1_CONTROL_REG |= LIN_1_CONTROL_TX_DIS;
 993              		.loc 1 891 0
 994 0004 46F27643 		movw	r3, #25718
 995 0008 C4F20003 		movt	r3, 16384
 996 000c 46F27642 		movw	r2, #25718
 997 0010 C4F20002 		movt	r2, 16384
 998 0014 1278     		ldrb	r2, [r2, #0]
 999 0016 D2B2     		uxtb	r2, r2
 1000 0018 42F00202 		orr	r2, r2, #2
 1001 001c D2B2     		uxtb	r2, r2
 1002 001e 1A70     		strb	r2, [r3, #0]
 892:.\Generated_Source\PSoC5/LIN_1.c **** 
 893:.\Generated_Source\PSoC5/LIN_1.c ****     /* Wait */
 894:.\Generated_Source\PSoC5/LIN_1.c ****     CyDelayUs(LIN_1_WAKE_UP_SIGNAL_LENGTH);
 1003              		.loc 1 894 0
 1004 0020 4FF49670 		mov	r0, #300
 1005 0024 FFF7FEFF 		bl	CyDelayUs
 895:.\Generated_Source\PSoC5/LIN_1.c **** 
 896:.\Generated_Source\PSoC5/LIN_1.c ****     /* Connect TXD from UART to LIN bus line */
 897:.\Generated_Source\PSoC5/LIN_1.c ****     LIN_1_CONTROL_REG &=  ((l_u8) ~LIN_1_CONTROL_TX_DIS);
 1006              		.loc 1 897 0
 1007 0028 46F27643 		movw	r3, #25718
 1008 002c C4F20003 		movt	r3, 16384
 1009 0030 46F27642 		movw	r2, #25718
 1010 0034 C4F20002 		movt	r2, 16384
 1011 0038 1278     		ldrb	r2, [r2, #0]
 1012 003a D2B2     		uxtb	r2, r2
 1013 003c 22F00202 		bic	r2, r2, #2
 1014 0040 D2B2     		uxtb	r2, r2
 1015 0042 1A70     		strb	r2, [r3, #0]
 898:.\Generated_Source\PSoC5/LIN_1.c **** }
 1016              		.loc 1 898 0
 1017 0044 80BD     		pop	{r7, pc}
 1018              		.cfi_endproc
 1019              	.LFE17:
 1020              		.size	l_ifc_wake_up_LIN_1, .-l_ifc_wake_up_LIN_1
 1021 0046 00BF     		.section	.text.l_ifc_wake_up,"ax",%progbits
 1022              		.align	2
 1023              		.global	l_ifc_wake_up
 1024              		.thumb
 1025              		.thumb_func
 1026              		.type	l_ifc_wake_up, %function
 1027              	l_ifc_wake_up:
 1028              	.LFB18:
 899:.\Generated_Source\PSoC5/LIN_1.c **** 
 900:.\Generated_Source\PSoC5/LIN_1.c **** 
 901:.\Generated_Source\PSoC5/LIN_1.c **** /*******************************************************************************
 902:.\Generated_Source\PSoC5/LIN_1.c **** * Function Name: l_ifc_wake_up
 903:.\Generated_Source\PSoC5/LIN_1.c **** ********************************************************************************
 904:.\Generated_Source\PSoC5/LIN_1.c **** *
 905:.\Generated_Source\PSoC5/LIN_1.c **** * Summary:
 906:.\Generated_Source\PSoC5/LIN_1.c **** *  This function transmits one wakeup signal. The wakeup signal is transmitted
 907:.\Generated_Source\PSoC5/LIN_1.c **** *  directly when this function is called. When you call this API function, the
 908:.\Generated_Source\PSoC5/LIN_1.c **** *  application is blocked until a wakeup signal is transmitted on the LIN bus.
ARM GAS  C:\Users\MATSUD~1\AppData\Local\Temp\ccLjdAaK.s 			page 35


 909:.\Generated_Source\PSoC5/LIN_1.c **** *  The CyDelayUs() function is used as the timing source. The delay is
 910:.\Generated_Source\PSoC5/LIN_1.c **** *  calculated based on the clock configuration entered in PSoC Creator.
 911:.\Generated_Source\PSoC5/LIN_1.c **** *
 912:.\Generated_Source\PSoC5/LIN_1.c **** * Parameters:
 913:.\Generated_Source\PSoC5/LIN_1.c **** *  iii - is the name of the interface handle.
 914:.\Generated_Source\PSoC5/LIN_1.c **** *
 915:.\Generated_Source\PSoC5/LIN_1.c **** * Return:
 916:.\Generated_Source\PSoC5/LIN_1.c **** *  None
 917:.\Generated_Source\PSoC5/LIN_1.c **** *
 918:.\Generated_Source\PSoC5/LIN_1.c **** *******************************************************************************/
 919:.\Generated_Source\PSoC5/LIN_1.c **** void l_ifc_wake_up(l_ifc_handle iii) 
 920:.\Generated_Source\PSoC5/LIN_1.c **** {
 1029              		.loc 1 920 0
 1030              		.cfi_startproc
 1031              		@ args = 0, pretend = 0, frame = 8
 1032              		@ frame_needed = 1, uses_anonymous_args = 0
 1033 0000 80B5     		push	{r7, lr}
 1034              	.LCFI47:
 1035              		.cfi_def_cfa_offset 8
 1036              		.cfi_offset 7, -8
 1037              		.cfi_offset 14, -4
 1038 0002 82B0     		sub	sp, sp, #8
 1039              	.LCFI48:
 1040              		.cfi_def_cfa_offset 16
 1041 0004 00AF     		add	r7, sp, #0
 1042              	.LCFI49:
 1043              		.cfi_def_cfa_register 7
 1044 0006 0346     		mov	r3, r0
 1045 0008 FB71     		strb	r3, [r7, #7]
 921:.\Generated_Source\PSoC5/LIN_1.c ****     switch(iii)
 1046              		.loc 1 921 0
 1047 000a FB79     		ldrb	r3, [r7, #7]	@ zero_extendqisi2
 1048 000c 002B     		cmp	r3, #0
 1049 000e 02D1     		bne	.L65
 1050              	.L63:
 922:.\Generated_Source\PSoC5/LIN_1.c ****     {
 923:.\Generated_Source\PSoC5/LIN_1.c ****         case LIN_1_IFC_HANDLE:
 924:.\Generated_Source\PSoC5/LIN_1.c ****             l_ifc_wake_up_LIN_1();
 1051              		.loc 1 924 0
 1052 0010 FFF7FEFF 		bl	l_ifc_wake_up_LIN_1
 925:.\Generated_Source\PSoC5/LIN_1.c ****         break;
 1053              		.loc 1 925 0
 1054 0014 00E0     		b	.L61
 1055              	.L65:
 926:.\Generated_Source\PSoC5/LIN_1.c **** 
 927:.\Generated_Source\PSoC5/LIN_1.c ****         default:
 928:.\Generated_Source\PSoC5/LIN_1.c ****             /* Unknown interface handle - do nothing. */
 929:.\Generated_Source\PSoC5/LIN_1.c ****         break;
 1056              		.loc 1 929 0
 1057 0016 00BF     		nop
 1058              	.L61:
 930:.\Generated_Source\PSoC5/LIN_1.c ****     }
 931:.\Generated_Source\PSoC5/LIN_1.c **** }
 1059              		.loc 1 931 0
 1060 0018 07F10807 		add	r7, r7, #8
 1061 001c BD46     		mov	sp, r7
 1062 001e 80BD     		pop	{r7, pc}
ARM GAS  C:\Users\MATSUD~1\AppData\Local\Temp\ccLjdAaK.s 			page 36


 1063              		.cfi_endproc
 1064              	.LFE18:
 1065              		.size	l_ifc_wake_up, .-l_ifc_wake_up
 1066              		.section	.text.l_ifc_ioctl_LIN_1,"ax",%progbits
 1067              		.align	2
 1068              		.global	l_ifc_ioctl_LIN_1
 1069              		.thumb
 1070              		.thumb_func
 1071              		.type	l_ifc_ioctl_LIN_1, %function
 1072              	l_ifc_ioctl_LIN_1:
 1073              	.LFB19:
 932:.\Generated_Source\PSoC5/LIN_1.c **** 
 933:.\Generated_Source\PSoC5/LIN_1.c **** 
 934:.\Generated_Source\PSoC5/LIN_1.c **** /*******************************************************************************
 935:.\Generated_Source\PSoC5/LIN_1.c **** * Function Name: l_ifc_ioctl
 936:.\Generated_Source\PSoC5/LIN_1.c **** ********************************************************************************
 937:.\Generated_Source\PSoC5/LIN_1.c **** *
 938:.\Generated_Source\PSoC5/LIN_1.c **** * Summary:
 939:.\Generated_Source\PSoC5/LIN_1.c **** *  This function controls functionality that is not covered by the other API
 940:.\Generated_Source\PSoC5/LIN_1.c **** *  calls. It is used for protocol specific parameters or hardware specific
 941:.\Generated_Source\PSoC5/LIN_1.c **** *  functionality.
 942:.\Generated_Source\PSoC5/LIN_1.c **** *
 943:.\Generated_Source\PSoC5/LIN_1.c **** * Parameters:
 944:.\Generated_Source\PSoC5/LIN_1.c **** *  op - is the operation that should be applied.
 945:.\Generated_Source\PSoC5/LIN_1.c **** *  pv - is the pointer to the optional parameter.
 946:.\Generated_Source\PSoC5/LIN_1.c **** *
 947:.\Generated_Source\PSoC5/LIN_1.c **** * Return:
 948:.\Generated_Source\PSoC5/LIN_1.c **** *  There is no error code value returned for operation selected. This means that
 949:.\Generated_Source\PSoC5/LIN_1.c **** *  you must ensure that the values passed into the function are correct.
 950:.\Generated_Source\PSoC5/LIN_1.c **** *
 951:.\Generated_Source\PSoC5/LIN_1.c **** *  L_IOCTL_READ_STATUS operation:
 952:.\Generated_Source\PSoC5/LIN_1.c **** *  The first bit in this byte is the flag that indicates that there has been no
 953:.\Generated_Source\PSoC5/LIN_1.c **** *  signaling on the bus for a certain elapsed time (available when
 954:.\Generated_Source\PSoC5/LIN_1.c **** *  Bus Inactivity Timeout Detection option is enabled). If the elapsed time
 955:.\Generated_Source\PSoC5/LIN_1.c **** *  passes a certain threshold, then this flag is set. Calling this API clears
 956:.\Generated_Source\PSoC5/LIN_1.c **** *  all status bits after they are returned. The second bit is the flag that
 957:.\Generated_Source\PSoC5/LIN_1.c **** *  indicates that a Targeted Reset service request (0xB5) was received
 958:.\Generated_Source\PSoC5/LIN_1.c **** *  (when J2602-1 Compliance is enabled).
 959:.\Generated_Source\PSoC5/LIN_1.c **** *
 960:.\Generated_Source\PSoC5/LIN_1.c **** *  Symbolic Name : LIN_1_IOCTL_STS_BUS_INACTIVITY
 961:.\Generated_Source\PSoC5/LIN_1.c **** *  Value         : 0x0001u
 962:.\Generated_Source\PSoC5/LIN_1.c **** *  Description   : No signal was detected on the bus for a certain elapsed time
 963:.\Generated_Source\PSoC5/LIN_1.c **** *
 964:.\Generated_Source\PSoC5/LIN_1.c **** *  Symbolic Name : LIN_1_IOCTL_STS_TARGET_RESET
 965:.\Generated_Source\PSoC5/LIN_1.c **** *  Value         : 0x0002u
 966:.\Generated_Source\PSoC5/LIN_1.c **** *  Description   : Targeted Reset service request (0xB5) was received.
 967:.\Generated_Source\PSoC5/LIN_1.c **** *
 968:.\Generated_Source\PSoC5/LIN_1.c **** *  L_IOCTL_SET_BAUD_RATE operation:
 969:.\Generated_Source\PSoC5/LIN_1.c **** *  The 0 is returned if operation succeeded and 1 if an invalid operation
 970:.\Generated_Source\PSoC5/LIN_1.c **** *  parameter was passed to the function.
 971:.\Generated_Source\PSoC5/LIN_1.c **** *
 972:.\Generated_Source\PSoC5/LIN_1.c **** *  L_IOCTL_SLEEP operation:
 973:.\Generated_Source\PSoC5/LIN_1.c **** *  The CYRET_SUCCESS is returned if operation succeeded and CYRET_BAD_PARAM if
 974:.\Generated_Source\PSoC5/LIN_1.c **** *  an invalid operation parameter was passed to the function.
 975:.\Generated_Source\PSoC5/LIN_1.c **** *
 976:.\Generated_Source\PSoC5/LIN_1.c **** *  L_IOCTL_WAKEUP operation:
 977:.\Generated_Source\PSoC5/LIN_1.c **** *  The CYRET_SUCCESS is returned if operation succeeded and CYRET_BAD_PARAM if
ARM GAS  C:\Users\MATSUD~1\AppData\Local\Temp\ccLjdAaK.s 			page 37


 978:.\Generated_Source\PSoC5/LIN_1.c **** *  an invalid operation parameter was passed to the function.
 979:.\Generated_Source\PSoC5/LIN_1.c **** *
 980:.\Generated_Source\PSoC5/LIN_1.c **** *  L_IOCTL_SYNC_COUNTS operation:
 981:.\Generated_Source\PSoC5/LIN_1.c **** *  The CYRET_SUCCESS is returned if operation succeeded and CYRET_BAD_PARAM if
 982:.\Generated_Source\PSoC5/LIN_1.c **** *  an invalid operation parameter was passed to the function.
 983:.\Generated_Source\PSoC5/LIN_1.c **** *
 984:.\Generated_Source\PSoC5/LIN_1.c **** *  L_IOCTL_SET_SERIAL_NUMBER operation:
 985:.\Generated_Source\PSoC5/LIN_1.c **** *  The CYRET_SUCCESS is returned if operation succeeded and CYRET_BAD_PARAM if
 986:.\Generated_Source\PSoC5/LIN_1.c **** *  an invalid operation parameter was passed to the function.
 987:.\Generated_Source\PSoC5/LIN_1.c **** *
 988:.\Generated_Source\PSoC5/LIN_1.c **** * Reentrant:
 989:.\Generated_Source\PSoC5/LIN_1.c **** *  No
 990:.\Generated_Source\PSoC5/LIN_1.c **** *
 991:.\Generated_Source\PSoC5/LIN_1.c **** *******************************************************************************/
 992:.\Generated_Source\PSoC5/LIN_1.c **** l_u16 l_ifc_ioctl_LIN_1(l_ioctl_op op, void* pv) 
 993:.\Generated_Source\PSoC5/LIN_1.c **** {
 1074              		.loc 1 993 0
 1075              		.cfi_startproc
 1076              		@ args = 0, pretend = 0, frame = 16
 1077              		@ frame_needed = 1, uses_anonymous_args = 0
 1078 0000 80B5     		push	{r7, lr}
 1079              	.LCFI50:
 1080              		.cfi_def_cfa_offset 8
 1081              		.cfi_offset 7, -8
 1082              		.cfi_offset 14, -4
 1083 0002 84B0     		sub	sp, sp, #16
 1084              	.LCFI51:
 1085              		.cfi_def_cfa_offset 24
 1086 0004 00AF     		add	r7, sp, #0
 1087              	.LCFI52:
 1088              		.cfi_def_cfa_register 7
 1089 0006 0346     		mov	r3, r0
 1090 0008 3960     		str	r1, [r7, #0]
 1091 000a FB71     		strb	r3, [r7, #7]
 994:.\Generated_Source\PSoC5/LIN_1.c ****     /* Retention registers are stored here */
 995:.\Generated_Source\PSoC5/LIN_1.c ****     static LIN_1_BACKUP_STRUCT  LIN_1_backup = {0u, };
 996:.\Generated_Source\PSoC5/LIN_1.c **** 
 997:.\Generated_Source\PSoC5/LIN_1.c ****     l_u16 returnValue = (l_u16) CYRET_SUCCESS;
 1092              		.loc 1 997 0
 1093 000c 4FF00003 		mov	r3, #0
 1094 0010 FB81     		strh	r3, [r7, #14]	@ movhi
 998:.\Generated_Source\PSoC5/LIN_1.c ****     l_u8 interruptState;
 999:.\Generated_Source\PSoC5/LIN_1.c **** 
1000:.\Generated_Source\PSoC5/LIN_1.c ****     switch (op)
 1095              		.loc 1 1000 0
 1096 0012 FB79     		ldrb	r3, [r7, #7]	@ zero_extendqisi2
 1097 0014 042B     		cmp	r3, #4
 1098 0016 00F2F580 		bhi	.L67
 1099 001a 01A0     		adr	r0, .L73
 1100 001c 50F823F0 		ldr	pc, [r0, r3, lsl #2]
 1101              		.align	2
 1102              	.L73:
 1103 0020 35000000 		.word	.L68+1
 1104 0024 51000000 		.word	.L69+1
 1105 0028 D9000000 		.word	.L70+1
 1106 002c 89010000 		.word	.L71+1
 1107 0030 F5010000 		.word	.L72+1
ARM GAS  C:\Users\MATSUD~1\AppData\Local\Temp\ccLjdAaK.s 			page 38


 1108              	.L68:
1001:.\Generated_Source\PSoC5/LIN_1.c ****     {
1002:.\Generated_Source\PSoC5/LIN_1.c ****         /***********************************************************************
1003:.\Generated_Source\PSoC5/LIN_1.c ****         *                           Read Status
1004:.\Generated_Source\PSoC5/LIN_1.c ****         ***********************************************************************/
1005:.\Generated_Source\PSoC5/LIN_1.c ****         case L_IOCTL_READ_STATUS:
1006:.\Generated_Source\PSoC5/LIN_1.c **** 
1007:.\Generated_Source\PSoC5/LIN_1.c ****             /* Return status */
1008:.\Generated_Source\PSoC5/LIN_1.c ****             returnValue = LIN_1_ioctlStatus;
 1109              		.loc 1 1008 0
 1110 0034 40F20003 		movw	r3, #:lower16:LIN_1_ioctlStatus
 1111 0038 C0F20003 		movt	r3, #:upper16:LIN_1_ioctlStatus
 1112 003c 1B88     		ldrh	r3, [r3, #0]	@ movhi
 1113 003e FB81     		strh	r3, [r7, #14]	@ movhi
1009:.\Generated_Source\PSoC5/LIN_1.c **** 
1010:.\Generated_Source\PSoC5/LIN_1.c ****             /* Clear status */
1011:.\Generated_Source\PSoC5/LIN_1.c ****             LIN_1_ioctlStatus = 0x0000u;
 1114              		.loc 1 1011 0
 1115 0040 40F20003 		movw	r3, #:lower16:LIN_1_ioctlStatus
 1116 0044 C0F20003 		movt	r3, #:upper16:LIN_1_ioctlStatus
 1117 0048 4FF00002 		mov	r2, #0
 1118 004c 1A80     		strh	r2, [r3, #0]	@ movhi
1012:.\Generated_Source\PSoC5/LIN_1.c **** 
1013:.\Generated_Source\PSoC5/LIN_1.c ****         break;
 1119              		.loc 1 1013 0
 1120 004e DEE0     		b	.L74
 1121              	.L69:
1014:.\Generated_Source\PSoC5/LIN_1.c **** 
1015:.\Generated_Source\PSoC5/LIN_1.c ****         /***********************************************************************
1016:.\Generated_Source\PSoC5/LIN_1.c ****         *                           Set Baud Rate
1017:.\Generated_Source\PSoC5/LIN_1.c ****         ***********************************************************************/
1018:.\Generated_Source\PSoC5/LIN_1.c ****         case L_IOCTL_SET_BAUD_RATE:
1019:.\Generated_Source\PSoC5/LIN_1.c **** 
1020:.\Generated_Source\PSoC5/LIN_1.c ****             interruptState = CyEnterCriticalSection();
 1122              		.loc 1 1020 0
 1123 0050 FFF7FEFF 		bl	CyEnterCriticalSection
 1124 0054 0346     		mov	r3, r0
 1125 0056 7B73     		strb	r3, [r7, #13]
1021:.\Generated_Source\PSoC5/LIN_1.c **** 
1022:.\Generated_Source\PSoC5/LIN_1.c ****             /* Set new internal clock divider with effect on end of cycle */
1023:.\Generated_Source\PSoC5/LIN_1.c ****             LIN_1_IntClk_SetDividerRegister(((*((l_u16*)pv)) - 1u), 0u);
 1126              		.loc 1 1023 0
 1127 0058 3B68     		ldr	r3, [r7, #0]
 1128 005a 1B88     		ldrh	r3, [r3, #0]
 1129 005c 03F1FF33 		add	r3, r3, #-1
 1130 0060 9BB2     		uxth	r3, r3
 1131 0062 1846     		mov	r0, r3
 1132 0064 4FF00001 		mov	r1, #0
 1133 0068 FFF7FEFF 		bl	LIN_1_IntClk_SetDividerRegister
1024:.\Generated_Source\PSoC5/LIN_1.c **** 
1025:.\Generated_Source\PSoC5/LIN_1.c ****             /* Bus inactivity block reconfiguration */
1026:.\Generated_Source\PSoC5/LIN_1.c ****             #if(1u == LIN_1_INACTIVITY_ENABLED)
1027:.\Generated_Source\PSoC5/LIN_1.c **** 
1028:.\Generated_Source\PSoC5/LIN_1.c ****                 /* Divider 1 for specified interrupt rate */
1029:.\Generated_Source\PSoC5/LIN_1.c ****                 LIN_1_INACTIVITY_DIV0_REG =
 1134              		.loc 1 1029 0
 1135 006c 46F22653 		movw	r3, #25894
ARM GAS  C:\Users\MATSUD~1\AppData\Local\Temp\ccLjdAaK.s 			page 39


 1136 0070 C4F20003 		movt	r3, 16384
1030:.\Generated_Source\PSoC5/LIN_1.c ****                     (((l_u8)(((LIN_1_INACT_OVERSAMPLE_RATE) *
1031:.\Generated_Source\PSoC5/LIN_1.c ****                     ((*(l_u16*)pv) / LIN_1_INACT_100MS_IN_S)) /
 1137              		.loc 1 1031 0
 1138 0074 3A68     		ldr	r2, [r7, #0]
 1139 0076 1188     		ldrh	r1, [r2, #0]
 1140 0078 4CF6CD42 		movw	r2, #52429
 1141 007c CCF6CC42 		movt	r2, 52428
 1142 0080 A2FB0102 		umull	r0, r2, r2, r1
 1143 0084 4FEAD202 		lsr	r2, r2, #3
 1144 0088 92B2     		uxth	r2, r2
1030:.\Generated_Source\PSoC5/LIN_1.c ****                     (((l_u8)(((LIN_1_INACT_OVERSAMPLE_RATE) *
 1145              		.loc 1 1030 0
 1146 008a 4FEA0212 		lsl	r2, r2, #4
 1147              		.loc 1 1031 0
 1148 008e 4FEA1222 		lsr	r2, r2, #8
1030:.\Generated_Source\PSoC5/LIN_1.c ****                     (((l_u8)(((LIN_1_INACT_OVERSAMPLE_RATE) *
 1149              		.loc 1 1030 0
 1150 0092 D2B2     		uxtb	r2, r2
1029:.\Generated_Source\PSoC5/LIN_1.c ****                 LIN_1_INACTIVITY_DIV0_REG =
 1151              		.loc 1 1029 0
 1152 0094 02F1FF32 		add	r2, r2, #-1
 1153 0098 D2B2     		uxtb	r2, r2
 1154 009a 1A70     		strb	r2, [r3, #0]
1032:.\Generated_Source\PSoC5/LIN_1.c ****                     LIN_1_INACT_DIVIDE_FACTOR) - 1u));
1033:.\Generated_Source\PSoC5/LIN_1.c **** 
1034:.\Generated_Source\PSoC5/LIN_1.c ****                 /* Divider 1 for specified interrupt rate */
1035:.\Generated_Source\PSoC5/LIN_1.c ****                 LIN_1_INACTIVITY_DIV1_REG =
1036:.\Generated_Source\PSoC5/LIN_1.c ****                     ((l_u8)(((LIN_1_INACT_OVERSAMPLE_RATE) *
1037:.\Generated_Source\PSoC5/LIN_1.c ****                     ((*(l_u16*)pv) / LIN_1_INACT_100MS_IN_S)) -
1038:.\Generated_Source\PSoC5/LIN_1.c ****                     (LIN_1_INACT_DIVIDE_FACTOR *
1039:.\Generated_Source\PSoC5/LIN_1.c ****                     LIN_1_INACTIVITY_DIV0_REG)));
 1155              		.loc 1 1039 0
 1156 009c 46F22653 		movw	r3, #25894
 1157 00a0 C4F20003 		movt	r3, 16384
 1158 00a4 1B78     		ldrb	r3, [r3, #0]
1035:.\Generated_Source\PSoC5/LIN_1.c ****                 LIN_1_INACTIVITY_DIV1_REG =
 1159              		.loc 1 1035 0
 1160 00a6 46F23653 		movw	r3, #25910
 1161 00aa C4F20003 		movt	r3, 16384
1037:.\Generated_Source\PSoC5/LIN_1.c ****                     ((*(l_u16*)pv) / LIN_1_INACT_100MS_IN_S)) -
 1162              		.loc 1 1037 0
 1163 00ae 3A68     		ldr	r2, [r7, #0]
 1164 00b0 1188     		ldrh	r1, [r2, #0]
1035:.\Generated_Source\PSoC5/LIN_1.c ****                 LIN_1_INACTIVITY_DIV1_REG =
 1165              		.loc 1 1035 0
 1166 00b2 4CF6CD42 		movw	r2, #52429
 1167 00b6 CCF6CC42 		movt	r2, 52428
 1168 00ba A2FB0102 		umull	r0, r2, r2, r1
 1169 00be 4FEAD202 		lsr	r2, r2, #3
 1170 00c2 92B2     		uxth	r2, r2
 1171 00c4 D2B2     		uxtb	r2, r2
 1172 00c6 4FEA0212 		lsl	r2, r2, #4
 1173 00ca D2B2     		uxtb	r2, r2
 1174 00cc 1A70     		strb	r2, [r3, #0]
1040:.\Generated_Source\PSoC5/LIN_1.c **** 
1041:.\Generated_Source\PSoC5/LIN_1.c ****             #endif  /* (1u == LIN_1_INACTIVITY_ENABLED) */
ARM GAS  C:\Users\MATSUD~1\AppData\Local\Temp\ccLjdAaK.s 			page 40


1042:.\Generated_Source\PSoC5/LIN_1.c **** 
1043:.\Generated_Source\PSoC5/LIN_1.c ****             CyExitCriticalSection(interruptState);
 1175              		.loc 1 1043 0
 1176 00ce 7B7B     		ldrb	r3, [r7, #13]	@ zero_extendqisi2
 1177 00d0 1846     		mov	r0, r3
 1178 00d2 FFF7FEFF 		bl	CyExitCriticalSection
1044:.\Generated_Source\PSoC5/LIN_1.c **** 
1045:.\Generated_Source\PSoC5/LIN_1.c ****         break;
 1179              		.loc 1 1045 0
 1180 00d6 9AE0     		b	.L74
 1181              	.L70:
1046:.\Generated_Source\PSoC5/LIN_1.c **** 
1047:.\Generated_Source\PSoC5/LIN_1.c **** 
1048:.\Generated_Source\PSoC5/LIN_1.c ****         /***********************************************************************
1049:.\Generated_Source\PSoC5/LIN_1.c ****         *                   Prepare for the low power modes
1050:.\Generated_Source\PSoC5/LIN_1.c ****         ***********************************************************************/
1051:.\Generated_Source\PSoC5/LIN_1.c ****         case L_IOCTL_SLEEP:
1052:.\Generated_Source\PSoC5/LIN_1.c **** 
1053:.\Generated_Source\PSoC5/LIN_1.c ****             LIN_1_backup.control = LIN_1_CONTROL_REG;
 1182              		.loc 1 1053 0
 1183 00d8 46F27643 		movw	r3, #25718
 1184 00dc C4F20003 		movt	r3, 16384
 1185 00e0 1B78     		ldrb	r3, [r3, #0]
 1186 00e2 DAB2     		uxtb	r2, r3
 1187 00e4 40F20003 		movw	r3, #:lower16:LIN_1_backup.5030
 1188 00e8 C0F20003 		movt	r3, #:upper16:LIN_1_backup.5030
 1189 00ec 5A70     		strb	r2, [r3, #1]
1054:.\Generated_Source\PSoC5/LIN_1.c **** 
1055:.\Generated_Source\PSoC5/LIN_1.c ****             if(0u != (LIN_1_CONTROL_REG  & LIN_1_CONTROL_ENABLE))
 1190              		.loc 1 1055 0
 1191 00ee 46F27643 		movw	r3, #25718
 1192 00f2 C4F20003 		movt	r3, 16384
 1193 00f6 1B78     		ldrb	r3, [r3, #0]
 1194 00f8 DBB2     		uxtb	r3, r3
 1195 00fa 03F00103 		and	r3, r3, #1
 1196 00fe 002B     		cmp	r3, #0
 1197 0100 07D0     		beq	.L75
1056:.\Generated_Source\PSoC5/LIN_1.c ****             {
1057:.\Generated_Source\PSoC5/LIN_1.c ****                LIN_1_backup.enableState = LIN_1_TRUE;
 1198              		.loc 1 1057 0
 1199 0102 40F20003 		movw	r3, #:lower16:LIN_1_backup.5030
 1200 0106 C0F20003 		movt	r3, #:upper16:LIN_1_backup.5030
 1201 010a 4FF00102 		mov	r2, #1
 1202 010e 1A70     		strb	r2, [r3, #0]
 1203 0110 06E0     		b	.L76
 1204              	.L75:
1058:.\Generated_Source\PSoC5/LIN_1.c ****             }
1059:.\Generated_Source\PSoC5/LIN_1.c ****             else
1060:.\Generated_Source\PSoC5/LIN_1.c ****             {
1061:.\Generated_Source\PSoC5/LIN_1.c ****                 LIN_1_backup.enableState = LIN_1_FALSE;
 1205              		.loc 1 1061 0
 1206 0112 40F20003 		movw	r3, #:lower16:LIN_1_backup.5030
 1207 0116 C0F20003 		movt	r3, #:upper16:LIN_1_backup.5030
 1208 011a 4FF00002 		mov	r2, #0
 1209 011e 1A70     		strb	r2, [r3, #0]
 1210              	.L76:
1062:.\Generated_Source\PSoC5/LIN_1.c ****             }
ARM GAS  C:\Users\MATSUD~1\AppData\Local\Temp\ccLjdAaK.s 			page 41


1063:.\Generated_Source\PSoC5/LIN_1.c **** 
1064:.\Generated_Source\PSoC5/LIN_1.c ****             /* Disable interrupts */
1065:.\Generated_Source\PSoC5/LIN_1.c ****             (void) l_sys_irq_disable();
 1211              		.loc 1 1065 0
 1212 0120 FFF7FEFF 		bl	l_sys_irq_disable
1066:.\Generated_Source\PSoC5/LIN_1.c **** 
1067:.\Generated_Source\PSoC5/LIN_1.c ****             /* Prepare UART for low power mode */
1068:.\Generated_Source\PSoC5/LIN_1.c ****             LIN_1_UART_Sleep();
 1213              		.loc 1 1068 0
 1214 0124 FFF7FEFF 		bl	LIN_1_UART_Sleep
1069:.\Generated_Source\PSoC5/LIN_1.c **** 
1070:.\Generated_Source\PSoC5/LIN_1.c ****             /* Disable hardware blocks operation */
1071:.\Generated_Source\PSoC5/LIN_1.c ****             LIN_1_CONTROL_REG &= ((l_u8) ~LIN_1_CONTROL_ENABLE);
 1215              		.loc 1 1071 0
 1216 0128 46F27643 		movw	r3, #25718
 1217 012c C4F20003 		movt	r3, 16384
 1218 0130 46F27642 		movw	r2, #25718
 1219 0134 C4F20002 		movt	r2, 16384
 1220 0138 1278     		ldrb	r2, [r2, #0]
 1221 013a D2B2     		uxtb	r2, r2
 1222 013c 22F00102 		bic	r2, r2, #1
 1223 0140 D2B2     		uxtb	r2, r2
 1224 0142 1A70     		strb	r2, [r3, #0]
1072:.\Generated_Source\PSoC5/LIN_1.c **** 
1073:.\Generated_Source\PSoC5/LIN_1.c ****             LIN_1_backup.statusMask = LIN_1_INT_MASK_REG;
 1225              		.loc 1 1073 0
 1226 0144 46F28643 		movw	r3, #25734
 1227 0148 C4F20003 		movt	r3, 16384
 1228 014c 1B78     		ldrb	r3, [r3, #0]
 1229 014e DAB2     		uxtb	r2, r3
 1230 0150 40F20003 		movw	r3, #:lower16:LIN_1_backup.5030
 1231 0154 C0F20003 		movt	r3, #:upper16:LIN_1_backup.5030
 1232 0158 9A70     		strb	r2, [r3, #2]
1074:.\Generated_Source\PSoC5/LIN_1.c **** 
1075:.\Generated_Source\PSoC5/LIN_1.c ****             #if(1u == LIN_1_INACTIVITY_ENABLED)
1076:.\Generated_Source\PSoC5/LIN_1.c **** 
1077:.\Generated_Source\PSoC5/LIN_1.c ****                 LIN_1_backup.inactivityDiv0 = LIN_1_INACTIVITY_DIV0_REG;
 1233              		.loc 1 1077 0
 1234 015a 46F22653 		movw	r3, #25894
 1235 015e C4F20003 		movt	r3, 16384
 1236 0162 1B78     		ldrb	r3, [r3, #0]
 1237 0164 DAB2     		uxtb	r2, r3
 1238 0166 40F20003 		movw	r3, #:lower16:LIN_1_backup.5030
 1239 016a C0F20003 		movt	r3, #:upper16:LIN_1_backup.5030
 1240 016e DA70     		strb	r2, [r3, #3]
1078:.\Generated_Source\PSoC5/LIN_1.c ****                 LIN_1_backup.inactivityDiv1 = LIN_1_INACTIVITY_DIV1_REG;
 1241              		.loc 1 1078 0
 1242 0170 46F23653 		movw	r3, #25910
 1243 0174 C4F20003 		movt	r3, 16384
 1244 0178 1B78     		ldrb	r3, [r3, #0]
 1245 017a DAB2     		uxtb	r2, r3
 1246 017c 40F20003 		movw	r3, #:lower16:LIN_1_backup.5030
 1247 0180 C0F20003 		movt	r3, #:upper16:LIN_1_backup.5030
 1248 0184 1A71     		strb	r2, [r3, #4]
1079:.\Generated_Source\PSoC5/LIN_1.c **** 
1080:.\Generated_Source\PSoC5/LIN_1.c ****             #endif  /* (1u == LIN_1_INACTIVITY_ENABLED) */
1081:.\Generated_Source\PSoC5/LIN_1.c **** 
ARM GAS  C:\Users\MATSUD~1\AppData\Local\Temp\ccLjdAaK.s 			page 42


1082:.\Generated_Source\PSoC5/LIN_1.c ****         break;
 1249              		.loc 1 1082 0
 1250 0186 42E0     		b	.L74
 1251              	.L71:
1083:.\Generated_Source\PSoC5/LIN_1.c **** 
1084:.\Generated_Source\PSoC5/LIN_1.c **** 
1085:.\Generated_Source\PSoC5/LIN_1.c ****         /***********************************************************************
1086:.\Generated_Source\PSoC5/LIN_1.c ****         *             Restore after wakeup from low power modes
1087:.\Generated_Source\PSoC5/LIN_1.c ****         ***********************************************************************/
1088:.\Generated_Source\PSoC5/LIN_1.c ****         case L_IOCTL_WAKEUP:
1089:.\Generated_Source\PSoC5/LIN_1.c **** 
1090:.\Generated_Source\PSoC5/LIN_1.c ****             LIN_1_INT_MASK_REG = LIN_1_backup.statusMask;
 1252              		.loc 1 1090 0
 1253 0188 46F28643 		movw	r3, #25734
 1254 018c C4F20003 		movt	r3, 16384
 1255 0190 40F20002 		movw	r2, #:lower16:LIN_1_backup.5030
 1256 0194 C0F20002 		movt	r2, #:upper16:LIN_1_backup.5030
 1257 0198 9278     		ldrb	r2, [r2, #2]	@ zero_extendqisi2
 1258 019a 1A70     		strb	r2, [r3, #0]
1091:.\Generated_Source\PSoC5/LIN_1.c **** 
1092:.\Generated_Source\PSoC5/LIN_1.c ****             #if(1u == LIN_1_INACTIVITY_ENABLED)
1093:.\Generated_Source\PSoC5/LIN_1.c **** 
1094:.\Generated_Source\PSoC5/LIN_1.c ****                 LIN_1_INACTIVITY_DIV0_REG = LIN_1_backup.inactivityDiv0;
 1259              		.loc 1 1094 0
 1260 019c 46F22653 		movw	r3, #25894
 1261 01a0 C4F20003 		movt	r3, 16384
 1262 01a4 40F20002 		movw	r2, #:lower16:LIN_1_backup.5030
 1263 01a8 C0F20002 		movt	r2, #:upper16:LIN_1_backup.5030
 1264 01ac D278     		ldrb	r2, [r2, #3]	@ zero_extendqisi2
 1265 01ae 1A70     		strb	r2, [r3, #0]
1095:.\Generated_Source\PSoC5/LIN_1.c ****                 LIN_1_INACTIVITY_DIV1_REG = LIN_1_backup.inactivityDiv1;
 1266              		.loc 1 1095 0
 1267 01b0 46F23653 		movw	r3, #25910
 1268 01b4 C4F20003 		movt	r3, 16384
 1269 01b8 40F20002 		movw	r2, #:lower16:LIN_1_backup.5030
 1270 01bc C0F20002 		movt	r2, #:upper16:LIN_1_backup.5030
 1271 01c0 1279     		ldrb	r2, [r2, #4]	@ zero_extendqisi2
 1272 01c2 1A70     		strb	r2, [r3, #0]
1096:.\Generated_Source\PSoC5/LIN_1.c **** 
1097:.\Generated_Source\PSoC5/LIN_1.c ****             #endif  /* (1u == LIN_1_INACTIVITY_ENABLED) */
1098:.\Generated_Source\PSoC5/LIN_1.c **** 
1099:.\Generated_Source\PSoC5/LIN_1.c ****             LIN_1_CONTROL_REG = LIN_1_backup.control;
 1273              		.loc 1 1099 0
 1274 01c4 46F27643 		movw	r3, #25718
 1275 01c8 C4F20003 		movt	r3, 16384
 1276 01cc 40F20002 		movw	r2, #:lower16:LIN_1_backup.5030
 1277 01d0 C0F20002 		movt	r2, #:upper16:LIN_1_backup.5030
 1278 01d4 5278     		ldrb	r2, [r2, #1]	@ zero_extendqisi2
 1279 01d6 1A70     		strb	r2, [r3, #0]
1100:.\Generated_Source\PSoC5/LIN_1.c **** 
1101:.\Generated_Source\PSoC5/LIN_1.c ****             /* Restore UART state*/
1102:.\Generated_Source\PSoC5/LIN_1.c ****             LIN_1_UART_Wakeup();
 1280              		.loc 1 1102 0
 1281 01d8 FFF7FEFF 		bl	LIN_1_UART_Wakeup
1103:.\Generated_Source\PSoC5/LIN_1.c **** 
1104:.\Generated_Source\PSoC5/LIN_1.c ****             if(0u != LIN_1_backup.enableState)
 1282              		.loc 1 1104 0
ARM GAS  C:\Users\MATSUD~1\AppData\Local\Temp\ccLjdAaK.s 			page 43


 1283 01dc 40F20003 		movw	r3, #:lower16:LIN_1_backup.5030
 1284 01e0 C0F20003 		movt	r3, #:upper16:LIN_1_backup.5030
 1285 01e4 1B78     		ldrb	r3, [r3, #0]	@ zero_extendqisi2
 1286 01e6 002B     		cmp	r3, #0
 1287 01e8 10D0     		beq	.L79
1105:.\Generated_Source\PSoC5/LIN_1.c ****             {
1106:.\Generated_Source\PSoC5/LIN_1.c ****                l_sys_irq_restore(LIN_1_ALL_IRQ_ENABLE);
 1288              		.loc 1 1106 0
 1289 01ea 4FF00300 		mov	r0, #3
 1290 01ee FFF7FEFF 		bl	l_sys_irq_restore
1107:.\Generated_Source\PSoC5/LIN_1.c ****             }
1108:.\Generated_Source\PSoC5/LIN_1.c **** 
1109:.\Generated_Source\PSoC5/LIN_1.c ****         break;
 1291              		.loc 1 1109 0
 1292 01f2 0BE0     		b	.L79
 1293              	.L72:
1110:.\Generated_Source\PSoC5/LIN_1.c **** 
1111:.\Generated_Source\PSoC5/LIN_1.c ****         #if(1u == LIN_1_AUTO_BAUD_RATE_SYNC)
1112:.\Generated_Source\PSoC5/LIN_1.c **** 
1113:.\Generated_Source\PSoC5/LIN_1.c ****             case L_IOCTL_SYNC_COUNTS:
1114:.\Generated_Source\PSoC5/LIN_1.c **** 
1115:.\Generated_Source\PSoC5/LIN_1.c ****                 /* Returns current number of sync field timer counts */
1116:.\Generated_Source\PSoC5/LIN_1.c ****                 returnValue = (l_u16) LIN_1_syncCounts;
 1294              		.loc 1 1116 0
 1295 01f4 40F20003 		movw	r3, #:lower16:LIN_1_syncCounts
 1296 01f8 C0F20003 		movt	r3, #:upper16:LIN_1_syncCounts
 1297 01fc 1B78     		ldrb	r3, [r3, #0]
 1298 01fe DBB2     		uxtb	r3, r3
 1299 0200 FB81     		strh	r3, [r7, #14]	@ movhi
1117:.\Generated_Source\PSoC5/LIN_1.c **** 
1118:.\Generated_Source\PSoC5/LIN_1.c ****             break;
 1300              		.loc 1 1118 0
 1301 0202 04E0     		b	.L74
 1302              	.L67:
1119:.\Generated_Source\PSoC5/LIN_1.c **** 
1120:.\Generated_Source\PSoC5/LIN_1.c ****         #endif  /* (1u == LIN_1_AUTO_BAUD_RATE_SYNC) */
1121:.\Generated_Source\PSoC5/LIN_1.c **** 
1122:.\Generated_Source\PSoC5/LIN_1.c **** 
1123:.\Generated_Source\PSoC5/LIN_1.c ****         #if(1u == LIN_1_TL_ENABLED)
1124:.\Generated_Source\PSoC5/LIN_1.c ****             #if(1u == LIN_1_CS_ENABLED)
1125:.\Generated_Source\PSoC5/LIN_1.c **** 
1126:.\Generated_Source\PSoC5/LIN_1.c ****                 case L_IOCTL_SET_SERIAL_NUMBER:
1127:.\Generated_Source\PSoC5/LIN_1.c ****                     LIN_1_serialNumber = (l_u8*) pv;
1128:.\Generated_Source\PSoC5/LIN_1.c ****                 break;
1129:.\Generated_Source\PSoC5/LIN_1.c **** 
1130:.\Generated_Source\PSoC5/LIN_1.c ****             #endif /* (1u == LIN_1_CS_ENABLED) */
1131:.\Generated_Source\PSoC5/LIN_1.c ****         #endif /* (1u == LIN_1_TL_ENABLED) */
1132:.\Generated_Source\PSoC5/LIN_1.c **** 
1133:.\Generated_Source\PSoC5/LIN_1.c **** 
1134:.\Generated_Source\PSoC5/LIN_1.c ****         default:
1135:.\Generated_Source\PSoC5/LIN_1.c ****             /* Unknown operation */
1136:.\Generated_Source\PSoC5/LIN_1.c ****             returnValue = (l_u16) CYRET_BAD_PARAM;
 1303              		.loc 1 1136 0
 1304 0204 4FF00103 		mov	r3, #1
 1305 0208 FB81     		strh	r3, [r7, #14]	@ movhi
1137:.\Generated_Source\PSoC5/LIN_1.c ****         break;
 1306              		.loc 1 1137 0
ARM GAS  C:\Users\MATSUD~1\AppData\Local\Temp\ccLjdAaK.s 			page 44


 1307 020a 00E0     		b	.L74
 1308              	.L79:
1109:.\Generated_Source\PSoC5/LIN_1.c ****         break;
 1309              		.loc 1 1109 0
 1310 020c 00BF     		nop
 1311              	.L74:
1138:.\Generated_Source\PSoC5/LIN_1.c ****     }
1139:.\Generated_Source\PSoC5/LIN_1.c **** 
1140:.\Generated_Source\PSoC5/LIN_1.c ****     return (returnValue);
 1312              		.loc 1 1140 0
 1313 020e FB89     		ldrh	r3, [r7, #14]
1141:.\Generated_Source\PSoC5/LIN_1.c **** }
 1314              		.loc 1 1141 0
 1315 0210 1846     		mov	r0, r3
 1316 0212 07F11007 		add	r7, r7, #16
 1317 0216 BD46     		mov	sp, r7
 1318 0218 80BD     		pop	{r7, pc}
 1319              		.cfi_endproc
 1320              	.LFE19:
 1321              		.size	l_ifc_ioctl_LIN_1, .-l_ifc_ioctl_LIN_1
 1322 021a 00BF     		.section	.text.l_ifc_ioctl,"ax",%progbits
 1323              		.align	2
 1324              		.global	l_ifc_ioctl
 1325              		.thumb
 1326              		.thumb_func
 1327              		.type	l_ifc_ioctl, %function
 1328              	l_ifc_ioctl:
 1329              	.LFB20:
1142:.\Generated_Source\PSoC5/LIN_1.c **** 
1143:.\Generated_Source\PSoC5/LIN_1.c **** 
1144:.\Generated_Source\PSoC5/LIN_1.c **** /*******************************************************************************
1145:.\Generated_Source\PSoC5/LIN_1.c **** * Function Name: l_ifc_ioctl
1146:.\Generated_Source\PSoC5/LIN_1.c **** ********************************************************************************
1147:.\Generated_Source\PSoC5/LIN_1.c **** *
1148:.\Generated_Source\PSoC5/LIN_1.c **** * Summary:
1149:.\Generated_Source\PSoC5/LIN_1.c **** *  This function controls functionality that is not covered by the other API
1150:.\Generated_Source\PSoC5/LIN_1.c **** *  calls. It is used for protocol specific parameters or hardware specific
1151:.\Generated_Source\PSoC5/LIN_1.c **** *  functionality. Example of such functionality can be to switch on/off the
1152:.\Generated_Source\PSoC5/LIN_1.c **** *  wake up signal detection.
1153:.\Generated_Source\PSoC5/LIN_1.c **** *
1154:.\Generated_Source\PSoC5/LIN_1.c **** * Parameters:
1155:.\Generated_Source\PSoC5/LIN_1.c **** *  iii - is the name of the interface handle.
1156:.\Generated_Source\PSoC5/LIN_1.c **** *  op - is the operation that should be applied.
1157:.\Generated_Source\PSoC5/LIN_1.c **** *  pv - is the pointer to the optional parameter.
1158:.\Generated_Source\PSoC5/LIN_1.c **** *
1159:.\Generated_Source\PSoC5/LIN_1.c **** * Return:
1160:.\Generated_Source\PSoC5/LIN_1.c **** *  There is no error code value returned for operation selected. This means that
1161:.\Generated_Source\PSoC5/LIN_1.c **** *  you must ensure that the values passed into the function are correct.
1162:.\Generated_Source\PSoC5/LIN_1.c **** *
1163:.\Generated_Source\PSoC5/LIN_1.c **** *  L_IOCTL_READ_STATUS operation
1164:.\Generated_Source\PSoC5/LIN_1.c **** *  The first bit in this byte is the flag that indicates that there has been no
1165:.\Generated_Source\PSoC5/LIN_1.c **** *  signaling on the bus for a certain elapsed time (available when
1166:.\Generated_Source\PSoC5/LIN_1.c **** *  Bus Inactivity Timeout Detection option is enabled). If the elapsed time
1167:.\Generated_Source\PSoC5/LIN_1.c **** *  passes a certain threshold, then this flag is set. Calling this API clears
1168:.\Generated_Source\PSoC5/LIN_1.c **** *  all status bits after they are returned. The second bit is the flag that
1169:.\Generated_Source\PSoC5/LIN_1.c **** *  indicates that a Targeted Reset service request (0xB5) was received
1170:.\Generated_Source\PSoC5/LIN_1.c **** *  (when J2602-1 Compliance is enabled).
ARM GAS  C:\Users\MATSUD~1\AppData\Local\Temp\ccLjdAaK.s 			page 45


1171:.\Generated_Source\PSoC5/LIN_1.c **** *
1172:.\Generated_Source\PSoC5/LIN_1.c **** *  Symbolic Name : LIN_1_IOCTL_STS_BUS_INACTIVITY
1173:.\Generated_Source\PSoC5/LIN_1.c **** *  Value         : 0x0001u
1174:.\Generated_Source\PSoC5/LIN_1.c **** *  Description   : No signal was detected on the bus for a certain elapsed time
1175:.\Generated_Source\PSoC5/LIN_1.c **** *
1176:.\Generated_Source\PSoC5/LIN_1.c **** *  Symbolic Name : LIN_1_IOCTL_STS_TARGET_RESET
1177:.\Generated_Source\PSoC5/LIN_1.c **** *  Value         : 0x0002u
1178:.\Generated_Source\PSoC5/LIN_1.c **** *  Description   : Targeted Reset service request (0xB5) was received.
1179:.\Generated_Source\PSoC5/LIN_1.c **** *
1180:.\Generated_Source\PSoC5/LIN_1.c **** *  L_IOCTL_SET_BAUD_RATE operation
1181:.\Generated_Source\PSoC5/LIN_1.c **** *  The 0 is returned if operation succeeded and 1 if an invalid operation
1182:.\Generated_Source\PSoC5/LIN_1.c **** *  parameter was passed to the function.
1183:.\Generated_Source\PSoC5/LIN_1.c **** *
1184:.\Generated_Source\PSoC5/LIN_1.c **** *  L_IOCTL_SLEEP operation
1185:.\Generated_Source\PSoC5/LIN_1.c **** *  The 0 is returned if operation succeeded and 1 if an invalid operation
1186:.\Generated_Source\PSoC5/LIN_1.c **** *  parameter was passed to the function.
1187:.\Generated_Source\PSoC5/LIN_1.c **** *
1188:.\Generated_Source\PSoC5/LIN_1.c **** *  L_IOCTL_WAKEUP operation
1189:.\Generated_Source\PSoC5/LIN_1.c **** *  The 0 is returned if operation succeeded and 1 if an invalid operation
1190:.\Generated_Source\PSoC5/LIN_1.c **** *  parameter was passed to the function.
1191:.\Generated_Source\PSoC5/LIN_1.c **** *
1192:.\Generated_Source\PSoC5/LIN_1.c **** *  L_IOCTL_SYNC_COUNTS operation
1193:.\Generated_Source\PSoC5/LIN_1.c **** *  The 0 is returned if operation succeeded and 1 if an invalid operation
1194:.\Generated_Source\PSoC5/LIN_1.c **** *  parameter was passed to the function.
1195:.\Generated_Source\PSoC5/LIN_1.c **** *
1196:.\Generated_Source\PSoC5/LIN_1.c **** *  L_IOCTL_SET_SERIAL_NUMBER operation
1197:.\Generated_Source\PSoC5/LIN_1.c **** *  The 0 is returned if operation succeeded and 1 if an invalid operation
1198:.\Generated_Source\PSoC5/LIN_1.c **** *  parameter was passed to the function.
1199:.\Generated_Source\PSoC5/LIN_1.c **** *
1200:.\Generated_Source\PSoC5/LIN_1.c **** * Reentrant:
1201:.\Generated_Source\PSoC5/LIN_1.c **** *  No
1202:.\Generated_Source\PSoC5/LIN_1.c **** *
1203:.\Generated_Source\PSoC5/LIN_1.c **** *******************************************************************************/
1204:.\Generated_Source\PSoC5/LIN_1.c **** l_u16 l_ifc_ioctl(l_ifc_handle iii, l_ioctl_op op, void* pv) 
1205:.\Generated_Source\PSoC5/LIN_1.c **** {
 1330              		.loc 1 1205 0
 1331              		.cfi_startproc
 1332              		@ args = 0, pretend = 0, frame = 16
 1333              		@ frame_needed = 1, uses_anonymous_args = 0
 1334 0000 80B5     		push	{r7, lr}
 1335              	.LCFI53:
 1336              		.cfi_def_cfa_offset 8
 1337              		.cfi_offset 7, -8
 1338              		.cfi_offset 14, -4
 1339 0002 84B0     		sub	sp, sp, #16
 1340              	.LCFI54:
 1341              		.cfi_def_cfa_offset 24
 1342 0004 00AF     		add	r7, sp, #0
 1343              	.LCFI55:
 1344              		.cfi_def_cfa_register 7
 1345 0006 0B46     		mov	r3, r1
 1346 0008 3A60     		str	r2, [r7, #0]
 1347 000a 0246     		mov	r2, r0
 1348 000c FA71     		strb	r2, [r7, #7]
 1349 000e BB71     		strb	r3, [r7, #6]
1206:.\Generated_Source\PSoC5/LIN_1.c ****     l_u16 returnValue;
1207:.\Generated_Source\PSoC5/LIN_1.c **** 
ARM GAS  C:\Users\MATSUD~1\AppData\Local\Temp\ccLjdAaK.s 			page 46


1208:.\Generated_Source\PSoC5/LIN_1.c ****     switch(iii)
 1350              		.loc 1 1208 0
 1351 0010 FB79     		ldrb	r3, [r7, #7]	@ zero_extendqisi2
 1352 0012 002B     		cmp	r3, #0
 1353 0014 07D1     		bne	.L85
 1354              	.L82:
1209:.\Generated_Source\PSoC5/LIN_1.c ****     {
1210:.\Generated_Source\PSoC5/LIN_1.c ****         case LIN_1_IFC_HANDLE:
1211:.\Generated_Source\PSoC5/LIN_1.c ****             returnValue = l_ifc_ioctl_LIN_1(op, pv);
 1355              		.loc 1 1211 0
 1356 0016 BB79     		ldrb	r3, [r7, #6]	@ zero_extendqisi2
 1357 0018 1846     		mov	r0, r3
 1358 001a 3968     		ldr	r1, [r7, #0]
 1359 001c FFF7FEFF 		bl	l_ifc_ioctl_LIN_1
 1360 0020 0346     		mov	r3, r0
 1361 0022 FB81     		strh	r3, [r7, #14]	@ movhi
1212:.\Generated_Source\PSoC5/LIN_1.c ****         break;
 1362              		.loc 1 1212 0
 1363 0024 03E0     		b	.L83
 1364              	.L85:
1213:.\Generated_Source\PSoC5/LIN_1.c **** 
1214:.\Generated_Source\PSoC5/LIN_1.c ****         default:
1215:.\Generated_Source\PSoC5/LIN_1.c ****             /* Unknown operation */
1216:.\Generated_Source\PSoC5/LIN_1.c ****             returnValue = (l_u16) CYRET_BAD_PARAM;
 1365              		.loc 1 1216 0
 1366 0026 4FF00103 		mov	r3, #1
 1367 002a FB81     		strh	r3, [r7, #14]	@ movhi
1217:.\Generated_Source\PSoC5/LIN_1.c ****         break;
 1368              		.loc 1 1217 0
 1369 002c 00BF     		nop
 1370              	.L83:
1218:.\Generated_Source\PSoC5/LIN_1.c ****     }
1219:.\Generated_Source\PSoC5/LIN_1.c **** 
1220:.\Generated_Source\PSoC5/LIN_1.c ****     return (returnValue);
 1371              		.loc 1 1220 0
 1372 002e FB89     		ldrh	r3, [r7, #14]
1221:.\Generated_Source\PSoC5/LIN_1.c **** }
 1373              		.loc 1 1221 0
 1374 0030 1846     		mov	r0, r3
 1375 0032 07F11007 		add	r7, r7, #16
 1376 0036 BD46     		mov	sp, r7
 1377 0038 80BD     		pop	{r7, pc}
 1378              		.cfi_endproc
 1379              	.LFE20:
 1380              		.size	l_ifc_ioctl, .-l_ifc_ioctl
 1381 003a 00BF     		.section	.text.l_ifc_rx_LIN_1,"ax",%progbits
 1382              		.align	2
 1383              		.global	l_ifc_rx_LIN_1
 1384              		.thumb
 1385              		.thumb_func
 1386              		.type	l_ifc_rx_LIN_1, %function
 1387              	l_ifc_rx_LIN_1:
 1388              	.LFB21:
1222:.\Generated_Source\PSoC5/LIN_1.c **** 
1223:.\Generated_Source\PSoC5/LIN_1.c **** 
1224:.\Generated_Source\PSoC5/LIN_1.c **** /*******************************************************************************
1225:.\Generated_Source\PSoC5/LIN_1.c **** * Function Name: l_ifc_rx
ARM GAS  C:\Users\MATSUD~1\AppData\Local\Temp\ccLjdAaK.s 			page 47


1226:.\Generated_Source\PSoC5/LIN_1.c **** ********************************************************************************
1227:.\Generated_Source\PSoC5/LIN_1.c **** *
1228:.\Generated_Source\PSoC5/LIN_1.c **** * Summary:
1229:.\Generated_Source\PSoC5/LIN_1.c **** *  The LIN Slave component takes care of calling this API routine automatically.
1230:.\Generated_Source\PSoC5/LIN_1.c **** *  Therefore, this API routine must not be called by the application code.
1231:.\Generated_Source\PSoC5/LIN_1.c **** *
1232:.\Generated_Source\PSoC5/LIN_1.c **** * Parameters:
1233:.\Generated_Source\PSoC5/LIN_1.c **** *  None
1234:.\Generated_Source\PSoC5/LIN_1.c **** *
1235:.\Generated_Source\PSoC5/LIN_1.c **** * Return:
1236:.\Generated_Source\PSoC5/LIN_1.c **** *  None
1237:.\Generated_Source\PSoC5/LIN_1.c **** *
1238:.\Generated_Source\PSoC5/LIN_1.c **** * Reentrant:
1239:.\Generated_Source\PSoC5/LIN_1.c **** *  No
1240:.\Generated_Source\PSoC5/LIN_1.c **** *
1241:.\Generated_Source\PSoC5/LIN_1.c **** *******************************************************************************/
1242:.\Generated_Source\PSoC5/LIN_1.c **** void l_ifc_rx_LIN_1(void) 
1243:.\Generated_Source\PSoC5/LIN_1.c **** {
 1389              		.loc 1 1243 0
 1390              		.cfi_startproc
 1391              		@ args = 0, pretend = 0, frame = 8
 1392              		@ frame_needed = 1, uses_anonymous_args = 0
 1393 0000 90B5     		push	{r4, r7, lr}
 1394              	.LCFI56:
 1395              		.cfi_def_cfa_offset 12
 1396              		.cfi_offset 4, -12
 1397              		.cfi_offset 7, -8
 1398              		.cfi_offset 14, -4
 1399 0002 83B0     		sub	sp, sp, #12
 1400              	.LCFI57:
 1401              		.cfi_def_cfa_offset 24
 1402 0004 00AF     		add	r7, sp, #0
 1403              	.LCFI58:
 1404              		.cfi_def_cfa_register 7
1244:.\Generated_Source\PSoC5/LIN_1.c ****     l_u8 i;
1245:.\Generated_Source\PSoC5/LIN_1.c ****     l_u8 interruptState;
1246:.\Generated_Source\PSoC5/LIN_1.c **** 
1247:.\Generated_Source\PSoC5/LIN_1.c ****     static l_u16 LIN_1_interimChecksum;   /* Holds interim checksum value     */
1248:.\Generated_Source\PSoC5/LIN_1.c ****     static l_u8 LIN_1_framePid;           /* PID of the current frame         */
1249:.\Generated_Source\PSoC5/LIN_1.c ****     static l_u8 LIN_1_frameSize;          /* Size of frame being processed    */
1250:.\Generated_Source\PSoC5/LIN_1.c ****     static l_u8 LIN_1_bytesTransferred;   /* Number of transferred bytes       */
1251:.\Generated_Source\PSoC5/LIN_1.c ****     static l_u8 LIN_1_tmpData;            /* Used to store transmitted byte   */
1252:.\Generated_Source\PSoC5/LIN_1.c ****     static l_u8 LIN_1_pidIndex;           /* Index in pidInfoTable            */
1253:.\Generated_Source\PSoC5/LIN_1.c ****     static l_u8 LIN_1_tmpRxFrameData[8u]; /* RXed data before checksum checked */
1254:.\Generated_Source\PSoC5/LIN_1.c ****     static volatile l_u8* LIN_1_frameData = NULL;  /* Pointer to frame data. Points to the byte to 
1255:.\Generated_Source\PSoC5/LIN_1.c **** 
1256:.\Generated_Source\PSoC5/LIN_1.c ****     #if(1u == LIN_1_TL_ENABLED)
1257:.\Generated_Source\PSoC5/LIN_1.c **** 
1258:.\Generated_Source\PSoC5/LIN_1.c ****         #if(1u == LIN_1_TL_API_FORMAT)
1259:.\Generated_Source\PSoC5/LIN_1.c ****             l_u8 tmpPci;
1260:.\Generated_Source\PSoC5/LIN_1.c ****         #endif /* 1u == LIN_1_TL_API_FORMAT */
1261:.\Generated_Source\PSoC5/LIN_1.c **** 
1262:.\Generated_Source\PSoC5/LIN_1.c ****         static l_u8 LIN_1_mrfBuffer[LIN_1_FRAME_BUFF_LEN];
1263:.\Generated_Source\PSoC5/LIN_1.c ****     #endif /* (1u == LIN_1_TL_ENABLED) */
1264:.\Generated_Source\PSoC5/LIN_1.c **** 
1265:.\Generated_Source\PSoC5/LIN_1.c ****     /*******************************************************************************
1266:.\Generated_Source\PSoC5/LIN_1.c ****     * Parity lookup table.  Given a six bit identifier as an index, the indexed
ARM GAS  C:\Users\MATSUD~1\AppData\Local\Temp\ccLjdAaK.s 			page 48


1267:.\Generated_Source\PSoC5/LIN_1.c ****     * value will provide the correct value with the parity bit set.
1268:.\Generated_Source\PSoC5/LIN_1.c ****     *******************************************************************************/
1269:.\Generated_Source\PSoC5/LIN_1.c ****     static const l_u8 CYCODE LIN_1_parityTable[] =
1270:.\Generated_Source\PSoC5/LIN_1.c ****     {
1271:.\Generated_Source\PSoC5/LIN_1.c ****         0x80u, 0xC1u, 0x42u, 0x03u, 0xC4u, 0x85u, 0x06u, 0x47u, 0x08u, 0x49u, 0xCAu,
1272:.\Generated_Source\PSoC5/LIN_1.c ****         0x8Bu, 0x4Cu, 0x0Du, 0x8Eu, 0xCFu, 0x50u, 0x11u, 0x92u, 0xD3u, 0x14u, 0x55u,
1273:.\Generated_Source\PSoC5/LIN_1.c ****         0xD6u, 0x97u, 0xD8u, 0x99u, 0x1Au, 0x5Bu, 0x9Cu, 0xDDu, 0x5Eu, 0x1Fu, 0x20u,
1274:.\Generated_Source\PSoC5/LIN_1.c ****         0x61u, 0xE2u, 0xA3u, 0x64u, 0x25u, 0xA6u, 0xE7u, 0xA8u, 0xE9u, 0x6Au, 0x2Bu,
1275:.\Generated_Source\PSoC5/LIN_1.c ****         0xECu, 0xADu, 0x2Eu, 0x6Fu, 0xF0u, 0xB1u, 0x32u, 0x73u, 0xB4u, 0xF5u, 0x76u,
1276:.\Generated_Source\PSoC5/LIN_1.c ****         0x37u, 0x78u, 0x39u, 0xBAu, 0xFBu, 0x3Cu, 0x7Du, 0xFEu, 0xBFu
1277:.\Generated_Source\PSoC5/LIN_1.c ****     };
1278:.\Generated_Source\PSoC5/LIN_1.c **** 
1279:.\Generated_Source\PSoC5/LIN_1.c ****     /* PID information table */
1280:.\Generated_Source\PSoC5/LIN_1.c ****     static LIN_1_PID_INFO_TABLE const CYCODE LIN_1_pidInfoTable[LIN_1_NUM_FRAMES] =
1281:.\Generated_Source\PSoC5/LIN_1.c **** {
1282:.\Generated_Source\PSoC5/LIN_1.c ****     {(LIN_1_FRAME_DIR_PUBLISH | LIN_1_FRAME_DATA_SIZE_1 | LIN_1_FRAME_TYPE_UNCOND),
1283:.\Generated_Source\PSoC5/LIN_1.c ****      LIN_1_Buffer_Frame1}, 
1284:.\Generated_Source\PSoC5/LIN_1.c **** 
1285:.\Generated_Source\PSoC5/LIN_1.c ****     {(LIN_1_FRAME_DIR_SUBSCRIBE | LIN_1_FRAME_DATA_SIZE_1 | LIN_1_FRAME_TYPE_UNCOND),
1286:.\Generated_Source\PSoC5/LIN_1.c ****      LIN_1_Buffer_Frame2}
1287:.\Generated_Source\PSoC5/LIN_1.c **** };
1288:.\Generated_Source\PSoC5/LIN_1.c **** 
1289:.\Generated_Source\PSoC5/LIN_1.c **** 
1290:.\Generated_Source\PSoC5/LIN_1.c ****     /* Check for correctness data for UART */
1291:.\Generated_Source\PSoC5/LIN_1.c ****     if(0u == (LIN_1_FSM_UART_ENABLE_FLAG & LIN_1_fsmFlags))
 1405              		.loc 1 1291 0
 1406 0006 40F20003 		movw	r3, #:lower16:LIN_1_fsmFlags
 1407 000a C0F20003 		movt	r3, #:upper16:LIN_1_fsmFlags
 1408 000e 1B78     		ldrb	r3, [r3, #0]
 1409 0010 DBB2     		uxtb	r3, r3
 1410 0012 03F00803 		and	r3, r3, #8
 1411 0016 DBB2     		uxtb	r3, r3
 1412 0018 002B     		cmp	r3, #0
 1413 001a 03D1     		bne	.L87
1292:.\Generated_Source\PSoC5/LIN_1.c ****     {
1293:.\Generated_Source\PSoC5/LIN_1.c ****         /* Reset UART state machine */
1294:.\Generated_Source\PSoC5/LIN_1.c ****         LIN_1_EndFrame(LIN_1_HANDLING_RESET_FSM_ERR);
 1414              		.loc 1 1294 0
 1415 001c 4FF00100 		mov	r0, #1
 1416 0020 FFF7FEFF 		bl	LIN_1_EndFrame
 1417              	.L87:
1295:.\Generated_Source\PSoC5/LIN_1.c ****     }
1296:.\Generated_Source\PSoC5/LIN_1.c **** 
1297:.\Generated_Source\PSoC5/LIN_1.c ****     /* Check for UART framing error */
1298:.\Generated_Source\PSoC5/LIN_1.c ****     if(0u != (LIN_1_UART_ReadRxStatus() & LIN_1_UART_RX_STS_STOP_ERROR))
 1418              		.loc 1 1298 0
 1419 0024 FFF7FEFF 		bl	LIN_1_UART_ReadRxStatus
 1420 0028 0346     		mov	r3, r0
 1421 002a 03F00803 		and	r3, r3, #8
 1422 002e 002B     		cmp	r3, #0
 1423 0030 27D0     		beq	.L88
1299:.\Generated_Source\PSoC5/LIN_1.c ****     {
1300:.\Generated_Source\PSoC5/LIN_1.c ****         #if(1u == LIN_1_SAE_J2602)
1301:.\Generated_Source\PSoC5/LIN_1.c **** 
1302:.\Generated_Source\PSoC5/LIN_1.c ****             /* Set framing error bits */
1303:.\Generated_Source\PSoC5/LIN_1.c ****             LIN_1_j2602Status |= LIN_1_J2602_STS_FRAMING_ERR;
1304:.\Generated_Source\PSoC5/LIN_1.c **** 
ARM GAS  C:\Users\MATSUD~1\AppData\Local\Temp\ccLjdAaK.s 			page 49


1305:.\Generated_Source\PSoC5/LIN_1.c ****         #endif /* (1u == LIN_1_SAE_J2602) */
1306:.\Generated_Source\PSoC5/LIN_1.c **** 
1307:.\Generated_Source\PSoC5/LIN_1.c ****         /* Set framing error  */
1308:.\Generated_Source\PSoC5/LIN_1.c ****         LIN_1_fsmFlags |= LIN_1_FSM_FRAMING_ERROR_FLAG;
 1424              		.loc 1 1308 0
 1425 0032 40F20003 		movw	r3, #:lower16:LIN_1_fsmFlags
 1426 0036 C0F20003 		movt	r3, #:upper16:LIN_1_fsmFlags
 1427 003a 1B78     		ldrb	r3, [r3, #0]
 1428 003c DBB2     		uxtb	r3, r3
 1429 003e 63F07F03 		orn	r3, r3, #127
 1430 0042 DAB2     		uxtb	r2, r3
 1431 0044 40F20003 		movw	r3, #:lower16:LIN_1_fsmFlags
 1432 0048 C0F20003 		movt	r3, #:upper16:LIN_1_fsmFlags
 1433 004c 1A70     		strb	r2, [r3, #0]
1309:.\Generated_Source\PSoC5/LIN_1.c **** 
1310:.\Generated_Source\PSoC5/LIN_1.c ****         
1311:.\Generated_Source\PSoC5/LIN_1.c ****     /* Save current global interrupt enable and disable it */
1312:.\Generated_Source\PSoC5/LIN_1.c ****     interruptState = CyEnterCriticalSection();
 1434              		.loc 1 1312 0
 1435 004e FFF7FEFF 		bl	CyEnterCriticalSection
 1436 0052 0346     		mov	r3, r0
 1437 0054 BB71     		strb	r3, [r7, #6]
1313:.\Generated_Source\PSoC5/LIN_1.c **** 
1314:.\Generated_Source\PSoC5/LIN_1.c ****         LIN_1_Buffer_Frame1[LIN_1_Response_Error_Frame1_SIG_BYTE_OFFSET] |= 
 1438              		.loc 1 1314 0
 1439 0056 40F20003 		movw	r3, #:lower16:LIN_1_Buffer_Frame1
 1440 005a C0F20003 		movt	r3, #:upper16:LIN_1_Buffer_Frame1
 1441 005e 1B78     		ldrb	r3, [r3, #0]
 1442 0060 DBB2     		uxtb	r3, r3
 1443 0062 43F00403 		orr	r3, r3, #4
 1444 0066 DAB2     		uxtb	r2, r3
 1445 0068 40F20003 		movw	r3, #:lower16:LIN_1_Buffer_Frame1
 1446 006c C0F20003 		movt	r3, #:upper16:LIN_1_Buffer_Frame1
 1447 0070 1A70     		strb	r2, [r3, #0]
1315:.\Generated_Source\PSoC5/LIN_1.c ****                             LIN_1_Response_Error_Frame1_SIG_MASK_0;
1316:.\Generated_Source\PSoC5/LIN_1.c **** 
1317:.\Generated_Source\PSoC5/LIN_1.c ****     /* Restore global interrupt enable state */
1318:.\Generated_Source\PSoC5/LIN_1.c ****     CyExitCriticalSection(interruptState);
 1448              		.loc 1 1318 0
 1449 0072 BB79     		ldrb	r3, [r7, #6]	@ zero_extendqisi2
 1450 0074 1846     		mov	r0, r3
 1451 0076 FFF7FEFF 		bl	CyExitCriticalSection
1319:.\Generated_Source\PSoC5/LIN_1.c **** 
1320:.\Generated_Source\PSoC5/LIN_1.c **** 
1321:.\Generated_Source\PSoC5/LIN_1.c ****         /* Finish frame processing */
1322:.\Generated_Source\PSoC5/LIN_1.c ****         LIN_1_EndFrame(LIN_1_HANDLING_DONT_SAVE_PID);
 1452              		.loc 1 1322 0
 1453 007a 4FF01000 		mov	r0, #16
 1454 007e FFF7FEFF 		bl	LIN_1_EndFrame
 1455              	.L88:
1323:.\Generated_Source\PSoC5/LIN_1.c ****     }
1324:.\Generated_Source\PSoC5/LIN_1.c **** 
1325:.\Generated_Source\PSoC5/LIN_1.c ****     switch(LIN_1_uartFsmState)
 1456              		.loc 1 1325 0
 1457 0082 40F20003 		movw	r3, #:lower16:LIN_1_uartFsmState
 1458 0086 C0F20003 		movt	r3, #:upper16:LIN_1_uartFsmState
 1459 008a 1B78     		ldrb	r3, [r3, #0]
ARM GAS  C:\Users\MATSUD~1\AppData\Local\Temp\ccLjdAaK.s 			page 50


 1460 008c DBB2     		uxtb	r3, r3
 1461 008e 03F1FF33 		add	r3, r3, #-1
 1462 0092 032B     		cmp	r3, #3
 1463 0094 00F24B84 		bhi	.L89
 1464 0098 01A2     		adr	r2, .L94
 1465 009a 52F823F0 		ldr	pc, [r2, r3, lsl #2]
 1466 009e 00BF     		.align	2
 1467              	.L94:
 1468 00a0 B1000000 		.word	.L90+1
 1469 00a4 7B030000 		.word	.L91+1
 1470 00a8 6F050000 		.word	.L92+1
 1471 00ac 85060000 		.word	.L93+1
 1472              	.L90:
1326:.\Generated_Source\PSoC5/LIN_1.c ****     {
1327:.\Generated_Source\PSoC5/LIN_1.c **** 
1328:.\Generated_Source\PSoC5/LIN_1.c ****         /***********************************************************************
1329:.\Generated_Source\PSoC5/LIN_1.c ****         *                       Sync Field Byte Receive
1330:.\Generated_Source\PSoC5/LIN_1.c ****         * State description:
1331:.\Generated_Source\PSoC5/LIN_1.c ****         *  - Available if Automatic Baud Rate Synchronization is disabled
1332:.\Generated_Source\PSoC5/LIN_1.c ****         *  - Receives sync byte and verifies its correctness
1333:.\Generated_Source\PSoC5/LIN_1.c ****         *  - Next state is PID Field Byte Receive (state 1)
1334:.\Generated_Source\PSoC5/LIN_1.c ****         ***********************************************************************/
1335:.\Generated_Source\PSoC5/LIN_1.c ****         #if(0u == LIN_1_AUTO_BAUD_RATE_SYNC)
1336:.\Generated_Source\PSoC5/LIN_1.c **** 
1337:.\Generated_Source\PSoC5/LIN_1.c ****             case LIN_1_UART_ISR_STATE_0_SNC:
1338:.\Generated_Source\PSoC5/LIN_1.c **** 
1339:.\Generated_Source\PSoC5/LIN_1.c ****                 /* Handle Sync field correctness */
1340:.\Generated_Source\PSoC5/LIN_1.c ****                 if(LIN_1_FRAME_SYNC_BYTE != LIN_1_UART_ReadRxData())
1341:.\Generated_Source\PSoC5/LIN_1.c ****                 {
1342:.\Generated_Source\PSoC5/LIN_1.c ****                     /* Set response error */
1343:.\Generated_Source\PSoC5/LIN_1.c ****                     LIN_1_ifcStatus |= LIN_1_IFC_STS_ERROR_IN_RESPONSE;
1344:.\Generated_Source\PSoC5/LIN_1.c **** 
1345:.\Generated_Source\PSoC5/LIN_1.c ****                     #if(1u == LIN_1_SAE_J2602)
1346:.\Generated_Source\PSoC5/LIN_1.c **** 
1347:.\Generated_Source\PSoC5/LIN_1.c ****                         /* Set data error bit */
1348:.\Generated_Source\PSoC5/LIN_1.c ****                         LIN_1_j2602Status |= LIN_1_J2602_STS_DATA_ERR;
1349:.\Generated_Source\PSoC5/LIN_1.c **** 
1350:.\Generated_Source\PSoC5/LIN_1.c ****                     #endif /* (1u == LIN_1_SAE_J2602) */
1351:.\Generated_Source\PSoC5/LIN_1.c **** 
1352:.\Generated_Source\PSoC5/LIN_1.c ****                     
1353:.\Generated_Source\PSoC5/LIN_1.c ****     /* Save current global interrupt enable and disable it */
1354:.\Generated_Source\PSoC5/LIN_1.c ****     interruptState = CyEnterCriticalSection();
1355:.\Generated_Source\PSoC5/LIN_1.c **** 
1356:.\Generated_Source\PSoC5/LIN_1.c ****         LIN_1_Buffer_Frame1[LIN_1_Response_Error_Frame1_SIG_BYTE_OFFSET] |= 
1357:.\Generated_Source\PSoC5/LIN_1.c ****                             LIN_1_Response_Error_Frame1_SIG_MASK_0;
1358:.\Generated_Source\PSoC5/LIN_1.c **** 
1359:.\Generated_Source\PSoC5/LIN_1.c ****     /* Restore global interrupt enable state */
1360:.\Generated_Source\PSoC5/LIN_1.c ****     CyExitCriticalSection(interruptState);
1361:.\Generated_Source\PSoC5/LIN_1.c **** 
1362:.\Generated_Source\PSoC5/LIN_1.c **** 
1363:.\Generated_Source\PSoC5/LIN_1.c ****                     /* Reset UART State Machine */
1364:.\Generated_Source\PSoC5/LIN_1.c ****                     LIN_1_EndFrame(LIN_1_HANDLING_RESET_FSM_ERR);
1365:.\Generated_Source\PSoC5/LIN_1.c ****                 }
1366:.\Generated_Source\PSoC5/LIN_1.c ****                 else
1367:.\Generated_Source\PSoC5/LIN_1.c ****                 {
1368:.\Generated_Source\PSoC5/LIN_1.c ****                     /* Next step is reception of the frame PID field */
1369:.\Generated_Source\PSoC5/LIN_1.c ****                     LIN_1_uartFsmState = LIN_1_UART_ISR_STATE_1_PID;
ARM GAS  C:\Users\MATSUD~1\AppData\Local\Temp\ccLjdAaK.s 			page 51


1370:.\Generated_Source\PSoC5/LIN_1.c ****                 }
1371:.\Generated_Source\PSoC5/LIN_1.c ****             break;
1372:.\Generated_Source\PSoC5/LIN_1.c **** 
1373:.\Generated_Source\PSoC5/LIN_1.c ****         #endif  /* (0u == LIN_1_AUTO_BAUD_RATE_SYNC) */
1374:.\Generated_Source\PSoC5/LIN_1.c **** 
1375:.\Generated_Source\PSoC5/LIN_1.c **** 
1376:.\Generated_Source\PSoC5/LIN_1.c ****         /***********************************************************************
1377:.\Generated_Source\PSoC5/LIN_1.c ****         *                       PID Field Byte Receive
1378:.\Generated_Source\PSoC5/LIN_1.c ****         * State description:
1379:.\Generated_Source\PSoC5/LIN_1.c ****         *  - Receives protected identifier (PID)
1380:.\Generated_Source\PSoC5/LIN_1.c ****         *  - Checks PID parity
1381:.\Generated_Source\PSoC5/LIN_1.c ****         *  - Set flags
1382:.\Generated_Source\PSoC5/LIN_1.c ****         *  - Determine next state (RX or TX)
1383:.\Generated_Source\PSoC5/LIN_1.c ****         ***********************************************************************/
1384:.\Generated_Source\PSoC5/LIN_1.c ****         case LIN_1_UART_ISR_STATE_1_PID:
1385:.\Generated_Source\PSoC5/LIN_1.c **** 
1386:.\Generated_Source\PSoC5/LIN_1.c ****             /* Save PID */
1387:.\Generated_Source\PSoC5/LIN_1.c ****             LIN_1_framePid = LIN_1_UART_ReadRxData();
 1473              		.loc 1 1387 0
 1474 00b0 FFF7FEFF 		bl	LIN_1_UART_ReadRxData
 1475 00b4 0346     		mov	r3, r0
 1476 00b6 1A46     		mov	r2, r3
 1477 00b8 40F20003 		movw	r3, #:lower16:LIN_1_framePid.5055
 1478 00bc C0F20003 		movt	r3, #:upper16:LIN_1_framePid.5055
 1479 00c0 1A70     		strb	r2, [r3, #0]
1388:.\Generated_Source\PSoC5/LIN_1.c **** 
1389:.\Generated_Source\PSoC5/LIN_1.c ****             /* Reset number of transferred bytes */
1390:.\Generated_Source\PSoC5/LIN_1.c ****             LIN_1_bytesTransferred = 0u;
 1480              		.loc 1 1390 0
 1481 00c2 40F20003 		movw	r3, #:lower16:LIN_1_bytesTransferred.5057
 1482 00c6 C0F20003 		movt	r3, #:upper16:LIN_1_bytesTransferred.5057
 1483 00ca 4FF00002 		mov	r2, #0
 1484 00ce 1A70     		strb	r2, [r3, #0]
1391:.\Generated_Source\PSoC5/LIN_1.c **** 
1392:.\Generated_Source\PSoC5/LIN_1.c ****             /* Verify PID parity */
1393:.\Generated_Source\PSoC5/LIN_1.c ****             if(LIN_1_parityTable[LIN_1_framePid & LIN_1_PID_PARITY_MASK] !=
 1485              		.loc 1 1393 0
 1486 00d0 40F20003 		movw	r3, #:lower16:LIN_1_framePid.5055
 1487 00d4 C0F20003 		movt	r3, #:upper16:LIN_1_framePid.5055
 1488 00d8 1B78     		ldrb	r3, [r3, #0]	@ zero_extendqisi2
 1489 00da 03F03F02 		and	r2, r3, #63
 1490 00de 40F20003 		movw	r3, #:lower16:LIN_1_parityTable.5062
 1491 00e2 C0F20003 		movt	r3, #:upper16:LIN_1_parityTable.5062
 1492 00e6 9A5C     		ldrb	r2, [r3, r2]	@ zero_extendqisi2
 1493 00e8 40F20003 		movw	r3, #:lower16:LIN_1_framePid.5055
 1494 00ec C0F20003 		movt	r3, #:upper16:LIN_1_framePid.5055
 1495 00f0 1B78     		ldrb	r3, [r3, #0]	@ zero_extendqisi2
 1496 00f2 9A42     		cmp	r2, r3
 1497 00f4 28D0     		beq	.L95
1394:.\Generated_Source\PSoC5/LIN_1.c ****                 LIN_1_framePid)
1395:.\Generated_Source\PSoC5/LIN_1.c ****             {
1396:.\Generated_Source\PSoC5/LIN_1.c ****                 /* Set response error */
1397:.\Generated_Source\PSoC5/LIN_1.c ****                 LIN_1_ifcStatus |= LIN_1_IFC_STS_ERROR_IN_RESPONSE;
 1498              		.loc 1 1397 0
 1499 00f6 40F20003 		movw	r3, #:lower16:LIN_1_ifcStatus
 1500 00fa C0F20003 		movt	r3, #:upper16:LIN_1_ifcStatus
 1501 00fe 1B88     		ldrh	r3, [r3, #0]	@ movhi
ARM GAS  C:\Users\MATSUD~1\AppData\Local\Temp\ccLjdAaK.s 			page 52


 1502 0100 9BB2     		uxth	r3, r3
 1503 0102 43F00103 		orr	r3, r3, #1
 1504 0106 9AB2     		uxth	r2, r3
 1505 0108 40F20003 		movw	r3, #:lower16:LIN_1_ifcStatus
 1506 010c C0F20003 		movt	r3, #:upper16:LIN_1_ifcStatus
 1507 0110 1A80     		strh	r2, [r3, #0]	@ movhi
1398:.\Generated_Source\PSoC5/LIN_1.c **** 
1399:.\Generated_Source\PSoC5/LIN_1.c ****                 #if(1u == LIN_1_SAE_J2602)
1400:.\Generated_Source\PSoC5/LIN_1.c **** 
1401:.\Generated_Source\PSoC5/LIN_1.c ****                     /* Set ERR2, ERR1 and ERR0 bits */
1402:.\Generated_Source\PSoC5/LIN_1.c ****                     LIN_1_j2602Status |= LIN_1_J2602_STS_PARITY_ERR;
1403:.\Generated_Source\PSoC5/LIN_1.c **** 
1404:.\Generated_Source\PSoC5/LIN_1.c ****                 #endif /* (1u == LIN_1_SAE_J2602) */
1405:.\Generated_Source\PSoC5/LIN_1.c **** 
1406:.\Generated_Source\PSoC5/LIN_1.c ****                 
1407:.\Generated_Source\PSoC5/LIN_1.c ****     /* Save current global interrupt enable and disable it */
1408:.\Generated_Source\PSoC5/LIN_1.c ****     interruptState = CyEnterCriticalSection();
 1508              		.loc 1 1408 0
 1509 0112 FFF7FEFF 		bl	CyEnterCriticalSection
 1510 0116 0346     		mov	r3, r0
 1511 0118 BB71     		strb	r3, [r7, #6]
1409:.\Generated_Source\PSoC5/LIN_1.c **** 
1410:.\Generated_Source\PSoC5/LIN_1.c ****         LIN_1_Buffer_Frame1[LIN_1_Response_Error_Frame1_SIG_BYTE_OFFSET] |= 
 1512              		.loc 1 1410 0
 1513 011a 40F20003 		movw	r3, #:lower16:LIN_1_Buffer_Frame1
 1514 011e C0F20003 		movt	r3, #:upper16:LIN_1_Buffer_Frame1
 1515 0122 1B78     		ldrb	r3, [r3, #0]
 1516 0124 DBB2     		uxtb	r3, r3
 1517 0126 43F00403 		orr	r3, r3, #4
 1518 012a DAB2     		uxtb	r2, r3
 1519 012c 40F20003 		movw	r3, #:lower16:LIN_1_Buffer_Frame1
 1520 0130 C0F20003 		movt	r3, #:upper16:LIN_1_Buffer_Frame1
 1521 0134 1A70     		strb	r2, [r3, #0]
1411:.\Generated_Source\PSoC5/LIN_1.c ****                             LIN_1_Response_Error_Frame1_SIG_MASK_0;
1412:.\Generated_Source\PSoC5/LIN_1.c **** 
1413:.\Generated_Source\PSoC5/LIN_1.c ****     /* Restore global interrupt enable state */
1414:.\Generated_Source\PSoC5/LIN_1.c ****     CyExitCriticalSection(interruptState);
 1522              		.loc 1 1414 0
 1523 0136 BB79     		ldrb	r3, [r7, #6]	@ zero_extendqisi2
 1524 0138 1846     		mov	r0, r3
 1525 013a FFF7FEFF 		bl	CyExitCriticalSection
1415:.\Generated_Source\PSoC5/LIN_1.c **** 
1416:.\Generated_Source\PSoC5/LIN_1.c **** 
1417:.\Generated_Source\PSoC5/LIN_1.c ****                 /* Reset UART State Machine */
1418:.\Generated_Source\PSoC5/LIN_1.c ****                 LIN_1_EndFrame(LIN_1_HANDLING_DONT_SAVE_PID);
 1526              		.loc 1 1418 0
 1527 013e 4FF01000 		mov	r0, #16
 1528 0142 FFF7FEFF 		bl	LIN_1_EndFrame
1419:.\Generated_Source\PSoC5/LIN_1.c ****             }
1420:.\Generated_Source\PSoC5/LIN_1.c ****             else    /* PID parity is correct */
1421:.\Generated_Source\PSoC5/LIN_1.c ****             {
1422:.\Generated_Source\PSoC5/LIN_1.c ****                 /* Check if MRF or SRF frame */
1423:.\Generated_Source\PSoC5/LIN_1.c ****                 if((LIN_1_FRAME_PID_MRF == LIN_1_framePid) ||
1424:.\Generated_Source\PSoC5/LIN_1.c ****                 (LIN_1_FRAME_PID_SRF == LIN_1_framePid))
1425:.\Generated_Source\PSoC5/LIN_1.c ****                 {
1426:.\Generated_Source\PSoC5/LIN_1.c ****                     /*  Transport Layer section. MRF and SRF detection */
1427:.\Generated_Source\PSoC5/LIN_1.c ****                     #if(1u == LIN_1_TL_ENABLED)
ARM GAS  C:\Users\MATSUD~1\AppData\Local\Temp\ccLjdAaK.s 			page 53


1428:.\Generated_Source\PSoC5/LIN_1.c **** 
1429:.\Generated_Source\PSoC5/LIN_1.c ****                         #if(1u == LIN_1_SAE_J2602)
1430:.\Generated_Source\PSoC5/LIN_1.c **** 
1431:.\Generated_Source\PSoC5/LIN_1.c ****                             if(LIN_1_FRAME_PID_MRF_J2602 == LIN_1_framePid)
1432:.\Generated_Source\PSoC5/LIN_1.c ****                             {
1433:.\Generated_Source\PSoC5/LIN_1.c ****                                 /* Process Master Request */
1434:.\Generated_Source\PSoC5/LIN_1.c **** 
1435:.\Generated_Source\PSoC5/LIN_1.c ****                                 /* Nothing need to be done for Transport Layer */
1436:.\Generated_Source\PSoC5/LIN_1.c **** 
1437:.\Generated_Source\PSoC5/LIN_1.c ****                                 /* Set response error */
1438:.\Generated_Source\PSoC5/LIN_1.c ****                                 LIN_1_ifcStatus |= LIN_1_IFC_STS_ERROR_IN_RESPONSE;
1439:.\Generated_Source\PSoC5/LIN_1.c **** 
1440:.\Generated_Source\PSoC5/LIN_1.c ****                                 /* Set ERR2, ERR1 and ERR0 bits */
1441:.\Generated_Source\PSoC5/LIN_1.c ****                                 LIN_1_j2602Status |= LIN_1_J2602_STS_PARITY_ERR;
1442:.\Generated_Source\PSoC5/LIN_1.c **** 
1443:.\Generated_Source\PSoC5/LIN_1.c ****                                 
1444:.\Generated_Source\PSoC5/LIN_1.c ****     /* Save current global interrupt enable and disable it */
1445:.\Generated_Source\PSoC5/LIN_1.c ****     interruptState = CyEnterCriticalSection();
1446:.\Generated_Source\PSoC5/LIN_1.c **** 
1447:.\Generated_Source\PSoC5/LIN_1.c ****         LIN_1_Buffer_Frame1[LIN_1_Response_Error_Frame1_SIG_BYTE_OFFSET] |= 
1448:.\Generated_Source\PSoC5/LIN_1.c ****                             LIN_1_Response_Error_Frame1_SIG_MASK_0;
1449:.\Generated_Source\PSoC5/LIN_1.c **** 
1450:.\Generated_Source\PSoC5/LIN_1.c ****     /* Restore global interrupt enable state */
1451:.\Generated_Source\PSoC5/LIN_1.c ****     CyExitCriticalSection(interruptState);
1452:.\Generated_Source\PSoC5/LIN_1.c **** 
1453:.\Generated_Source\PSoC5/LIN_1.c **** 
1454:.\Generated_Source\PSoC5/LIN_1.c ****                                 /* Check for framing error */
1455:.\Generated_Source\PSoC5/LIN_1.c ****                                 if(0u == (LIN_1_fsmFlags & LIN_1_FSM_FRAMING_ERROR_FLAG))
1456:.\Generated_Source\PSoC5/LIN_1.c ****                                 {
1457:.\Generated_Source\PSoC5/LIN_1.c ****                                     /* Save the last processed PID on the bus to the status variabl
1458:.\Generated_Source\PSoC5/LIN_1.c ****                                     LIN_1_ifcStatus &= ((l_u16) ~LIN_1_IFC_STS_PID_MASK);
1459:.\Generated_Source\PSoC5/LIN_1.c ****                                     LIN_1_ifcStatus |= ((l_u16) (((l_u16)LIN_1_framePid) << 8u));
1460:.\Generated_Source\PSoC5/LIN_1.c ****                                 }
1461:.\Generated_Source\PSoC5/LIN_1.c **** 
1462:.\Generated_Source\PSoC5/LIN_1.c ****                                 /* Reset UART State Machine */
1463:.\Generated_Source\PSoC5/LIN_1.c ****                                 LIN_1_EndFrame(LIN_1_HANDLING_DONT_SAVE_PID);
1464:.\Generated_Source\PSoC5/LIN_1.c ****                             }
1465:.\Generated_Source\PSoC5/LIN_1.c **** 
1466:.\Generated_Source\PSoC5/LIN_1.c ****                         #endif  /* (1u == LIN_1_SAE_J2602) */
1467:.\Generated_Source\PSoC5/LIN_1.c **** 
1468:.\Generated_Source\PSoC5/LIN_1.c ****                         if(LIN_1_FRAME_PID_MRF == LIN_1_framePid)
1469:.\Generated_Source\PSoC5/LIN_1.c ****                         {
1470:.\Generated_Source\PSoC5/LIN_1.c ****                             /* Indicate that slave is required to receive the data */
1471:.\Generated_Source\PSoC5/LIN_1.c ****                             LIN_1_tlFlags |= LIN_1_TL_RX_DIRECTION;
1472:.\Generated_Source\PSoC5/LIN_1.c **** 
1473:.\Generated_Source\PSoC5/LIN_1.c ****                             /*******************************************************
1474:.\Generated_Source\PSoC5/LIN_1.c ****                             *               Cooked & RAW API
1475:.\Generated_Source\PSoC5/LIN_1.c ****                             *******************************************************/
1476:.\Generated_Source\PSoC5/LIN_1.c **** 
1477:.\Generated_Source\PSoC5/LIN_1.c ****                             /* If the MRF PID is detected then pass a pointer to a start of a
1478:.\Generated_Source\PSoC5/LIN_1.c ****                             * Frame Buffer and size of data to RX state to handle data receiving.
1479:.\Generated_Source\PSoC5/LIN_1.c ****                             */
1480:.\Generated_Source\PSoC5/LIN_1.c **** 
1481:.\Generated_Source\PSoC5/LIN_1.c ****                             /* Frame equals 8 bytes */
1482:.\Generated_Source\PSoC5/LIN_1.c ****                             LIN_1_frameSize = LIN_1_FRAME_DATA_SIZE_8;
1483:.\Generated_Source\PSoC5/LIN_1.c **** 
1484:.\Generated_Source\PSoC5/LIN_1.c ****                             /* Set frame data pointer to a start of a frame buffer */
ARM GAS  C:\Users\MATSUD~1\AppData\Local\Temp\ccLjdAaK.s 			page 54


1485:.\Generated_Source\PSoC5/LIN_1.c ****                             LIN_1_frameData = LIN_1_mrfBuffer;
1486:.\Generated_Source\PSoC5/LIN_1.c **** 
1487:.\Generated_Source\PSoC5/LIN_1.c ****                             /* Switch to the subscribe data state. */
1488:.\Generated_Source\PSoC5/LIN_1.c ****                             LIN_1_uartFsmState = LIN_1_UART_ISR_STATE_3_RX;
1489:.\Generated_Source\PSoC5/LIN_1.c ****                         }
1490:.\Generated_Source\PSoC5/LIN_1.c **** 
1491:.\Generated_Source\PSoC5/LIN_1.c ****                         if(LIN_1_FRAME_PID_SRF == LIN_1_framePid)
1492:.\Generated_Source\PSoC5/LIN_1.c ****                         {
1493:.\Generated_Source\PSoC5/LIN_1.c ****                             /* Indicate that slave is required to transmit the data */
1494:.\Generated_Source\PSoC5/LIN_1.c ****                             LIN_1_tlFlags |= LIN_1_TL_TX_DIRECTION;
1495:.\Generated_Source\PSoC5/LIN_1.c **** 
1496:.\Generated_Source\PSoC5/LIN_1.c ****                             if(0u != (LIN_1_status & LIN_1_STATUS_SRVC_RSP_RDY))
1497:.\Generated_Source\PSoC5/LIN_1.c ****                             {
1498:.\Generated_Source\PSoC5/LIN_1.c ****                                 /* Clear Service Response ready status bit */
1499:.\Generated_Source\PSoC5/LIN_1.c ****                                 LIN_1_status &= ((l_u8) ~LIN_1_STATUS_SRVC_RSP_RDY);
1500:.\Generated_Source\PSoC5/LIN_1.c **** 
1501:.\Generated_Source\PSoC5/LIN_1.c ****                                 /* Frame always equal to 8 bytes for TL */
1502:.\Generated_Source\PSoC5/LIN_1.c ****                                 LIN_1_frameSize = LIN_1_FRAME_DATA_SIZE_8;
1503:.\Generated_Source\PSoC5/LIN_1.c **** 
1504:.\Generated_Source\PSoC5/LIN_1.c ****                                 /* Set frame data pointer to a start of a frame buffer */
1505:.\Generated_Source\PSoC5/LIN_1.c ****                                 LIN_1_frameData = LIN_1_srfBuffer;
1506:.\Generated_Source\PSoC5/LIN_1.c **** 
1507:.\Generated_Source\PSoC5/LIN_1.c ****                                 /* Send first byte to the LIN master */
1508:.\Generated_Source\PSoC5/LIN_1.c ****                                 LIN_1_tmpData = *LIN_1_frameData;
1509:.\Generated_Source\PSoC5/LIN_1.c ****                                 LIN_1_frameData++;
1510:.\Generated_Source\PSoC5/LIN_1.c ****                                 LIN_1_UART_WriteTxData(LIN_1_tmpData);
1511:.\Generated_Source\PSoC5/LIN_1.c ****                                 LIN_1_bytesTransferred = 1u;
1512:.\Generated_Source\PSoC5/LIN_1.c **** 
1513:.\Generated_Source\PSoC5/LIN_1.c ****                                 /* Switch to the publish data state. */
1514:.\Generated_Source\PSoC5/LIN_1.c ****                                 LIN_1_uartFsmState = LIN_1_UART_ISR_STATE_2_TX;
1515:.\Generated_Source\PSoC5/LIN_1.c ****                             }
1516:.\Generated_Source\PSoC5/LIN_1.c ****                             else
1517:.\Generated_Source\PSoC5/LIN_1.c ****                             {
1518:.\Generated_Source\PSoC5/LIN_1.c ****                                 #if(1u == LIN_1_TL_API_FORMAT)
1519:.\Generated_Source\PSoC5/LIN_1.c **** 
1520:.\Generated_Source\PSoC5/LIN_1.c ****                                     /***************************************************
1521:.\Generated_Source\PSoC5/LIN_1.c ****                                     *                    Cooked API
1522:.\Generated_Source\PSoC5/LIN_1.c ****                                     ***************************************************/
1523:.\Generated_Source\PSoC5/LIN_1.c **** 
1524:.\Generated_Source\PSoC5/LIN_1.c ****                                     /* Send one frame of a message if there is a message pending */
1525:.\Generated_Source\PSoC5/LIN_1.c ****                                     if(LIN_1_txTlStatus == LD_IN_PROGRESS)
1526:.\Generated_Source\PSoC5/LIN_1.c ****                                     {
1527:.\Generated_Source\PSoC5/LIN_1.c ****                                         /* This part of code will handle PDU packing for Cooked API
1528:.\Generated_Source\PSoC5/LIN_1.c ****                                         /* Check length it shows if the message already sent */
1529:.\Generated_Source\PSoC5/LIN_1.c ****                                         if(LIN_1_txMessageLength == 0u)
1530:.\Generated_Source\PSoC5/LIN_1.c ****                                         {
1531:.\Generated_Source\PSoC5/LIN_1.c ****                                             /* Reset UART State Machine */
1532:.\Generated_Source\PSoC5/LIN_1.c ****                                             LIN_1_EndFrame(LIN_1_HANDLING_RESET_FSM_ERR);
1533:.\Generated_Source\PSoC5/LIN_1.c ****                                         }
1534:.\Generated_Source\PSoC5/LIN_1.c ****                                         /* Process the message sending */
1535:.\Generated_Source\PSoC5/LIN_1.c ****                                         else
1536:.\Generated_Source\PSoC5/LIN_1.c ****                                         {
1537:.\Generated_Source\PSoC5/LIN_1.c ****                                             /* Fill Frame NAD field */
1538:.\Generated_Source\PSoC5/LIN_1.c ****                                             LIN_1_srfBuffer[0u] = LIN_1_nad;
1539:.\Generated_Source\PSoC5/LIN_1.c **** 
1540:.\Generated_Source\PSoC5/LIN_1.c ****                                             /* Analyze length to find the type of frame the message
1541:.\Generated_Source\PSoC5/LIN_1.c ****                                             if(LIN_1_txMessageLength > LIN_1_FRAME_DATA_SIZE_6)
ARM GAS  C:\Users\MATSUD~1\AppData\Local\Temp\ccLjdAaK.s 			page 55


1542:.\Generated_Source\PSoC5/LIN_1.c ****                                             {
1543:.\Generated_Source\PSoC5/LIN_1.c ****                                                 /* Process the FF Frame */
1544:.\Generated_Source\PSoC5/LIN_1.c ****                                                 if(LIN_1_prevPci == LIN_1_PDU_PCI_TYPE_UNKNOWN)
1545:.\Generated_Source\PSoC5/LIN_1.c ****                                                 {
1546:.\Generated_Source\PSoC5/LIN_1.c ****                                                     /* Fill Frame PCI field */
1547:.\Generated_Source\PSoC5/LIN_1.c ****                                                     LIN_1_srfBuffer[1u] = (LIN_1_PDU_PCI_TYPE_FF |
1548:.\Generated_Source\PSoC5/LIN_1.c ****                                                         (HI8(LIN_1_txMessageLength)));
1549:.\Generated_Source\PSoC5/LIN_1.c **** 
1550:.\Generated_Source\PSoC5/LIN_1.c ****                                                     /* Fill Frame LEN field */
1551:.\Generated_Source\PSoC5/LIN_1.c ****                                                     LIN_1_srfBuffer[2u] =
1552:.\Generated_Source\PSoC5/LIN_1.c ****                                                         LO8(LIN_1_txMessageLength);
1553:.\Generated_Source\PSoC5/LIN_1.c **** 
1554:.\Generated_Source\PSoC5/LIN_1.c ****                                                     /* Fill Frame Data fields */
1555:.\Generated_Source\PSoC5/LIN_1.c ****                                                     for(i = 3u; i < LIN_1_FRAME_DATA_SIZE_8; i++)
1556:.\Generated_Source\PSoC5/LIN_1.c ****                                                     {
1557:.\Generated_Source\PSoC5/LIN_1.c ****                                                         LIN_1_srfBuffer[i] =
1558:.\Generated_Source\PSoC5/LIN_1.c ****                                                             LIN_1_txTlDataPointer[(i +
1559:.\Generated_Source\PSoC5/LIN_1.c ****                                                                 LIN_1_txTlDataCount) - 3u];
1560:.\Generated_Source\PSoC5/LIN_1.c ****                                                     }
1561:.\Generated_Source\PSoC5/LIN_1.c **** 
1562:.\Generated_Source\PSoC5/LIN_1.c ****                                                     /* Update the user buffer pointer */
1563:.\Generated_Source\PSoC5/LIN_1.c ****                                                     LIN_1_txTlDataCount +=
1564:.\Generated_Source\PSoC5/LIN_1.c ****                                                         LIN_1_FRAME_DATA_SIZE_5;
1565:.\Generated_Source\PSoC5/LIN_1.c **** 
1566:.\Generated_Source\PSoC5/LIN_1.c ****                                                     /* Save the previous PCI */
1567:.\Generated_Source\PSoC5/LIN_1.c ****                                                     LIN_1_prevPci = LIN_1_PDU_PCI_TYPE_FF;
1568:.\Generated_Source\PSoC5/LIN_1.c **** 
1569:.\Generated_Source\PSoC5/LIN_1.c ****                                                     LIN_1_txMessageLength -=
1570:.\Generated_Source\PSoC5/LIN_1.c ****                                                         LIN_1_FRAME_DATA_SIZE_5;
1571:.\Generated_Source\PSoC5/LIN_1.c ****                                                 }
1572:.\Generated_Source\PSoC5/LIN_1.c ****                                                 /* Process the CF Frame */
1573:.\Generated_Source\PSoC5/LIN_1.c ****                                                 else
1574:.\Generated_Source\PSoC5/LIN_1.c ****                                                 {
1575:.\Generated_Source\PSoC5/LIN_1.c ****                                                      /* Fill Frame PCI field */
1576:.\Generated_Source\PSoC5/LIN_1.c ****                                                     LIN_1_srfBuffer[1u] =
1577:.\Generated_Source\PSoC5/LIN_1.c ****                                                         (LIN_1_PDU_PCI_TYPE_CF |
1578:.\Generated_Source\PSoC5/LIN_1.c ****                                                             LIN_1_txFrameCounter);
1579:.\Generated_Source\PSoC5/LIN_1.c **** 
1580:.\Generated_Source\PSoC5/LIN_1.c ****                                                     /* Fill Frame Data fields */
1581:.\Generated_Source\PSoC5/LIN_1.c ****                                                     for(i = 2u; i < LIN_1_FRAME_DATA_SIZE_8; i++)
1582:.\Generated_Source\PSoC5/LIN_1.c ****                                                     {
1583:.\Generated_Source\PSoC5/LIN_1.c ****                                                         LIN_1_srfBuffer[i] =
1584:.\Generated_Source\PSoC5/LIN_1.c ****                                                             LIN_1_txTlDataPointer[(i +
1585:.\Generated_Source\PSoC5/LIN_1.c ****                                                                 LIN_1_txTlDataCount) - 2u];
1586:.\Generated_Source\PSoC5/LIN_1.c ****                                                     }
1587:.\Generated_Source\PSoC5/LIN_1.c **** 
1588:.\Generated_Source\PSoC5/LIN_1.c ****                                                     /* Update the user buffer pointer */
1589:.\Generated_Source\PSoC5/LIN_1.c ****                                                     LIN_1_txTlDataCount +=
1590:.\Generated_Source\PSoC5/LIN_1.c ****                                                             LIN_1_FRAME_DATA_SIZE_6;
1591:.\Generated_Source\PSoC5/LIN_1.c **** 
1592:.\Generated_Source\PSoC5/LIN_1.c ****                                                     /* Save the previous PCI */
1593:.\Generated_Source\PSoC5/LIN_1.c ****                                                     LIN_1_prevPci = LIN_1_PDU_PCI_TYPE_CF;
1594:.\Generated_Source\PSoC5/LIN_1.c **** 
1595:.\Generated_Source\PSoC5/LIN_1.c ****                                                     /* Update length pointer properly */
1596:.\Generated_Source\PSoC5/LIN_1.c ****                                                     LIN_1_txMessageLength -=
1597:.\Generated_Source\PSoC5/LIN_1.c ****                                                         LIN_1_FRAME_DATA_SIZE_6;
1598:.\Generated_Source\PSoC5/LIN_1.c ****                                                 }
ARM GAS  C:\Users\MATSUD~1\AppData\Local\Temp\ccLjdAaK.s 			page 56


1599:.\Generated_Source\PSoC5/LIN_1.c ****                                             }
1600:.\Generated_Source\PSoC5/LIN_1.c ****                                             /* Process the SF Frame or last CF Frame */
1601:.\Generated_Source\PSoC5/LIN_1.c ****                                             else
1602:.\Generated_Source\PSoC5/LIN_1.c ****                                             {
1603:.\Generated_Source\PSoC5/LIN_1.c ****                                                 /* Check if the Previous frame is unknown which ind
1604:.\Generated_Source\PSoC5/LIN_1.c ****                                                 * frame is SF, otherwise it is last CF frame. Fill 
1605:.\Generated_Source\PSoC5/LIN_1.c ****                                                 * properly.
1606:.\Generated_Source\PSoC5/LIN_1.c ****                                                 */
1607:.\Generated_Source\PSoC5/LIN_1.c ****                                                 if(LIN_1_PDU_PCI_TYPE_UNKNOWN == LIN_1_prevPci)
1608:.\Generated_Source\PSoC5/LIN_1.c ****                                                 {
1609:.\Generated_Source\PSoC5/LIN_1.c ****                                                     LIN_1_srfBuffer[1u] = (l_u8)
1610:.\Generated_Source\PSoC5/LIN_1.c ****                                                         LIN_1_txMessageLength;
1611:.\Generated_Source\PSoC5/LIN_1.c **** 
1612:.\Generated_Source\PSoC5/LIN_1.c ****                                                     /* Save the previous PCI */
1613:.\Generated_Source\PSoC5/LIN_1.c ****                                                     LIN_1_prevPci = LIN_1_PDU_PCI_TYPE_SF;
1614:.\Generated_Source\PSoC5/LIN_1.c ****                                                 }
1615:.\Generated_Source\PSoC5/LIN_1.c ****                                                 else
1616:.\Generated_Source\PSoC5/LIN_1.c ****                                                 {
1617:.\Generated_Source\PSoC5/LIN_1.c ****                                                     LIN_1_srfBuffer[1u] =
1618:.\Generated_Source\PSoC5/LIN_1.c ****                                                         (LIN_1_PDU_PCI_TYPE_CF |
1619:.\Generated_Source\PSoC5/LIN_1.c ****                                                             LIN_1_txFrameCounter);
1620:.\Generated_Source\PSoC5/LIN_1.c **** 
1621:.\Generated_Source\PSoC5/LIN_1.c ****                                                     /* Save the previous PCI */
1622:.\Generated_Source\PSoC5/LIN_1.c ****                                                     LIN_1_prevPci = LIN_1_PDU_PCI_TYPE_CF;
1623:.\Generated_Source\PSoC5/LIN_1.c ****                                                 }
1624:.\Generated_Source\PSoC5/LIN_1.c **** 
1625:.\Generated_Source\PSoC5/LIN_1.c ****                                                 /* Fill Frame Data fields */
1626:.\Generated_Source\PSoC5/LIN_1.c ****                                                 for(i = 2u; i < LIN_1_FRAME_DATA_SIZE_8; i++)
1627:.\Generated_Source\PSoC5/LIN_1.c ****                                                 {
1628:.\Generated_Source\PSoC5/LIN_1.c ****                                                     if(LIN_1_txMessageLength >= ((l_u8) (i - 1u)))
1629:.\Generated_Source\PSoC5/LIN_1.c ****                                                     {
1630:.\Generated_Source\PSoC5/LIN_1.c ****                                                         LIN_1_srfBuffer[i] =
1631:.\Generated_Source\PSoC5/LIN_1.c ****                                                             LIN_1_txTlDataPointer[(i +
1632:.\Generated_Source\PSoC5/LIN_1.c ****                                                                 LIN_1_txTlDataCount) - 2u];
1633:.\Generated_Source\PSoC5/LIN_1.c ****                                                     }
1634:.\Generated_Source\PSoC5/LIN_1.c ****                                                     else
1635:.\Generated_Source\PSoC5/LIN_1.c ****                                                     {
1636:.\Generated_Source\PSoC5/LIN_1.c ****                                                         /* Fill unused data bytes with FFs */
1637:.\Generated_Source\PSoC5/LIN_1.c ****                                                         LIN_1_srfBuffer[i] = 0xFFu;
1638:.\Generated_Source\PSoC5/LIN_1.c ****                                                     }
1639:.\Generated_Source\PSoC5/LIN_1.c ****                                                 }
1640:.\Generated_Source\PSoC5/LIN_1.c **** 
1641:.\Generated_Source\PSoC5/LIN_1.c ****                                                 /* Update the user buffer pointer */
1642:.\Generated_Source\PSoC5/LIN_1.c ****                                                 LIN_1_txTlDataCount +=
1643:.\Generated_Source\PSoC5/LIN_1.c ****                                                             LIN_1_FRAME_DATA_SIZE_6;
1644:.\Generated_Source\PSoC5/LIN_1.c **** 
1645:.\Generated_Source\PSoC5/LIN_1.c ****                                                 /* Update length pointer properly */
1646:.\Generated_Source\PSoC5/LIN_1.c ****                                                 if(LIN_1_txMessageLength >=
1647:.\Generated_Source\PSoC5/LIN_1.c ****                                                         LIN_1_FRAME_DATA_SIZE_6)
1648:.\Generated_Source\PSoC5/LIN_1.c ****                                                 {
1649:.\Generated_Source\PSoC5/LIN_1.c ****                                                     LIN_1_txMessageLength -=
1650:.\Generated_Source\PSoC5/LIN_1.c ****                                                         LIN_1_FRAME_DATA_SIZE_6;
1651:.\Generated_Source\PSoC5/LIN_1.c ****                                                 }
1652:.\Generated_Source\PSoC5/LIN_1.c ****                                                 else
1653:.\Generated_Source\PSoC5/LIN_1.c ****                                                 {
1654:.\Generated_Source\PSoC5/LIN_1.c ****                                                     LIN_1_txMessageLength = 0u;
1655:.\Generated_Source\PSoC5/LIN_1.c ****                                                 }
ARM GAS  C:\Users\MATSUD~1\AppData\Local\Temp\ccLjdAaK.s 			page 57


1656:.\Generated_Source\PSoC5/LIN_1.c ****                                             }
1657:.\Generated_Source\PSoC5/LIN_1.c **** 
1658:.\Generated_Source\PSoC5/LIN_1.c ****                                             /* Update the frame counter */
1659:.\Generated_Source\PSoC5/LIN_1.c ****                                             if(LIN_1_txFrameCounter != 15u)
1660:.\Generated_Source\PSoC5/LIN_1.c ****                                             {
1661:.\Generated_Source\PSoC5/LIN_1.c ****                                                 LIN_1_txFrameCounter++;
1662:.\Generated_Source\PSoC5/LIN_1.c ****                                             }
1663:.\Generated_Source\PSoC5/LIN_1.c ****                                             else
1664:.\Generated_Source\PSoC5/LIN_1.c ****                                             {
1665:.\Generated_Source\PSoC5/LIN_1.c ****                                                 /* If frame counter is larger then 15 then reset it
1666:.\Generated_Source\PSoC5/LIN_1.c ****                                                 LIN_1_txFrameCounter = 0u;
1667:.\Generated_Source\PSoC5/LIN_1.c ****                                             }
1668:.\Generated_Source\PSoC5/LIN_1.c ****                                         }
1669:.\Generated_Source\PSoC5/LIN_1.c **** 
1670:.\Generated_Source\PSoC5/LIN_1.c ****                                         /* Frame equals 8 bytes */
1671:.\Generated_Source\PSoC5/LIN_1.c ****                                         LIN_1_frameSize = LIN_1_FRAME_DATA_SIZE_8;
1672:.\Generated_Source\PSoC5/LIN_1.c **** 
1673:.\Generated_Source\PSoC5/LIN_1.c ****                                         /* Set frame data pointer to a start of a frame buffer */
1674:.\Generated_Source\PSoC5/LIN_1.c ****                                         LIN_1_frameData = LIN_1_srfBuffer;
1675:.\Generated_Source\PSoC5/LIN_1.c **** 
1676:.\Generated_Source\PSoC5/LIN_1.c ****                                         /* Send first byte to the LIN master */
1677:.\Generated_Source\PSoC5/LIN_1.c ****                                         LIN_1_tmpData = *LIN_1_frameData;
1678:.\Generated_Source\PSoC5/LIN_1.c ****                                         LIN_1_frameData++;
1679:.\Generated_Source\PSoC5/LIN_1.c ****                                         LIN_1_UART_WriteTxData(LIN_1_tmpData);
1680:.\Generated_Source\PSoC5/LIN_1.c ****                                         LIN_1_bytesTransferred = 1u;
1681:.\Generated_Source\PSoC5/LIN_1.c **** 
1682:.\Generated_Source\PSoC5/LIN_1.c ****                                         /* Switch to the publish data state. */
1683:.\Generated_Source\PSoC5/LIN_1.c ****                                         LIN_1_uartFsmState = LIN_1_UART_ISR_STATE_2_TX;
1684:.\Generated_Source\PSoC5/LIN_1.c ****                                     }
1685:.\Generated_Source\PSoC5/LIN_1.c ****                                     else
1686:.\Generated_Source\PSoC5/LIN_1.c ****                                     {
1687:.\Generated_Source\PSoC5/LIN_1.c ****                                         /* Reset UART State Machine */
1688:.\Generated_Source\PSoC5/LIN_1.c ****                                         LIN_1_EndFrame(LIN_1_HANDLING_RESET_FSM_ERR);
1689:.\Generated_Source\PSoC5/LIN_1.c ****                                     }
1690:.\Generated_Source\PSoC5/LIN_1.c **** 
1691:.\Generated_Source\PSoC5/LIN_1.c ****                                 #else
1692:.\Generated_Source\PSoC5/LIN_1.c **** 
1693:.\Generated_Source\PSoC5/LIN_1.c ****                                     /***************************************************
1694:.\Generated_Source\PSoC5/LIN_1.c ****                                     *                     Raw API
1695:.\Generated_Source\PSoC5/LIN_1.c ****                                     ***************************************************/
1696:.\Generated_Source\PSoC5/LIN_1.c **** 
1697:.\Generated_Source\PSoC5/LIN_1.c ****                                     if(0u != LIN_1_txBufDepth)
1698:.\Generated_Source\PSoC5/LIN_1.c ****                                     {
1699:.\Generated_Source\PSoC5/LIN_1.c ****                                         /* Fill the frame buffer from SRF*/
1700:.\Generated_Source\PSoC5/LIN_1.c ****                                         for(i = 0u; i < LIN_1_FRAME_DATA_SIZE_8; i++)
1701:.\Generated_Source\PSoC5/LIN_1.c ****                                         {
1702:.\Generated_Source\PSoC5/LIN_1.c ****                                             LIN_1_srfBuffer[i] =
1703:.\Generated_Source\PSoC5/LIN_1.c ****                                                 LIN_1_rawTxQueue[LIN_1_txRdIndex];
1704:.\Generated_Source\PSoC5/LIN_1.c **** 
1705:.\Generated_Source\PSoC5/LIN_1.c ****                                             /* Update the index to TX queue */
1706:.\Generated_Source\PSoC5/LIN_1.c ****                                             LIN_1_txRdIndex++;
1707:.\Generated_Source\PSoC5/LIN_1.c ****                                         }
1708:.\Generated_Source\PSoC5/LIN_1.c **** 
1709:.\Generated_Source\PSoC5/LIN_1.c ****                                         /* Read index should point to the next byte in MRF */
1710:.\Generated_Source\PSoC5/LIN_1.c ****                                         if(LIN_1_TL_TX_QUEUE_LEN == LIN_1_txRdIndex)
1711:.\Generated_Source\PSoC5/LIN_1.c ****                                         {
1712:.\Generated_Source\PSoC5/LIN_1.c ****                                             LIN_1_txRdIndex = 0u;
ARM GAS  C:\Users\MATSUD~1\AppData\Local\Temp\ccLjdAaK.s 			page 58


1713:.\Generated_Source\PSoC5/LIN_1.c ****                                         }
1714:.\Generated_Source\PSoC5/LIN_1.c **** 
1715:.\Generated_Source\PSoC5/LIN_1.c ****                                         /* 8 bytes were read from the SRF so decrement the buffer d
1716:.\Generated_Source\PSoC5/LIN_1.c ****                                         LIN_1_txBufDepth--;
1717:.\Generated_Source\PSoC5/LIN_1.c **** 
1718:.\Generated_Source\PSoC5/LIN_1.c ****                                         /* Update status properly */
1719:.\Generated_Source\PSoC5/LIN_1.c ****                                         if(0u == LIN_1_txBufDepth)
1720:.\Generated_Source\PSoC5/LIN_1.c ****                                         {
1721:.\Generated_Source\PSoC5/LIN_1.c ****                                             LIN_1_txTlStatus = LD_QUEUE_EMPTY;
1722:.\Generated_Source\PSoC5/LIN_1.c ****                                         }
1723:.\Generated_Source\PSoC5/LIN_1.c ****                                         else
1724:.\Generated_Source\PSoC5/LIN_1.c ****                                         {
1725:.\Generated_Source\PSoC5/LIN_1.c ****                                             LIN_1_txTlStatus = LD_QUEUE_AVAILABLE;
1726:.\Generated_Source\PSoC5/LIN_1.c ****                                         }
1727:.\Generated_Source\PSoC5/LIN_1.c **** 
1728:.\Generated_Source\PSoC5/LIN_1.c ****                                         /* Frame equals 8 bytes */
1729:.\Generated_Source\PSoC5/LIN_1.c ****                                         LIN_1_frameSize = LIN_1_FRAME_DATA_SIZE_8;
1730:.\Generated_Source\PSoC5/LIN_1.c **** 
1731:.\Generated_Source\PSoC5/LIN_1.c ****                                         /* Set frame data pointer to a start of a frame buffer */
1732:.\Generated_Source\PSoC5/LIN_1.c ****                                         LIN_1_frameData = LIN_1_srfBuffer;
1733:.\Generated_Source\PSoC5/LIN_1.c **** 
1734:.\Generated_Source\PSoC5/LIN_1.c ****                                         /* Send first byte to the LIN master */
1735:.\Generated_Source\PSoC5/LIN_1.c ****                                         LIN_1_tmpData = *LIN_1_frameData;
1736:.\Generated_Source\PSoC5/LIN_1.c ****                                         LIN_1_frameData++;
1737:.\Generated_Source\PSoC5/LIN_1.c ****                                         LIN_1_UART_WriteTxData(LIN_1_tmpData);
1738:.\Generated_Source\PSoC5/LIN_1.c ****                                         LIN_1_bytesTransferred = 1u;
1739:.\Generated_Source\PSoC5/LIN_1.c **** 
1740:.\Generated_Source\PSoC5/LIN_1.c ****                                         /* Switch to the publish data state. */
1741:.\Generated_Source\PSoC5/LIN_1.c ****                                         LIN_1_uartFsmState = LIN_1_UART_ISR_STATE_2_TX;
1742:.\Generated_Source\PSoC5/LIN_1.c ****                                     }
1743:.\Generated_Source\PSoC5/LIN_1.c ****                                     else
1744:.\Generated_Source\PSoC5/LIN_1.c ****                                     {
1745:.\Generated_Source\PSoC5/LIN_1.c ****                                         /* Reset UART State Machine */
1746:.\Generated_Source\PSoC5/LIN_1.c ****                                         LIN_1_EndFrame(LIN_1_HANDLING_RESET_FSM_ERR);
1747:.\Generated_Source\PSoC5/LIN_1.c ****                                     }
1748:.\Generated_Source\PSoC5/LIN_1.c **** 
1749:.\Generated_Source\PSoC5/LIN_1.c ****                                 #endif /* (1u == LIN_1_TL_API_FORMAT) */
1750:.\Generated_Source\PSoC5/LIN_1.c ****                             }
1751:.\Generated_Source\PSoC5/LIN_1.c **** 
1752:.\Generated_Source\PSoC5/LIN_1.c **** 
1753:.\Generated_Source\PSoC5/LIN_1.c ****                         }
1754:.\Generated_Source\PSoC5/LIN_1.c **** 
1755:.\Generated_Source\PSoC5/LIN_1.c ****                     #else
1756:.\Generated_Source\PSoC5/LIN_1.c **** 
1757:.\Generated_Source\PSoC5/LIN_1.c ****                         /* These are invalid PIDs when TL is disabled - reset UART state machine */
1758:.\Generated_Source\PSoC5/LIN_1.c **** 
1759:.\Generated_Source\PSoC5/LIN_1.c ****                         /* Set response error */
1760:.\Generated_Source\PSoC5/LIN_1.c ****                         LIN_1_ifcStatus |= LIN_1_IFC_STS_ERROR_IN_RESPONSE;
1761:.\Generated_Source\PSoC5/LIN_1.c **** 
1762:.\Generated_Source\PSoC5/LIN_1.c ****                         #if(1u == LIN_1_SAE_J2602)
1763:.\Generated_Source\PSoC5/LIN_1.c **** 
1764:.\Generated_Source\PSoC5/LIN_1.c ****                             /* Set ERR2, ERR1 and ERR0 bits */
1765:.\Generated_Source\PSoC5/LIN_1.c ****                             LIN_1_j2602Status |= LIN_1_J2602_STS_PARITY_ERR;
1766:.\Generated_Source\PSoC5/LIN_1.c **** 
1767:.\Generated_Source\PSoC5/LIN_1.c ****                         #endif /* (1u == LIN_1_SAE_J2602) */
1768:.\Generated_Source\PSoC5/LIN_1.c **** 
1769:.\Generated_Source\PSoC5/LIN_1.c ****                         
ARM GAS  C:\Users\MATSUD~1\AppData\Local\Temp\ccLjdAaK.s 			page 59


1770:.\Generated_Source\PSoC5/LIN_1.c ****     /* Save current global interrupt enable and disable it */
1771:.\Generated_Source\PSoC5/LIN_1.c ****     interruptState = CyEnterCriticalSection();
1772:.\Generated_Source\PSoC5/LIN_1.c **** 
1773:.\Generated_Source\PSoC5/LIN_1.c ****         LIN_1_Buffer_Frame1[LIN_1_Response_Error_Frame1_SIG_BYTE_OFFSET] |= 
1774:.\Generated_Source\PSoC5/LIN_1.c ****                             LIN_1_Response_Error_Frame1_SIG_MASK_0;
1775:.\Generated_Source\PSoC5/LIN_1.c **** 
1776:.\Generated_Source\PSoC5/LIN_1.c ****     /* Restore global interrupt enable state */
1777:.\Generated_Source\PSoC5/LIN_1.c ****     CyExitCriticalSection(interruptState);
1778:.\Generated_Source\PSoC5/LIN_1.c **** 
1779:.\Generated_Source\PSoC5/LIN_1.c **** 
1780:.\Generated_Source\PSoC5/LIN_1.c ****                         /* Reset UART State Machine */
1781:.\Generated_Source\PSoC5/LIN_1.c ****                         LIN_1_EndFrame(LIN_1_HANDLING_RESET_FSM_ERR);
1782:.\Generated_Source\PSoC5/LIN_1.c **** 
1783:.\Generated_Source\PSoC5/LIN_1.c ****                     #endif /* (1u == LIN_1_TL_ENABLED) */
1784:.\Generated_Source\PSoC5/LIN_1.c ****                 }
1785:.\Generated_Source\PSoC5/LIN_1.c ****                 else    /* Not MRF and SRF */
1786:.\Generated_Source\PSoC5/LIN_1.c ****                 {
1787:.\Generated_Source\PSoC5/LIN_1.c ****                     /* Get PID index in LIN_1_pidInfoTable */
1788:.\Generated_Source\PSoC5/LIN_1.c ****                     LIN_1_pidIndex = LIN_1_FindPidIndex(LIN_1_framePid);
1789:.\Generated_Source\PSoC5/LIN_1.c **** 
1790:.\Generated_Source\PSoC5/LIN_1.c ****                     if(LIN_1_INVALID_FRAME_PID != LIN_1_pidIndex)
1791:.\Generated_Source\PSoC5/LIN_1.c ****                     {
1792:.\Generated_Source\PSoC5/LIN_1.c ****                         /* Valid ID */
1793:.\Generated_Source\PSoC5/LIN_1.c **** 
1794:.\Generated_Source\PSoC5/LIN_1.c ****                         /* Start enhanced checksum calculation  */
1795:.\Generated_Source\PSoC5/LIN_1.c ****                         LIN_1_interimChecksum = LIN_1_framePid;
1796:.\Generated_Source\PSoC5/LIN_1.c **** 
1797:.\Generated_Source\PSoC5/LIN_1.c ****                         /* Get size of frame */
1798:.\Generated_Source\PSoC5/LIN_1.c ****                         LIN_1_frameSize = LIN_1_pidInfoTable[LIN_1_pidIndex].param &
1799:.\Generated_Source\PSoC5/LIN_1.c ****                                                         LIN_1_FRAME_DATA_SIZE_MASK;
1800:.\Generated_Source\PSoC5/LIN_1.c **** 
1801:.\Generated_Source\PSoC5/LIN_1.c ****                         /* TX response (publish action) was requested by Master */
1802:.\Generated_Source\PSoC5/LIN_1.c ****                         if(0u != (LIN_1_FRAME_DIR_PUBLISH &
1803:.\Generated_Source\PSoC5/LIN_1.c ****                                  LIN_1_pidInfoTable[LIN_1_pidIndex].param))
1804:.\Generated_Source\PSoC5/LIN_1.c ****                         {
1805:.\Generated_Source\PSoC5/LIN_1.c ****                             /* SAE J2602 is disabled */
1806:.\Generated_Source\PSoC5/LIN_1.c ****                             #if(0u == LIN_1_SAE_J2602)
1807:.\Generated_Source\PSoC5/LIN_1.c **** 
1808:.\Generated_Source\PSoC5/LIN_1.c ****                                 /* This frame is event-triggered */
1809:.\Generated_Source\PSoC5/LIN_1.c ****                                 if(0u  != (LIN_1_FRAME_TYPE_EVENT &
1810:.\Generated_Source\PSoC5/LIN_1.c ****                                            LIN_1_pidInfoTable[LIN_1_pidIndex].param))
1811:.\Generated_Source\PSoC5/LIN_1.c ****                                 {
1812:.\Generated_Source\PSoC5/LIN_1.c ****                                     /* Check do we need to process event-triggered frame */
1813:.\Generated_Source\PSoC5/LIN_1.c ****                                     if(0u == LIN_1_GetEtFlagValue(LIN_1_pidIndex))
1814:.\Generated_Source\PSoC5/LIN_1.c ****                                     {
1815:.\Generated_Source\PSoC5/LIN_1.c ****                                         /* Reset UART State Machine */
1816:.\Generated_Source\PSoC5/LIN_1.c ****                                         LIN_1_EndFrame(LIN_1_HANDLING_RESET_FSM_ERR);
1817:.\Generated_Source\PSoC5/LIN_1.c ****                                     }
1818:.\Generated_Source\PSoC5/LIN_1.c ****                                 }
1819:.\Generated_Source\PSoC5/LIN_1.c **** 
1820:.\Generated_Source\PSoC5/LIN_1.c ****                             #endif /* (0u == LIN_1_SAE_J2602) */
1821:.\Generated_Source\PSoC5/LIN_1.c **** 
1822:.\Generated_Source\PSoC5/LIN_1.c ****                             /* Get pointer to the frame data */
1823:.\Generated_Source\PSoC5/LIN_1.c ****                             LIN_1_frameData =
1824:.\Generated_Source\PSoC5/LIN_1.c ****                                 LIN_1_pidInfoTable[LIN_1_pidIndex].dataPtr;
1825:.\Generated_Source\PSoC5/LIN_1.c **** 
1826:.\Generated_Source\PSoC5/LIN_1.c ****                             /* Send first byte to the LIN master */
ARM GAS  C:\Users\MATSUD~1\AppData\Local\Temp\ccLjdAaK.s 			page 60


1827:.\Generated_Source\PSoC5/LIN_1.c ****                             LIN_1_tmpData = *LIN_1_frameData;
1828:.\Generated_Source\PSoC5/LIN_1.c ****                             LIN_1_frameData++;
1829:.\Generated_Source\PSoC5/LIN_1.c ****                             LIN_1_UART_WriteTxData(LIN_1_tmpData);
1830:.\Generated_Source\PSoC5/LIN_1.c ****                             LIN_1_bytesTransferred = 1u;
1831:.\Generated_Source\PSoC5/LIN_1.c **** 
1832:.\Generated_Source\PSoC5/LIN_1.c ****                             /* Switch to the publish data state. */
1833:.\Generated_Source\PSoC5/LIN_1.c ****                             LIN_1_uartFsmState = LIN_1_UART_ISR_STATE_2_TX;
1834:.\Generated_Source\PSoC5/LIN_1.c **** 
1835:.\Generated_Source\PSoC5/LIN_1.c ****                         }
1836:.\Generated_Source\PSoC5/LIN_1.c ****                         else    /* RX response (subscribe action) was requested by Master */
1837:.\Generated_Source\PSoC5/LIN_1.c ****                         {
1838:.\Generated_Source\PSoC5/LIN_1.c ****                             /* Get pointer to the temp RX frame data buffer */
1839:.\Generated_Source\PSoC5/LIN_1.c ****                             LIN_1_frameData = LIN_1_tmpRxFrameData;
1840:.\Generated_Source\PSoC5/LIN_1.c **** 
1841:.\Generated_Source\PSoC5/LIN_1.c ****                             /* Switch to the subscribe data state. */
1842:.\Generated_Source\PSoC5/LIN_1.c ****                             LIN_1_uartFsmState = LIN_1_UART_ISR_STATE_3_RX;
1843:.\Generated_Source\PSoC5/LIN_1.c ****                         }
1844:.\Generated_Source\PSoC5/LIN_1.c ****                     }
1845:.\Generated_Source\PSoC5/LIN_1.c ****                     else    /* Invalid ID */
1846:.\Generated_Source\PSoC5/LIN_1.c ****                     {
1847:.\Generated_Source\PSoC5/LIN_1.c ****                         /* Set response error */
1848:.\Generated_Source\PSoC5/LIN_1.c ****                         LIN_1_ifcStatus |= LIN_1_IFC_STS_ERROR_IN_RESPONSE;
1849:.\Generated_Source\PSoC5/LIN_1.c **** 
1850:.\Generated_Source\PSoC5/LIN_1.c ****                         #if(1u == LIN_1_SAE_J2602)
1851:.\Generated_Source\PSoC5/LIN_1.c **** 
1852:.\Generated_Source\PSoC5/LIN_1.c ****                             /* Set data error bit */
1853:.\Generated_Source\PSoC5/LIN_1.c ****                             LIN_1_j2602Status |= LIN_1_J2602_STS_DATA_ERR;
1854:.\Generated_Source\PSoC5/LIN_1.c **** 
1855:.\Generated_Source\PSoC5/LIN_1.c ****                         #endif /* (1u == LIN_1_SAE_J2602) */
1856:.\Generated_Source\PSoC5/LIN_1.c **** 
1857:.\Generated_Source\PSoC5/LIN_1.c ****                         
1858:.\Generated_Source\PSoC5/LIN_1.c ****     /* Save current global interrupt enable and disable it */
1859:.\Generated_Source\PSoC5/LIN_1.c ****     interruptState = CyEnterCriticalSection();
1860:.\Generated_Source\PSoC5/LIN_1.c **** 
1861:.\Generated_Source\PSoC5/LIN_1.c ****         LIN_1_Buffer_Frame1[LIN_1_Response_Error_Frame1_SIG_BYTE_OFFSET] |= 
1862:.\Generated_Source\PSoC5/LIN_1.c ****                             LIN_1_Response_Error_Frame1_SIG_MASK_0;
1863:.\Generated_Source\PSoC5/LIN_1.c **** 
1864:.\Generated_Source\PSoC5/LIN_1.c ****     /* Restore global interrupt enable state */
1865:.\Generated_Source\PSoC5/LIN_1.c ****     CyExitCriticalSection(interruptState);
1866:.\Generated_Source\PSoC5/LIN_1.c **** 
1867:.\Generated_Source\PSoC5/LIN_1.c **** 
1868:.\Generated_Source\PSoC5/LIN_1.c ****                         /* Reset UART State Machine */
1869:.\Generated_Source\PSoC5/LIN_1.c ****                         LIN_1_EndFrame(LIN_1_HANDLING_RESET_FSM_ERR);
1870:.\Generated_Source\PSoC5/LIN_1.c ****                     }
1871:.\Generated_Source\PSoC5/LIN_1.c ****                 }
1872:.\Generated_Source\PSoC5/LIN_1.c ****             }
1873:.\Generated_Source\PSoC5/LIN_1.c **** 
1874:.\Generated_Source\PSoC5/LIN_1.c ****         break;
 1529              		.loc 1 1874 0
 1530 0146 F9E3     		b	.L86
 1531              	.L95:
1423:.\Generated_Source\PSoC5/LIN_1.c ****                 if((LIN_1_FRAME_PID_MRF == LIN_1_framePid) ||
 1532              		.loc 1 1423 0
 1533 0148 40F20003 		movw	r3, #:lower16:LIN_1_framePid.5055
 1534 014c C0F20003 		movt	r3, #:upper16:LIN_1_framePid.5055
 1535 0150 1B78     		ldrb	r3, [r3, #0]	@ zero_extendqisi2
 1536 0152 3C2B     		cmp	r3, #60
ARM GAS  C:\Users\MATSUD~1\AppData\Local\Temp\ccLjdAaK.s 			page 61


 1537 0154 06D0     		beq	.L97
1424:.\Generated_Source\PSoC5/LIN_1.c ****                 (LIN_1_FRAME_PID_SRF == LIN_1_framePid))
 1538              		.loc 1 1424 0 discriminator 1
 1539 0156 40F20003 		movw	r3, #:lower16:LIN_1_framePid.5055
 1540 015a C0F20003 		movt	r3, #:upper16:LIN_1_framePid.5055
 1541 015e 1B78     		ldrb	r3, [r3, #0]	@ zero_extendqisi2
1423:.\Generated_Source\PSoC5/LIN_1.c ****                 if((LIN_1_FRAME_PID_MRF == LIN_1_framePid) ||
 1542              		.loc 1 1423 0 discriminator 1
 1543 0160 7D2B     		cmp	r3, #125
 1544 0162 28D1     		bne	.L98
 1545              	.L97:
1760:.\Generated_Source\PSoC5/LIN_1.c ****                         LIN_1_ifcStatus |= LIN_1_IFC_STS_ERROR_IN_RESPONSE;
 1546              		.loc 1 1760 0
 1547 0164 40F20003 		movw	r3, #:lower16:LIN_1_ifcStatus
 1548 0168 C0F20003 		movt	r3, #:upper16:LIN_1_ifcStatus
 1549 016c 1B88     		ldrh	r3, [r3, #0]	@ movhi
 1550 016e 9BB2     		uxth	r3, r3
 1551 0170 43F00103 		orr	r3, r3, #1
 1552 0174 9AB2     		uxth	r2, r3
 1553 0176 40F20003 		movw	r3, #:lower16:LIN_1_ifcStatus
 1554 017a C0F20003 		movt	r3, #:upper16:LIN_1_ifcStatus
 1555 017e 1A80     		strh	r2, [r3, #0]	@ movhi
1771:.\Generated_Source\PSoC5/LIN_1.c ****     interruptState = CyEnterCriticalSection();
 1556              		.loc 1 1771 0
 1557 0180 FFF7FEFF 		bl	CyEnterCriticalSection
 1558 0184 0346     		mov	r3, r0
 1559 0186 BB71     		strb	r3, [r7, #6]
1773:.\Generated_Source\PSoC5/LIN_1.c ****         LIN_1_Buffer_Frame1[LIN_1_Response_Error_Frame1_SIG_BYTE_OFFSET] |= 
 1560              		.loc 1 1773 0
 1561 0188 40F20003 		movw	r3, #:lower16:LIN_1_Buffer_Frame1
 1562 018c C0F20003 		movt	r3, #:upper16:LIN_1_Buffer_Frame1
 1563 0190 1B78     		ldrb	r3, [r3, #0]
 1564 0192 DBB2     		uxtb	r3, r3
 1565 0194 43F00403 		orr	r3, r3, #4
 1566 0198 DAB2     		uxtb	r2, r3
 1567 019a 40F20003 		movw	r3, #:lower16:LIN_1_Buffer_Frame1
 1568 019e C0F20003 		movt	r3, #:upper16:LIN_1_Buffer_Frame1
 1569 01a2 1A70     		strb	r2, [r3, #0]
1777:.\Generated_Source\PSoC5/LIN_1.c ****     CyExitCriticalSection(interruptState);
 1570              		.loc 1 1777 0
 1571 01a4 BB79     		ldrb	r3, [r7, #6]	@ zero_extendqisi2
 1572 01a6 1846     		mov	r0, r3
 1573 01a8 FFF7FEFF 		bl	CyExitCriticalSection
1781:.\Generated_Source\PSoC5/LIN_1.c ****                         LIN_1_EndFrame(LIN_1_HANDLING_RESET_FSM_ERR);
 1574              		.loc 1 1781 0
 1575 01ac 4FF00100 		mov	r0, #1
 1576 01b0 FFF7FEFF 		bl	LIN_1_EndFrame
 1577              		.loc 1 1874 0
 1578 01b4 C2E3     		b	.L86
 1579              	.L98:
1788:.\Generated_Source\PSoC5/LIN_1.c ****                     LIN_1_pidIndex = LIN_1_FindPidIndex(LIN_1_framePid);
 1580              		.loc 1 1788 0
 1581 01b6 40F20003 		movw	r3, #:lower16:LIN_1_framePid.5055
 1582 01ba C0F20003 		movt	r3, #:upper16:LIN_1_framePid.5055
 1583 01be 1B78     		ldrb	r3, [r3, #0]	@ zero_extendqisi2
 1584 01c0 1846     		mov	r0, r3
 1585 01c2 FFF7FEFF 		bl	LIN_1_FindPidIndex
ARM GAS  C:\Users\MATSUD~1\AppData\Local\Temp\ccLjdAaK.s 			page 62


 1586 01c6 0346     		mov	r3, r0
 1587 01c8 1A46     		mov	r2, r3
 1588 01ca 40F20003 		movw	r3, #:lower16:LIN_1_pidIndex.5059
 1589 01ce C0F20003 		movt	r3, #:upper16:LIN_1_pidIndex.5059
 1590 01d2 1A70     		strb	r2, [r3, #0]
1790:.\Generated_Source\PSoC5/LIN_1.c ****                     if(LIN_1_INVALID_FRAME_PID != LIN_1_pidIndex)
 1591              		.loc 1 1790 0
 1592 01d4 40F20003 		movw	r3, #:lower16:LIN_1_pidIndex.5059
 1593 01d8 C0F20003 		movt	r3, #:upper16:LIN_1_pidIndex.5059
 1594 01dc 1B78     		ldrb	r3, [r3, #0]	@ zero_extendqisi2
 1595 01de FF2B     		cmp	r3, #255
 1596 01e0 00F0A280 		beq	.L99
1795:.\Generated_Source\PSoC5/LIN_1.c ****                         LIN_1_interimChecksum = LIN_1_framePid;
 1597              		.loc 1 1795 0
 1598 01e4 40F20003 		movw	r3, #:lower16:LIN_1_framePid.5055
 1599 01e8 C0F20003 		movt	r3, #:upper16:LIN_1_framePid.5055
 1600 01ec 1B78     		ldrb	r3, [r3, #0]	@ zero_extendqisi2
 1601 01ee 1A46     		mov	r2, r3
 1602 01f0 40F20003 		movw	r3, #:lower16:LIN_1_interimChecksum.5054
 1603 01f4 C0F20003 		movt	r3, #:upper16:LIN_1_interimChecksum.5054
 1604 01f8 1A80     		strh	r2, [r3, #0]	@ movhi
1798:.\Generated_Source\PSoC5/LIN_1.c ****                         LIN_1_frameSize = LIN_1_pidInfoTable[LIN_1_pidIndex].param &
 1605              		.loc 1 1798 0
 1606 01fa 40F20003 		movw	r3, #:lower16:LIN_1_pidIndex.5059
 1607 01fe C0F20003 		movt	r3, #:upper16:LIN_1_pidIndex.5059
 1608 0202 1B78     		ldrb	r3, [r3, #0]	@ zero_extendqisi2
 1609 0204 1A46     		mov	r2, r3
 1610 0206 40F20003 		movw	r3, #:lower16:LIN_1_pidInfoTable.5063
 1611 020a C0F20003 		movt	r3, #:upper16:LIN_1_pidInfoTable.5063
 1612 020e 13F83230 		ldrb	r3, [r3, r2, lsl #3]	@ zero_extendqisi2
 1613 0212 03F00F03 		and	r3, r3, #15
 1614 0216 DAB2     		uxtb	r2, r3
 1615 0218 40F20003 		movw	r3, #:lower16:LIN_1_frameSize.5056
 1616 021c C0F20003 		movt	r3, #:upper16:LIN_1_frameSize.5056
 1617 0220 1A70     		strb	r2, [r3, #0]
1803:.\Generated_Source\PSoC5/LIN_1.c ****                                  LIN_1_pidInfoTable[LIN_1_pidIndex].param))
 1618              		.loc 1 1803 0
 1619 0222 40F20003 		movw	r3, #:lower16:LIN_1_pidIndex.5059
 1620 0226 C0F20003 		movt	r3, #:upper16:LIN_1_pidIndex.5059
 1621 022a 1B78     		ldrb	r3, [r3, #0]	@ zero_extendqisi2
 1622 022c 1A46     		mov	r2, r3
 1623 022e 40F20003 		movw	r3, #:lower16:LIN_1_pidInfoTable.5063
 1624 0232 C0F20003 		movt	r3, #:upper16:LIN_1_pidInfoTable.5063
 1625 0236 13F83230 		ldrb	r3, [r3, r2, lsl #3]	@ zero_extendqisi2
1802:.\Generated_Source\PSoC5/LIN_1.c ****                         if(0u != (LIN_1_FRAME_DIR_PUBLISH &
 1626              		.loc 1 1802 0
 1627 023a 03F01003 		and	r3, r3, #16
 1628 023e DBB2     		uxtb	r3, r3
 1629 0240 002B     		cmp	r3, #0
 1630 0242 60D0     		beq	.L100
1810:.\Generated_Source\PSoC5/LIN_1.c ****                                            LIN_1_pidInfoTable[LIN_1_pidIndex].param))
 1631              		.loc 1 1810 0
 1632 0244 40F20003 		movw	r3, #:lower16:LIN_1_pidIndex.5059
 1633 0248 C0F20003 		movt	r3, #:upper16:LIN_1_pidIndex.5059
 1634 024c 1B78     		ldrb	r3, [r3, #0]	@ zero_extendqisi2
 1635 024e 1A46     		mov	r2, r3
 1636 0250 40F20003 		movw	r3, #:lower16:LIN_1_pidInfoTable.5063
ARM GAS  C:\Users\MATSUD~1\AppData\Local\Temp\ccLjdAaK.s 			page 63


 1637 0254 C0F20003 		movt	r3, #:upper16:LIN_1_pidInfoTable.5063
 1638 0258 13F83230 		ldrb	r3, [r3, r2, lsl #3]	@ zero_extendqisi2
1809:.\Generated_Source\PSoC5/LIN_1.c ****                                 if(0u  != (LIN_1_FRAME_TYPE_EVENT &
 1639              		.loc 1 1809 0
 1640 025c 03F02003 		and	r3, r3, #32
 1641 0260 DBB2     		uxtb	r3, r3
 1642 0262 002B     		cmp	r3, #0
 1643 0264 0ED0     		beq	.L101
1813:.\Generated_Source\PSoC5/LIN_1.c ****                                     if(0u == LIN_1_GetEtFlagValue(LIN_1_pidIndex))
 1644              		.loc 1 1813 0
 1645 0266 40F20003 		movw	r3, #:lower16:LIN_1_pidIndex.5059
 1646 026a C0F20003 		movt	r3, #:upper16:LIN_1_pidIndex.5059
 1647 026e 1B78     		ldrb	r3, [r3, #0]	@ zero_extendqisi2
 1648 0270 1846     		mov	r0, r3
 1649 0272 FFF7FEFF 		bl	LIN_1_GetEtFlagValue
 1650 0276 0346     		mov	r3, r0
 1651 0278 002B     		cmp	r3, #0
 1652 027a 03D1     		bne	.L101
1816:.\Generated_Source\PSoC5/LIN_1.c ****                                         LIN_1_EndFrame(LIN_1_HANDLING_RESET_FSM_ERR);
 1653              		.loc 1 1816 0
 1654 027c 4FF00100 		mov	r0, #1
 1655 0280 FFF7FEFF 		bl	LIN_1_EndFrame
 1656              	.L101:
1824:.\Generated_Source\PSoC5/LIN_1.c ****                                 LIN_1_pidInfoTable[LIN_1_pidIndex].dataPtr;
 1657              		.loc 1 1824 0
 1658 0284 40F20003 		movw	r3, #:lower16:LIN_1_pidIndex.5059
 1659 0288 C0F20003 		movt	r3, #:upper16:LIN_1_pidIndex.5059
 1660 028c 1B78     		ldrb	r3, [r3, #0]	@ zero_extendqisi2
 1661 028e 40F20002 		movw	r2, #:lower16:LIN_1_pidInfoTable.5063
 1662 0292 C0F20002 		movt	r2, #:upper16:LIN_1_pidInfoTable.5063
 1663 0296 4FEAC303 		lsl	r3, r3, #3
 1664 029a D318     		adds	r3, r2, r3
 1665 029c 5A68     		ldr	r2, [r3, #4]
1823:.\Generated_Source\PSoC5/LIN_1.c ****                             LIN_1_frameData =
 1666              		.loc 1 1823 0
 1667 029e 40F20003 		movw	r3, #:lower16:LIN_1_frameData.5061
 1668 02a2 C0F20003 		movt	r3, #:upper16:LIN_1_frameData.5061
 1669 02a6 1A60     		str	r2, [r3, #0]
1827:.\Generated_Source\PSoC5/LIN_1.c ****                             LIN_1_tmpData = *LIN_1_frameData;
 1670              		.loc 1 1827 0
 1671 02a8 40F20003 		movw	r3, #:lower16:LIN_1_frameData.5061
 1672 02ac C0F20003 		movt	r3, #:upper16:LIN_1_frameData.5061
 1673 02b0 1B68     		ldr	r3, [r3, #0]
 1674 02b2 1B78     		ldrb	r3, [r3, #0]
 1675 02b4 DAB2     		uxtb	r2, r3
 1676 02b6 40F20003 		movw	r3, #:lower16:LIN_1_tmpData.5058
 1677 02ba C0F20003 		movt	r3, #:upper16:LIN_1_tmpData.5058
 1678 02be 1A70     		strb	r2, [r3, #0]
1828:.\Generated_Source\PSoC5/LIN_1.c ****                             LIN_1_frameData++;
 1679              		.loc 1 1828 0
 1680 02c0 40F20003 		movw	r3, #:lower16:LIN_1_frameData.5061
 1681 02c4 C0F20003 		movt	r3, #:upper16:LIN_1_frameData.5061
 1682 02c8 1B68     		ldr	r3, [r3, #0]
 1683 02ca 03F10102 		add	r2, r3, #1
 1684 02ce 40F20003 		movw	r3, #:lower16:LIN_1_frameData.5061
 1685 02d2 C0F20003 		movt	r3, #:upper16:LIN_1_frameData.5061
 1686 02d6 1A60     		str	r2, [r3, #0]
ARM GAS  C:\Users\MATSUD~1\AppData\Local\Temp\ccLjdAaK.s 			page 64


1829:.\Generated_Source\PSoC5/LIN_1.c ****                             LIN_1_UART_WriteTxData(LIN_1_tmpData);
 1687              		.loc 1 1829 0
 1688 02d8 40F20003 		movw	r3, #:lower16:LIN_1_tmpData.5058
 1689 02dc C0F20003 		movt	r3, #:upper16:LIN_1_tmpData.5058
 1690 02e0 1B78     		ldrb	r3, [r3, #0]	@ zero_extendqisi2
 1691 02e2 1846     		mov	r0, r3
 1692 02e4 FFF7FEFF 		bl	LIN_1_UART_WriteTxData
1830:.\Generated_Source\PSoC5/LIN_1.c ****                             LIN_1_bytesTransferred = 1u;
 1693              		.loc 1 1830 0
 1694 02e8 40F20003 		movw	r3, #:lower16:LIN_1_bytesTransferred.5057
 1695 02ec C0F20003 		movt	r3, #:upper16:LIN_1_bytesTransferred.5057
 1696 02f0 4FF00102 		mov	r2, #1
 1697 02f4 1A70     		strb	r2, [r3, #0]
1833:.\Generated_Source\PSoC5/LIN_1.c ****                             LIN_1_uartFsmState = LIN_1_UART_ISR_STATE_2_TX;
 1698              		.loc 1 1833 0
 1699 02f6 40F20003 		movw	r3, #:lower16:LIN_1_uartFsmState
 1700 02fa C0F20003 		movt	r3, #:upper16:LIN_1_uartFsmState
 1701 02fe 4FF00202 		mov	r2, #2
 1702 0302 1A70     		strb	r2, [r3, #0]
 1703              		.loc 1 1874 0
 1704 0304 1AE3     		b	.L86
 1705              	.L100:
1839:.\Generated_Source\PSoC5/LIN_1.c ****                             LIN_1_frameData = LIN_1_tmpRxFrameData;
 1706              		.loc 1 1839 0
 1707 0306 40F20003 		movw	r3, #:lower16:LIN_1_frameData.5061
 1708 030a C0F20003 		movt	r3, #:upper16:LIN_1_frameData.5061
 1709 030e 40F20002 		movw	r2, #:lower16:LIN_1_tmpRxFrameData.5060
 1710 0312 C0F20002 		movt	r2, #:upper16:LIN_1_tmpRxFrameData.5060
 1711 0316 1A60     		str	r2, [r3, #0]
1842:.\Generated_Source\PSoC5/LIN_1.c ****                             LIN_1_uartFsmState = LIN_1_UART_ISR_STATE_3_RX;
 1712              		.loc 1 1842 0
 1713 0318 40F20003 		movw	r3, #:lower16:LIN_1_uartFsmState
 1714 031c C0F20003 		movt	r3, #:upper16:LIN_1_uartFsmState
 1715 0320 4FF00302 		mov	r2, #3
 1716 0324 1A70     		strb	r2, [r3, #0]
 1717              		.loc 1 1874 0
 1718 0326 09E3     		b	.L86
 1719              	.L99:
1848:.\Generated_Source\PSoC5/LIN_1.c ****                         LIN_1_ifcStatus |= LIN_1_IFC_STS_ERROR_IN_RESPONSE;
 1720              		.loc 1 1848 0
 1721 0328 40F20003 		movw	r3, #:lower16:LIN_1_ifcStatus
 1722 032c C0F20003 		movt	r3, #:upper16:LIN_1_ifcStatus
 1723 0330 1B88     		ldrh	r3, [r3, #0]	@ movhi
 1724 0332 9BB2     		uxth	r3, r3
 1725 0334 43F00103 		orr	r3, r3, #1
 1726 0338 9AB2     		uxth	r2, r3
 1727 033a 40F20003 		movw	r3, #:lower16:LIN_1_ifcStatus
 1728 033e C0F20003 		movt	r3, #:upper16:LIN_1_ifcStatus
 1729 0342 1A80     		strh	r2, [r3, #0]	@ movhi
1859:.\Generated_Source\PSoC5/LIN_1.c ****     interruptState = CyEnterCriticalSection();
 1730              		.loc 1 1859 0
 1731 0344 FFF7FEFF 		bl	CyEnterCriticalSection
 1732 0348 0346     		mov	r3, r0
 1733 034a BB71     		strb	r3, [r7, #6]
1861:.\Generated_Source\PSoC5/LIN_1.c ****         LIN_1_Buffer_Frame1[LIN_1_Response_Error_Frame1_SIG_BYTE_OFFSET] |= 
 1734              		.loc 1 1861 0
 1735 034c 40F20003 		movw	r3, #:lower16:LIN_1_Buffer_Frame1
ARM GAS  C:\Users\MATSUD~1\AppData\Local\Temp\ccLjdAaK.s 			page 65


 1736 0350 C0F20003 		movt	r3, #:upper16:LIN_1_Buffer_Frame1
 1737 0354 1B78     		ldrb	r3, [r3, #0]
 1738 0356 DBB2     		uxtb	r3, r3
 1739 0358 43F00403 		orr	r3, r3, #4
 1740 035c DAB2     		uxtb	r2, r3
 1741 035e 40F20003 		movw	r3, #:lower16:LIN_1_Buffer_Frame1
 1742 0362 C0F20003 		movt	r3, #:upper16:LIN_1_Buffer_Frame1
 1743 0366 1A70     		strb	r2, [r3, #0]
1865:.\Generated_Source\PSoC5/LIN_1.c ****     CyExitCriticalSection(interruptState);
 1744              		.loc 1 1865 0
 1745 0368 BB79     		ldrb	r3, [r7, #6]	@ zero_extendqisi2
 1746 036a 1846     		mov	r0, r3
 1747 036c FFF7FEFF 		bl	CyExitCriticalSection
1869:.\Generated_Source\PSoC5/LIN_1.c ****                         LIN_1_EndFrame(LIN_1_HANDLING_RESET_FSM_ERR);
 1748              		.loc 1 1869 0
 1749 0370 4FF00100 		mov	r0, #1
 1750 0374 FFF7FEFF 		bl	LIN_1_EndFrame
 1751              		.loc 1 1874 0
 1752 0378 E0E2     		b	.L86
 1753              	.L91:
1875:.\Generated_Source\PSoC5/LIN_1.c **** 
1876:.\Generated_Source\PSoC5/LIN_1.c **** 
1877:.\Generated_Source\PSoC5/LIN_1.c ****         /***********************************************************************
1878:.\Generated_Source\PSoC5/LIN_1.c ****         *                       TX response (Publish)
1879:.\Generated_Source\PSoC5/LIN_1.c ****         * State description:
1880:.\Generated_Source\PSoC5/LIN_1.c ****         *  - Transmits data to LIN Master
1881:.\Generated_Source\PSoC5/LIN_1.c ****         *  - Transmits next data byte if there were no any errors
1882:.\Generated_Source\PSoC5/LIN_1.c ****         *  - Transmits checksum when data was send correctly
1883:.\Generated_Source\PSoC5/LIN_1.c ****         ***********************************************************************/
1884:.\Generated_Source\PSoC5/LIN_1.c ****         case LIN_1_UART_ISR_STATE_2_TX:
1885:.\Generated_Source\PSoC5/LIN_1.c **** 
1886:.\Generated_Source\PSoC5/LIN_1.c ****             /* Set the response active flag */
1887:.\Generated_Source\PSoC5/LIN_1.c ****             LIN_1_status |= LIN_1_STATUS_RESPONSE_ACTIVE;
 1754              		.loc 1 1887 0
 1755 037a 40F20003 		movw	r3, #:lower16:LIN_1_status
 1756 037e C0F20003 		movt	r3, #:upper16:LIN_1_status
 1757 0382 1B78     		ldrb	r3, [r3, #0]
 1758 0384 DBB2     		uxtb	r3, r3
 1759 0386 43F01003 		orr	r3, r3, #16
 1760 038a DAB2     		uxtb	r2, r3
 1761 038c 40F20003 		movw	r3, #:lower16:LIN_1_status
 1762 0390 C0F20003 		movt	r3, #:upper16:LIN_1_status
 1763 0394 1A70     		strb	r2, [r3, #0]
1888:.\Generated_Source\PSoC5/LIN_1.c **** 
1889:.\Generated_Source\PSoC5/LIN_1.c ****             /* Previously transmitted and read back bytes are not equal */
1890:.\Generated_Source\PSoC5/LIN_1.c ****             if(LIN_1_tmpData != LIN_1_UART_ReadRxData())
 1764              		.loc 1 1890 0
 1765 0396 FFF7FEFF 		bl	LIN_1_UART_ReadRxData
 1766 039a 0346     		mov	r3, r0
 1767 039c 1A46     		mov	r2, r3
 1768 039e 40F20003 		movw	r3, #:lower16:LIN_1_tmpData.5058
 1769 03a2 C0F20003 		movt	r3, #:upper16:LIN_1_tmpData.5058
 1770 03a6 1B78     		ldrb	r3, [r3, #0]	@ zero_extendqisi2
 1771 03a8 9A42     		cmp	r2, r3
 1772 03aa 65D0     		beq	.L103
1891:.\Generated_Source\PSoC5/LIN_1.c ****             {
1892:.\Generated_Source\PSoC5/LIN_1.c ****                 /* Mismatch Error */
ARM GAS  C:\Users\MATSUD~1\AppData\Local\Temp\ccLjdAaK.s 			page 66


1893:.\Generated_Source\PSoC5/LIN_1.c **** 
1894:.\Generated_Source\PSoC5/LIN_1.c ****                 #if(1u == LIN_1_SAE_J2602)
1895:.\Generated_Source\PSoC5/LIN_1.c **** 
1896:.\Generated_Source\PSoC5/LIN_1.c ****                     /* Set ERR2 bit */
1897:.\Generated_Source\PSoC5/LIN_1.c ****                     LIN_1_j2602Status |= LIN_1_J2602_STS_DATA_ERR;
1898:.\Generated_Source\PSoC5/LIN_1.c **** 
1899:.\Generated_Source\PSoC5/LIN_1.c ****                     /* Readback error - set response error flag */
1900:.\Generated_Source\PSoC5/LIN_1.c ****                     LIN_1_ifcStatus |= LIN_1_IFC_STS_ERROR_IN_RESPONSE;
1901:.\Generated_Source\PSoC5/LIN_1.c **** 
1902:.\Generated_Source\PSoC5/LIN_1.c ****                 #else
1903:.\Generated_Source\PSoC5/LIN_1.c **** 
1904:.\Generated_Source\PSoC5/LIN_1.c ****                     /* Skip event-triggered frame */
1905:.\Generated_Source\PSoC5/LIN_1.c ****                     if(0u  == (LIN_1_FRAME_TYPE_EVENT &
1906:.\Generated_Source\PSoC5/LIN_1.c ****                                LIN_1_pidInfoTable[LIN_1_pidIndex].param))
 1773              		.loc 1 1906 0
 1774 03ac 40F20003 		movw	r3, #:lower16:LIN_1_pidIndex.5059
 1775 03b0 C0F20003 		movt	r3, #:upper16:LIN_1_pidIndex.5059
 1776 03b4 1B78     		ldrb	r3, [r3, #0]	@ zero_extendqisi2
 1777 03b6 1A46     		mov	r2, r3
 1778 03b8 40F20003 		movw	r3, #:lower16:LIN_1_pidInfoTable.5063
 1779 03bc C0F20003 		movt	r3, #:upper16:LIN_1_pidInfoTable.5063
 1780 03c0 13F83230 		ldrb	r3, [r3, r2, lsl #3]	@ zero_extendqisi2
1905:.\Generated_Source\PSoC5/LIN_1.c ****                     if(0u  == (LIN_1_FRAME_TYPE_EVENT &
 1781              		.loc 1 1905 0
 1782 03c4 03F02003 		and	r3, r3, #32
 1783 03c8 DBB2     		uxtb	r3, r3
 1784 03ca 002B     		cmp	r3, #0
 1785 03cc 0DD1     		bne	.L104
1907:.\Generated_Source\PSoC5/LIN_1.c ****                     {
1908:.\Generated_Source\PSoC5/LIN_1.c ****                         /* Readback error - set response error flag */
1909:.\Generated_Source\PSoC5/LIN_1.c ****                         LIN_1_ifcStatus |= LIN_1_IFC_STS_ERROR_IN_RESPONSE;
 1786              		.loc 1 1909 0
 1787 03ce 40F20003 		movw	r3, #:lower16:LIN_1_ifcStatus
 1788 03d2 C0F20003 		movt	r3, #:upper16:LIN_1_ifcStatus
 1789 03d6 1B88     		ldrh	r3, [r3, #0]	@ movhi
 1790 03d8 9BB2     		uxth	r3, r3
 1791 03da 43F00103 		orr	r3, r3, #1
 1792 03de 9AB2     		uxth	r2, r3
 1793 03e0 40F20003 		movw	r3, #:lower16:LIN_1_ifcStatus
 1794 03e4 C0F20003 		movt	r3, #:upper16:LIN_1_ifcStatus
 1795 03e8 1A80     		strh	r2, [r3, #0]	@ movhi
 1796              	.L104:
1910:.\Generated_Source\PSoC5/LIN_1.c ****                     }
1911:.\Generated_Source\PSoC5/LIN_1.c **** 
1912:.\Generated_Source\PSoC5/LIN_1.c ****                 #endif  /* (1u == LIN_1_SAE_J2602) */
1913:.\Generated_Source\PSoC5/LIN_1.c **** 
1914:.\Generated_Source\PSoC5/LIN_1.c ****                 
1915:.\Generated_Source\PSoC5/LIN_1.c ****     /* Save current global interrupt enable and disable it */
1916:.\Generated_Source\PSoC5/LIN_1.c ****     interruptState = CyEnterCriticalSection();
 1797              		.loc 1 1916 0
 1798 03ea FFF7FEFF 		bl	CyEnterCriticalSection
 1799 03ee 0346     		mov	r3, r0
 1800 03f0 BB71     		strb	r3, [r7, #6]
1917:.\Generated_Source\PSoC5/LIN_1.c **** 
1918:.\Generated_Source\PSoC5/LIN_1.c ****         LIN_1_Buffer_Frame1[LIN_1_Response_Error_Frame1_SIG_BYTE_OFFSET] |= 
 1801              		.loc 1 1918 0
 1802 03f2 40F20003 		movw	r3, #:lower16:LIN_1_Buffer_Frame1
ARM GAS  C:\Users\MATSUD~1\AppData\Local\Temp\ccLjdAaK.s 			page 67


 1803 03f6 C0F20003 		movt	r3, #:upper16:LIN_1_Buffer_Frame1
 1804 03fa 1B78     		ldrb	r3, [r3, #0]
 1805 03fc DBB2     		uxtb	r3, r3
 1806 03fe 43F00403 		orr	r3, r3, #4
 1807 0402 DAB2     		uxtb	r2, r3
 1808 0404 40F20003 		movw	r3, #:lower16:LIN_1_Buffer_Frame1
 1809 0408 C0F20003 		movt	r3, #:upper16:LIN_1_Buffer_Frame1
 1810 040c 1A70     		strb	r2, [r3, #0]
1919:.\Generated_Source\PSoC5/LIN_1.c ****                             LIN_1_Response_Error_Frame1_SIG_MASK_0;
1920:.\Generated_Source\PSoC5/LIN_1.c **** 
1921:.\Generated_Source\PSoC5/LIN_1.c ****     /* Restore global interrupt enable state */
1922:.\Generated_Source\PSoC5/LIN_1.c ****     CyExitCriticalSection(interruptState);
 1811              		.loc 1 1922 0
 1812 040e BB79     		ldrb	r3, [r7, #6]	@ zero_extendqisi2
 1813 0410 1846     		mov	r0, r3
 1814 0412 FFF7FEFF 		bl	CyExitCriticalSection
1923:.\Generated_Source\PSoC5/LIN_1.c **** 
1924:.\Generated_Source\PSoC5/LIN_1.c **** 
1925:.\Generated_Source\PSoC5/LIN_1.c ****                 /* Check for framing error */
1926:.\Generated_Source\PSoC5/LIN_1.c ****                 if(0u == (LIN_1_fsmFlags & LIN_1_FSM_FRAMING_ERROR_FLAG))
 1815              		.loc 1 1926 0
 1816 0416 40F20003 		movw	r3, #:lower16:LIN_1_fsmFlags
 1817 041a C0F20003 		movt	r3, #:upper16:LIN_1_fsmFlags
 1818 041e 1B78     		ldrb	r3, [r3, #0]
 1819 0420 DBB2     		uxtb	r3, r3
 1820 0422 DBB2     		uxtb	r3, r3
 1821 0424 5BB2     		sxtb	r3, r3
 1822 0426 002B     		cmp	r3, #0
 1823 0428 21DB     		blt	.L105
1927:.\Generated_Source\PSoC5/LIN_1.c ****                 {
1928:.\Generated_Source\PSoC5/LIN_1.c ****                     /* Save the last processed PID on the bus to the status variable */
1929:.\Generated_Source\PSoC5/LIN_1.c ****                     LIN_1_ifcStatus &= ((l_u16) ~LIN_1_IFC_STS_PID_MASK);
 1824              		.loc 1 1929 0
 1825 042a 40F20003 		movw	r3, #:lower16:LIN_1_ifcStatus
 1826 042e C0F20003 		movt	r3, #:upper16:LIN_1_ifcStatus
 1827 0432 1B88     		ldrh	r3, [r3, #0]	@ movhi
 1828 0434 9BB2     		uxth	r3, r3
 1829 0436 DBB2     		uxtb	r3, r3
 1830 0438 9AB2     		uxth	r2, r3
 1831 043a 40F20003 		movw	r3, #:lower16:LIN_1_ifcStatus
 1832 043e C0F20003 		movt	r3, #:upper16:LIN_1_ifcStatus
 1833 0442 1A80     		strh	r2, [r3, #0]	@ movhi
1930:.\Generated_Source\PSoC5/LIN_1.c ****                     LIN_1_ifcStatus |= ((l_u16) (((l_u16)LIN_1_framePid) << 8u));
 1834              		.loc 1 1930 0
 1835 0444 40F20003 		movw	r3, #:lower16:LIN_1_framePid.5055
 1836 0448 C0F20003 		movt	r3, #:upper16:LIN_1_framePid.5055
 1837 044c 1B78     		ldrb	r3, [r3, #0]	@ zero_extendqisi2
 1838 044e 4FEA0323 		lsl	r3, r3, #8
 1839 0452 9AB2     		uxth	r2, r3
 1840 0454 40F20003 		movw	r3, #:lower16:LIN_1_ifcStatus
 1841 0458 C0F20003 		movt	r3, #:upper16:LIN_1_ifcStatus
 1842 045c 1B88     		ldrh	r3, [r3, #0]	@ movhi
 1843 045e 9BB2     		uxth	r3, r3
 1844 0460 1343     		orrs	r3, r3, r2
 1845 0462 9AB2     		uxth	r2, r3
 1846 0464 40F20003 		movw	r3, #:lower16:LIN_1_ifcStatus
 1847 0468 C0F20003 		movt	r3, #:upper16:LIN_1_ifcStatus
ARM GAS  C:\Users\MATSUD~1\AppData\Local\Temp\ccLjdAaK.s 			page 68


 1848 046c 1A80     		strh	r2, [r3, #0]	@ movhi
 1849              	.L105:
1931:.\Generated_Source\PSoC5/LIN_1.c ****                 }
1932:.\Generated_Source\PSoC5/LIN_1.c **** 
1933:.\Generated_Source\PSoC5/LIN_1.c ****                 /* End frame with response error */
1934:.\Generated_Source\PSoC5/LIN_1.c ****                 LIN_1_EndFrame(LIN_1_HANDLING_DONT_SAVE_PID);
 1850              		.loc 1 1934 0
 1851 046e 4FF01000 		mov	r0, #16
 1852 0472 FFF7FEFF 		bl	LIN_1_EndFrame
1935:.\Generated_Source\PSoC5/LIN_1.c ****             }
1936:.\Generated_Source\PSoC5/LIN_1.c ****             else    /* If readback was successful than continue transmitting */
1937:.\Generated_Source\PSoC5/LIN_1.c ****             {
1938:.\Generated_Source\PSoC5/LIN_1.c ****                 /* Add transmitted byte to the interim checksum */
1939:.\Generated_Source\PSoC5/LIN_1.c ****                 LIN_1_interimChecksum += LIN_1_tmpData;
1940:.\Generated_Source\PSoC5/LIN_1.c ****                 if(LIN_1_interimChecksum >= 256u)
1941:.\Generated_Source\PSoC5/LIN_1.c ****                 {
1942:.\Generated_Source\PSoC5/LIN_1.c ****                     LIN_1_interimChecksum -= 255u;
1943:.\Generated_Source\PSoC5/LIN_1.c ****                 }
1944:.\Generated_Source\PSoC5/LIN_1.c **** 
1945:.\Generated_Source\PSoC5/LIN_1.c ****                 /* Check to see if all data bytes were sent */
1946:.\Generated_Source\PSoC5/LIN_1.c ****                 if(LIN_1_frameSize > LIN_1_bytesTransferred)
1947:.\Generated_Source\PSoC5/LIN_1.c ****                 {
1948:.\Generated_Source\PSoC5/LIN_1.c ****                     /* Send out the next byte of the buffer */
1949:.\Generated_Source\PSoC5/LIN_1.c ****                     LIN_1_tmpData = *LIN_1_frameData;
1950:.\Generated_Source\PSoC5/LIN_1.c ****                     LIN_1_frameData++;
1951:.\Generated_Source\PSoC5/LIN_1.c ****                     LIN_1_UART_WriteTxData(LIN_1_tmpData);
1952:.\Generated_Source\PSoC5/LIN_1.c ****                     LIN_1_bytesTransferred++;
1953:.\Generated_Source\PSoC5/LIN_1.c ****                 }
1954:.\Generated_Source\PSoC5/LIN_1.c ****                 else    /* All data bytes were sent - compute and transmit checksum */
1955:.\Generated_Source\PSoC5/LIN_1.c ****                 {
1956:.\Generated_Source\PSoC5/LIN_1.c ****                     /* Compute and send out the checksum byte */
1957:.\Generated_Source\PSoC5/LIN_1.c ****                     LIN_1_UART_WriteTxData((((l_u8) LIN_1_interimChecksum) ^ 0xFFu));
1958:.\Generated_Source\PSoC5/LIN_1.c **** 
1959:.\Generated_Source\PSoC5/LIN_1.c ****                     LIN_1_bytesTransferred = 0u;
1960:.\Generated_Source\PSoC5/LIN_1.c **** 
1961:.\Generated_Source\PSoC5/LIN_1.c ****                     /* Switch to the checksum state */
1962:.\Generated_Source\PSoC5/LIN_1.c ****                     LIN_1_uartFsmState = LIN_1_UART_ISR_STATE_4_CHS;
1963:.\Generated_Source\PSoC5/LIN_1.c ****                 }
1964:.\Generated_Source\PSoC5/LIN_1.c ****             }
1965:.\Generated_Source\PSoC5/LIN_1.c ****         break;
 1853              		.loc 1 1965 0
 1854 0476 61E2     		b	.L86
 1855              	.L103:
1939:.\Generated_Source\PSoC5/LIN_1.c ****                 LIN_1_interimChecksum += LIN_1_tmpData;
 1856              		.loc 1 1939 0
 1857 0478 40F20003 		movw	r3, #:lower16:LIN_1_tmpData.5058
 1858 047c C0F20003 		movt	r3, #:upper16:LIN_1_tmpData.5058
 1859 0480 1B78     		ldrb	r3, [r3, #0]	@ zero_extendqisi2
 1860 0482 1A46     		mov	r2, r3
 1861 0484 40F20003 		movw	r3, #:lower16:LIN_1_interimChecksum.5054
 1862 0488 C0F20003 		movt	r3, #:upper16:LIN_1_interimChecksum.5054
 1863 048c 1B88     		ldrh	r3, [r3, #0]
 1864 048e D318     		adds	r3, r2, r3
 1865 0490 9AB2     		uxth	r2, r3
 1866 0492 40F20003 		movw	r3, #:lower16:LIN_1_interimChecksum.5054
 1867 0496 C0F20003 		movt	r3, #:upper16:LIN_1_interimChecksum.5054
 1868 049a 1A80     		strh	r2, [r3, #0]	@ movhi
ARM GAS  C:\Users\MATSUD~1\AppData\Local\Temp\ccLjdAaK.s 			page 69


1940:.\Generated_Source\PSoC5/LIN_1.c ****                 if(LIN_1_interimChecksum >= 256u)
 1869              		.loc 1 1940 0
 1870 049c 40F20003 		movw	r3, #:lower16:LIN_1_interimChecksum.5054
 1871 04a0 C0F20003 		movt	r3, #:upper16:LIN_1_interimChecksum.5054
 1872 04a4 1B88     		ldrh	r3, [r3, #0]
 1873 04a6 FF2B     		cmp	r3, #255
 1874 04a8 0CD9     		bls	.L107
1942:.\Generated_Source\PSoC5/LIN_1.c ****                     LIN_1_interimChecksum -= 255u;
 1875              		.loc 1 1942 0
 1876 04aa 40F20003 		movw	r3, #:lower16:LIN_1_interimChecksum.5054
 1877 04ae C0F20003 		movt	r3, #:upper16:LIN_1_interimChecksum.5054
 1878 04b2 1B88     		ldrh	r3, [r3, #0]
 1879 04b4 A3F1FF03 		sub	r3, r3, #255
 1880 04b8 9AB2     		uxth	r2, r3
 1881 04ba 40F20003 		movw	r3, #:lower16:LIN_1_interimChecksum.5054
 1882 04be C0F20003 		movt	r3, #:upper16:LIN_1_interimChecksum.5054
 1883 04c2 1A80     		strh	r2, [r3, #0]	@ movhi
 1884              	.L107:
1946:.\Generated_Source\PSoC5/LIN_1.c ****                 if(LIN_1_frameSize > LIN_1_bytesTransferred)
 1885              		.loc 1 1946 0
 1886 04c4 40F20003 		movw	r3, #:lower16:LIN_1_frameSize.5056
 1887 04c8 C0F20003 		movt	r3, #:upper16:LIN_1_frameSize.5056
 1888 04cc 1A78     		ldrb	r2, [r3, #0]	@ zero_extendqisi2
 1889 04ce 40F20003 		movw	r3, #:lower16:LIN_1_bytesTransferred.5057
 1890 04d2 C0F20003 		movt	r3, #:upper16:LIN_1_bytesTransferred.5057
 1891 04d6 1B78     		ldrb	r3, [r3, #0]	@ zero_extendqisi2
 1892 04d8 9A42     		cmp	r2, r3
 1893 04da 2DD9     		bls	.L108
1949:.\Generated_Source\PSoC5/LIN_1.c ****                     LIN_1_tmpData = *LIN_1_frameData;
 1894              		.loc 1 1949 0
 1895 04dc 40F20003 		movw	r3, #:lower16:LIN_1_frameData.5061
 1896 04e0 C0F20003 		movt	r3, #:upper16:LIN_1_frameData.5061
 1897 04e4 1B68     		ldr	r3, [r3, #0]
 1898 04e6 1B78     		ldrb	r3, [r3, #0]
 1899 04e8 DAB2     		uxtb	r2, r3
 1900 04ea 40F20003 		movw	r3, #:lower16:LIN_1_tmpData.5058
 1901 04ee C0F20003 		movt	r3, #:upper16:LIN_1_tmpData.5058
 1902 04f2 1A70     		strb	r2, [r3, #0]
1950:.\Generated_Source\PSoC5/LIN_1.c ****                     LIN_1_frameData++;
 1903              		.loc 1 1950 0
 1904 04f4 40F20003 		movw	r3, #:lower16:LIN_1_frameData.5061
 1905 04f8 C0F20003 		movt	r3, #:upper16:LIN_1_frameData.5061
 1906 04fc 1B68     		ldr	r3, [r3, #0]
 1907 04fe 03F10102 		add	r2, r3, #1
 1908 0502 40F20003 		movw	r3, #:lower16:LIN_1_frameData.5061
 1909 0506 C0F20003 		movt	r3, #:upper16:LIN_1_frameData.5061
 1910 050a 1A60     		str	r2, [r3, #0]
1951:.\Generated_Source\PSoC5/LIN_1.c ****                     LIN_1_UART_WriteTxData(LIN_1_tmpData);
 1911              		.loc 1 1951 0
 1912 050c 40F20003 		movw	r3, #:lower16:LIN_1_tmpData.5058
 1913 0510 C0F20003 		movt	r3, #:upper16:LIN_1_tmpData.5058
 1914 0514 1B78     		ldrb	r3, [r3, #0]	@ zero_extendqisi2
 1915 0516 1846     		mov	r0, r3
 1916 0518 FFF7FEFF 		bl	LIN_1_UART_WriteTxData
1952:.\Generated_Source\PSoC5/LIN_1.c ****                     LIN_1_bytesTransferred++;
 1917              		.loc 1 1952 0
 1918 051c 40F20003 		movw	r3, #:lower16:LIN_1_bytesTransferred.5057
ARM GAS  C:\Users\MATSUD~1\AppData\Local\Temp\ccLjdAaK.s 			page 70


 1919 0520 C0F20003 		movt	r3, #:upper16:LIN_1_bytesTransferred.5057
 1920 0524 1B78     		ldrb	r3, [r3, #0]	@ zero_extendqisi2
 1921 0526 03F10103 		add	r3, r3, #1
 1922 052a DAB2     		uxtb	r2, r3
 1923 052c 40F20003 		movw	r3, #:lower16:LIN_1_bytesTransferred.5057
 1924 0530 C0F20003 		movt	r3, #:upper16:LIN_1_bytesTransferred.5057
 1925 0534 1A70     		strb	r2, [r3, #0]
 1926              		.loc 1 1965 0
 1927 0536 01E2     		b	.L86
 1928              	.L108:
1957:.\Generated_Source\PSoC5/LIN_1.c ****                     LIN_1_UART_WriteTxData((((l_u8) LIN_1_interimChecksum) ^ 0xFFu));
 1929              		.loc 1 1957 0
 1930 0538 40F20003 		movw	r3, #:lower16:LIN_1_interimChecksum.5054
 1931 053c C0F20003 		movt	r3, #:upper16:LIN_1_interimChecksum.5054
 1932 0540 1B88     		ldrh	r3, [r3, #0]
 1933 0542 DBB2     		uxtb	r3, r3
 1934 0544 6FEA0303 		mvn	r3, r3
 1935 0548 DBB2     		uxtb	r3, r3
 1936 054a 1846     		mov	r0, r3
 1937 054c FFF7FEFF 		bl	LIN_1_UART_WriteTxData
1959:.\Generated_Source\PSoC5/LIN_1.c ****                     LIN_1_bytesTransferred = 0u;
 1938              		.loc 1 1959 0
 1939 0550 40F20003 		movw	r3, #:lower16:LIN_1_bytesTransferred.5057
 1940 0554 C0F20003 		movt	r3, #:upper16:LIN_1_bytesTransferred.5057
 1941 0558 4FF00002 		mov	r2, #0
 1942 055c 1A70     		strb	r2, [r3, #0]
1962:.\Generated_Source\PSoC5/LIN_1.c ****                     LIN_1_uartFsmState = LIN_1_UART_ISR_STATE_4_CHS;
 1943              		.loc 1 1962 0
 1944 055e 40F20003 		movw	r3, #:lower16:LIN_1_uartFsmState
 1945 0562 C0F20003 		movt	r3, #:upper16:LIN_1_uartFsmState
 1946 0566 4FF00402 		mov	r2, #4
 1947 056a 1A70     		strb	r2, [r3, #0]
 1948              		.loc 1 1965 0
 1949 056c E6E1     		b	.L86
 1950              	.L92:
1966:.\Generated_Source\PSoC5/LIN_1.c **** 
1967:.\Generated_Source\PSoC5/LIN_1.c **** 
1968:.\Generated_Source\PSoC5/LIN_1.c ****         /***********************************************************************
1969:.\Generated_Source\PSoC5/LIN_1.c ****         *                       RX response (Subscribe)
1970:.\Generated_Source\PSoC5/LIN_1.c ****         * State description:
1971:.\Generated_Source\PSoC5/LIN_1.c ****         *  - Receives data from LIN Master
1972:.\Generated_Source\PSoC5/LIN_1.c ****         *  - Received data are saved to the temporary buffer
1973:.\Generated_Source\PSoC5/LIN_1.c ****         ***********************************************************************/
1974:.\Generated_Source\PSoC5/LIN_1.c ****         case LIN_1_UART_ISR_STATE_3_RX:
1975:.\Generated_Source\PSoC5/LIN_1.c **** 
1976:.\Generated_Source\PSoC5/LIN_1.c ****             /* Save received byte */
1977:.\Generated_Source\PSoC5/LIN_1.c ****             LIN_1_tmpData = LIN_1_UART_ReadRxData();
 1951              		.loc 1 1977 0
 1952 056e FFF7FEFF 		bl	LIN_1_UART_ReadRxData
 1953 0572 0346     		mov	r3, r0
 1954 0574 1A46     		mov	r2, r3
 1955 0576 40F20003 		movw	r3, #:lower16:LIN_1_tmpData.5058
 1956 057a C0F20003 		movt	r3, #:upper16:LIN_1_tmpData.5058
 1957 057e 1A70     		strb	r2, [r3, #0]
1978:.\Generated_Source\PSoC5/LIN_1.c ****             *LIN_1_frameData = LIN_1_tmpData;
 1958              		.loc 1 1978 0
 1959 0580 40F20003 		movw	r3, #:lower16:LIN_1_frameData.5061
ARM GAS  C:\Users\MATSUD~1\AppData\Local\Temp\ccLjdAaK.s 			page 71


 1960 0584 C0F20003 		movt	r3, #:upper16:LIN_1_frameData.5061
 1961 0588 1A68     		ldr	r2, [r3, #0]
 1962 058a 40F20003 		movw	r3, #:lower16:LIN_1_tmpData.5058
 1963 058e C0F20003 		movt	r3, #:upper16:LIN_1_tmpData.5058
 1964 0592 1B78     		ldrb	r3, [r3, #0]	@ zero_extendqisi2
 1965 0594 1370     		strb	r3, [r2, #0]
1979:.\Generated_Source\PSoC5/LIN_1.c ****             LIN_1_frameData++;
 1966              		.loc 1 1979 0
 1967 0596 40F20003 		movw	r3, #:lower16:LIN_1_frameData.5061
 1968 059a C0F20003 		movt	r3, #:upper16:LIN_1_frameData.5061
 1969 059e 1B68     		ldr	r3, [r3, #0]
 1970 05a0 03F10102 		add	r2, r3, #1
 1971 05a4 40F20003 		movw	r3, #:lower16:LIN_1_frameData.5061
 1972 05a8 C0F20003 		movt	r3, #:upper16:LIN_1_frameData.5061
 1973 05ac 1A60     		str	r2, [r3, #0]
1980:.\Generated_Source\PSoC5/LIN_1.c ****             LIN_1_bytesTransferred++;
 1974              		.loc 1 1980 0
 1975 05ae 40F20003 		movw	r3, #:lower16:LIN_1_bytesTransferred.5057
 1976 05b2 C0F20003 		movt	r3, #:upper16:LIN_1_bytesTransferred.5057
 1977 05b6 1B78     		ldrb	r3, [r3, #0]	@ zero_extendqisi2
 1978 05b8 03F10103 		add	r3, r3, #1
 1979 05bc DAB2     		uxtb	r2, r3
 1980 05be 40F20003 		movw	r3, #:lower16:LIN_1_bytesTransferred.5057
 1981 05c2 C0F20003 		movt	r3, #:upper16:LIN_1_bytesTransferred.5057
 1982 05c6 1A70     		strb	r2, [r3, #0]
1981:.\Generated_Source\PSoC5/LIN_1.c **** 
1982:.\Generated_Source\PSoC5/LIN_1.c ****             /* Set response active flag */
1983:.\Generated_Source\PSoC5/LIN_1.c ****             LIN_1_status |= LIN_1_STATUS_RESPONSE_ACTIVE;
 1983              		.loc 1 1983 0
 1984 05c8 40F20003 		movw	r3, #:lower16:LIN_1_status
 1985 05cc C0F20003 		movt	r3, #:upper16:LIN_1_status
 1986 05d0 1B78     		ldrb	r3, [r3, #0]
 1987 05d2 DBB2     		uxtb	r3, r3
 1988 05d4 43F01003 		orr	r3, r3, #16
 1989 05d8 DAB2     		uxtb	r2, r3
 1990 05da 40F20003 		movw	r3, #:lower16:LIN_1_status
 1991 05de C0F20003 		movt	r3, #:upper16:LIN_1_status
 1992 05e2 1A70     		strb	r2, [r3, #0]
1984:.\Generated_Source\PSoC5/LIN_1.c **** 
1985:.\Generated_Source\PSoC5/LIN_1.c ****             /* One or more data bytes have been received */
1986:.\Generated_Source\PSoC5/LIN_1.c ****             LIN_1_fsmFlags |= LIN_1_FSM_DATA_RECEIVE;
 1993              		.loc 1 1986 0
 1994 05e4 40F20003 		movw	r3, #:lower16:LIN_1_fsmFlags
 1995 05e8 C0F20003 		movt	r3, #:upper16:LIN_1_fsmFlags
 1996 05ec 1B78     		ldrb	r3, [r3, #0]
 1997 05ee DBB2     		uxtb	r3, r3
 1998 05f0 43F00403 		orr	r3, r3, #4
 1999 05f4 DAB2     		uxtb	r2, r3
 2000 05f6 40F20003 		movw	r3, #:lower16:LIN_1_fsmFlags
 2001 05fa C0F20003 		movt	r3, #:upper16:LIN_1_fsmFlags
 2002 05fe 1A70     		strb	r2, [r3, #0]
1987:.\Generated_Source\PSoC5/LIN_1.c **** 
1988:.\Generated_Source\PSoC5/LIN_1.c ****             /* Add received byte to the interim checksum */
1989:.\Generated_Source\PSoC5/LIN_1.c ****             LIN_1_interimChecksum += LIN_1_tmpData;
 2003              		.loc 1 1989 0
 2004 0600 40F20003 		movw	r3, #:lower16:LIN_1_tmpData.5058
 2005 0604 C0F20003 		movt	r3, #:upper16:LIN_1_tmpData.5058
ARM GAS  C:\Users\MATSUD~1\AppData\Local\Temp\ccLjdAaK.s 			page 72


 2006 0608 1B78     		ldrb	r3, [r3, #0]	@ zero_extendqisi2
 2007 060a 1A46     		mov	r2, r3
 2008 060c 40F20003 		movw	r3, #:lower16:LIN_1_interimChecksum.5054
 2009 0610 C0F20003 		movt	r3, #:upper16:LIN_1_interimChecksum.5054
 2010 0614 1B88     		ldrh	r3, [r3, #0]
 2011 0616 D318     		adds	r3, r2, r3
 2012 0618 9AB2     		uxth	r2, r3
 2013 061a 40F20003 		movw	r3, #:lower16:LIN_1_interimChecksum.5054
 2014 061e C0F20003 		movt	r3, #:upper16:LIN_1_interimChecksum.5054
 2015 0622 1A80     		strh	r2, [r3, #0]	@ movhi
1990:.\Generated_Source\PSoC5/LIN_1.c ****             if(LIN_1_interimChecksum >= 256u)
 2016              		.loc 1 1990 0
 2017 0624 40F20003 		movw	r3, #:lower16:LIN_1_interimChecksum.5054
 2018 0628 C0F20003 		movt	r3, #:upper16:LIN_1_interimChecksum.5054
 2019 062c 1B88     		ldrh	r3, [r3, #0]
 2020 062e FF2B     		cmp	r3, #255
 2021 0630 0CD9     		bls	.L109
1991:.\Generated_Source\PSoC5/LIN_1.c ****             {
1992:.\Generated_Source\PSoC5/LIN_1.c ****                 LIN_1_interimChecksum -= 255u;
 2022              		.loc 1 1992 0
 2023 0632 40F20003 		movw	r3, #:lower16:LIN_1_interimChecksum.5054
 2024 0636 C0F20003 		movt	r3, #:upper16:LIN_1_interimChecksum.5054
 2025 063a 1B88     		ldrh	r3, [r3, #0]
 2026 063c A3F1FF03 		sub	r3, r3, #255
 2027 0640 9AB2     		uxth	r2, r3
 2028 0642 40F20003 		movw	r3, #:lower16:LIN_1_interimChecksum.5054
 2029 0646 C0F20003 		movt	r3, #:upper16:LIN_1_interimChecksum.5054
 2030 064a 1A80     		strh	r2, [r3, #0]	@ movhi
 2031              	.L109:
1993:.\Generated_Source\PSoC5/LIN_1.c ****             }
1994:.\Generated_Source\PSoC5/LIN_1.c **** 
1995:.\Generated_Source\PSoC5/LIN_1.c ****             /* Check to see if the data section has not finished */
1996:.\Generated_Source\PSoC5/LIN_1.c ****             if(LIN_1_frameSize > LIN_1_bytesTransferred)
 2032              		.loc 1 1996 0
 2033 064c 40F20003 		movw	r3, #:lower16:LIN_1_frameSize.5056
 2034 0650 C0F20003 		movt	r3, #:upper16:LIN_1_frameSize.5056
 2035 0654 1A78     		ldrb	r2, [r3, #0]	@ zero_extendqisi2
 2036 0656 40F20003 		movw	r3, #:lower16:LIN_1_bytesTransferred.5057
 2037 065a C0F20003 		movt	r3, #:upper16:LIN_1_bytesTransferred.5057
 2038 065e 1B78     		ldrb	r3, [r3, #0]	@ zero_extendqisi2
 2039 0660 9A42     		cmp	r2, r3
 2040 0662 00F26A81 		bhi	.L120
1997:.\Generated_Source\PSoC5/LIN_1.c ****             {
1998:.\Generated_Source\PSoC5/LIN_1.c ****                 /* There is data to be sent */
1999:.\Generated_Source\PSoC5/LIN_1.c ****             }
2000:.\Generated_Source\PSoC5/LIN_1.c ****             else
2001:.\Generated_Source\PSoC5/LIN_1.c ****             {
2002:.\Generated_Source\PSoC5/LIN_1.c ****                 /* There is no data to be sent */
2003:.\Generated_Source\PSoC5/LIN_1.c **** 
2004:.\Generated_Source\PSoC5/LIN_1.c ****                 LIN_1_bytesTransferred = 0u;
 2041              		.loc 1 2004 0
 2042 0666 40F20003 		movw	r3, #:lower16:LIN_1_bytesTransferred.5057
 2043 066a C0F20003 		movt	r3, #:upper16:LIN_1_bytesTransferred.5057
 2044 066e 4FF00002 		mov	r2, #0
 2045 0672 1A70     		strb	r2, [r3, #0]
2005:.\Generated_Source\PSoC5/LIN_1.c **** 
2006:.\Generated_Source\PSoC5/LIN_1.c ****                 /* Switch to the checksum state */
ARM GAS  C:\Users\MATSUD~1\AppData\Local\Temp\ccLjdAaK.s 			page 73


2007:.\Generated_Source\PSoC5/LIN_1.c ****                 LIN_1_uartFsmState = LIN_1_UART_ISR_STATE_4_CHS;
 2046              		.loc 1 2007 0
 2047 0674 40F20003 		movw	r3, #:lower16:LIN_1_uartFsmState
 2048 0678 C0F20003 		movt	r3, #:upper16:LIN_1_uartFsmState
 2049 067c 4FF00402 		mov	r2, #4
 2050 0680 1A70     		strb	r2, [r3, #0]
2008:.\Generated_Source\PSoC5/LIN_1.c ****             }
2009:.\Generated_Source\PSoC5/LIN_1.c **** 
2010:.\Generated_Source\PSoC5/LIN_1.c ****         break;
 2051              		.loc 1 2010 0
 2052 0682 5AE1     		b	.L120
 2053              	.L93:
2011:.\Generated_Source\PSoC5/LIN_1.c **** 
2012:.\Generated_Source\PSoC5/LIN_1.c **** 
2013:.\Generated_Source\PSoC5/LIN_1.c **** 
2014:.\Generated_Source\PSoC5/LIN_1.c ****         /***********************************************************************
2015:.\Generated_Source\PSoC5/LIN_1.c ****         *                              Checksum
2016:.\Generated_Source\PSoC5/LIN_1.c ****         ***********************************************************************/
2017:.\Generated_Source\PSoC5/LIN_1.c ****         case LIN_1_UART_ISR_STATE_4_CHS:
2018:.\Generated_Source\PSoC5/LIN_1.c **** 
2019:.\Generated_Source\PSoC5/LIN_1.c ****             /* Previously transmitted and read back bytes are not equal */
2020:.\Generated_Source\PSoC5/LIN_1.c ****             if((((l_u8) LIN_1_interimChecksum) ^ 0xFFu) != LIN_1_UART_ReadRxData())
 2054              		.loc 1 2020 0
 2055 0684 40F20003 		movw	r3, #:lower16:LIN_1_interimChecksum.5054
 2056 0688 C0F20003 		movt	r3, #:upper16:LIN_1_interimChecksum.5054
 2057 068c 1B88     		ldrh	r3, [r3, #0]
 2058 068e DBB2     		uxtb	r3, r3
 2059 0690 6FEA0303 		mvn	r3, r3
 2060 0694 DCB2     		uxtb	r4, r3
 2061 0696 FFF7FEFF 		bl	LIN_1_UART_ReadRxData
 2062 069a 0346     		mov	r3, r0
 2063 069c 9C42     		cmp	r4, r3
 2064 069e 54D0     		beq	.L111
2021:.\Generated_Source\PSoC5/LIN_1.c ****             {
2022:.\Generated_Source\PSoC5/LIN_1.c ****                 /* Mismatch or Ckechsum Error */
2023:.\Generated_Source\PSoC5/LIN_1.c **** 
2024:.\Generated_Source\PSoC5/LIN_1.c ****                 /* Set response error */
2025:.\Generated_Source\PSoC5/LIN_1.c ****                 LIN_1_ifcStatus |= LIN_1_IFC_STS_ERROR_IN_RESPONSE;
 2065              		.loc 1 2025 0
 2066 06a0 40F20003 		movw	r3, #:lower16:LIN_1_ifcStatus
 2067 06a4 C0F20003 		movt	r3, #:upper16:LIN_1_ifcStatus
 2068 06a8 1B88     		ldrh	r3, [r3, #0]	@ movhi
 2069 06aa 9BB2     		uxth	r3, r3
 2070 06ac 43F00103 		orr	r3, r3, #1
 2071 06b0 9AB2     		uxth	r2, r3
 2072 06b2 40F20003 		movw	r3, #:lower16:LIN_1_ifcStatus
 2073 06b6 C0F20003 		movt	r3, #:upper16:LIN_1_ifcStatus
 2074 06ba 1A80     		strh	r2, [r3, #0]	@ movhi
2026:.\Generated_Source\PSoC5/LIN_1.c **** 
2027:.\Generated_Source\PSoC5/LIN_1.c ****                 #if(1u == LIN_1_SAE_J2602)
2028:.\Generated_Source\PSoC5/LIN_1.c **** 
2029:.\Generated_Source\PSoC5/LIN_1.c ****                     /* Set ERR2 and ERR0 bits */
2030:.\Generated_Source\PSoC5/LIN_1.c ****                     LIN_1_j2602Status |= LIN_1_J2602_STS_CHECKSUM_ERR;
2031:.\Generated_Source\PSoC5/LIN_1.c **** 
2032:.\Generated_Source\PSoC5/LIN_1.c ****                 #endif /* (1u == LIN_1_SAE_J2602) */
2033:.\Generated_Source\PSoC5/LIN_1.c **** 
2034:.\Generated_Source\PSoC5/LIN_1.c ****                 
ARM GAS  C:\Users\MATSUD~1\AppData\Local\Temp\ccLjdAaK.s 			page 74


2035:.\Generated_Source\PSoC5/LIN_1.c ****     /* Save current global interrupt enable and disable it */
2036:.\Generated_Source\PSoC5/LIN_1.c ****     interruptState = CyEnterCriticalSection();
 2075              		.loc 1 2036 0
 2076 06bc FFF7FEFF 		bl	CyEnterCriticalSection
 2077 06c0 0346     		mov	r3, r0
 2078 06c2 BB71     		strb	r3, [r7, #6]
2037:.\Generated_Source\PSoC5/LIN_1.c **** 
2038:.\Generated_Source\PSoC5/LIN_1.c ****         LIN_1_Buffer_Frame1[LIN_1_Response_Error_Frame1_SIG_BYTE_OFFSET] |= 
 2079              		.loc 1 2038 0
 2080 06c4 40F20003 		movw	r3, #:lower16:LIN_1_Buffer_Frame1
 2081 06c8 C0F20003 		movt	r3, #:upper16:LIN_1_Buffer_Frame1
 2082 06cc 1B78     		ldrb	r3, [r3, #0]
 2083 06ce DBB2     		uxtb	r3, r3
 2084 06d0 43F00403 		orr	r3, r3, #4
 2085 06d4 DAB2     		uxtb	r2, r3
 2086 06d6 40F20003 		movw	r3, #:lower16:LIN_1_Buffer_Frame1
 2087 06da C0F20003 		movt	r3, #:upper16:LIN_1_Buffer_Frame1
 2088 06de 1A70     		strb	r2, [r3, #0]
2039:.\Generated_Source\PSoC5/LIN_1.c ****                             LIN_1_Response_Error_Frame1_SIG_MASK_0;
2040:.\Generated_Source\PSoC5/LIN_1.c **** 
2041:.\Generated_Source\PSoC5/LIN_1.c ****     /* Restore global interrupt enable state */
2042:.\Generated_Source\PSoC5/LIN_1.c ****     CyExitCriticalSection(interruptState);
 2089              		.loc 1 2042 0
 2090 06e0 BB79     		ldrb	r3, [r7, #6]	@ zero_extendqisi2
 2091 06e2 1846     		mov	r0, r3
 2092 06e4 FFF7FEFF 		bl	CyExitCriticalSection
2043:.\Generated_Source\PSoC5/LIN_1.c **** 
2044:.\Generated_Source\PSoC5/LIN_1.c **** 
2045:.\Generated_Source\PSoC5/LIN_1.c ****                 /* Check for framing error */
2046:.\Generated_Source\PSoC5/LIN_1.c ****                 if(0u == (LIN_1_fsmFlags & LIN_1_FSM_FRAMING_ERROR_FLAG))
 2093              		.loc 1 2046 0
 2094 06e8 40F20003 		movw	r3, #:lower16:LIN_1_fsmFlags
 2095 06ec C0F20003 		movt	r3, #:upper16:LIN_1_fsmFlags
 2096 06f0 1B78     		ldrb	r3, [r3, #0]
 2097 06f2 DBB2     		uxtb	r3, r3
 2098 06f4 DBB2     		uxtb	r3, r3
 2099 06f6 5BB2     		sxtb	r3, r3
 2100 06f8 002B     		cmp	r3, #0
 2101 06fa 21DB     		blt	.L112
2047:.\Generated_Source\PSoC5/LIN_1.c ****                 {
2048:.\Generated_Source\PSoC5/LIN_1.c ****                     /* Save the last processed PID on the bus to the status variable */
2049:.\Generated_Source\PSoC5/LIN_1.c ****                     LIN_1_ifcStatus &= ((l_u16) ~LIN_1_IFC_STS_PID_MASK);
 2102              		.loc 1 2049 0
 2103 06fc 40F20003 		movw	r3, #:lower16:LIN_1_ifcStatus
 2104 0700 C0F20003 		movt	r3, #:upper16:LIN_1_ifcStatus
 2105 0704 1B88     		ldrh	r3, [r3, #0]	@ movhi
 2106 0706 9BB2     		uxth	r3, r3
 2107 0708 DBB2     		uxtb	r3, r3
 2108 070a 9AB2     		uxth	r2, r3
 2109 070c 40F20003 		movw	r3, #:lower16:LIN_1_ifcStatus
 2110 0710 C0F20003 		movt	r3, #:upper16:LIN_1_ifcStatus
 2111 0714 1A80     		strh	r2, [r3, #0]	@ movhi
2050:.\Generated_Source\PSoC5/LIN_1.c ****                     LIN_1_ifcStatus |= ((l_u16) (((l_u16)LIN_1_framePid) << 8u));
 2112              		.loc 1 2050 0
 2113 0716 40F20003 		movw	r3, #:lower16:LIN_1_framePid.5055
 2114 071a C0F20003 		movt	r3, #:upper16:LIN_1_framePid.5055
 2115 071e 1B78     		ldrb	r3, [r3, #0]	@ zero_extendqisi2
ARM GAS  C:\Users\MATSUD~1\AppData\Local\Temp\ccLjdAaK.s 			page 75


 2116 0720 4FEA0323 		lsl	r3, r3, #8
 2117 0724 9AB2     		uxth	r2, r3
 2118 0726 40F20003 		movw	r3, #:lower16:LIN_1_ifcStatus
 2119 072a C0F20003 		movt	r3, #:upper16:LIN_1_ifcStatus
 2120 072e 1B88     		ldrh	r3, [r3, #0]	@ movhi
 2121 0730 9BB2     		uxth	r3, r3
 2122 0732 1343     		orrs	r3, r3, r2
 2123 0734 9AB2     		uxth	r2, r3
 2124 0736 40F20003 		movw	r3, #:lower16:LIN_1_ifcStatus
 2125 073a C0F20003 		movt	r3, #:upper16:LIN_1_ifcStatus
 2126 073e 1A80     		strh	r2, [r3, #0]	@ movhi
 2127              	.L112:
2051:.\Generated_Source\PSoC5/LIN_1.c ****                 }
2052:.\Generated_Source\PSoC5/LIN_1.c **** 
2053:.\Generated_Source\PSoC5/LIN_1.c ****                 /* Reset UART state machine with checksum or mismatch error */
2054:.\Generated_Source\PSoC5/LIN_1.c ****                 LIN_1_EndFrame(LIN_1_HANDLING_DONT_SAVE_PID);
 2128              		.loc 1 2054 0
 2129 0740 4FF01000 		mov	r0, #16
 2130 0744 FFF7FEFF 		bl	LIN_1_EndFrame
 2131 0748 E9E0     		b	.L113
 2132              	.L111:
2055:.\Generated_Source\PSoC5/LIN_1.c ****             }
2056:.\Generated_Source\PSoC5/LIN_1.c ****             else
2057:.\Generated_Source\PSoC5/LIN_1.c ****             {
2058:.\Generated_Source\PSoC5/LIN_1.c ****                 /*  Clear all error bits in interface status */
2059:.\Generated_Source\PSoC5/LIN_1.c ****                 #if(1u == LIN_1_SAE_J2602)
2060:.\Generated_Source\PSoC5/LIN_1.c **** 
2061:.\Generated_Source\PSoC5/LIN_1.c ****                     LIN_1_j2602Status &= LIN_1_J2602_CLEAR_ERR_BITS_MASK;
2062:.\Generated_Source\PSoC5/LIN_1.c **** 
2063:.\Generated_Source\PSoC5/LIN_1.c ****                 #endif  /* (1u == LIN_1_SAE_J2602) */
2064:.\Generated_Source\PSoC5/LIN_1.c **** 
2065:.\Generated_Source\PSoC5/LIN_1.c **** 
2066:.\Generated_Source\PSoC5/LIN_1.c ****                 /* Clear framing error and data receive flags */
2067:.\Generated_Source\PSoC5/LIN_1.c ****                 LIN_1_fsmFlags &=
 2133              		.loc 1 2067 0
 2134 074a 40F20003 		movw	r3, #:lower16:LIN_1_fsmFlags
 2135 074e C0F20003 		movt	r3, #:upper16:LIN_1_fsmFlags
 2136 0752 1B78     		ldrb	r3, [r3, #0]
 2137 0754 DBB2     		uxtb	r3, r3
 2138 0756 03F07B03 		and	r3, r3, #123
 2139 075a DAB2     		uxtb	r2, r3
 2140 075c 40F20003 		movw	r3, #:lower16:LIN_1_fsmFlags
 2141 0760 C0F20003 		movt	r3, #:upper16:LIN_1_fsmFlags
 2142 0764 1A70     		strb	r2, [r3, #0]
2068:.\Generated_Source\PSoC5/LIN_1.c ****                    ((l_u8) ~(LIN_1_FSM_FRAMING_ERROR_FLAG | LIN_1_FSM_DATA_RECEIVE));
2069:.\Generated_Source\PSoC5/LIN_1.c **** 
2070:.\Generated_Source\PSoC5/LIN_1.c ****                 /* Set successful transfer interface flag */
2071:.\Generated_Source\PSoC5/LIN_1.c ****                 LIN_1_ifcStatus |= LIN_1_IFC_STS_SUCCESSFUL_TRANSFER;
 2143              		.loc 1 2071 0
 2144 0766 40F20003 		movw	r3, #:lower16:LIN_1_ifcStatus
 2145 076a C0F20003 		movt	r3, #:upper16:LIN_1_ifcStatus
 2146 076e 1B88     		ldrh	r3, [r3, #0]	@ movhi
 2147 0770 9BB2     		uxth	r3, r3
 2148 0772 43F00203 		orr	r3, r3, #2
 2149 0776 9AB2     		uxth	r2, r3
 2150 0778 40F20003 		movw	r3, #:lower16:LIN_1_ifcStatus
 2151 077c C0F20003 		movt	r3, #:upper16:LIN_1_ifcStatus
ARM GAS  C:\Users\MATSUD~1\AppData\Local\Temp\ccLjdAaK.s 			page 76


 2152 0780 1A80     		strh	r2, [r3, #0]	@ movhi
2072:.\Generated_Source\PSoC5/LIN_1.c **** 
2073:.\Generated_Source\PSoC5/LIN_1.c ****                 /* Save the last processed PID on the bus to the status variable */
2074:.\Generated_Source\PSoC5/LIN_1.c ****                 LIN_1_ifcStatus &= ((l_u16) ~LIN_1_IFC_STS_PID_MASK);
 2153              		.loc 1 2074 0
 2154 0782 40F20003 		movw	r3, #:lower16:LIN_1_ifcStatus
 2155 0786 C0F20003 		movt	r3, #:upper16:LIN_1_ifcStatus
 2156 078a 1B88     		ldrh	r3, [r3, #0]	@ movhi
 2157 078c 9BB2     		uxth	r3, r3
 2158 078e DBB2     		uxtb	r3, r3
 2159 0790 9AB2     		uxth	r2, r3
 2160 0792 40F20003 		movw	r3, #:lower16:LIN_1_ifcStatus
 2161 0796 C0F20003 		movt	r3, #:upper16:LIN_1_ifcStatus
 2162 079a 1A80     		strh	r2, [r3, #0]	@ movhi
2075:.\Generated_Source\PSoC5/LIN_1.c ****                 LIN_1_ifcStatus |= ((l_u16) (((l_u16)LIN_1_framePid) << 8u));
 2163              		.loc 1 2075 0
 2164 079c 40F20003 		movw	r3, #:lower16:LIN_1_framePid.5055
 2165 07a0 C0F20003 		movt	r3, #:upper16:LIN_1_framePid.5055
 2166 07a4 1B78     		ldrb	r3, [r3, #0]	@ zero_extendqisi2
 2167 07a6 4FEA0323 		lsl	r3, r3, #8
 2168 07aa 9AB2     		uxth	r2, r3
 2169 07ac 40F20003 		movw	r3, #:lower16:LIN_1_ifcStatus
 2170 07b0 C0F20003 		movt	r3, #:upper16:LIN_1_ifcStatus
 2171 07b4 1B88     		ldrh	r3, [r3, #0]	@ movhi
 2172 07b6 9BB2     		uxth	r3, r3
 2173 07b8 1343     		orrs	r3, r3, r2
 2174 07ba 9AB2     		uxth	r2, r3
 2175 07bc 40F20003 		movw	r3, #:lower16:LIN_1_ifcStatus
 2176 07c0 C0F20003 		movt	r3, #:upper16:LIN_1_ifcStatus
 2177 07c4 1A80     		strh	r2, [r3, #0]	@ movhi
2076:.\Generated_Source\PSoC5/LIN_1.c **** 
2077:.\Generated_Source\PSoC5/LIN_1.c ****                 /* Set overrun interface flag */
2078:.\Generated_Source\PSoC5/LIN_1.c ****                 if(0u != (LIN_1_FSM_OVERRUN & LIN_1_fsmFlags))
 2178              		.loc 1 2078 0
 2179 07c6 40F20003 		movw	r3, #:lower16:LIN_1_fsmFlags
 2180 07ca C0F20003 		movt	r3, #:upper16:LIN_1_fsmFlags
 2181 07ce 1B78     		ldrb	r3, [r3, #0]
 2182 07d0 DBB2     		uxtb	r3, r3
 2183 07d2 03F04003 		and	r3, r3, #64
 2184 07d6 DBB2     		uxtb	r3, r3
 2185 07d8 002B     		cmp	r3, #0
 2186 07da 0DD0     		beq	.L114
2079:.\Generated_Source\PSoC5/LIN_1.c ****                 {
2080:.\Generated_Source\PSoC5/LIN_1.c ****                     LIN_1_ifcStatus |= LIN_1_IFC_STS_OVERRUN;
 2187              		.loc 1 2080 0
 2188 07dc 40F20003 		movw	r3, #:lower16:LIN_1_ifcStatus
 2189 07e0 C0F20003 		movt	r3, #:upper16:LIN_1_ifcStatus
 2190 07e4 1B88     		ldrh	r3, [r3, #0]	@ movhi
 2191 07e6 9BB2     		uxth	r3, r3
 2192 07e8 43F00403 		orr	r3, r3, #4
 2193 07ec 9AB2     		uxth	r2, r3
 2194 07ee 40F20003 		movw	r3, #:lower16:LIN_1_ifcStatus
 2195 07f2 C0F20003 		movt	r3, #:upper16:LIN_1_ifcStatus
 2196 07f6 1A80     		strh	r2, [r3, #0]	@ movhi
 2197              	.L114:
2081:.\Generated_Source\PSoC5/LIN_1.c ****                 }
2082:.\Generated_Source\PSoC5/LIN_1.c **** 
ARM GAS  C:\Users\MATSUD~1\AppData\Local\Temp\ccLjdAaK.s 			page 77


2083:.\Generated_Source\PSoC5/LIN_1.c ****                 /* Set Overrun flag */
2084:.\Generated_Source\PSoC5/LIN_1.c ****                 LIN_1_fsmFlags |= LIN_1_FSM_OVERRUN;
 2198              		.loc 1 2084 0
 2199 07f8 40F20003 		movw	r3, #:lower16:LIN_1_fsmFlags
 2200 07fc C0F20003 		movt	r3, #:upper16:LIN_1_fsmFlags
 2201 0800 1B78     		ldrb	r3, [r3, #0]
 2202 0802 DBB2     		uxtb	r3, r3
 2203 0804 43F04003 		orr	r3, r3, #64
 2204 0808 DAB2     		uxtb	r2, r3
 2205 080a 40F20003 		movw	r3, #:lower16:LIN_1_fsmFlags
 2206 080e C0F20003 		movt	r3, #:upper16:LIN_1_fsmFlags
 2207 0812 1A70     		strb	r2, [r3, #0]
2085:.\Generated_Source\PSoC5/LIN_1.c **** 
2086:.\Generated_Source\PSoC5/LIN_1.c ****                 /* Clear response error signal if frame contains RESPONSE ERROR signal */
2087:.\Generated_Source\PSoC5/LIN_1.c ****                 #if(1u == LIN_1_RESPONSE_ERROR_SIGNAL)
2088:.\Generated_Source\PSoC5/LIN_1.c **** 
2089:.\Generated_Source\PSoC5/LIN_1.c ****                     if(LIN_1_RESPONSE_ERROR_FRAME_INDEX == LIN_1_pidIndex)
 2208              		.loc 1 2089 0
 2209 0814 40F20003 		movw	r3, #:lower16:LIN_1_pidIndex.5059
 2210 0818 C0F20003 		movt	r3, #:upper16:LIN_1_pidIndex.5059
 2211 081c 1B78     		ldrb	r3, [r3, #0]	@ zero_extendqisi2
 2212 081e 002B     		cmp	r3, #0
 2213 0820 15D1     		bne	.L115
2090:.\Generated_Source\PSoC5/LIN_1.c ****                     {
2091:.\Generated_Source\PSoC5/LIN_1.c ****                         
2092:.\Generated_Source\PSoC5/LIN_1.c ****     /* Save current global interrupt enable and disable it */
2093:.\Generated_Source\PSoC5/LIN_1.c ****     interruptState = CyEnterCriticalSection();
 2214              		.loc 1 2093 0
 2215 0822 FFF7FEFF 		bl	CyEnterCriticalSection
 2216 0826 0346     		mov	r3, r0
 2217 0828 BB71     		strb	r3, [r7, #6]
2094:.\Generated_Source\PSoC5/LIN_1.c **** 
2095:.\Generated_Source\PSoC5/LIN_1.c ****         LIN_1_Buffer_Frame1[LIN_1_Response_Error_Frame1_SIG_BYTE_OFFSET] &= 
 2218              		.loc 1 2095 0
 2219 082a 40F20003 		movw	r3, #:lower16:LIN_1_Buffer_Frame1
 2220 082e C0F20003 		movt	r3, #:upper16:LIN_1_Buffer_Frame1
 2221 0832 1B78     		ldrb	r3, [r3, #0]
 2222 0834 DBB2     		uxtb	r3, r3
 2223 0836 23F00403 		bic	r3, r3, #4
 2224 083a DAB2     		uxtb	r2, r3
 2225 083c 40F20003 		movw	r3, #:lower16:LIN_1_Buffer_Frame1
 2226 0840 C0F20003 		movt	r3, #:upper16:LIN_1_Buffer_Frame1
 2227 0844 1A70     		strb	r2, [r3, #0]
2096:.\Generated_Source\PSoC5/LIN_1.c ****                             (l_u8) ~LIN_1_Response_Error_Frame1_SIG_MASK_0;
2097:.\Generated_Source\PSoC5/LIN_1.c **** 
2098:.\Generated_Source\PSoC5/LIN_1.c ****     /* Restore global interrupt enable state */
2099:.\Generated_Source\PSoC5/LIN_1.c ****     CyExitCriticalSection(interruptState);
 2228              		.loc 1 2099 0
 2229 0846 BB79     		ldrb	r3, [r7, #6]	@ zero_extendqisi2
 2230 0848 1846     		mov	r0, r3
 2231 084a FFF7FEFF 		bl	CyExitCriticalSection
 2232              	.L115:
2100:.\Generated_Source\PSoC5/LIN_1.c **** 
2101:.\Generated_Source\PSoC5/LIN_1.c ****                     }
2102:.\Generated_Source\PSoC5/LIN_1.c **** 
2103:.\Generated_Source\PSoC5/LIN_1.c ****                 #endif /* (1u == LIN_1_RESPONSE_ERROR_SIGNAL) */
2104:.\Generated_Source\PSoC5/LIN_1.c **** 
ARM GAS  C:\Users\MATSUD~1\AppData\Local\Temp\ccLjdAaK.s 			page 78


2105:.\Generated_Source\PSoC5/LIN_1.c **** 
2106:.\Generated_Source\PSoC5/LIN_1.c ****                 #if(1u == LIN_1_TL_ENABLED)
2107:.\Generated_Source\PSoC5/LIN_1.c **** 
2108:.\Generated_Source\PSoC5/LIN_1.c ****                     if(!((LIN_1_FRAME_PID_MRF == LIN_1_framePid) ||
2109:.\Generated_Source\PSoC5/LIN_1.c ****                          (LIN_1_FRAME_PID_SRF == LIN_1_framePid)))
2110:.\Generated_Source\PSoC5/LIN_1.c ****                     {
2111:.\Generated_Source\PSoC5/LIN_1.c ****                         /* SAE J2602 is disabled */
2112:.\Generated_Source\PSoC5/LIN_1.c ****                         #if(0u == LIN_1_SAE_J2602)
2113:.\Generated_Source\PSoC5/LIN_1.c **** 
2114:.\Generated_Source\PSoC5/LIN_1.c ****                             /* This frame is event-triggered */
2115:.\Generated_Source\PSoC5/LIN_1.c ****                             if(0u  != (LIN_1_FRAME_TYPE_EVENT &
2116:.\Generated_Source\PSoC5/LIN_1.c ****                                        LIN_1_pidInfoTable[LIN_1_pidIndex].param))
2117:.\Generated_Source\PSoC5/LIN_1.c ****                             {
2118:.\Generated_Source\PSoC5/LIN_1.c ****                                 /* Clear event-triggered flags */
2119:.\Generated_Source\PSoC5/LIN_1.c ****                                 LIN_1_ClearEtFlagValue(LIN_1_pidIndex);
2120:.\Generated_Source\PSoC5/LIN_1.c **** 
2121:.\Generated_Source\PSoC5/LIN_1.c ****                                 /* Reset UART State Machine */
2122:.\Generated_Source\PSoC5/LIN_1.c ****                                LIN_1_EndFrame(LIN_1_HANDLING_RESET_FSM_ERR);
2123:.\Generated_Source\PSoC5/LIN_1.c ****                             }
2124:.\Generated_Source\PSoC5/LIN_1.c **** 
2125:.\Generated_Source\PSoC5/LIN_1.c ****                         #endif /* (0u == LIN_1_SAE_J2602) */
2126:.\Generated_Source\PSoC5/LIN_1.c **** 
2127:.\Generated_Source\PSoC5/LIN_1.c ****                         /* Set associated with current frame flags */
2128:.\Generated_Source\PSoC5/LIN_1.c ****                         LIN_1_SetAssociatedFlags(LIN_1_pidIndex);
2129:.\Generated_Source\PSoC5/LIN_1.c ****                     }
2130:.\Generated_Source\PSoC5/LIN_1.c **** 
2131:.\Generated_Source\PSoC5/LIN_1.c ****                 #else
2132:.\Generated_Source\PSoC5/LIN_1.c **** 
2133:.\Generated_Source\PSoC5/LIN_1.c ****                     /* SAE J2602 is disabled */
2134:.\Generated_Source\PSoC5/LIN_1.c ****                     #if(0u == LIN_1_SAE_J2602)
2135:.\Generated_Source\PSoC5/LIN_1.c **** 
2136:.\Generated_Source\PSoC5/LIN_1.c ****                         /* This frame is event-triggered */
2137:.\Generated_Source\PSoC5/LIN_1.c ****                         if(0u  != (LIN_1_FRAME_TYPE_EVENT &
2138:.\Generated_Source\PSoC5/LIN_1.c ****                                    LIN_1_pidInfoTable[LIN_1_pidIndex].param))
 2233              		.loc 1 2138 0
 2234 084e 40F20003 		movw	r3, #:lower16:LIN_1_pidIndex.5059
 2235 0852 C0F20003 		movt	r3, #:upper16:LIN_1_pidIndex.5059
 2236 0856 1B78     		ldrb	r3, [r3, #0]	@ zero_extendqisi2
 2237 0858 1A46     		mov	r2, r3
 2238 085a 40F20003 		movw	r3, #:lower16:LIN_1_pidInfoTable.5063
 2239 085e C0F20003 		movt	r3, #:upper16:LIN_1_pidInfoTable.5063
 2240 0862 13F83230 		ldrb	r3, [r3, r2, lsl #3]	@ zero_extendqisi2
2137:.\Generated_Source\PSoC5/LIN_1.c ****                         if(0u  != (LIN_1_FRAME_TYPE_EVENT &
 2241              		.loc 1 2137 0
 2242 0866 03F02003 		and	r3, r3, #32
 2243 086a DBB2     		uxtb	r3, r3
 2244 086c 002B     		cmp	r3, #0
 2245 086e 0BD0     		beq	.L116
2139:.\Generated_Source\PSoC5/LIN_1.c ****                         {
2140:.\Generated_Source\PSoC5/LIN_1.c ****                             /* Clear event-triggered flags */
2141:.\Generated_Source\PSoC5/LIN_1.c ****                             LIN_1_ClearEtFlagValue(LIN_1_pidIndex);
 2246              		.loc 1 2141 0
 2247 0870 40F20003 		movw	r3, #:lower16:LIN_1_pidIndex.5059
 2248 0874 C0F20003 		movt	r3, #:upper16:LIN_1_pidIndex.5059
 2249 0878 1B78     		ldrb	r3, [r3, #0]	@ zero_extendqisi2
 2250 087a 1846     		mov	r0, r3
 2251 087c FFF7FEFF 		bl	LIN_1_ClearEtFlagValue
ARM GAS  C:\Users\MATSUD~1\AppData\Local\Temp\ccLjdAaK.s 			page 79


2142:.\Generated_Source\PSoC5/LIN_1.c **** 
2143:.\Generated_Source\PSoC5/LIN_1.c ****                             /* Reset UART State Machine */
2144:.\Generated_Source\PSoC5/LIN_1.c ****                            LIN_1_EndFrame(LIN_1_HANDLING_RESET_FSM_ERR);
 2252              		.loc 1 2144 0
 2253 0880 4FF00100 		mov	r0, #1
 2254 0884 FFF7FEFF 		bl	LIN_1_EndFrame
 2255              	.L116:
2145:.\Generated_Source\PSoC5/LIN_1.c ****                         }
2146:.\Generated_Source\PSoC5/LIN_1.c **** 
2147:.\Generated_Source\PSoC5/LIN_1.c ****                     #endif /* (0u == LIN_1_SAE_J2602) */
2148:.\Generated_Source\PSoC5/LIN_1.c **** 
2149:.\Generated_Source\PSoC5/LIN_1.c ****                     /* Set associated with current frame flags */
2150:.\Generated_Source\PSoC5/LIN_1.c ****                     LIN_1_SetAssociatedFlags(LIN_1_pidIndex);
 2256              		.loc 1 2150 0
 2257 0888 40F20003 		movw	r3, #:lower16:LIN_1_pidIndex.5059
 2258 088c C0F20003 		movt	r3, #:upper16:LIN_1_pidIndex.5059
 2259 0890 1B78     		ldrb	r3, [r3, #0]	@ zero_extendqisi2
 2260 0892 1846     		mov	r0, r3
 2261 0894 FFF7FEFF 		bl	LIN_1_SetAssociatedFlags
2151:.\Generated_Source\PSoC5/LIN_1.c **** 
2152:.\Generated_Source\PSoC5/LIN_1.c ****                 #endif  /* (1u == LIN_1_TL_ENABLED) */
2153:.\Generated_Source\PSoC5/LIN_1.c **** 
2154:.\Generated_Source\PSoC5/LIN_1.c ****                 #if(1u == LIN_1_TL_ENABLED)
2155:.\Generated_Source\PSoC5/LIN_1.c **** 
2156:.\Generated_Source\PSoC5/LIN_1.c ****                     /* Check to see if received data was a "master request frame" */
2157:.\Generated_Source\PSoC5/LIN_1.c ****                     if(LIN_1_FRAME_PID_MRF == LIN_1_framePid)
2158:.\Generated_Source\PSoC5/LIN_1.c ****                     {
2159:.\Generated_Source\PSoC5/LIN_1.c ****                         /* Process master request frame data here */
2160:.\Generated_Source\PSoC5/LIN_1.c ****                         LIN_1_ProcessMrf(LIN_1_mrfBuffer);
2161:.\Generated_Source\PSoC5/LIN_1.c **** 
2162:.\Generated_Source\PSoC5/LIN_1.c ****                         #if(1u == LIN_1_TL_API_FORMAT)
2163:.\Generated_Source\PSoC5/LIN_1.c **** 
2164:.\Generated_Source\PSoC5/LIN_1.c ****                             /* Store previous PCI to avoid MISRA warning */
2165:.\Generated_Source\PSoC5/LIN_1.c ****                             tmpPci = LIN_1_prevPci;
2166:.\Generated_Source\PSoC5/LIN_1.c **** 
2167:.\Generated_Source\PSoC5/LIN_1.c ****                             if((LIN_1_PDU_PCI_TYPE_FF == tmpPci) ||
2168:.\Generated_Source\PSoC5/LIN_1.c ****                                 (LIN_1_PDU_PCI_TYPE_CF == tmpPci))
2169:.\Generated_Source\PSoC5/LIN_1.c ****                             {
2170:.\Generated_Source\PSoC5/LIN_1.c ****                                 LIN_1_tlFlags |= LIN_1_TL_N_CR_TIMEOUT_ON;
2171:.\Generated_Source\PSoC5/LIN_1.c ****                                 LIN_1_tlTimeoutCnt = 0u;
2172:.\Generated_Source\PSoC5/LIN_1.c ****                             }
2173:.\Generated_Source\PSoC5/LIN_1.c **** 
2174:.\Generated_Source\PSoC5/LIN_1.c ****                             if((0u == LIN_1_rxMessageLength) &&
2175:.\Generated_Source\PSoC5/LIN_1.c ****                                 ( 0u != (LIN_1_tlFlags & LIN_1_TL_RX_REQUESTED)))
2176:.\Generated_Source\PSoC5/LIN_1.c ****                             {
2177:.\Generated_Source\PSoC5/LIN_1.c ****                                 /* Indicate that message is received */
2178:.\Generated_Source\PSoC5/LIN_1.c ****                                 LIN_1_rxTlStatus = LD_COMPLETED;
2179:.\Generated_Source\PSoC5/LIN_1.c **** 
2180:.\Generated_Source\PSoC5/LIN_1.c ****                                 /* Reset the frame counter */
2181:.\Generated_Source\PSoC5/LIN_1.c ****                                 LIN_1_rxFrameCounter = 0u;
2182:.\Generated_Source\PSoC5/LIN_1.c **** 
2183:.\Generated_Source\PSoC5/LIN_1.c ****                                 /* Previous PCI is required to be unknown at the beginning of a new
2184:.\Generated_Source\PSoC5/LIN_1.c ****                                 LIN_1_prevPci = LIN_1_PDU_PCI_TYPE_UNKNOWN;
2185:.\Generated_Source\PSoC5/LIN_1.c **** 
2186:.\Generated_Source\PSoC5/LIN_1.c ****                                 /* Clear TX requested flag as the message was transferred */
2187:.\Generated_Source\PSoC5/LIN_1.c ****                                 LIN_1_tlFlags &= ((l_u8) ~LIN_1_TL_RX_REQUESTED);
2188:.\Generated_Source\PSoC5/LIN_1.c **** 
ARM GAS  C:\Users\MATSUD~1\AppData\Local\Temp\ccLjdAaK.s 			page 80


2189:.\Generated_Source\PSoC5/LIN_1.c ****                                 LIN_1_tlFlags &= ((l_u8) ~LIN_1_TL_N_CR_TIMEOUT_ON);
2190:.\Generated_Source\PSoC5/LIN_1.c ****                             }
2191:.\Generated_Source\PSoC5/LIN_1.c **** 
2192:.\Generated_Source\PSoC5/LIN_1.c ****                         #endif /* (1u == LIN_1_TL_API_FORMAT) */
2193:.\Generated_Source\PSoC5/LIN_1.c **** 
2194:.\Generated_Source\PSoC5/LIN_1.c ****                         /* Clear the TL RX direction flag */
2195:.\Generated_Source\PSoC5/LIN_1.c ****                         LIN_1_tlFlags &= ((l_u8) ~LIN_1_TL_RX_DIRECTION);
2196:.\Generated_Source\PSoC5/LIN_1.c **** 
2197:.\Generated_Source\PSoC5/LIN_1.c ****                         /* Reset UART state machine */
2198:.\Generated_Source\PSoC5/LIN_1.c ****                         LIN_1_EndFrame(LIN_1_HANDLING_RESET_FSM_ERR);
2199:.\Generated_Source\PSoC5/LIN_1.c ****                     }
2200:.\Generated_Source\PSoC5/LIN_1.c ****                     else if(LIN_1_FRAME_PID_SRF == LIN_1_framePid)
2201:.\Generated_Source\PSoC5/LIN_1.c ****                     {
2202:.\Generated_Source\PSoC5/LIN_1.c ****                         #if(1u == LIN_1_TL_API_FORMAT)
2203:.\Generated_Source\PSoC5/LIN_1.c **** 
2204:.\Generated_Source\PSoC5/LIN_1.c ****                             /* Store previous PCI to avoid MISRA warning */
2205:.\Generated_Source\PSoC5/LIN_1.c ****                             tmpPci = LIN_1_prevPci;
2206:.\Generated_Source\PSoC5/LIN_1.c **** 
2207:.\Generated_Source\PSoC5/LIN_1.c ****                             if((LIN_1_PDU_PCI_TYPE_FF == tmpPci) ||
2208:.\Generated_Source\PSoC5/LIN_1.c ****                                 (LIN_1_PDU_PCI_TYPE_CF == tmpPci))
2209:.\Generated_Source\PSoC5/LIN_1.c ****                             {
2210:.\Generated_Source\PSoC5/LIN_1.c ****                                 LIN_1_tlFlags |= LIN_1_TL_N_AS_TIMEOUT_ON;
2211:.\Generated_Source\PSoC5/LIN_1.c ****                                 LIN_1_tlTimeoutCnt = 0u;
2212:.\Generated_Source\PSoC5/LIN_1.c ****                             }
2213:.\Generated_Source\PSoC5/LIN_1.c **** 
2214:.\Generated_Source\PSoC5/LIN_1.c ****                             if((0u == LIN_1_txMessageLength) &&
2215:.\Generated_Source\PSoC5/LIN_1.c ****                                 ( 0u != (LIN_1_tlFlags & LIN_1_TL_TX_REQUESTED)))
2216:.\Generated_Source\PSoC5/LIN_1.c ****                             {
2217:.\Generated_Source\PSoC5/LIN_1.c ****                                 /* Indicate that message is sent */
2218:.\Generated_Source\PSoC5/LIN_1.c ****                                 LIN_1_txTlStatus = LD_COMPLETED;
2219:.\Generated_Source\PSoC5/LIN_1.c **** 
2220:.\Generated_Source\PSoC5/LIN_1.c ****                                 /* Reset the frame counter */
2221:.\Generated_Source\PSoC5/LIN_1.c ****                                 LIN_1_txFrameCounter = 0u;
2222:.\Generated_Source\PSoC5/LIN_1.c **** 
2223:.\Generated_Source\PSoC5/LIN_1.c ****                                 /* Previous PCI is required to be unknown at the beginning of a new
2224:.\Generated_Source\PSoC5/LIN_1.c ****                                 LIN_1_prevPci = LIN_1_PDU_PCI_TYPE_UNKNOWN;
2225:.\Generated_Source\PSoC5/LIN_1.c **** 
2226:.\Generated_Source\PSoC5/LIN_1.c ****                                 /* Clear TX requested flag as the message was transferred */
2227:.\Generated_Source\PSoC5/LIN_1.c ****                                 LIN_1_tlFlags &= (l_u8) ~LIN_1_TL_TX_REQUESTED;
2228:.\Generated_Source\PSoC5/LIN_1.c **** 
2229:.\Generated_Source\PSoC5/LIN_1.c ****                                 LIN_1_tlFlags &= (l_u8) ~LIN_1_TL_N_AS_TIMEOUT_ON;
2230:.\Generated_Source\PSoC5/LIN_1.c ****                             }
2231:.\Generated_Source\PSoC5/LIN_1.c **** 
2232:.\Generated_Source\PSoC5/LIN_1.c ****                         #endif /* (1u == LIN_1_TL_API_FORMAT) */
2233:.\Generated_Source\PSoC5/LIN_1.c **** 
2234:.\Generated_Source\PSoC5/LIN_1.c ****                         /* Clear the TL TX direction flag */
2235:.\Generated_Source\PSoC5/LIN_1.c ****                         LIN_1_tlFlags &= ((l_u8) ~LIN_1_TL_TX_DIRECTION);
2236:.\Generated_Source\PSoC5/LIN_1.c **** 
2237:.\Generated_Source\PSoC5/LIN_1.c ****                         /* Reset UART state machine */
2238:.\Generated_Source\PSoC5/LIN_1.c ****                         LIN_1_EndFrame(LIN_1_HANDLING_RESET_FSM_ERR);
2239:.\Generated_Source\PSoC5/LIN_1.c ****                     }
2240:.\Generated_Source\PSoC5/LIN_1.c ****                     else
2241:.\Generated_Source\PSoC5/LIN_1.c ****                     {
2242:.\Generated_Source\PSoC5/LIN_1.c ****                         /* RX response (subscribe action) was requested by Master */
2243:.\Generated_Source\PSoC5/LIN_1.c ****                         if(0u == (LIN_1_FRAME_DIR_PUBLISH &
2244:.\Generated_Source\PSoC5/LIN_1.c ****                                  LIN_1_pidInfoTable[LIN_1_pidIndex].param))
2245:.\Generated_Source\PSoC5/LIN_1.c ****                         {
ARM GAS  C:\Users\MATSUD~1\AppData\Local\Temp\ccLjdAaK.s 			page 81


2246:.\Generated_Source\PSoC5/LIN_1.c ****                             interruptState = CyEnterCriticalSection();
2247:.\Generated_Source\PSoC5/LIN_1.c **** 
2248:.\Generated_Source\PSoC5/LIN_1.c ****                             /* Copy received data from tempororary buffer to the frame one */
2249:.\Generated_Source\PSoC5/LIN_1.c ****                             for(i = 0u; i < LIN_1_frameSize; i++)
2250:.\Generated_Source\PSoC5/LIN_1.c ****                             {
2251:.\Generated_Source\PSoC5/LIN_1.c ****                                 *(LIN_1_pidInfoTable[LIN_1_pidIndex].dataPtr + i) =
2252:.\Generated_Source\PSoC5/LIN_1.c ****                                     LIN_1_tmpRxFrameData[i];
2253:.\Generated_Source\PSoC5/LIN_1.c ****                             }
2254:.\Generated_Source\PSoC5/LIN_1.c **** 
2255:.\Generated_Source\PSoC5/LIN_1.c ****                             CyExitCriticalSection(interruptState);
2256:.\Generated_Source\PSoC5/LIN_1.c ****                         }
2257:.\Generated_Source\PSoC5/LIN_1.c **** 
2258:.\Generated_Source\PSoC5/LIN_1.c ****                         /* Reset UART state machine */
2259:.\Generated_Source\PSoC5/LIN_1.c ****                         LIN_1_EndFrame(LIN_1_HANDLING_RESET_FSM_ERR);
2260:.\Generated_Source\PSoC5/LIN_1.c ****                     }
2261:.\Generated_Source\PSoC5/LIN_1.c **** 
2262:.\Generated_Source\PSoC5/LIN_1.c ****                 #else
2263:.\Generated_Source\PSoC5/LIN_1.c **** 
2264:.\Generated_Source\PSoC5/LIN_1.c ****                     /* RX response (subscribe action) was requested by Master */
2265:.\Generated_Source\PSoC5/LIN_1.c ****                     if(0u == (LIN_1_FRAME_DIR_PUBLISH &
2266:.\Generated_Source\PSoC5/LIN_1.c ****                              LIN_1_pidInfoTable[LIN_1_pidIndex].param))
 2262              		.loc 1 2266 0
 2263 0898 40F20003 		movw	r3, #:lower16:LIN_1_pidIndex.5059
 2264 089c C0F20003 		movt	r3, #:upper16:LIN_1_pidIndex.5059
 2265 08a0 1B78     		ldrb	r3, [r3, #0]	@ zero_extendqisi2
 2266 08a2 1A46     		mov	r2, r3
 2267 08a4 40F20003 		movw	r3, #:lower16:LIN_1_pidInfoTable.5063
 2268 08a8 C0F20003 		movt	r3, #:upper16:LIN_1_pidInfoTable.5063
 2269 08ac 13F83230 		ldrb	r3, [r3, r2, lsl #3]	@ zero_extendqisi2
2265:.\Generated_Source\PSoC5/LIN_1.c ****                     if(0u == (LIN_1_FRAME_DIR_PUBLISH &
 2270              		.loc 1 2265 0
 2271 08b0 03F01003 		and	r3, r3, #16
 2272 08b4 DBB2     		uxtb	r3, r3
 2273 08b6 002B     		cmp	r3, #0
 2274 08b8 2DD1     		bne	.L117
2267:.\Generated_Source\PSoC5/LIN_1.c ****                     {
2268:.\Generated_Source\PSoC5/LIN_1.c ****                         interruptState = CyEnterCriticalSection();
 2275              		.loc 1 2268 0
 2276 08ba FFF7FEFF 		bl	CyEnterCriticalSection
 2277 08be 0346     		mov	r3, r0
 2278 08c0 BB71     		strb	r3, [r7, #6]
2269:.\Generated_Source\PSoC5/LIN_1.c **** 
2270:.\Generated_Source\PSoC5/LIN_1.c ****                         /* Copy received data from tempororary buffer to the frame one */
2271:.\Generated_Source\PSoC5/LIN_1.c ****                         for(i = 0u; i < LIN_1_frameSize; i++)
 2279              		.loc 1 2271 0
 2280 08c2 4FF00003 		mov	r3, #0
 2281 08c6 FB71     		strb	r3, [r7, #7]
 2282 08c8 19E0     		b	.L118
 2283              	.L119:
2272:.\Generated_Source\PSoC5/LIN_1.c ****                         {
2273:.\Generated_Source\PSoC5/LIN_1.c ****                             *(LIN_1_pidInfoTable[LIN_1_pidIndex].dataPtr + i) =
 2284              		.loc 1 2273 0 discriminator 2
 2285 08ca 40F20003 		movw	r3, #:lower16:LIN_1_pidIndex.5059
 2286 08ce C0F20003 		movt	r3, #:upper16:LIN_1_pidIndex.5059
 2287 08d2 1B78     		ldrb	r3, [r3, #0]	@ zero_extendqisi2
 2288 08d4 40F20002 		movw	r2, #:lower16:LIN_1_pidInfoTable.5063
 2289 08d8 C0F20002 		movt	r2, #:upper16:LIN_1_pidInfoTable.5063
ARM GAS  C:\Users\MATSUD~1\AppData\Local\Temp\ccLjdAaK.s 			page 82


 2290 08dc 4FEAC303 		lsl	r3, r3, #3
 2291 08e0 D318     		adds	r3, r2, r3
 2292 08e2 5A68     		ldr	r2, [r3, #4]
 2293 08e4 FB79     		ldrb	r3, [r7, #7]	@ zero_extendqisi2
 2294 08e6 D218     		adds	r2, r2, r3
2274:.\Generated_Source\PSoC5/LIN_1.c ****                                 LIN_1_tmpRxFrameData[i];
 2295              		.loc 1 2274 0 discriminator 2
 2296 08e8 F979     		ldrb	r1, [r7, #7]	@ zero_extendqisi2
 2297 08ea 40F20003 		movw	r3, #:lower16:LIN_1_tmpRxFrameData.5060
 2298 08ee C0F20003 		movt	r3, #:upper16:LIN_1_tmpRxFrameData.5060
 2299 08f2 5B5C     		ldrb	r3, [r3, r1]	@ zero_extendqisi2
2273:.\Generated_Source\PSoC5/LIN_1.c ****                             *(LIN_1_pidInfoTable[LIN_1_pidIndex].dataPtr + i) =
 2300              		.loc 1 2273 0 discriminator 2
 2301 08f4 1370     		strb	r3, [r2, #0]
2271:.\Generated_Source\PSoC5/LIN_1.c ****                         for(i = 0u; i < LIN_1_frameSize; i++)
 2302              		.loc 1 2271 0 discriminator 2
 2303 08f6 FB79     		ldrb	r3, [r7, #7]
 2304 08f8 03F10103 		add	r3, r3, #1
 2305 08fc FB71     		strb	r3, [r7, #7]
 2306              	.L118:
2271:.\Generated_Source\PSoC5/LIN_1.c ****                         for(i = 0u; i < LIN_1_frameSize; i++)
 2307              		.loc 1 2271 0 is_stmt 0 discriminator 1
 2308 08fe 40F20003 		movw	r3, #:lower16:LIN_1_frameSize.5056
 2309 0902 C0F20003 		movt	r3, #:upper16:LIN_1_frameSize.5056
 2310 0906 1B78     		ldrb	r3, [r3, #0]	@ zero_extendqisi2
 2311 0908 FA79     		ldrb	r2, [r7, #7]	@ zero_extendqisi2
 2312 090a 9A42     		cmp	r2, r3
 2313 090c DDD3     		bcc	.L119
2275:.\Generated_Source\PSoC5/LIN_1.c ****                         }
2276:.\Generated_Source\PSoC5/LIN_1.c **** 
2277:.\Generated_Source\PSoC5/LIN_1.c ****                         CyExitCriticalSection(interruptState);
 2314              		.loc 1 2277 0 is_stmt 1
 2315 090e BB79     		ldrb	r3, [r7, #6]	@ zero_extendqisi2
 2316 0910 1846     		mov	r0, r3
 2317 0912 FFF7FEFF 		bl	CyExitCriticalSection
 2318              	.L117:
2278:.\Generated_Source\PSoC5/LIN_1.c ****                     }
2279:.\Generated_Source\PSoC5/LIN_1.c **** 
2280:.\Generated_Source\PSoC5/LIN_1.c ****                     /* Reset UART state machine */
2281:.\Generated_Source\PSoC5/LIN_1.c ****                     LIN_1_EndFrame(LIN_1_HANDLING_RESET_FSM_ERR);
 2319              		.loc 1 2281 0
 2320 0916 4FF00100 		mov	r0, #1
 2321 091a FFF7FEFF 		bl	LIN_1_EndFrame
 2322              	.L113:
2282:.\Generated_Source\PSoC5/LIN_1.c **** 
2283:.\Generated_Source\PSoC5/LIN_1.c ****                 #endif  /* (1u == LIN_1_TL_ENABLED) */
2284:.\Generated_Source\PSoC5/LIN_1.c **** 
2285:.\Generated_Source\PSoC5/LIN_1.c ****             }
2286:.\Generated_Source\PSoC5/LIN_1.c **** 
2287:.\Generated_Source\PSoC5/LIN_1.c ****             LIN_1_interimChecksum = 0u;
 2323              		.loc 1 2287 0
 2324 091e 40F20003 		movw	r3, #:lower16:LIN_1_interimChecksum.5054
 2325 0922 C0F20003 		movt	r3, #:upper16:LIN_1_interimChecksum.5054
 2326 0926 4FF00002 		mov	r2, #0
 2327 092a 1A80     		strh	r2, [r3, #0]	@ movhi
2288:.\Generated_Source\PSoC5/LIN_1.c **** 
2289:.\Generated_Source\PSoC5/LIN_1.c ****         break;
ARM GAS  C:\Users\MATSUD~1\AppData\Local\Temp\ccLjdAaK.s 			page 83


 2328              		.loc 1 2289 0
 2329 092c 06E0     		b	.L86
 2330              	.L89:
2290:.\Generated_Source\PSoC5/LIN_1.c **** 
2291:.\Generated_Source\PSoC5/LIN_1.c **** 
2292:.\Generated_Source\PSoC5/LIN_1.c ****         default:
2293:.\Generated_Source\PSoC5/LIN_1.c ****             /* Reset UART state machine */
2294:.\Generated_Source\PSoC5/LIN_1.c ****             LIN_1_EndFrame(LIN_1_HANDLING_RESET_FSM_ERR);
 2331              		.loc 1 2294 0
 2332 092e 4FF00100 		mov	r0, #1
 2333 0932 FFF7FEFF 		bl	LIN_1_EndFrame
2295:.\Generated_Source\PSoC5/LIN_1.c ****         break;
 2334              		.loc 1 2295 0
 2335 0936 00BF     		nop
 2336 0938 00E0     		b	.L86
 2337              	.L120:
2010:.\Generated_Source\PSoC5/LIN_1.c ****         break;
 2338              		.loc 1 2010 0
 2339 093a 00BF     		nop
 2340              	.L86:
2296:.\Generated_Source\PSoC5/LIN_1.c ****     }
2297:.\Generated_Source\PSoC5/LIN_1.c **** 
2298:.\Generated_Source\PSoC5/LIN_1.c **** 
2299:.\Generated_Source\PSoC5/LIN_1.c ****     /***************************************************************************
2300:.\Generated_Source\PSoC5/LIN_1.c ****     *  Place your UART ISR code here
2301:.\Generated_Source\PSoC5/LIN_1.c ****     ***************************************************************************/
2302:.\Generated_Source\PSoC5/LIN_1.c ****     /* `#START LIN_1_UART_ISR_CODE` */
2303:.\Generated_Source\PSoC5/LIN_1.c **** 
2304:.\Generated_Source\PSoC5/LIN_1.c ****     /* `#END` */
2305:.\Generated_Source\PSoC5/LIN_1.c **** }
 2341              		.loc 1 2305 0
 2342 093c 07F10C07 		add	r7, r7, #12
 2343 0940 BD46     		mov	sp, r7
 2344 0942 90BD     		pop	{r4, r7, pc}
 2345              		.cfi_endproc
 2346              	.LFE21:
 2347              		.size	l_ifc_rx_LIN_1, .-l_ifc_rx_LIN_1
 2348              		.section	.text.l_ifc_rx,"ax",%progbits
 2349              		.align	2
 2350              		.global	l_ifc_rx
 2351              		.thumb
 2352              		.thumb_func
 2353              		.type	l_ifc_rx, %function
 2354              	l_ifc_rx:
 2355              	.LFB22:
2306:.\Generated_Source\PSoC5/LIN_1.c **** 
2307:.\Generated_Source\PSoC5/LIN_1.c **** 
2308:.\Generated_Source\PSoC5/LIN_1.c **** /*******************************************************************************
2309:.\Generated_Source\PSoC5/LIN_1.c **** * Function Name: l_ifc_rx
2310:.\Generated_Source\PSoC5/LIN_1.c **** ********************************************************************************
2311:.\Generated_Source\PSoC5/LIN_1.c **** *
2312:.\Generated_Source\PSoC5/LIN_1.c **** * Summary:
2313:.\Generated_Source\PSoC5/LIN_1.c **** *  The LIN Slave component takes care of calling this API routine automatically.
2314:.\Generated_Source\PSoC5/LIN_1.c **** *  Therefore, this API routine must not be called by the application code.
2315:.\Generated_Source\PSoC5/LIN_1.c **** *
2316:.\Generated_Source\PSoC5/LIN_1.c **** * Parameters:
2317:.\Generated_Source\PSoC5/LIN_1.c **** *  iii - is the name of the interface handle.
ARM GAS  C:\Users\MATSUD~1\AppData\Local\Temp\ccLjdAaK.s 			page 84


2318:.\Generated_Source\PSoC5/LIN_1.c **** *
2319:.\Generated_Source\PSoC5/LIN_1.c **** * Return:
2320:.\Generated_Source\PSoC5/LIN_1.c **** *  None
2321:.\Generated_Source\PSoC5/LIN_1.c **** *
2322:.\Generated_Source\PSoC5/LIN_1.c **** * Reentrant:
2323:.\Generated_Source\PSoC5/LIN_1.c **** *  No
2324:.\Generated_Source\PSoC5/LIN_1.c **** *
2325:.\Generated_Source\PSoC5/LIN_1.c **** *******************************************************************************/
2326:.\Generated_Source\PSoC5/LIN_1.c **** void l_ifc_rx(l_ifc_handle iii) 
2327:.\Generated_Source\PSoC5/LIN_1.c **** {
 2356              		.loc 1 2327 0
 2357              		.cfi_startproc
 2358              		@ args = 0, pretend = 0, frame = 8
 2359              		@ frame_needed = 1, uses_anonymous_args = 0
 2360 0000 80B5     		push	{r7, lr}
 2361              	.LCFI59:
 2362              		.cfi_def_cfa_offset 8
 2363              		.cfi_offset 7, -8
 2364              		.cfi_offset 14, -4
 2365 0002 82B0     		sub	sp, sp, #8
 2366              	.LCFI60:
 2367              		.cfi_def_cfa_offset 16
 2368 0004 00AF     		add	r7, sp, #0
 2369              	.LCFI61:
 2370              		.cfi_def_cfa_register 7
 2371 0006 0346     		mov	r3, r0
 2372 0008 FB71     		strb	r3, [r7, #7]
2328:.\Generated_Source\PSoC5/LIN_1.c ****     switch(iii)
 2373              		.loc 1 2328 0
 2374 000a FB79     		ldrb	r3, [r7, #7]	@ zero_extendqisi2
 2375 000c 002B     		cmp	r3, #0
 2376 000e 02D1     		bne	.L125
 2377              	.L123:
2329:.\Generated_Source\PSoC5/LIN_1.c ****     {
2330:.\Generated_Source\PSoC5/LIN_1.c ****         case LIN_1_IFC_HANDLE:
2331:.\Generated_Source\PSoC5/LIN_1.c ****             l_ifc_rx_LIN_1();
 2378              		.loc 1 2331 0
 2379 0010 FFF7FEFF 		bl	l_ifc_rx_LIN_1
2332:.\Generated_Source\PSoC5/LIN_1.c ****         break;
 2380              		.loc 1 2332 0
 2381 0014 00E0     		b	.L121
 2382              	.L125:
2333:.\Generated_Source\PSoC5/LIN_1.c **** 
2334:.\Generated_Source\PSoC5/LIN_1.c ****         default:
2335:.\Generated_Source\PSoC5/LIN_1.c ****         break;
 2383              		.loc 1 2335 0
 2384 0016 00BF     		nop
 2385              	.L121:
2336:.\Generated_Source\PSoC5/LIN_1.c ****     }
2337:.\Generated_Source\PSoC5/LIN_1.c **** }
 2386              		.loc 1 2337 0
 2387 0018 07F10807 		add	r7, r7, #8
 2388 001c BD46     		mov	sp, r7
 2389 001e 80BD     		pop	{r7, pc}
 2390              		.cfi_endproc
 2391              	.LFE22:
 2392              		.size	l_ifc_rx, .-l_ifc_rx
ARM GAS  C:\Users\MATSUD~1\AppData\Local\Temp\ccLjdAaK.s 			page 85


 2393              		.section	.text.l_ifc_tx_LIN_1,"ax",%progbits
 2394              		.align	2
 2395              		.global	l_ifc_tx_LIN_1
 2396              		.thumb
 2397              		.thumb_func
 2398              		.type	l_ifc_tx_LIN_1, %function
 2399              	l_ifc_tx_LIN_1:
 2400              	.LFB23:
2338:.\Generated_Source\PSoC5/LIN_1.c **** 
2339:.\Generated_Source\PSoC5/LIN_1.c **** 
2340:.\Generated_Source\PSoC5/LIN_1.c **** /*******************************************************************************
2341:.\Generated_Source\PSoC5/LIN_1.c **** * Function Name: l_ifc_rx
2342:.\Generated_Source\PSoC5/LIN_1.c **** ********************************************************************************
2343:.\Generated_Source\PSoC5/LIN_1.c **** *
2344:.\Generated_Source\PSoC5/LIN_1.c **** * Summary:
2345:.\Generated_Source\PSoC5/LIN_1.c **** *  The LIN Slave component takes care of calling this API routine automatically.
2346:.\Generated_Source\PSoC5/LIN_1.c **** *  Therefore, this API routine must not be called by the application code.
2347:.\Generated_Source\PSoC5/LIN_1.c **** *
2348:.\Generated_Source\PSoC5/LIN_1.c **** * Parameters:
2349:.\Generated_Source\PSoC5/LIN_1.c **** *  None
2350:.\Generated_Source\PSoC5/LIN_1.c **** *
2351:.\Generated_Source\PSoC5/LIN_1.c **** * Return:
2352:.\Generated_Source\PSoC5/LIN_1.c **** *  None
2353:.\Generated_Source\PSoC5/LIN_1.c **** *
2354:.\Generated_Source\PSoC5/LIN_1.c **** * Reentrant:
2355:.\Generated_Source\PSoC5/LIN_1.c **** *  No
2356:.\Generated_Source\PSoC5/LIN_1.c **** *
2357:.\Generated_Source\PSoC5/LIN_1.c **** *******************************************************************************/
2358:.\Generated_Source\PSoC5/LIN_1.c **** void l_ifc_tx_LIN_1(void) 
2359:.\Generated_Source\PSoC5/LIN_1.c **** {
 2401              		.loc 1 2359 0
 2402              		.cfi_startproc
 2403              		@ args = 0, pretend = 0, frame = 0
 2404              		@ frame_needed = 1, uses_anonymous_args = 0
 2405 0000 80B5     		push	{r7, lr}
 2406              	.LCFI62:
 2407              		.cfi_def_cfa_offset 8
 2408              		.cfi_offset 7, -8
 2409              		.cfi_offset 14, -4
 2410 0002 00AF     		add	r7, sp, #0
 2411              	.LCFI63:
 2412              		.cfi_def_cfa_register 7
2360:.\Generated_Source\PSoC5/LIN_1.c ****     l_ifc_rx_LIN_1();
 2413              		.loc 1 2360 0
 2414 0004 FFF7FEFF 		bl	l_ifc_rx_LIN_1
2361:.\Generated_Source\PSoC5/LIN_1.c **** }
 2415              		.loc 1 2361 0
 2416 0008 80BD     		pop	{r7, pc}
 2417              		.cfi_endproc
 2418              	.LFE23:
 2419              		.size	l_ifc_tx_LIN_1, .-l_ifc_tx_LIN_1
 2420 000a 00BF     		.section	.text.l_ifc_tx,"ax",%progbits
 2421              		.align	2
 2422              		.global	l_ifc_tx
 2423              		.thumb
 2424              		.thumb_func
 2425              		.type	l_ifc_tx, %function
ARM GAS  C:\Users\MATSUD~1\AppData\Local\Temp\ccLjdAaK.s 			page 86


 2426              	l_ifc_tx:
 2427              	.LFB24:
2362:.\Generated_Source\PSoC5/LIN_1.c **** 
2363:.\Generated_Source\PSoC5/LIN_1.c **** 
2364:.\Generated_Source\PSoC5/LIN_1.c **** /*******************************************************************************
2365:.\Generated_Source\PSoC5/LIN_1.c **** * Function Name: l_ifc_tx
2366:.\Generated_Source\PSoC5/LIN_1.c **** ********************************************************************************
2367:.\Generated_Source\PSoC5/LIN_1.c **** *
2368:.\Generated_Source\PSoC5/LIN_1.c **** * Summary:
2369:.\Generated_Source\PSoC5/LIN_1.c **** *  The LIN Slave component takes care of calling this API routine automatically.
2370:.\Generated_Source\PSoC5/LIN_1.c **** *  Therefore, this API routine must not be called by the application code.
2371:.\Generated_Source\PSoC5/LIN_1.c **** *
2372:.\Generated_Source\PSoC5/LIN_1.c **** * Parameters:
2373:.\Generated_Source\PSoC5/LIN_1.c **** *  iii - is the name of the interface handle.
2374:.\Generated_Source\PSoC5/LIN_1.c **** *
2375:.\Generated_Source\PSoC5/LIN_1.c **** * Return:
2376:.\Generated_Source\PSoC5/LIN_1.c **** *  None
2377:.\Generated_Source\PSoC5/LIN_1.c **** *
2378:.\Generated_Source\PSoC5/LIN_1.c **** * Reentrant:
2379:.\Generated_Source\PSoC5/LIN_1.c **** *  No
2380:.\Generated_Source\PSoC5/LIN_1.c **** *
2381:.\Generated_Source\PSoC5/LIN_1.c **** *******************************************************************************/
2382:.\Generated_Source\PSoC5/LIN_1.c **** void l_ifc_tx(l_ifc_handle iii) 
2383:.\Generated_Source\PSoC5/LIN_1.c **** {
 2428              		.loc 1 2383 0
 2429              		.cfi_startproc
 2430              		@ args = 0, pretend = 0, frame = 8
 2431              		@ frame_needed = 1, uses_anonymous_args = 0
 2432 0000 80B5     		push	{r7, lr}
 2433              	.LCFI64:
 2434              		.cfi_def_cfa_offset 8
 2435              		.cfi_offset 7, -8
 2436              		.cfi_offset 14, -4
 2437 0002 82B0     		sub	sp, sp, #8
 2438              	.LCFI65:
 2439              		.cfi_def_cfa_offset 16
 2440 0004 00AF     		add	r7, sp, #0
 2441              	.LCFI66:
 2442              		.cfi_def_cfa_register 7
 2443 0006 0346     		mov	r3, r0
 2444 0008 FB71     		strb	r3, [r7, #7]
2384:.\Generated_Source\PSoC5/LIN_1.c ****     switch(iii)
 2445              		.loc 1 2384 0
 2446 000a FB79     		ldrb	r3, [r7, #7]	@ zero_extendqisi2
 2447 000c 002B     		cmp	r3, #0
 2448 000e 02D1     		bne	.L131
 2449              	.L129:
2385:.\Generated_Source\PSoC5/LIN_1.c ****     {
2386:.\Generated_Source\PSoC5/LIN_1.c ****         case LIN_1_IFC_HANDLE:
2387:.\Generated_Source\PSoC5/LIN_1.c ****             l_ifc_tx_LIN_1();
 2450              		.loc 1 2387 0
 2451 0010 FFF7FEFF 		bl	l_ifc_tx_LIN_1
2388:.\Generated_Source\PSoC5/LIN_1.c ****         break;
 2452              		.loc 1 2388 0
 2453 0014 00E0     		b	.L127
 2454              	.L131:
2389:.\Generated_Source\PSoC5/LIN_1.c **** 
ARM GAS  C:\Users\MATSUD~1\AppData\Local\Temp\ccLjdAaK.s 			page 87


2390:.\Generated_Source\PSoC5/LIN_1.c ****         default:
2391:.\Generated_Source\PSoC5/LIN_1.c ****         break;
 2455              		.loc 1 2391 0
 2456 0016 00BF     		nop
 2457              	.L127:
2392:.\Generated_Source\PSoC5/LIN_1.c ****     }
2393:.\Generated_Source\PSoC5/LIN_1.c **** }
 2458              		.loc 1 2393 0
 2459 0018 07F10807 		add	r7, r7, #8
 2460 001c BD46     		mov	sp, r7
 2461 001e 80BD     		pop	{r7, pc}
 2462              		.cfi_endproc
 2463              	.LFE24:
 2464              		.size	l_ifc_tx, .-l_ifc_tx
 2465              		.section	.text.l_ifc_aux_LIN_1,"ax",%progbits
 2466              		.align	2
 2467              		.global	l_ifc_aux_LIN_1
 2468              		.thumb
 2469              		.thumb_func
 2470              		.type	l_ifc_aux_LIN_1, %function
 2471              	l_ifc_aux_LIN_1:
 2472              	.LFB25:
2394:.\Generated_Source\PSoC5/LIN_1.c **** 
2395:.\Generated_Source\PSoC5/LIN_1.c **** 
2396:.\Generated_Source\PSoC5/LIN_1.c **** /*******************************************************************************
2397:.\Generated_Source\PSoC5/LIN_1.c **** * Function Name: l_ifc_aux
2398:.\Generated_Source\PSoC5/LIN_1.c **** ********************************************************************************
2399:.\Generated_Source\PSoC5/LIN_1.c **** *
2400:.\Generated_Source\PSoC5/LIN_1.c **** * Summary:
2401:.\Generated_Source\PSoC5/LIN_1.c **** *  The LIN Slave component takes care of calling this API routine automatically.
2402:.\Generated_Source\PSoC5/LIN_1.c **** *  Therefore, this API routine must not be called by the application code.
2403:.\Generated_Source\PSoC5/LIN_1.c **** *
2404:.\Generated_Source\PSoC5/LIN_1.c **** * Parameters:
2405:.\Generated_Source\PSoC5/LIN_1.c **** *  None
2406:.\Generated_Source\PSoC5/LIN_1.c **** *
2407:.\Generated_Source\PSoC5/LIN_1.c **** * Return:
2408:.\Generated_Source\PSoC5/LIN_1.c **** *  None
2409:.\Generated_Source\PSoC5/LIN_1.c **** *
2410:.\Generated_Source\PSoC5/LIN_1.c **** * Reentrant:
2411:.\Generated_Source\PSoC5/LIN_1.c **** *  No
2412:.\Generated_Source\PSoC5/LIN_1.c **** *
2413:.\Generated_Source\PSoC5/LIN_1.c **** *******************************************************************************/
2414:.\Generated_Source\PSoC5/LIN_1.c **** void l_ifc_aux_LIN_1(void) 
2415:.\Generated_Source\PSoC5/LIN_1.c **** {
 2473              		.loc 1 2415 0
 2474              		.cfi_startproc
 2475              		@ args = 0, pretend = 0, frame = 8
 2476              		@ frame_needed = 1, uses_anonymous_args = 0
 2477 0000 80B5     		push	{r7, lr}
 2478              	.LCFI67:
 2479              		.cfi_def_cfa_offset 8
 2480              		.cfi_offset 7, -8
 2481              		.cfi_offset 14, -4
 2482 0002 82B0     		sub	sp, sp, #8
 2483              	.LCFI68:
 2484              		.cfi_def_cfa_offset 16
 2485 0004 00AF     		add	r7, sp, #0
ARM GAS  C:\Users\MATSUD~1\AppData\Local\Temp\ccLjdAaK.s 			page 88


 2486              	.LCFI69:
 2487              		.cfi_def_cfa_register 7
2416:.\Generated_Source\PSoC5/LIN_1.c ****     l_u8 interruptState;
2417:.\Generated_Source\PSoC5/LIN_1.c **** 
2418:.\Generated_Source\PSoC5/LIN_1.c ****     /* Update shadow status register with the hardware status */
2419:.\Generated_Source\PSoC5/LIN_1.c ****     LIN_1_auxStatus |= LIN_1_STATUS_REG;
 2488              		.loc 1 2419 0
 2489 0006 46F26643 		movw	r3, #25702
 2490 000a C4F20003 		movt	r3, 16384
 2491 000e 1B78     		ldrb	r3, [r3, #0]
 2492 0010 DAB2     		uxtb	r2, r3
 2493 0012 40F20003 		movw	r3, #:lower16:LIN_1_auxStatus
 2494 0016 C0F20003 		movt	r3, #:upper16:LIN_1_auxStatus
 2495 001a 1B78     		ldrb	r3, [r3, #0]
 2496 001c DBB2     		uxtb	r3, r3
 2497 001e 1343     		orrs	r3, r3, r2
 2498 0020 DAB2     		uxtb	r2, r3
 2499 0022 40F20003 		movw	r3, #:lower16:LIN_1_auxStatus
 2500 0026 C0F20003 		movt	r3, #:upper16:LIN_1_auxStatus
 2501 002a 1A70     		strb	r2, [r3, #0]
2420:.\Generated_Source\PSoC5/LIN_1.c **** 
2421:.\Generated_Source\PSoC5/LIN_1.c ****     /***************************************************************************
2422:.\Generated_Source\PSoC5/LIN_1.c ****     *                             Edge Detected                                *
2423:.\Generated_Source\PSoC5/LIN_1.c ****     ***************************************************************************/
2424:.\Generated_Source\PSoC5/LIN_1.c ****     if(0u != (LIN_1_auxStatus & LIN_1_STATUS_EDGE_DETECTED))
 2502              		.loc 1 2424 0
 2503 002c 40F20003 		movw	r3, #:lower16:LIN_1_auxStatus
 2504 0030 C0F20003 		movt	r3, #:upper16:LIN_1_auxStatus
 2505 0034 1B78     		ldrb	r3, [r3, #0]
 2506 0036 DBB2     		uxtb	r3, r3
 2507 0038 03F00203 		and	r3, r3, #2
 2508 003c 002B     		cmp	r3, #0
 2509 003e 14D0     		beq	.L133
2425:.\Generated_Source\PSoC5/LIN_1.c ****     {
2426:.\Generated_Source\PSoC5/LIN_1.c ****         /* Set bus activity interface status bit */
2427:.\Generated_Source\PSoC5/LIN_1.c ****         LIN_1_ifcStatus |= LIN_1_IFC_STS_BUS_ACTIVITY;
 2510              		.loc 1 2427 0
 2511 0040 40F20003 		movw	r3, #:lower16:LIN_1_ifcStatus
 2512 0044 C0F20003 		movt	r3, #:upper16:LIN_1_ifcStatus
 2513 0048 1B88     		ldrh	r3, [r3, #0]	@ movhi
 2514 004a 9BB2     		uxth	r3, r3
 2515 004c 43F01003 		orr	r3, r3, #16
 2516 0050 9AB2     		uxth	r2, r3
 2517 0052 40F20003 		movw	r3, #:lower16:LIN_1_ifcStatus
 2518 0056 C0F20003 		movt	r3, #:upper16:LIN_1_ifcStatus
 2519 005a 1A80     		strh	r2, [r3, #0]	@ movhi
2428:.\Generated_Source\PSoC5/LIN_1.c **** 
2429:.\Generated_Source\PSoC5/LIN_1.c ****         #if(1u == LIN_1_INACTIVITY_ENABLED)
2430:.\Generated_Source\PSoC5/LIN_1.c **** 
2431:.\Generated_Source\PSoC5/LIN_1.c ****             /* Clear period timer counter */
2432:.\Generated_Source\PSoC5/LIN_1.c ****             LIN_1_periodCounter = 0x00u;
 2520              		.loc 1 2432 0
 2521 005c 40F20003 		movw	r3, #:lower16:LIN_1_periodCounter
 2522 0060 C0F20003 		movt	r3, #:upper16:LIN_1_periodCounter
 2523 0064 4FF00002 		mov	r2, #0
 2524 0068 1A70     		strb	r2, [r3, #0]
 2525              	.L133:
ARM GAS  C:\Users\MATSUD~1\AppData\Local\Temp\ccLjdAaK.s 			page 89


2433:.\Generated_Source\PSoC5/LIN_1.c **** 
2434:.\Generated_Source\PSoC5/LIN_1.c ****         #endif /* (1u == LIN_1_INACTIVITY_ENABLED) */
2435:.\Generated_Source\PSoC5/LIN_1.c ****     }
2436:.\Generated_Source\PSoC5/LIN_1.c **** 
2437:.\Generated_Source\PSoC5/LIN_1.c **** 
2438:.\Generated_Source\PSoC5/LIN_1.c ****     /***************************************************************************
2439:.\Generated_Source\PSoC5/LIN_1.c ****     *                       Bus Inactivity Interrupt Detected
2440:.\Generated_Source\PSoC5/LIN_1.c ****     ***************************************************************************/
2441:.\Generated_Source\PSoC5/LIN_1.c ****     #if(1u == LIN_1_INACTIVITY_ENABLED)
2442:.\Generated_Source\PSoC5/LIN_1.c **** 
2443:.\Generated_Source\PSoC5/LIN_1.c ****         if(0u != (LIN_1_auxStatus & LIN_1_STATUS_INACTIVITY_INT))
 2526              		.loc 1 2443 0
 2527 006a 40F20003 		movw	r3, #:lower16:LIN_1_auxStatus
 2528 006e C0F20003 		movt	r3, #:upper16:LIN_1_auxStatus
 2529 0072 1B78     		ldrb	r3, [r3, #0]
 2530 0074 DBB2     		uxtb	r3, r3
 2531 0076 03F00403 		and	r3, r3, #4
 2532 007a 002B     		cmp	r3, #0
 2533 007c 22D0     		beq	.L134
2444:.\Generated_Source\PSoC5/LIN_1.c ****         {
2445:.\Generated_Source\PSoC5/LIN_1.c ****             #if(1u == LIN_1_TL_ENABLED)              /* TL enabled */
2446:.\Generated_Source\PSoC5/LIN_1.c ****                 #if(1u == LIN_1_TL_API_FORMAT)       /* Cooked API */
2447:.\Generated_Source\PSoC5/LIN_1.c **** 
2448:.\Generated_Source\PSoC5/LIN_1.c ****                     /* if the timeout is enabled then proceed timeout manage */
2449:.\Generated_Source\PSoC5/LIN_1.c ****                     if(0u !=(LIN_1_tlFlags & LIN_1_TL_N_AS_TIMEOUT_ON))
2450:.\Generated_Source\PSoC5/LIN_1.c ****                     {
2451:.\Generated_Source\PSoC5/LIN_1.c ****                         /* Increment timeout */
2452:.\Generated_Source\PSoC5/LIN_1.c ****                         LIN_1_tlTimeoutCnt++;
2453:.\Generated_Source\PSoC5/LIN_1.c **** 
2454:.\Generated_Source\PSoC5/LIN_1.c ****                         if(LIN_1_TL_N_AS_TIMEOUT_VALUE <= LIN_1_tlTimeoutCnt)
2455:.\Generated_Source\PSoC5/LIN_1.c ****                         {
2456:.\Generated_Source\PSoC5/LIN_1.c ****                             /* Set error status as the timeout occurred */
2457:.\Generated_Source\PSoC5/LIN_1.c ****                             LIN_1_txTlStatus = LD_N_AS_TIMEOUT;
2458:.\Generated_Source\PSoC5/LIN_1.c ****                         }
2459:.\Generated_Source\PSoC5/LIN_1.c ****                     }
2460:.\Generated_Source\PSoC5/LIN_1.c ****                     else if(0u !=(LIN_1_tlFlags & LIN_1_TL_N_CR_TIMEOUT_ON))
2461:.\Generated_Source\PSoC5/LIN_1.c ****                     {
2462:.\Generated_Source\PSoC5/LIN_1.c ****                         /* Increment timeout */
2463:.\Generated_Source\PSoC5/LIN_1.c ****                         LIN_1_tlTimeoutCnt++;
2464:.\Generated_Source\PSoC5/LIN_1.c **** 
2465:.\Generated_Source\PSoC5/LIN_1.c ****                         if(LIN_1_TL_N_CR_TIMEOUT_VALUE <= LIN_1_tlTimeoutCnt)
2466:.\Generated_Source\PSoC5/LIN_1.c ****                         {
2467:.\Generated_Source\PSoC5/LIN_1.c ****                             /* Set error status as the timeout occurred */
2468:.\Generated_Source\PSoC5/LIN_1.c ****                             LIN_1_rxTlStatus = LD_N_CR_TIMEOUT;
2469:.\Generated_Source\PSoC5/LIN_1.c ****                         }
2470:.\Generated_Source\PSoC5/LIN_1.c ****                     }
2471:.\Generated_Source\PSoC5/LIN_1.c ****                     else
2472:.\Generated_Source\PSoC5/LIN_1.c ****                     {
2473:.\Generated_Source\PSoC5/LIN_1.c ****                         /* Reset timeout counter */
2474:.\Generated_Source\PSoC5/LIN_1.c ****                         LIN_1_tlTimeoutCnt = 0u;
2475:.\Generated_Source\PSoC5/LIN_1.c ****                     }
2476:.\Generated_Source\PSoC5/LIN_1.c **** 
2477:.\Generated_Source\PSoC5/LIN_1.c ****                 #endif /* (1u == LIN_1_TL_API_FORMAT) */
2478:.\Generated_Source\PSoC5/LIN_1.c ****             #endif /* (1u == LIN_1_TL_ENABLED) */
2479:.\Generated_Source\PSoC5/LIN_1.c **** 
2480:.\Generated_Source\PSoC5/LIN_1.c ****             if(LIN_1_INACTIVITY_THRESHOLD_IN_100_MS == LIN_1_periodCounter)
 2534              		.loc 1 2480 0
ARM GAS  C:\Users\MATSUD~1\AppData\Local\Temp\ccLjdAaK.s 			page 90


 2535 007e 40F20003 		movw	r3, #:lower16:LIN_1_periodCounter
 2536 0082 C0F20003 		movt	r3, #:upper16:LIN_1_periodCounter
 2537 0086 1B78     		ldrb	r3, [r3, #0]	@ zero_extendqisi2
 2538 0088 462B     		cmp	r3, #70
 2539 008a 0ED1     		bne	.L135
2481:.\Generated_Source\PSoC5/LIN_1.c ****             {
2482:.\Generated_Source\PSoC5/LIN_1.c ****                 /* Inactivity threshold achieved */
2483:.\Generated_Source\PSoC5/LIN_1.c **** 
2484:.\Generated_Source\PSoC5/LIN_1.c ****                 /* Set bus inactivity ioctl status bit */
2485:.\Generated_Source\PSoC5/LIN_1.c ****                 LIN_1_ioctlStatus |= LIN_1_IOCTL_STS_BUS_INACTIVITY;
 2540              		.loc 1 2485 0
 2541 008c 40F20003 		movw	r3, #:lower16:LIN_1_ioctlStatus
 2542 0090 C0F20003 		movt	r3, #:upper16:LIN_1_ioctlStatus
 2543 0094 1B88     		ldrh	r3, [r3, #0]	@ movhi
 2544 0096 9BB2     		uxth	r3, r3
 2545 0098 43F00103 		orr	r3, r3, #1
 2546 009c 9AB2     		uxth	r2, r3
 2547 009e 40F20003 		movw	r3, #:lower16:LIN_1_ioctlStatus
 2548 00a2 C0F20003 		movt	r3, #:upper16:LIN_1_ioctlStatus
 2549 00a6 1A80     		strh	r2, [r3, #0]	@ movhi
 2550 00a8 0CE0     		b	.L134
 2551              	.L135:
2486:.\Generated_Source\PSoC5/LIN_1.c ****             }
2487:.\Generated_Source\PSoC5/LIN_1.c ****             else
2488:.\Generated_Source\PSoC5/LIN_1.c ****             {
2489:.\Generated_Source\PSoC5/LIN_1.c ****                 LIN_1_periodCounter++;
 2552              		.loc 1 2489 0
 2553 00aa 40F20003 		movw	r3, #:lower16:LIN_1_periodCounter
 2554 00ae C0F20003 		movt	r3, #:upper16:LIN_1_periodCounter
 2555 00b2 1B78     		ldrb	r3, [r3, #0]	@ zero_extendqisi2
 2556 00b4 03F10103 		add	r3, r3, #1
 2557 00b8 DAB2     		uxtb	r2, r3
 2558 00ba 40F20003 		movw	r3, #:lower16:LIN_1_periodCounter
 2559 00be C0F20003 		movt	r3, #:upper16:LIN_1_periodCounter
 2560 00c2 1A70     		strb	r2, [r3, #0]
 2561              	.L134:
2490:.\Generated_Source\PSoC5/LIN_1.c ****             }
2491:.\Generated_Source\PSoC5/LIN_1.c ****         }
2492:.\Generated_Source\PSoC5/LIN_1.c **** 
2493:.\Generated_Source\PSoC5/LIN_1.c ****     #endif  /* (1u == LIN_1_INACTIVITY_ENABLED) */
2494:.\Generated_Source\PSoC5/LIN_1.c **** 
2495:.\Generated_Source\PSoC5/LIN_1.c **** 
2496:.\Generated_Source\PSoC5/LIN_1.c ****     /***************************************************************************
2497:.\Generated_Source\PSoC5/LIN_1.c ****     *                       Break Field Detected
2498:.\Generated_Source\PSoC5/LIN_1.c ****     ***************************************************************************/
2499:.\Generated_Source\PSoC5/LIN_1.c ****     if(0u != (LIN_1_auxStatus & LIN_1_STATUS_BREAK_DETECTED))
 2562              		.loc 1 2499 0
 2563 00c4 40F20003 		movw	r3, #:lower16:LIN_1_auxStatus
 2564 00c8 C0F20003 		movt	r3, #:upper16:LIN_1_auxStatus
 2565 00cc 1B78     		ldrb	r3, [r3, #0]
 2566 00ce DBB2     		uxtb	r3, r3
 2567 00d0 03F00103 		and	r3, r3, #1
 2568 00d4 002B     		cmp	r3, #0
 2569 00d6 62D0     		beq	.L136
2500:.\Generated_Source\PSoC5/LIN_1.c ****     {
2501:.\Generated_Source\PSoC5/LIN_1.c ****         /* Framing error or data transfer was aborted */
2502:.\Generated_Source\PSoC5/LIN_1.c ****         if(0u  != ((LIN_1_FSM_FRAMING_ERROR_FLAG | LIN_1_FSM_DATA_RECEIVE) &
ARM GAS  C:\Users\MATSUD~1\AppData\Local\Temp\ccLjdAaK.s 			page 91


 2570              		.loc 1 2502 0
 2571 00d8 40F20003 		movw	r3, #:lower16:LIN_1_fsmFlags
 2572 00dc C0F20003 		movt	r3, #:upper16:LIN_1_fsmFlags
 2573 00e0 1B78     		ldrb	r3, [r3, #0]
 2574 00e2 DBB2     		uxtb	r3, r3
 2575 00e4 23F07B03 		bic	r3, r3, #123
 2576 00e8 DBB2     		uxtb	r3, r3
 2577 00ea 002B     		cmp	r3, #0
 2578 00ec 31D0     		beq	.L137
2503:.\Generated_Source\PSoC5/LIN_1.c ****                     LIN_1_fsmFlags))
2504:.\Generated_Source\PSoC5/LIN_1.c ****         {
2505:.\Generated_Source\PSoC5/LIN_1.c ****             /* Set response error */
2506:.\Generated_Source\PSoC5/LIN_1.c ****             LIN_1_ifcStatus |= LIN_1_IFC_STS_ERROR_IN_RESPONSE;
 2579              		.loc 1 2506 0
 2580 00ee 40F20003 		movw	r3, #:lower16:LIN_1_ifcStatus
 2581 00f2 C0F20003 		movt	r3, #:upper16:LIN_1_ifcStatus
 2582 00f6 1B88     		ldrh	r3, [r3, #0]	@ movhi
 2583 00f8 9BB2     		uxth	r3, r3
 2584 00fa 43F00103 		orr	r3, r3, #1
 2585 00fe 9AB2     		uxth	r2, r3
 2586 0100 40F20003 		movw	r3, #:lower16:LIN_1_ifcStatus
 2587 0104 C0F20003 		movt	r3, #:upper16:LIN_1_ifcStatus
 2588 0108 1A80     		strh	r2, [r3, #0]	@ movhi
2507:.\Generated_Source\PSoC5/LIN_1.c **** 
2508:.\Generated_Source\PSoC5/LIN_1.c ****             /* Clear framing error */
2509:.\Generated_Source\PSoC5/LIN_1.c ****             LIN_1_fsmFlags &= ((l_u8) ~LIN_1_FSM_FRAMING_ERROR_FLAG);
 2589              		.loc 1 2509 0
 2590 010a 40F20003 		movw	r3, #:lower16:LIN_1_fsmFlags
 2591 010e C0F20003 		movt	r3, #:upper16:LIN_1_fsmFlags
 2592 0112 1B78     		ldrb	r3, [r3, #0]
 2593 0114 DBB2     		uxtb	r3, r3
 2594 0116 03F07F03 		and	r3, r3, #127
 2595 011a DAB2     		uxtb	r2, r3
 2596 011c 40F20003 		movw	r3, #:lower16:LIN_1_fsmFlags
 2597 0120 C0F20003 		movt	r3, #:upper16:LIN_1_fsmFlags
 2598 0124 1A70     		strb	r2, [r3, #0]
2510:.\Generated_Source\PSoC5/LIN_1.c **** 
2511:.\Generated_Source\PSoC5/LIN_1.c ****             #if(1u == LIN_1_SAE_J2602)
2512:.\Generated_Source\PSoC5/LIN_1.c **** 
2513:.\Generated_Source\PSoC5/LIN_1.c ****                 /* Set ERR2 bit */
2514:.\Generated_Source\PSoC5/LIN_1.c ****                 LIN_1_j2602Status |= LIN_1_J2602_STS_DATA_ERR;
2515:.\Generated_Source\PSoC5/LIN_1.c **** 
2516:.\Generated_Source\PSoC5/LIN_1.c ****             #endif  /* (1u == LIN_1_SAE_J2602) */
2517:.\Generated_Source\PSoC5/LIN_1.c **** 
2518:.\Generated_Source\PSoC5/LIN_1.c ****             
2519:.\Generated_Source\PSoC5/LIN_1.c ****     /* Save current global interrupt enable and disable it */
2520:.\Generated_Source\PSoC5/LIN_1.c ****     interruptState = CyEnterCriticalSection();
 2599              		.loc 1 2520 0
 2600 0126 FFF7FEFF 		bl	CyEnterCriticalSection
 2601 012a 0346     		mov	r3, r0
 2602 012c FB71     		strb	r3, [r7, #7]
2521:.\Generated_Source\PSoC5/LIN_1.c **** 
2522:.\Generated_Source\PSoC5/LIN_1.c ****         LIN_1_Buffer_Frame1[LIN_1_Response_Error_Frame1_SIG_BYTE_OFFSET] |= 
 2603              		.loc 1 2522 0
 2604 012e 40F20003 		movw	r3, #:lower16:LIN_1_Buffer_Frame1
 2605 0132 C0F20003 		movt	r3, #:upper16:LIN_1_Buffer_Frame1
 2606 0136 1B78     		ldrb	r3, [r3, #0]
ARM GAS  C:\Users\MATSUD~1\AppData\Local\Temp\ccLjdAaK.s 			page 92


 2607 0138 DBB2     		uxtb	r3, r3
 2608 013a 43F00403 		orr	r3, r3, #4
 2609 013e DAB2     		uxtb	r2, r3
 2610 0140 40F20003 		movw	r3, #:lower16:LIN_1_Buffer_Frame1
 2611 0144 C0F20003 		movt	r3, #:upper16:LIN_1_Buffer_Frame1
 2612 0148 1A70     		strb	r2, [r3, #0]
2523:.\Generated_Source\PSoC5/LIN_1.c ****                             LIN_1_Response_Error_Frame1_SIG_MASK_0;
2524:.\Generated_Source\PSoC5/LIN_1.c **** 
2525:.\Generated_Source\PSoC5/LIN_1.c ****     /* Restore global interrupt enable state */
2526:.\Generated_Source\PSoC5/LIN_1.c ****     CyExitCriticalSection(interruptState);
 2613              		.loc 1 2526 0
 2614 014a FB79     		ldrb	r3, [r7, #7]	@ zero_extendqisi2
 2615 014c 1846     		mov	r0, r3
 2616 014e FFF7FEFF 		bl	CyExitCriticalSection
 2617              	.L137:
2527:.\Generated_Source\PSoC5/LIN_1.c **** 
2528:.\Generated_Source\PSoC5/LIN_1.c **** 
2529:.\Generated_Source\PSoC5/LIN_1.c ****         }   /* No response error, continue */
2530:.\Generated_Source\PSoC5/LIN_1.c **** 
2531:.\Generated_Source\PSoC5/LIN_1.c ****         /* Set break detected flag */
2532:.\Generated_Source\PSoC5/LIN_1.c ****         LIN_1_fsmFlags |= LIN_1_FSM_BREAK_FLAG;
 2618              		.loc 1 2532 0
 2619 0152 40F20003 		movw	r3, #:lower16:LIN_1_fsmFlags
 2620 0156 C0F20003 		movt	r3, #:upper16:LIN_1_fsmFlags
 2621 015a 1B78     		ldrb	r3, [r3, #0]
 2622 015c DBB2     		uxtb	r3, r3
 2623 015e 43F00103 		orr	r3, r3, #1
 2624 0162 DAB2     		uxtb	r2, r3
 2625 0164 40F20003 		movw	r3, #:lower16:LIN_1_fsmFlags
 2626 0168 C0F20003 		movt	r3, #:upper16:LIN_1_fsmFlags
 2627 016c 1A70     		strb	r2, [r3, #0]
2533:.\Generated_Source\PSoC5/LIN_1.c **** 
2534:.\Generated_Source\PSoC5/LIN_1.c ****         /***********************************************************************
2535:.\Generated_Source\PSoC5/LIN_1.c ****         *  This will make bus RXD signal to be automatically routed to the
2536:.\Generated_Source\PSoC5/LIN_1.c ****         *  UART's input when rising edge of the break field occurs (in case
2537:.\Generated_Source\PSoC5/LIN_1.c ****         *  when Auto Baud Rate Sync is disabled; that will make UART to be
2538:.\Generated_Source\PSoC5/LIN_1.c ****         *  able to receive sync byte) or when sync field is already processed
2539:.\Generated_Source\PSoC5/LIN_1.c ****         *  by hardware (in case when Auto Baud Rate Sync is enabled; that will
2540:.\Generated_Source\PSoC5/LIN_1.c ****         *  make UART to be able to receive frame's PID).
2541:.\Generated_Source\PSoC5/LIN_1.c ****         ***********************************************************************/
2542:.\Generated_Source\PSoC5/LIN_1.c ****         LIN_1_CONTROL_REG &= ((l_u8) ~LIN_1_CONTROL_RX_DIS);
 2628              		.loc 1 2542 0
 2629 016e 46F27643 		movw	r3, #25718
 2630 0172 C4F20003 		movt	r3, 16384
 2631 0176 46F27642 		movw	r2, #25718
 2632 017a C4F20002 		movt	r2, 16384
 2633 017e 1278     		ldrb	r2, [r2, #0]
 2634 0180 D2B2     		uxtb	r2, r2
 2635 0182 22F00402 		bic	r2, r2, #4
 2636 0186 D2B2     		uxtb	r2, r2
 2637 0188 1A70     		strb	r2, [r3, #0]
2543:.\Generated_Source\PSoC5/LIN_1.c **** 
2544:.\Generated_Source\PSoC5/LIN_1.c ****         /* Auto Baud Rate Sync Enabled */
2545:.\Generated_Source\PSoC5/LIN_1.c ****         #if(1u == LIN_1_AUTO_BAUD_RATE_SYNC)
2546:.\Generated_Source\PSoC5/LIN_1.c **** 
2547:.\Generated_Source\PSoC5/LIN_1.c ****             /* Restore initial clock divider */
2548:.\Generated_Source\PSoC5/LIN_1.c ****             LIN_1_IntClk_SetDividerRegister(LIN_1_initialClockDivider, 0u);
ARM GAS  C:\Users\MATSUD~1\AppData\Local\Temp\ccLjdAaK.s 			page 93


 2638              		.loc 1 2548 0
 2639 018a 40F20003 		movw	r3, #:lower16:LIN_1_initialClockDivider
 2640 018e C0F20003 		movt	r3, #:upper16:LIN_1_initialClockDivider
 2641 0192 1B88     		ldrh	r3, [r3, #0]
 2642 0194 1846     		mov	r0, r3
 2643 0196 4FF00001 		mov	r1, #0
 2644 019a FFF7FEFF 		bl	LIN_1_IntClk_SetDividerRegister
 2645              	.L136:
2549:.\Generated_Source\PSoC5/LIN_1.c **** 
2550:.\Generated_Source\PSoC5/LIN_1.c ****         #else   /* Auto Baud Rate Sync Disabled */
2551:.\Generated_Source\PSoC5/LIN_1.c **** 
2552:.\Generated_Source\PSoC5/LIN_1.c ****             /* Clear one or more data bytes have been received internal flag */
2553:.\Generated_Source\PSoC5/LIN_1.c ****             LIN_1_fsmFlags &= ((l_u8) ~LIN_1_FSM_DATA_RECEIVE);
2554:.\Generated_Source\PSoC5/LIN_1.c **** 
2555:.\Generated_Source\PSoC5/LIN_1.c ****             /* Set UART ISR FSM to sync byte receive state */
2556:.\Generated_Source\PSoC5/LIN_1.c ****             LIN_1_uartFsmState = LIN_1_UART_ISR_STATE_0_SNC;
2557:.\Generated_Source\PSoC5/LIN_1.c **** 
2558:.\Generated_Source\PSoC5/LIN_1.c ****             /* Set UART enable flag */
2559:.\Generated_Source\PSoC5/LIN_1.c ****             LIN_1_fsmFlags |= LIN_1_FSM_UART_ENABLE_FLAG;
2560:.\Generated_Source\PSoC5/LIN_1.c **** 
2561:.\Generated_Source\PSoC5/LIN_1.c ****             /* Clear any pending UART interrupt */
2562:.\Generated_Source\PSoC5/LIN_1.c ****             CyIntClearPending(LIN_1_UART_ISR_NUMBER);
2563:.\Generated_Source\PSoC5/LIN_1.c **** 
2564:.\Generated_Source\PSoC5/LIN_1.c ****             /* Enable UART ISR interrupt */
2565:.\Generated_Source\PSoC5/LIN_1.c ****             CyIntEnable(LIN_1_UART_ISR_NUMBER);
2566:.\Generated_Source\PSoC5/LIN_1.c **** 
2567:.\Generated_Source\PSoC5/LIN_1.c ****         #endif  /* (1u == LIN_1_AUTO_BAUD_RATE_SYNC) */
2568:.\Generated_Source\PSoC5/LIN_1.c ****     }
2569:.\Generated_Source\PSoC5/LIN_1.c **** 
2570:.\Generated_Source\PSoC5/LIN_1.c **** 
2571:.\Generated_Source\PSoC5/LIN_1.c ****     /* Auto Baud Rate Sync Enabled */
2572:.\Generated_Source\PSoC5/LIN_1.c ****     #if(1u == LIN_1_AUTO_BAUD_RATE_SYNC)
2573:.\Generated_Source\PSoC5/LIN_1.c **** 
2574:.\Generated_Source\PSoC5/LIN_1.c ****         /***********************************************************************
2575:.\Generated_Source\PSoC5/LIN_1.c ****         *                       Sync Field Complete                            *
2576:.\Generated_Source\PSoC5/LIN_1.c ****         ***********************************************************************/
2577:.\Generated_Source\PSoC5/LIN_1.c ****         if(0u != (LIN_1_auxStatus & LIN_1_STATUS_SYNC_COMPLETED))
 2646              		.loc 1 2577 0
 2647 019e 40F20003 		movw	r3, #:lower16:LIN_1_auxStatus
 2648 01a2 C0F20003 		movt	r3, #:upper16:LIN_1_auxStatus
 2649 01a6 1B78     		ldrb	r3, [r3, #0]
 2650 01a8 DBB2     		uxtb	r3, r3
 2651 01aa 03F00803 		and	r3, r3, #8
 2652 01ae 002B     		cmp	r3, #0
 2653 01b0 00F08380 		beq	.L138
2578:.\Generated_Source\PSoC5/LIN_1.c ****         {
2579:.\Generated_Source\PSoC5/LIN_1.c ****             /* Save actual sync field timer counts */
2580:.\Generated_Source\PSoC5/LIN_1.c ****             LIN_1_syncCounts = LIN_1_LOW_BIT_LENGTH_SUM_REG;
 2654              		.loc 1 2580 0
 2655 01b4 46F24543 		movw	r3, #25669
 2656 01b8 C4F20003 		movt	r3, 16384
 2657 01bc 1B78     		ldrb	r3, [r3, #0]
 2658 01be DAB2     		uxtb	r2, r3
 2659 01c0 40F20003 		movw	r3, #:lower16:LIN_1_syncCounts
 2660 01c4 C0F20003 		movt	r3, #:upper16:LIN_1_syncCounts
 2661 01c8 1A70     		strb	r2, [r3, #0]
2581:.\Generated_Source\PSoC5/LIN_1.c ****             LIN_1_syncCounts = LIN_1_LOW_BIT_LENGTH_SUM_REG;
ARM GAS  C:\Users\MATSUD~1\AppData\Local\Temp\ccLjdAaK.s 			page 94


 2662              		.loc 1 2581 0
 2663 01ca 46F24543 		movw	r3, #25669
 2664 01ce C4F20003 		movt	r3, 16384
 2665 01d2 1B78     		ldrb	r3, [r3, #0]
 2666 01d4 DAB2     		uxtb	r2, r3
 2667 01d6 40F20003 		movw	r3, #:lower16:LIN_1_syncCounts
 2668 01da C0F20003 		movt	r3, #:upper16:LIN_1_syncCounts
 2669 01de 1A70     		strb	r2, [r3, #0]
2582:.\Generated_Source\PSoC5/LIN_1.c ****             LIN_1_syncCounts = LIN_1_LOW_BIT_LENGTH_SUM_REG;
 2670              		.loc 1 2582 0
 2671 01e0 46F24543 		movw	r3, #25669
 2672 01e4 C4F20003 		movt	r3, 16384
 2673 01e8 1B78     		ldrb	r3, [r3, #0]
 2674 01ea DAB2     		uxtb	r2, r3
 2675 01ec 40F20003 		movw	r3, #:lower16:LIN_1_syncCounts
 2676 01f0 C0F20003 		movt	r3, #:upper16:LIN_1_syncCounts
 2677 01f4 1A70     		strb	r2, [r3, #0]
2583:.\Generated_Source\PSoC5/LIN_1.c ****             LIN_1_syncCounts = LIN_1_LOW_BIT_LENGTH_SUM_REG +
 2678              		.loc 1 2583 0
 2679 01f6 46F24543 		movw	r3, #25669
 2680 01fa C4F20003 		movt	r3, 16384
 2681 01fe 1B78     		ldrb	r3, [r3, #0]
 2682 0200 DAB2     		uxtb	r2, r3
2584:.\Generated_Source\PSoC5/LIN_1.c ****                                           LIN_1_HIGH_BITS_LENGTH_SUM_REG;
 2683              		.loc 1 2584 0
 2684 0202 46F25543 		movw	r3, #25685
 2685 0206 C4F20003 		movt	r3, 16384
 2686 020a 1B78     		ldrb	r3, [r3, #0]
 2687 020c DBB2     		uxtb	r3, r3
2583:.\Generated_Source\PSoC5/LIN_1.c ****             LIN_1_syncCounts = LIN_1_LOW_BIT_LENGTH_SUM_REG +
 2688              		.loc 1 2583 0
 2689 020e D318     		adds	r3, r2, r3
 2690 0210 DAB2     		uxtb	r2, r3
 2691 0212 40F20003 		movw	r3, #:lower16:LIN_1_syncCounts
 2692 0216 C0F20003 		movt	r3, #:upper16:LIN_1_syncCounts
 2693 021a 1A70     		strb	r2, [r3, #0]
2585:.\Generated_Source\PSoC5/LIN_1.c **** 
2586:.\Generated_Source\PSoC5/LIN_1.c ****             /* Set new clock divider */
2587:.\Generated_Source\PSoC5/LIN_1.c ****             if(LIN_1_syncCounts != LIN_1_EXPECTED_TIME_COUNTS)
 2694              		.loc 1 2587 0
 2695 021c 40F20003 		movw	r3, #:lower16:LIN_1_syncCounts
 2696 0220 C0F20003 		movt	r3, #:upper16:LIN_1_syncCounts
 2697 0224 1B78     		ldrb	r3, [r3, #0]
 2698 0226 DBB2     		uxtb	r3, r3
 2699 0228 802B     		cmp	r3, #128
 2700 022a 15D0     		beq	.L139
2588:.\Generated_Source\PSoC5/LIN_1.c ****             {
2589:.\Generated_Source\PSoC5/LIN_1.c ****                 LIN_1_IntClk_SetDividerRegister((uint16)(((uint32)LIN_1_initialClockDivider *
 2701              		.loc 1 2589 0
 2702 022c 40F20003 		movw	r3, #:lower16:LIN_1_initialClockDivider
 2703 0230 C0F20003 		movt	r3, #:upper16:LIN_1_initialClockDivider
 2704 0234 1B88     		ldrh	r3, [r3, #0]
 2705 0236 1A46     		mov	r2, r3
2590:.\Generated_Source\PSoC5/LIN_1.c ****                     (uint32) LIN_1_syncCounts) / LIN_1_EXPECTED_TIME_COUNTS), 0u);
 2706              		.loc 1 2590 0
 2707 0238 40F20003 		movw	r3, #:lower16:LIN_1_syncCounts
 2708 023c C0F20003 		movt	r3, #:upper16:LIN_1_syncCounts
ARM GAS  C:\Users\MATSUD~1\AppData\Local\Temp\ccLjdAaK.s 			page 95


 2709 0240 1B78     		ldrb	r3, [r3, #0]
 2710 0242 DBB2     		uxtb	r3, r3
2589:.\Generated_Source\PSoC5/LIN_1.c ****                 LIN_1_IntClk_SetDividerRegister((uint16)(((uint32)LIN_1_initialClockDivider *
 2711              		.loc 1 2589 0
 2712 0244 03FB02F3 		mul	r3, r3, r2
 2713              		.loc 1 2590 0
 2714 0248 4FEAD313 		lsr	r3, r3, #7
2589:.\Generated_Source\PSoC5/LIN_1.c ****                 LIN_1_IntClk_SetDividerRegister((uint16)(((uint32)LIN_1_initialClockDivider *
 2715              		.loc 1 2589 0
 2716 024c 9BB2     		uxth	r3, r3
 2717 024e 1846     		mov	r0, r3
 2718 0250 4FF00001 		mov	r1, #0
 2719 0254 FFF7FEFF 		bl	LIN_1_IntClk_SetDividerRegister
 2720              	.L139:
2591:.\Generated_Source\PSoC5/LIN_1.c ****             }
2592:.\Generated_Source\PSoC5/LIN_1.c **** 
2593:.\Generated_Source\PSoC5/LIN_1.c ****             /* Clear one or more data bytes have been received internal flag */
2594:.\Generated_Source\PSoC5/LIN_1.c ****             LIN_1_fsmFlags &= ((l_u8) ~LIN_1_FSM_DATA_RECEIVE);
 2721              		.loc 1 2594 0
 2722 0258 40F20003 		movw	r3, #:lower16:LIN_1_fsmFlags
 2723 025c C0F20003 		movt	r3, #:upper16:LIN_1_fsmFlags
 2724 0260 1B78     		ldrb	r3, [r3, #0]
 2725 0262 DBB2     		uxtb	r3, r3
 2726 0264 23F00403 		bic	r3, r3, #4
 2727 0268 DAB2     		uxtb	r2, r3
 2728 026a 40F20003 		movw	r3, #:lower16:LIN_1_fsmFlags
 2729 026e C0F20003 		movt	r3, #:upper16:LIN_1_fsmFlags
 2730 0272 1A70     		strb	r2, [r3, #0]
2595:.\Generated_Source\PSoC5/LIN_1.c **** 
2596:.\Generated_Source\PSoC5/LIN_1.c ****             /* This will reset the UART ISR FSM to state 1 */
2597:.\Generated_Source\PSoC5/LIN_1.c ****             LIN_1_uartFsmState = LIN_1_UART_ISR_STATE_1_PID;
 2731              		.loc 1 2597 0
 2732 0274 40F20003 		movw	r3, #:lower16:LIN_1_uartFsmState
 2733 0278 C0F20003 		movt	r3, #:upper16:LIN_1_uartFsmState
 2734 027c 4FF00102 		mov	r2, #1
 2735 0280 1A70     		strb	r2, [r3, #0]
2598:.\Generated_Source\PSoC5/LIN_1.c **** 
2599:.\Generated_Source\PSoC5/LIN_1.c ****             /* Set UART enabled flag */
2600:.\Generated_Source\PSoC5/LIN_1.c ****             LIN_1_fsmFlags |= LIN_1_FSM_UART_ENABLE_FLAG;
 2736              		.loc 1 2600 0
 2737 0282 40F20003 		movw	r3, #:lower16:LIN_1_fsmFlags
 2738 0286 C0F20003 		movt	r3, #:upper16:LIN_1_fsmFlags
 2739 028a 1B78     		ldrb	r3, [r3, #0]
 2740 028c DBB2     		uxtb	r3, r3
 2741 028e 43F00803 		orr	r3, r3, #8
 2742 0292 DAB2     		uxtb	r2, r3
 2743 0294 40F20003 		movw	r3, #:lower16:LIN_1_fsmFlags
 2744 0298 C0F20003 		movt	r3, #:upper16:LIN_1_fsmFlags
 2745 029c 1A70     		strb	r2, [r3, #0]
2601:.\Generated_Source\PSoC5/LIN_1.c **** 
2602:.\Generated_Source\PSoC5/LIN_1.c ****             /* Clear any pending UART interrupt */
2603:.\Generated_Source\PSoC5/LIN_1.c ****             CyIntClearPending(LIN_1_UART_ISR_NUMBER);
 2746              		.loc 1 2603 0
 2747 029e 4EF28023 		movw	r3, #57984
 2748 02a2 CEF20003 		movt	r3, 57344
 2749 02a6 4FF00202 		mov	r2, #2
 2750 02aa 1A60     		str	r2, [r3, #0]
ARM GAS  C:\Users\MATSUD~1\AppData\Local\Temp\ccLjdAaK.s 			page 96


2604:.\Generated_Source\PSoC5/LIN_1.c **** 
2605:.\Generated_Source\PSoC5/LIN_1.c ****             /* Enable UART ISR interrupt */
2606:.\Generated_Source\PSoC5/LIN_1.c ****             CyIntEnable(LIN_1_UART_ISR_NUMBER);
 2751              		.loc 1 2606 0
 2752 02ac 4FF46143 		mov	r3, #57600
 2753 02b0 CEF20003 		movt	r3, 57344
 2754 02b4 4FF00202 		mov	r2, #2
 2755 02b8 1A60     		str	r2, [r3, #0]
 2756              	.L138:
2607:.\Generated_Source\PSoC5/LIN_1.c ****         }
2608:.\Generated_Source\PSoC5/LIN_1.c **** 
2609:.\Generated_Source\PSoC5/LIN_1.c ****     #endif /* (1u == LIN_1_AUTO_BAUD_RATE_SYNC) */
2610:.\Generated_Source\PSoC5/LIN_1.c **** 
2611:.\Generated_Source\PSoC5/LIN_1.c **** 
2612:.\Generated_Source\PSoC5/LIN_1.c ****     /***************************************************************************
2613:.\Generated_Source\PSoC5/LIN_1.c ****     *  Place your BASE ISR code here
2614:.\Generated_Source\PSoC5/LIN_1.c ****     ***************************************************************************/
2615:.\Generated_Source\PSoC5/LIN_1.c ****     /* `#START LIN_1_BASE_ISR_CODE` */
2616:.\Generated_Source\PSoC5/LIN_1.c **** 
2617:.\Generated_Source\PSoC5/LIN_1.c ****     /* `#END` */
2618:.\Generated_Source\PSoC5/LIN_1.c **** 
2619:.\Generated_Source\PSoC5/LIN_1.c **** 
2620:.\Generated_Source\PSoC5/LIN_1.c ****     /* Clear software shadow register file  */
2621:.\Generated_Source\PSoC5/LIN_1.c ****     LIN_1_auxStatus = 0x00u;
 2757              		.loc 1 2621 0
 2758 02ba 40F20003 		movw	r3, #:lower16:LIN_1_auxStatus
 2759 02be C0F20003 		movt	r3, #:upper16:LIN_1_auxStatus
 2760 02c2 4FF00002 		mov	r2, #0
 2761 02c6 1A70     		strb	r2, [r3, #0]
2622:.\Generated_Source\PSoC5/LIN_1.c **** }
 2762              		.loc 1 2622 0
 2763 02c8 07F10807 		add	r7, r7, #8
 2764 02cc BD46     		mov	sp, r7
 2765 02ce 80BD     		pop	{r7, pc}
 2766              		.cfi_endproc
 2767              	.LFE25:
 2768              		.size	l_ifc_aux_LIN_1, .-l_ifc_aux_LIN_1
 2769              		.section	.text.l_ifc_aux,"ax",%progbits
 2770              		.align	2
 2771              		.global	l_ifc_aux
 2772              		.thumb
 2773              		.thumb_func
 2774              		.type	l_ifc_aux, %function
 2775              	l_ifc_aux:
 2776              	.LFB26:
2623:.\Generated_Source\PSoC5/LIN_1.c **** 
2624:.\Generated_Source\PSoC5/LIN_1.c **** 
2625:.\Generated_Source\PSoC5/LIN_1.c **** /*******************************************************************************
2626:.\Generated_Source\PSoC5/LIN_1.c **** * Function Name: l_ifc_aux
2627:.\Generated_Source\PSoC5/LIN_1.c **** ********************************************************************************
2628:.\Generated_Source\PSoC5/LIN_1.c **** *
2629:.\Generated_Source\PSoC5/LIN_1.c **** * Summary:
2630:.\Generated_Source\PSoC5/LIN_1.c **** *  The LIN Slave component takes care of calling this API routine automatically.
2631:.\Generated_Source\PSoC5/LIN_1.c **** *  Therefore, this API routine must not be called by the application code.
2632:.\Generated_Source\PSoC5/LIN_1.c **** *
2633:.\Generated_Source\PSoC5/LIN_1.c **** * Parameters:
2634:.\Generated_Source\PSoC5/LIN_1.c **** *  iii - is the name of the interface handle.
ARM GAS  C:\Users\MATSUD~1\AppData\Local\Temp\ccLjdAaK.s 			page 97


2635:.\Generated_Source\PSoC5/LIN_1.c **** *
2636:.\Generated_Source\PSoC5/LIN_1.c **** * Return:
2637:.\Generated_Source\PSoC5/LIN_1.c **** *  None
2638:.\Generated_Source\PSoC5/LIN_1.c **** *
2639:.\Generated_Source\PSoC5/LIN_1.c **** * Reentrant:
2640:.\Generated_Source\PSoC5/LIN_1.c **** *  No
2641:.\Generated_Source\PSoC5/LIN_1.c **** *
2642:.\Generated_Source\PSoC5/LIN_1.c **** *******************************************************************************/
2643:.\Generated_Source\PSoC5/LIN_1.c **** void l_ifc_aux(l_ifc_handle iii) 
2644:.\Generated_Source\PSoC5/LIN_1.c **** {
 2777              		.loc 1 2644 0
 2778              		.cfi_startproc
 2779              		@ args = 0, pretend = 0, frame = 8
 2780              		@ frame_needed = 1, uses_anonymous_args = 0
 2781 0000 80B5     		push	{r7, lr}
 2782              	.LCFI70:
 2783              		.cfi_def_cfa_offset 8
 2784              		.cfi_offset 7, -8
 2785              		.cfi_offset 14, -4
 2786 0002 82B0     		sub	sp, sp, #8
 2787              	.LCFI71:
 2788              		.cfi_def_cfa_offset 16
 2789 0004 00AF     		add	r7, sp, #0
 2790              	.LCFI72:
 2791              		.cfi_def_cfa_register 7
 2792 0006 0346     		mov	r3, r0
 2793 0008 FB71     		strb	r3, [r7, #7]
2645:.\Generated_Source\PSoC5/LIN_1.c ****     switch(iii)
 2794              		.loc 1 2645 0
 2795 000a FB79     		ldrb	r3, [r7, #7]	@ zero_extendqisi2
 2796 000c 002B     		cmp	r3, #0
 2797 000e 02D1     		bne	.L144
 2798              	.L142:
2646:.\Generated_Source\PSoC5/LIN_1.c ****     {
2647:.\Generated_Source\PSoC5/LIN_1.c ****         case LIN_1_IFC_HANDLE:
2648:.\Generated_Source\PSoC5/LIN_1.c ****             l_ifc_aux_LIN_1();
 2799              		.loc 1 2648 0
 2800 0010 FFF7FEFF 		bl	l_ifc_aux_LIN_1
2649:.\Generated_Source\PSoC5/LIN_1.c ****         break;
 2801              		.loc 1 2649 0
 2802 0014 00E0     		b	.L140
 2803              	.L144:
2650:.\Generated_Source\PSoC5/LIN_1.c **** 
2651:.\Generated_Source\PSoC5/LIN_1.c ****         default:
2652:.\Generated_Source\PSoC5/LIN_1.c ****         break;
 2804              		.loc 1 2652 0
 2805 0016 00BF     		nop
 2806              	.L140:
2653:.\Generated_Source\PSoC5/LIN_1.c ****     }
2654:.\Generated_Source\PSoC5/LIN_1.c **** }
 2807              		.loc 1 2654 0
 2808 0018 07F10807 		add	r7, r7, #8
 2809 001c BD46     		mov	sp, r7
 2810 001e 80BD     		pop	{r7, pc}
 2811              		.cfi_endproc
 2812              	.LFE26:
 2813              		.size	l_ifc_aux, .-l_ifc_aux
ARM GAS  C:\Users\MATSUD~1\AppData\Local\Temp\ccLjdAaK.s 			page 98


 2814              		.section	.text.l_ifc_read_status_LIN_1,"ax",%progbits
 2815              		.align	2
 2816              		.global	l_ifc_read_status_LIN_1
 2817              		.thumb
 2818              		.thumb_func
 2819              		.type	l_ifc_read_status_LIN_1, %function
 2820              	l_ifc_read_status_LIN_1:
 2821              	.LFB27:
2655:.\Generated_Source\PSoC5/LIN_1.c **** 
2656:.\Generated_Source\PSoC5/LIN_1.c **** 
2657:.\Generated_Source\PSoC5/LIN_1.c **** /*******************************************************************************
2658:.\Generated_Source\PSoC5/LIN_1.c **** * Function Name: l_ifc_read_status_LIN_1
2659:.\Generated_Source\PSoC5/LIN_1.c **** ********************************************************************************
2660:.\Generated_Source\PSoC5/LIN_1.c **** *
2661:.\Generated_Source\PSoC5/LIN_1.c **** * Summary:
2662:.\Generated_Source\PSoC5/LIN_1.c **** *  This function is defined by the LIN specification. This returns the status of
2663:.\Generated_Source\PSoC5/LIN_1.c **** *  the specified LIN interface and then clears all status bits for that
2664:.\Generated_Source\PSoC5/LIN_1.c **** *  interface. See Section 7.2.5.8 of the LIN 2.1 specification.
2665:.\Generated_Source\PSoC5/LIN_1.c **** *
2666:.\Generated_Source\PSoC5/LIN_1.c **** * Parameters:
2667:.\Generated_Source\PSoC5/LIN_1.c **** *  None
2668:.\Generated_Source\PSoC5/LIN_1.c **** *
2669:.\Generated_Source\PSoC5/LIN_1.c **** * Return:
2670:.\Generated_Source\PSoC5/LIN_1.c **** *  The status bits of the specified LIN interface are returned. These bits have
2671:.\Generated_Source\PSoC5/LIN_1.c **** *  the following meanings:
2672:.\Generated_Source\PSoC5/LIN_1.c **** *    [15:8]    Last Received PID
2673:.\Generated_Source\PSoC5/LIN_1.c **** *    [7]        0
2674:.\Generated_Source\PSoC5/LIN_1.c **** *    [6]        Save Configuration flag
2675:.\Generated_Source\PSoC5/LIN_1.c **** *    [5]        0
2676:.\Generated_Source\PSoC5/LIN_1.c **** *    [4]        Bus Activity flag
2677:.\Generated_Source\PSoC5/LIN_1.c **** *    [3]        Go To Sleep flag
2678:.\Generated_Source\PSoC5/LIN_1.c **** *    [2]        Overrun flag
2679:.\Generated_Source\PSoC5/LIN_1.c **** *    [1]        Successful Transfer flag
2680:.\Generated_Source\PSoC5/LIN_1.c **** *    [0]        Error in Response flag
2681:.\Generated_Source\PSoC5/LIN_1.c **** *
2682:.\Generated_Source\PSoC5/LIN_1.c **** * Reentrant:
2683:.\Generated_Source\PSoC5/LIN_1.c **** *  No
2684:.\Generated_Source\PSoC5/LIN_1.c **** *
2685:.\Generated_Source\PSoC5/LIN_1.c **** *******************************************************************************/
2686:.\Generated_Source\PSoC5/LIN_1.c **** l_u16 l_ifc_read_status_LIN_1(void) 
2687:.\Generated_Source\PSoC5/LIN_1.c **** {
 2822              		.loc 1 2687 0
 2823              		.cfi_startproc
 2824              		@ args = 0, pretend = 0, frame = 8
 2825              		@ frame_needed = 1, uses_anonymous_args = 0
 2826 0000 80B5     		push	{r7, lr}
 2827              	.LCFI73:
 2828              		.cfi_def_cfa_offset 8
 2829              		.cfi_offset 7, -8
 2830              		.cfi_offset 14, -4
 2831 0002 82B0     		sub	sp, sp, #8
 2832              	.LCFI74:
 2833              		.cfi_def_cfa_offset 16
 2834 0004 00AF     		add	r7, sp, #0
 2835              	.LCFI75:
 2836              		.cfi_def_cfa_register 7
2688:.\Generated_Source\PSoC5/LIN_1.c ****     l_u16 returnValue;
ARM GAS  C:\Users\MATSUD~1\AppData\Local\Temp\ccLjdAaK.s 			page 99


2689:.\Generated_Source\PSoC5/LIN_1.c ****     l_u8 interruptState;
2690:.\Generated_Source\PSoC5/LIN_1.c **** 
2691:.\Generated_Source\PSoC5/LIN_1.c ****     interruptState = CyEnterCriticalSection();
 2837              		.loc 1 2691 0
 2838 0006 FFF7FEFF 		bl	CyEnterCriticalSection
 2839 000a 0346     		mov	r3, r0
 2840 000c FB71     		strb	r3, [r7, #7]
2692:.\Generated_Source\PSoC5/LIN_1.c **** 
2693:.\Generated_Source\PSoC5/LIN_1.c ****     /***************************************************************************
2694:.\Generated_Source\PSoC5/LIN_1.c ****     * Update software shadow status register with the value of the hardware
2695:.\Generated_Source\PSoC5/LIN_1.c ****     * status register to obtain current value of the edge detected bit. The
2696:.\Generated_Source\PSoC5/LIN_1.c ****     * edge detected status bit is cleared immediately and the rest of the
2697:.\Generated_Source\PSoC5/LIN_1.c ****     * software shadow status register bits are expected to be cleared in ISR.
2698:.\Generated_Source\PSoC5/LIN_1.c ****     ***************************************************************************/
2699:.\Generated_Source\PSoC5/LIN_1.c ****     LIN_1_auxStatus |= LIN_1_STATUS_REG;
 2841              		.loc 1 2699 0
 2842 000e 46F26643 		movw	r3, #25702
 2843 0012 C4F20003 		movt	r3, 16384
 2844 0016 1B78     		ldrb	r3, [r3, #0]
 2845 0018 DAB2     		uxtb	r2, r3
 2846 001a 40F20003 		movw	r3, #:lower16:LIN_1_auxStatus
 2847 001e C0F20003 		movt	r3, #:upper16:LIN_1_auxStatus
 2848 0022 1B78     		ldrb	r3, [r3, #0]
 2849 0024 DBB2     		uxtb	r3, r3
 2850 0026 1343     		orrs	r3, r3, r2
 2851 0028 DAB2     		uxtb	r2, r3
 2852 002a 40F20003 		movw	r3, #:lower16:LIN_1_auxStatus
 2853 002e C0F20003 		movt	r3, #:upper16:LIN_1_auxStatus
 2854 0032 1A70     		strb	r2, [r3, #0]
2700:.\Generated_Source\PSoC5/LIN_1.c **** 
2701:.\Generated_Source\PSoC5/LIN_1.c ****     /* Optionally update interface status variable */
2702:.\Generated_Source\PSoC5/LIN_1.c ****     if(0u != (LIN_1_auxStatus & LIN_1_STATUS_EDGE_DETECTED))
 2855              		.loc 1 2702 0
 2856 0034 40F20003 		movw	r3, #:lower16:LIN_1_auxStatus
 2857 0038 C0F20003 		movt	r3, #:upper16:LIN_1_auxStatus
 2858 003c 1B78     		ldrb	r3, [r3, #0]
 2859 003e DBB2     		uxtb	r3, r3
 2860 0040 03F00203 		and	r3, r3, #2
 2861 0044 002B     		cmp	r3, #0
 2862 0046 22D0     		beq	.L146
2703:.\Generated_Source\PSoC5/LIN_1.c ****     {
2704:.\Generated_Source\PSoC5/LIN_1.c ****         /* Set bus activity bit in IFC status */
2705:.\Generated_Source\PSoC5/LIN_1.c ****         LIN_1_ifcStatus |= LIN_1_IFC_STS_BUS_ACTIVITY;
 2863              		.loc 1 2705 0
 2864 0048 40F20003 		movw	r3, #:lower16:LIN_1_ifcStatus
 2865 004c C0F20003 		movt	r3, #:upper16:LIN_1_ifcStatus
 2866 0050 1B88     		ldrh	r3, [r3, #0]	@ movhi
 2867 0052 9BB2     		uxth	r3, r3
 2868 0054 43F01003 		orr	r3, r3, #16
 2869 0058 9AB2     		uxth	r2, r3
 2870 005a 40F20003 		movw	r3, #:lower16:LIN_1_ifcStatus
 2871 005e C0F20003 		movt	r3, #:upper16:LIN_1_ifcStatus
 2872 0062 1A80     		strh	r2, [r3, #0]	@ movhi
2706:.\Generated_Source\PSoC5/LIN_1.c **** 
2707:.\Generated_Source\PSoC5/LIN_1.c ****         /* Clear edge detected bit in shadow register variable */
2708:.\Generated_Source\PSoC5/LIN_1.c ****         LIN_1_auxStatus &= ((l_u8) ~LIN_1_STATUS_EDGE_DETECTED);
 2873              		.loc 1 2708 0
ARM GAS  C:\Users\MATSUD~1\AppData\Local\Temp\ccLjdAaK.s 			page 100


 2874 0064 40F20003 		movw	r3, #:lower16:LIN_1_auxStatus
 2875 0068 C0F20003 		movt	r3, #:upper16:LIN_1_auxStatus
 2876 006c 1B78     		ldrb	r3, [r3, #0]
 2877 006e DBB2     		uxtb	r3, r3
 2878 0070 23F00203 		bic	r3, r3, #2
 2879 0074 DAB2     		uxtb	r2, r3
 2880 0076 40F20003 		movw	r3, #:lower16:LIN_1_auxStatus
 2881 007a C0F20003 		movt	r3, #:upper16:LIN_1_auxStatus
 2882 007e 1A70     		strb	r2, [r3, #0]
2709:.\Generated_Source\PSoC5/LIN_1.c **** 
2710:.\Generated_Source\PSoC5/LIN_1.c ****         #if(1u == LIN_1_INACTIVITY_ENABLED)
2711:.\Generated_Source\PSoC5/LIN_1.c **** 
2712:.\Generated_Source\PSoC5/LIN_1.c ****             /* Clear period timer counter */
2713:.\Generated_Source\PSoC5/LIN_1.c ****             LIN_1_periodCounter = 0x00u;
 2883              		.loc 1 2713 0
 2884 0080 40F20003 		movw	r3, #:lower16:LIN_1_periodCounter
 2885 0084 C0F20003 		movt	r3, #:upper16:LIN_1_periodCounter
 2886 0088 4FF00002 		mov	r2, #0
 2887 008c 1A70     		strb	r2, [r3, #0]
 2888              	.L146:
2714:.\Generated_Source\PSoC5/LIN_1.c **** 
2715:.\Generated_Source\PSoC5/LIN_1.c ****         #endif /* (1u == LIN_1_INACTIVITY_ENABLED) */
2716:.\Generated_Source\PSoC5/LIN_1.c ****     }
2717:.\Generated_Source\PSoC5/LIN_1.c **** 
2718:.\Generated_Source\PSoC5/LIN_1.c ****     /* Copy the global status variable to the local temp variable */
2719:.\Generated_Source\PSoC5/LIN_1.c ****     returnValue = LIN_1_ifcStatus;
 2889              		.loc 1 2719 0
 2890 008e 40F20003 		movw	r3, #:lower16:LIN_1_ifcStatus
 2891 0092 C0F20003 		movt	r3, #:upper16:LIN_1_ifcStatus
 2892 0096 1B88     		ldrh	r3, [r3, #0]	@ movhi
 2893 0098 BB80     		strh	r3, [r7, #4]	@ movhi
2720:.\Generated_Source\PSoC5/LIN_1.c **** 
2721:.\Generated_Source\PSoC5/LIN_1.c ****     /* Clear status variable */
2722:.\Generated_Source\PSoC5/LIN_1.c ****     LIN_1_ifcStatus &= (l_u16) ~LIN_1_IFC_STS_MASK;
 2894              		.loc 1 2722 0
 2895 009a 40F20003 		movw	r3, #:lower16:LIN_1_ifcStatus
 2896 009e C0F20003 		movt	r3, #:upper16:LIN_1_ifcStatus
 2897 00a2 1B88     		ldrh	r3, [r3, #0]	@ movhi
 2898 00a4 40F20003 		movw	r3, #:lower16:LIN_1_ifcStatus
 2899 00a8 C0F20003 		movt	r3, #:upper16:LIN_1_ifcStatus
 2900 00ac 4FF00002 		mov	r2, #0
 2901 00b0 1A80     		strh	r2, [r3, #0]	@ movhi
2723:.\Generated_Source\PSoC5/LIN_1.c **** 
2724:.\Generated_Source\PSoC5/LIN_1.c ****     CyExitCriticalSection(interruptState);
 2902              		.loc 1 2724 0
 2903 00b2 FB79     		ldrb	r3, [r7, #7]	@ zero_extendqisi2
 2904 00b4 1846     		mov	r0, r3
 2905 00b6 FFF7FEFF 		bl	CyExitCriticalSection
2725:.\Generated_Source\PSoC5/LIN_1.c **** 
2726:.\Generated_Source\PSoC5/LIN_1.c ****     /* Clear the "stats not checked" flag, since the status is now being checked by the user */
2727:.\Generated_Source\PSoC5/LIN_1.c ****     LIN_1_status &= ((l_u8) ~LIN_1_STATUS_NOT_CHECKED);
 2906              		.loc 1 2727 0
 2907 00ba 40F20003 		movw	r3, #:lower16:LIN_1_status
 2908 00be C0F20003 		movt	r3, #:upper16:LIN_1_status
 2909 00c2 1B78     		ldrb	r3, [r3, #0]
 2910 00c4 DBB2     		uxtb	r3, r3
 2911 00c6 23F00403 		bic	r3, r3, #4
ARM GAS  C:\Users\MATSUD~1\AppData\Local\Temp\ccLjdAaK.s 			page 101


 2912 00ca DAB2     		uxtb	r2, r3
 2913 00cc 40F20003 		movw	r3, #:lower16:LIN_1_status
 2914 00d0 C0F20003 		movt	r3, #:upper16:LIN_1_status
 2915 00d4 1A70     		strb	r2, [r3, #0]
2728:.\Generated_Source\PSoC5/LIN_1.c **** 
2729:.\Generated_Source\PSoC5/LIN_1.c ****     /* Return the status in the temp variable */
2730:.\Generated_Source\PSoC5/LIN_1.c ****     return (returnValue);
 2916              		.loc 1 2730 0
 2917 00d6 BB88     		ldrh	r3, [r7, #4]
2731:.\Generated_Source\PSoC5/LIN_1.c **** }
 2918              		.loc 1 2731 0
 2919 00d8 1846     		mov	r0, r3
 2920 00da 07F10807 		add	r7, r7, #8
 2921 00de BD46     		mov	sp, r7
 2922 00e0 80BD     		pop	{r7, pc}
 2923              		.cfi_endproc
 2924              	.LFE27:
 2925              		.size	l_ifc_read_status_LIN_1, .-l_ifc_read_status_LIN_1
 2926 00e2 00BF     		.section	.text.l_ifc_read_status,"ax",%progbits
 2927              		.align	2
 2928              		.global	l_ifc_read_status
 2929              		.thumb
 2930              		.thumb_func
 2931              		.type	l_ifc_read_status, %function
 2932              	l_ifc_read_status:
 2933              	.LFB28:
2732:.\Generated_Source\PSoC5/LIN_1.c **** 
2733:.\Generated_Source\PSoC5/LIN_1.c **** 
2734:.\Generated_Source\PSoC5/LIN_1.c **** /*******************************************************************************
2735:.\Generated_Source\PSoC5/LIN_1.c **** * Function Name: l_ifc_read_status
2736:.\Generated_Source\PSoC5/LIN_1.c **** ********************************************************************************
2737:.\Generated_Source\PSoC5/LIN_1.c **** *
2738:.\Generated_Source\PSoC5/LIN_1.c **** * Summary:
2739:.\Generated_Source\PSoC5/LIN_1.c **** *  This function is defined by the LIN specification. This returns the status of
2740:.\Generated_Source\PSoC5/LIN_1.c **** *  the specified LIN interface and then clears all status bits for that
2741:.\Generated_Source\PSoC5/LIN_1.c **** *  interface. See Section 7.2.5.8 of the LIN 2.1 specification.
2742:.\Generated_Source\PSoC5/LIN_1.c **** *
2743:.\Generated_Source\PSoC5/LIN_1.c **** *
2744:.\Generated_Source\PSoC5/LIN_1.c **** * Parameters:
2745:.\Generated_Source\PSoC5/LIN_1.c **** *  iii - is the name of the interface handle.
2746:.\Generated_Source\PSoC5/LIN_1.c **** *
2747:.\Generated_Source\PSoC5/LIN_1.c **** * Return:
2748:.\Generated_Source\PSoC5/LIN_1.c **** *  The status bits of the specified LIN interface are returned. These bits have
2749:.\Generated_Source\PSoC5/LIN_1.c **** *  the following meanings:
2750:.\Generated_Source\PSoC5/LIN_1.c **** *    [15:8]    Last Received PID
2751:.\Generated_Source\PSoC5/LIN_1.c **** *    [7]        0
2752:.\Generated_Source\PSoC5/LIN_1.c **** *    [6]        Save Configuration flag
2753:.\Generated_Source\PSoC5/LIN_1.c **** *    [5]        0
2754:.\Generated_Source\PSoC5/LIN_1.c **** *    [4]        Bus Activity flag
2755:.\Generated_Source\PSoC5/LIN_1.c **** *    [3]        Go To Sleep flag
2756:.\Generated_Source\PSoC5/LIN_1.c **** *    [2]        Overrun flag
2757:.\Generated_Source\PSoC5/LIN_1.c **** *    [1]        Successful Transfer flag
2758:.\Generated_Source\PSoC5/LIN_1.c **** *    [0]        Error in Response flag
2759:.\Generated_Source\PSoC5/LIN_1.c **** *
2760:.\Generated_Source\PSoC5/LIN_1.c **** * Reentrant:
2761:.\Generated_Source\PSoC5/LIN_1.c **** *  No
2762:.\Generated_Source\PSoC5/LIN_1.c **** *
ARM GAS  C:\Users\MATSUD~1\AppData\Local\Temp\ccLjdAaK.s 			page 102


2763:.\Generated_Source\PSoC5/LIN_1.c **** *******************************************************************************/
2764:.\Generated_Source\PSoC5/LIN_1.c **** l_u16 l_ifc_read_status(l_ifc_handle iii) 
2765:.\Generated_Source\PSoC5/LIN_1.c **** {
 2934              		.loc 1 2765 0
 2935              		.cfi_startproc
 2936              		@ args = 0, pretend = 0, frame = 16
 2937              		@ frame_needed = 1, uses_anonymous_args = 0
 2938 0000 80B5     		push	{r7, lr}
 2939              	.LCFI76:
 2940              		.cfi_def_cfa_offset 8
 2941              		.cfi_offset 7, -8
 2942              		.cfi_offset 14, -4
 2943 0002 84B0     		sub	sp, sp, #16
 2944              	.LCFI77:
 2945              		.cfi_def_cfa_offset 24
 2946 0004 00AF     		add	r7, sp, #0
 2947              	.LCFI78:
 2948              		.cfi_def_cfa_register 7
 2949 0006 0346     		mov	r3, r0
 2950 0008 FB71     		strb	r3, [r7, #7]
2766:.\Generated_Source\PSoC5/LIN_1.c ****     l_u16 returnValue;
2767:.\Generated_Source\PSoC5/LIN_1.c **** 
2768:.\Generated_Source\PSoC5/LIN_1.c ****     /* Determine which interface is specified */
2769:.\Generated_Source\PSoC5/LIN_1.c ****     switch(iii)
 2951              		.loc 1 2769 0
 2952 000a FB79     		ldrb	r3, [r7, #7]	@ zero_extendqisi2
 2953 000c 002B     		cmp	r3, #0
 2954 000e 04D1     		bne	.L153
 2955              	.L150:
2770:.\Generated_Source\PSoC5/LIN_1.c ****     {
2771:.\Generated_Source\PSoC5/LIN_1.c ****         /* Go here is interface 0 is specified */
2772:.\Generated_Source\PSoC5/LIN_1.c ****         case LIN_1_IFC_HANDLE:
2773:.\Generated_Source\PSoC5/LIN_1.c ****             returnValue = l_ifc_read_status_LIN_1();
 2956              		.loc 1 2773 0
 2957 0010 FFF7FEFF 		bl	l_ifc_read_status_LIN_1
 2958 0014 0346     		mov	r3, r0
 2959 0016 FB81     		strh	r3, [r7, #14]	@ movhi
2774:.\Generated_Source\PSoC5/LIN_1.c ****         break;
 2960              		.loc 1 2774 0
 2961 0018 03E0     		b	.L151
 2962              	.L153:
2775:.\Generated_Source\PSoC5/LIN_1.c **** 
2776:.\Generated_Source\PSoC5/LIN_1.c ****         default:
2777:.\Generated_Source\PSoC5/LIN_1.c ****             returnValue = (l_u16) CYRET_BAD_PARAM;
 2963              		.loc 1 2777 0
 2964 001a 4FF00103 		mov	r3, #1
 2965 001e FB81     		strh	r3, [r7, #14]	@ movhi
2778:.\Generated_Source\PSoC5/LIN_1.c ****         break;
 2966              		.loc 1 2778 0
 2967 0020 00BF     		nop
 2968              	.L151:
2779:.\Generated_Source\PSoC5/LIN_1.c ****     }
2780:.\Generated_Source\PSoC5/LIN_1.c **** 
2781:.\Generated_Source\PSoC5/LIN_1.c ****     return (returnValue);
 2969              		.loc 1 2781 0
 2970 0022 FB89     		ldrh	r3, [r7, #14]
2782:.\Generated_Source\PSoC5/LIN_1.c **** }
ARM GAS  C:\Users\MATSUD~1\AppData\Local\Temp\ccLjdAaK.s 			page 103


 2971              		.loc 1 2782 0
 2972 0024 1846     		mov	r0, r3
 2973 0026 07F11007 		add	r7, r7, #16
 2974 002a BD46     		mov	sp, r7
 2975 002c 80BD     		pop	{r7, pc}
 2976              		.cfi_endproc
 2977              	.LFE28:
 2978              		.size	l_ifc_read_status, .-l_ifc_read_status
 2979 002e 00BF     		.section	.text.l_sys_irq_disable,"ax",%progbits
 2980              		.align	2
 2981              		.global	l_sys_irq_disable
 2982              		.thumb
 2983              		.thumb_func
 2984              		.type	l_sys_irq_disable, %function
 2985              	l_sys_irq_disable:
 2986              	.LFB29:
2783:.\Generated_Source\PSoC5/LIN_1.c **** 
2784:.\Generated_Source\PSoC5/LIN_1.c **** 
2785:.\Generated_Source\PSoC5/LIN_1.c **** /*******************************************************************************
2786:.\Generated_Source\PSoC5/LIN_1.c **** * Function Name: l_sys_irq_disable
2787:.\Generated_Source\PSoC5/LIN_1.c **** ********************************************************************************
2788:.\Generated_Source\PSoC5/LIN_1.c **** *
2789:.\Generated_Source\PSoC5/LIN_1.c **** * Summary:
2790:.\Generated_Source\PSoC5/LIN_1.c **** *  This function disables all interrupts for the component. It returns a mask of
2791:.\Generated_Source\PSoC5/LIN_1.c **** *  the state that the interruptmask bits were in. This function is essentially
2792:.\Generated_Source\PSoC5/LIN_1.c **** *  equivalent to the DisableInt API of most components.
2793:.\Generated_Source\PSoC5/LIN_1.c **** *
2794:.\Generated_Source\PSoC5/LIN_1.c **** *  However, the returned value must be saved and later used with the
2795:.\Generated_Source\PSoC5/LIN_1.c **** *  l_sys_irq_restore function to restore the interrupt state properly. It is
2796:.\Generated_Source\PSoC5/LIN_1.c **** *  highly recommended that great care be taken when using this API routine. It
2797:.\Generated_Source\PSoC5/LIN_1.c **** *  is likely that LIN communication failures will occur if the interrupts for
2798:.\Generated_Source\PSoC5/LIN_1.c **** *  this component are disabled for too long.
2799:.\Generated_Source\PSoC5/LIN_1.c **** *
2800:.\Generated_Source\PSoC5/LIN_1.c **** *  This routine is supposed to be provided by the application. However, the LIN
2801:.\Generated_Source\PSoC5/LIN_1.c **** *  Slave component implements this routine automatically. You can modify the
2802:.\Generated_Source\PSoC5/LIN_1.c **** *  code in the routine if necessary.
2803:.\Generated_Source\PSoC5/LIN_1.c **** *
2804:.\Generated_Source\PSoC5/LIN_1.c **** * Parameters:
2805:.\Generated_Source\PSoC5/LIN_1.c **** *  None
2806:.\Generated_Source\PSoC5/LIN_1.c **** *
2807:.\Generated_Source\PSoC5/LIN_1.c **** * Return:
2808:.\Generated_Source\PSoC5/LIN_1.c **** *  Returns an interrupt register mask that defines the digital blocks for which
2809:.\Generated_Source\PSoC5/LIN_1.c **** *  interrupts were disabled.
2810:.\Generated_Source\PSoC5/LIN_1.c **** *
2811:.\Generated_Source\PSoC5/LIN_1.c **** *******************************************************************************/
2812:.\Generated_Source\PSoC5/LIN_1.c **** l_irqmask l_sys_irq_disable(void)
2813:.\Generated_Source\PSoC5/LIN_1.c **** {
 2987              		.loc 1 2813 0
 2988              		.cfi_startproc
 2989              		@ args = 0, pretend = 0, frame = 8
 2990              		@ frame_needed = 1, uses_anonymous_args = 0
 2991 0000 80B5     		push	{r7, lr}
 2992              	.LCFI79:
 2993              		.cfi_def_cfa_offset 8
 2994              		.cfi_offset 7, -8
 2995              		.cfi_offset 14, -4
 2996 0002 82B0     		sub	sp, sp, #8
ARM GAS  C:\Users\MATSUD~1\AppData\Local\Temp\ccLjdAaK.s 			page 104


 2997              	.LCFI80:
 2998              		.cfi_def_cfa_offset 16
 2999 0004 00AF     		add	r7, sp, #0
 3000              	.LCFI81:
 3001              		.cfi_def_cfa_register 7
2814:.\Generated_Source\PSoC5/LIN_1.c ****     l_irqmask irqMask = 0u;
 3002              		.loc 1 2814 0
 3003 0006 4FF00003 		mov	r3, #0
 3004 000a FB71     		strb	r3, [r7, #7]
2815:.\Generated_Source\PSoC5/LIN_1.c **** 
2816:.\Generated_Source\PSoC5/LIN_1.c ****     if(1u == CyIntGetState(LIN_1_UART_ISR_NUMBER))
 3005              		.loc 1 2816 0
 3006 000c 4FF00100 		mov	r0, #1
 3007 0010 FFF7FEFF 		bl	CyIntGetState
 3008 0014 0346     		mov	r3, r0
 3009 0016 012B     		cmp	r3, #1
 3010 0018 09D1     		bne	.L155
2817:.\Generated_Source\PSoC5/LIN_1.c ****     {
2818:.\Generated_Source\PSoC5/LIN_1.c ****         irqMask = 0x01u;
 3011              		.loc 1 2818 0
 3012 001a 4FF00103 		mov	r3, #1
 3013 001e FB71     		strb	r3, [r7, #7]
2819:.\Generated_Source\PSoC5/LIN_1.c ****         CyIntDisable(LIN_1_UART_ISR_NUMBER);
 3014              		.loc 1 2819 0
 3015 0020 4EF28013 		movw	r3, #57728
 3016 0024 CEF20003 		movt	r3, 57344
 3017 0028 4FF00202 		mov	r2, #2
 3018 002c 1A60     		str	r2, [r3, #0]
 3019              	.L155:
2820:.\Generated_Source\PSoC5/LIN_1.c ****     }
2821:.\Generated_Source\PSoC5/LIN_1.c **** 
2822:.\Generated_Source\PSoC5/LIN_1.c ****     if(1u == CyIntGetState(LIN_1_BLIN_ISR_NUMBER))
 3020              		.loc 1 2822 0
 3021 002e 4FF00000 		mov	r0, #0
 3022 0032 FFF7FEFF 		bl	CyIntGetState
 3023 0036 0346     		mov	r3, r0
 3024 0038 012B     		cmp	r3, #1
 3025 003a 0AD1     		bne	.L156
2823:.\Generated_Source\PSoC5/LIN_1.c ****     {
2824:.\Generated_Source\PSoC5/LIN_1.c ****         irqMask |= ((l_u8) (0x01u << 1u));
 3026              		.loc 1 2824 0
 3027 003c FB79     		ldrb	r3, [r7, #7]
 3028 003e 43F00203 		orr	r3, r3, #2
 3029 0042 FB71     		strb	r3, [r7, #7]
2825:.\Generated_Source\PSoC5/LIN_1.c ****         CyIntDisable(LIN_1_BLIN_ISR_NUMBER);
 3030              		.loc 1 2825 0
 3031 0044 4EF28013 		movw	r3, #57728
 3032 0048 CEF20003 		movt	r3, 57344
 3033 004c 4FF00102 		mov	r2, #1
 3034 0050 1A60     		str	r2, [r3, #0]
 3035              	.L156:
2826:.\Generated_Source\PSoC5/LIN_1.c ****     }
2827:.\Generated_Source\PSoC5/LIN_1.c **** 
2828:.\Generated_Source\PSoC5/LIN_1.c ****     return (irqMask);
 3036              		.loc 1 2828 0
 3037 0052 FB79     		ldrb	r3, [r7, #7]	@ zero_extendqisi2
2829:.\Generated_Source\PSoC5/LIN_1.c **** }
ARM GAS  C:\Users\MATSUD~1\AppData\Local\Temp\ccLjdAaK.s 			page 105


 3038              		.loc 1 2829 0
 3039 0054 1846     		mov	r0, r3
 3040 0056 07F10807 		add	r7, r7, #8
 3041 005a BD46     		mov	sp, r7
 3042 005c 80BD     		pop	{r7, pc}
 3043              		.cfi_endproc
 3044              	.LFE29:
 3045              		.size	l_sys_irq_disable, .-l_sys_irq_disable
 3046 005e 00BF     		.section	.text.l_sys_irq_restore,"ax",%progbits
 3047              		.align	2
 3048              		.global	l_sys_irq_restore
 3049              		.thumb
 3050              		.thumb_func
 3051              		.type	l_sys_irq_restore, %function
 3052              	l_sys_irq_restore:
 3053              	.LFB30:
2830:.\Generated_Source\PSoC5/LIN_1.c **** 
2831:.\Generated_Source\PSoC5/LIN_1.c **** 
2832:.\Generated_Source\PSoC5/LIN_1.c **** /*******************************************************************************
2833:.\Generated_Source\PSoC5/LIN_1.c **** * Function Name: l_sys_irq_restore
2834:.\Generated_Source\PSoC5/LIN_1.c **** ********************************************************************************
2835:.\Generated_Source\PSoC5/LIN_1.c **** *
2836:.\Generated_Source\PSoC5/LIN_1.c **** * Summary:
2837:.\Generated_Source\PSoC5/LIN_1.c **** *  This function restores interrupts for the component. It should be used in
2838:.\Generated_Source\PSoC5/LIN_1.c **** *  conjunction with l_sys_irq_disable. This function is essentially equivalent
2839:.\Generated_Source\PSoC5/LIN_1.c **** *  to the EnableInt API of most components. However, it should not be called
2840:.\Generated_Source\PSoC5/LIN_1.c **** *  when the component is being started.
2841:.\Generated_Source\PSoC5/LIN_1.c **** *
2842:.\Generated_Source\PSoC5/LIN_1.c **** *  This routine is supposed to be provided by the application. However, the LIN
2843:.\Generated_Source\PSoC5/LIN_1.c **** *  Slave component implements this routine automatically. You can modify the
2844:.\Generated_Source\PSoC5/LIN_1.c **** *  code in the routine if necessary.
2845:.\Generated_Source\PSoC5/LIN_1.c **** *
2846:.\Generated_Source\PSoC5/LIN_1.c **** * Parameters:
2847:.\Generated_Source\PSoC5/LIN_1.c **** *  previous - interrupt mask that defines the digital blocks for which
2848:.\Generated_Source\PSoC5/LIN_1.c **** *  interrupts will be enabled.
2849:.\Generated_Source\PSoC5/LIN_1.c **** *
2850:.\Generated_Source\PSoC5/LIN_1.c **** * Return:
2851:.\Generated_Source\PSoC5/LIN_1.c **** *  None
2852:.\Generated_Source\PSoC5/LIN_1.c **** *
2853:.\Generated_Source\PSoC5/LIN_1.c **** *******************************************************************************/
2854:.\Generated_Source\PSoC5/LIN_1.c **** void l_sys_irq_restore(l_irqmask previous)
2855:.\Generated_Source\PSoC5/LIN_1.c **** {
 3054              		.loc 1 2855 0
 3055              		.cfi_startproc
 3056              		@ args = 0, pretend = 0, frame = 8
 3057              		@ frame_needed = 1, uses_anonymous_args = 0
 3058              		@ link register save eliminated.
 3059 0000 80B4     		push	{r7}
 3060              	.LCFI82:
 3061              		.cfi_def_cfa_offset 4
 3062              		.cfi_offset 7, -4
 3063 0002 83B0     		sub	sp, sp, #12
 3064              	.LCFI83:
 3065              		.cfi_def_cfa_offset 16
 3066 0004 00AF     		add	r7, sp, #0
 3067              	.LCFI84:
 3068              		.cfi_def_cfa_register 7
ARM GAS  C:\Users\MATSUD~1\AppData\Local\Temp\ccLjdAaK.s 			page 106


 3069 0006 0346     		mov	r3, r0
 3070 0008 FB71     		strb	r3, [r7, #7]
2856:.\Generated_Source\PSoC5/LIN_1.c ****     if(0u != (previous & 0x01u))
 3071              		.loc 1 2856 0
 3072 000a FB79     		ldrb	r3, [r7, #7]	@ zero_extendqisi2
 3073 000c 03F00103 		and	r3, r3, #1
 3074 0010 002B     		cmp	r3, #0
 3075 0012 06D0     		beq	.L159
2857:.\Generated_Source\PSoC5/LIN_1.c ****     {
2858:.\Generated_Source\PSoC5/LIN_1.c ****         CyIntEnable(LIN_1_UART_ISR_NUMBER);
 3076              		.loc 1 2858 0
 3077 0014 4FF46143 		mov	r3, #57600
 3078 0018 CEF20003 		movt	r3, 57344
 3079 001c 4FF00202 		mov	r2, #2
 3080 0020 1A60     		str	r2, [r3, #0]
 3081              	.L159:
2859:.\Generated_Source\PSoC5/LIN_1.c ****     }
2860:.\Generated_Source\PSoC5/LIN_1.c **** 
2861:.\Generated_Source\PSoC5/LIN_1.c ****     if(0u != (previous & ((l_u8) (0x01u << 1u))))
 3082              		.loc 1 2861 0
 3083 0022 FB79     		ldrb	r3, [r7, #7]	@ zero_extendqisi2
 3084 0024 03F00203 		and	r3, r3, #2
 3085 0028 002B     		cmp	r3, #0
 3086 002a 06D0     		beq	.L158
2862:.\Generated_Source\PSoC5/LIN_1.c ****     {
2863:.\Generated_Source\PSoC5/LIN_1.c ****         CyIntEnable(LIN_1_BLIN_ISR_NUMBER);
 3087              		.loc 1 2863 0
 3088 002c 4FF46143 		mov	r3, #57600
 3089 0030 CEF20003 		movt	r3, 57344
 3090 0034 4FF00102 		mov	r2, #1
 3091 0038 1A60     		str	r2, [r3, #0]
 3092              	.L158:
2864:.\Generated_Source\PSoC5/LIN_1.c ****     }
2865:.\Generated_Source\PSoC5/LIN_1.c **** }
 3093              		.loc 1 2865 0
 3094 003a 07F10C07 		add	r7, r7, #12
 3095 003e BD46     		mov	sp, r7
 3096 0040 80BC     		pop	{r7}
 3097 0042 7047     		bx	lr
 3098              		.cfi_endproc
 3099              	.LFE30:
 3100              		.size	l_sys_irq_restore, .-l_sys_irq_restore
 3101              		.section	.text.LIN_1_FindPidIndex,"ax",%progbits
 3102              		.align	2
 3103              		.thumb
 3104              		.thumb_func
 3105              		.type	LIN_1_FindPidIndex, %function
 3106              	LIN_1_FindPidIndex:
 3107              	.LFB31:
2866:.\Generated_Source\PSoC5/LIN_1.c **** 
2867:.\Generated_Source\PSoC5/LIN_1.c **** 
2868:.\Generated_Source\PSoC5/LIN_1.c **** /*******************************************************************************
2869:.\Generated_Source\PSoC5/LIN_1.c **** * Function Name: LIN_1_FindPidIndex
2870:.\Generated_Source\PSoC5/LIN_1.c **** ********************************************************************************
2871:.\Generated_Source\PSoC5/LIN_1.c **** *
2872:.\Generated_Source\PSoC5/LIN_1.c **** * Summary:
2873:.\Generated_Source\PSoC5/LIN_1.c **** *  Returns index of the PID in LIN_1_volatileConfig.
ARM GAS  C:\Users\MATSUD~1\AppData\Local\Temp\ccLjdAaK.s 			page 107


2874:.\Generated_Source\PSoC5/LIN_1.c **** *
2875:.\Generated_Source\PSoC5/LIN_1.c **** * Parameters:
2876:.\Generated_Source\PSoC5/LIN_1.c **** *  l_u8 pid - PID of the frame which index required.
2877:.\Generated_Source\PSoC5/LIN_1.c **** *
2878:.\Generated_Source\PSoC5/LIN_1.c **** * Return:
2879:.\Generated_Source\PSoC5/LIN_1.c **** *  Index if the PID in LIN_1_volatileConfig,
2880:.\Generated_Source\PSoC5/LIN_1.c **** *  0xFFu - if PID is not found
2881:.\Generated_Source\PSoC5/LIN_1.c **** *
2882:.\Generated_Source\PSoC5/LIN_1.c **** *******************************************************************************/
2883:.\Generated_Source\PSoC5/LIN_1.c **** static l_u8 LIN_1_FindPidIndex(l_u8 pid)
2884:.\Generated_Source\PSoC5/LIN_1.c **** {
 3108              		.loc 1 2884 0
 3109              		.cfi_startproc
 3110              		@ args = 0, pretend = 0, frame = 16
 3111              		@ frame_needed = 1, uses_anonymous_args = 0
 3112              		@ link register save eliminated.
 3113 0000 80B4     		push	{r7}
 3114              	.LCFI85:
 3115              		.cfi_def_cfa_offset 4
 3116              		.cfi_offset 7, -4
 3117 0002 85B0     		sub	sp, sp, #20
 3118              	.LCFI86:
 3119              		.cfi_def_cfa_offset 24
 3120 0004 00AF     		add	r7, sp, #0
 3121              	.LCFI87:
 3122              		.cfi_def_cfa_register 7
 3123 0006 0346     		mov	r3, r0
 3124 0008 FB71     		strb	r3, [r7, #7]
2885:.\Generated_Source\PSoC5/LIN_1.c ****     l_u8 i;
2886:.\Generated_Source\PSoC5/LIN_1.c ****     l_u8 returnValue = LIN_1_INVALID_FRAME_PID;
 3125              		.loc 1 2886 0
 3126 000a 4FF0FF03 		mov	r3, #255
 3127 000e BB73     		strb	r3, [r7, #14]
2887:.\Generated_Source\PSoC5/LIN_1.c **** 
2888:.\Generated_Source\PSoC5/LIN_1.c ****     for(i = 0u; i < LIN_1_NUM_FRAMES; i++)
 3128              		.loc 1 2888 0
 3129 0010 4FF00003 		mov	r3, #0
 3130 0014 FB73     		strb	r3, [r7, #15]
 3131 0016 10E0     		b	.L162
 3132              	.L165:
2889:.\Generated_Source\PSoC5/LIN_1.c ****     {
2890:.\Generated_Source\PSoC5/LIN_1.c ****         if(pid == LIN_1_volatileConfig[i])
 3133              		.loc 1 2890 0
 3134 0018 FA7B     		ldrb	r2, [r7, #15]	@ zero_extendqisi2
 3135 001a 40F20003 		movw	r3, #:lower16:LIN_1_volatileConfig
 3136 001e C0F20003 		movt	r3, #:upper16:LIN_1_volatileConfig
 3137 0022 9B5C     		ldrb	r3, [r3, r2]
 3138 0024 DBB2     		uxtb	r3, r3
 3139 0026 FA79     		ldrb	r2, [r7, #7]	@ zero_extendqisi2
 3140 0028 9A42     		cmp	r2, r3
 3141 002a 02D1     		bne	.L163
2891:.\Generated_Source\PSoC5/LIN_1.c ****         {
2892:.\Generated_Source\PSoC5/LIN_1.c ****             returnValue = i;
 3142              		.loc 1 2892 0
 3143 002c FB7B     		ldrb	r3, [r7, #15]
 3144 002e BB73     		strb	r3, [r7, #14]
2893:.\Generated_Source\PSoC5/LIN_1.c **** 
ARM GAS  C:\Users\MATSUD~1\AppData\Local\Temp\ccLjdAaK.s 			page 108


2894:.\Generated_Source\PSoC5/LIN_1.c ****             /* Break the for loop */
2895:.\Generated_Source\PSoC5/LIN_1.c ****             break;
 3145              		.loc 1 2895 0
 3146 0030 06E0     		b	.L164
 3147              	.L163:
2888:.\Generated_Source\PSoC5/LIN_1.c ****     for(i = 0u; i < LIN_1_NUM_FRAMES; i++)
 3148              		.loc 1 2888 0
 3149 0032 FB7B     		ldrb	r3, [r7, #15]
 3150 0034 03F10103 		add	r3, r3, #1
 3151 0038 FB73     		strb	r3, [r7, #15]
 3152              	.L162:
2888:.\Generated_Source\PSoC5/LIN_1.c ****     for(i = 0u; i < LIN_1_NUM_FRAMES; i++)
 3153              		.loc 1 2888 0 is_stmt 0 discriminator 1
 3154 003a FB7B     		ldrb	r3, [r7, #15]	@ zero_extendqisi2
 3155 003c 012B     		cmp	r3, #1
 3156 003e EBD9     		bls	.L165
 3157              	.L164:
2896:.\Generated_Source\PSoC5/LIN_1.c ****         }
2897:.\Generated_Source\PSoC5/LIN_1.c ****     }
2898:.\Generated_Source\PSoC5/LIN_1.c **** 
2899:.\Generated_Source\PSoC5/LIN_1.c ****     return (returnValue);
 3158              		.loc 1 2899 0 is_stmt 1
 3159 0040 BB7B     		ldrb	r3, [r7, #14]	@ zero_extendqisi2
2900:.\Generated_Source\PSoC5/LIN_1.c **** }
 3160              		.loc 1 2900 0
 3161 0042 1846     		mov	r0, r3
 3162 0044 07F11407 		add	r7, r7, #20
 3163 0048 BD46     		mov	sp, r7
 3164 004a 80BC     		pop	{r7}
 3165 004c 7047     		bx	lr
 3166              		.cfi_endproc
 3167              	.LFE31:
 3168              		.size	LIN_1_FindPidIndex, .-LIN_1_FindPidIndex
 3169 004e 00BF     		.section	.text.LIN_1_EndFrame,"ax",%progbits
 3170              		.align	2
 3171              		.thumb
 3172              		.thumb_func
 3173              		.type	LIN_1_EndFrame, %function
 3174              	LIN_1_EndFrame:
 3175              	.LFB32:
2901:.\Generated_Source\PSoC5/LIN_1.c **** 
2902:.\Generated_Source\PSoC5/LIN_1.c **** 
2903:.\Generated_Source\PSoC5/LIN_1.c **** /*******************************************************************************
2904:.\Generated_Source\PSoC5/LIN_1.c **** * Function Name: LIN_1_EndFrame
2905:.\Generated_Source\PSoC5/LIN_1.c **** ********************************************************************************
2906:.\Generated_Source\PSoC5/LIN_1.c **** *
2907:.\Generated_Source\PSoC5/LIN_1.c **** * Summary:
2908:.\Generated_Source\PSoC5/LIN_1.c **** *  Finishes the frame transmission.
2909:.\Generated_Source\PSoC5/LIN_1.c **** *
2910:.\Generated_Source\PSoC5/LIN_1.c **** * Parameters:
2911:.\Generated_Source\PSoC5/LIN_1.c **** *  None
2912:.\Generated_Source\PSoC5/LIN_1.c **** *
2913:.\Generated_Source\PSoC5/LIN_1.c **** * Return:
2914:.\Generated_Source\PSoC5/LIN_1.c **** *  None
2915:.\Generated_Source\PSoC5/LIN_1.c **** *
2916:.\Generated_Source\PSoC5/LIN_1.c **** * Reentrant:
2917:.\Generated_Source\PSoC5/LIN_1.c **** *  No
ARM GAS  C:\Users\MATSUD~1\AppData\Local\Temp\ccLjdAaK.s 			page 109


2918:.\Generated_Source\PSoC5/LIN_1.c **** *
2919:.\Generated_Source\PSoC5/LIN_1.c **** *******************************************************************************/
2920:.\Generated_Source\PSoC5/LIN_1.c **** static void LIN_1_EndFrame(l_u8 status) 
2921:.\Generated_Source\PSoC5/LIN_1.c **** {
 3176              		.loc 1 2921 0
 3177              		.cfi_startproc
 3178              		@ args = 0, pretend = 0, frame = 16
 3179              		@ frame_needed = 1, uses_anonymous_args = 0
 3180 0000 80B5     		push	{r7, lr}
 3181              	.LCFI88:
 3182              		.cfi_def_cfa_offset 8
 3183              		.cfi_offset 7, -8
 3184              		.cfi_offset 14, -4
 3185 0002 84B0     		sub	sp, sp, #16
 3186              	.LCFI89:
 3187              		.cfi_def_cfa_offset 24
 3188 0004 00AF     		add	r7, sp, #0
 3189              	.LCFI90:
 3190              		.cfi_def_cfa_register 7
 3191 0006 0346     		mov	r3, r0
 3192 0008 FB71     		strb	r3, [r7, #7]
2922:.\Generated_Source\PSoC5/LIN_1.c ****     l_u8 interruptState;
2923:.\Generated_Source\PSoC5/LIN_1.c **** 
2924:.\Generated_Source\PSoC5/LIN_1.c ****     if(status == LIN_1_HANDLING_DONT_SAVE_PID)
 3193              		.loc 1 2924 0
 3194 000a FB79     		ldrb	r3, [r7, #7]	@ zero_extendqisi2
 3195 000c 102B     		cmp	r3, #16
 3196 000e 26D1     		bne	.L168
2925:.\Generated_Source\PSoC5/LIN_1.c ****     {
2926:.\Generated_Source\PSoC5/LIN_1.c ****         /* Clear data received flag */
2927:.\Generated_Source\PSoC5/LIN_1.c ****         LIN_1_fsmFlags &= ((l_u8) ~LIN_1_FSM_DATA_RECEIVE);
 3197              		.loc 1 2927 0
 3198 0010 40F20003 		movw	r3, #:lower16:LIN_1_fsmFlags
 3199 0014 C0F20003 		movt	r3, #:upper16:LIN_1_fsmFlags
 3200 0018 1B78     		ldrb	r3, [r3, #0]
 3201 001a DBB2     		uxtb	r3, r3
 3202 001c 23F00403 		bic	r3, r3, #4
 3203 0020 DAB2     		uxtb	r2, r3
 3204 0022 40F20003 		movw	r3, #:lower16:LIN_1_fsmFlags
 3205 0026 C0F20003 		movt	r3, #:upper16:LIN_1_fsmFlags
 3206 002a 1A70     		strb	r2, [r3, #0]
2928:.\Generated_Source\PSoC5/LIN_1.c **** 
2929:.\Generated_Source\PSoC5/LIN_1.c ****         if(0u != (LIN_1_fsmFlags & LIN_1_FSM_OVERRUN))
 3207              		.loc 1 2929 0
 3208 002c 40F20003 		movw	r3, #:lower16:LIN_1_fsmFlags
 3209 0030 C0F20003 		movt	r3, #:upper16:LIN_1_fsmFlags
 3210 0034 1B78     		ldrb	r3, [r3, #0]
 3211 0036 DBB2     		uxtb	r3, r3
 3212 0038 03F04003 		and	r3, r3, #64
 3213 003c 002B     		cmp	r3, #0
 3214 003e 78D0     		beq	.L167
2930:.\Generated_Source\PSoC5/LIN_1.c ****         {
2931:.\Generated_Source\PSoC5/LIN_1.c ****             /* Set overrun */
2932:.\Generated_Source\PSoC5/LIN_1.c ****             LIN_1_ifcStatus |= LIN_1_IFC_STS_OVERRUN;
 3215              		.loc 1 2932 0
 3216 0040 40F20003 		movw	r3, #:lower16:LIN_1_ifcStatus
 3217 0044 C0F20003 		movt	r3, #:upper16:LIN_1_ifcStatus
ARM GAS  C:\Users\MATSUD~1\AppData\Local\Temp\ccLjdAaK.s 			page 110


 3218 0048 1B88     		ldrh	r3, [r3, #0]	@ movhi
 3219 004a 9BB2     		uxth	r3, r3
 3220 004c 43F00403 		orr	r3, r3, #4
 3221 0050 9AB2     		uxth	r2, r3
 3222 0052 40F20003 		movw	r3, #:lower16:LIN_1_ifcStatus
 3223 0056 C0F20003 		movt	r3, #:upper16:LIN_1_ifcStatus
 3224 005a 1A80     		strh	r2, [r3, #0]	@ movhi
 3225 005c 69E0     		b	.L167
 3226              	.L168:
2933:.\Generated_Source\PSoC5/LIN_1.c ****         }
2934:.\Generated_Source\PSoC5/LIN_1.c ****     }
2935:.\Generated_Source\PSoC5/LIN_1.c ****     else if(status ==LIN_1_HANDLING_SKIP_OVERRUN)
 3227              		.loc 1 2935 0
 3228 005e FB79     		ldrb	r3, [r7, #7]	@ zero_extendqisi2
 3229 0060 202B     		cmp	r3, #32
 3230 0062 0ED1     		bne	.L170
2936:.\Generated_Source\PSoC5/LIN_1.c ****     {
2937:.\Generated_Source\PSoC5/LIN_1.c ****         /* Set Overrun flag */
2938:.\Generated_Source\PSoC5/LIN_1.c ****         LIN_1_fsmFlags |= LIN_1_FSM_OVERRUN;
 3231              		.loc 1 2938 0
 3232 0064 40F20003 		movw	r3, #:lower16:LIN_1_fsmFlags
 3233 0068 C0F20003 		movt	r3, #:upper16:LIN_1_fsmFlags
 3234 006c 1B78     		ldrb	r3, [r3, #0]
 3235 006e DBB2     		uxtb	r3, r3
 3236 0070 43F04003 		orr	r3, r3, #64
 3237 0074 DAB2     		uxtb	r2, r3
 3238 0076 40F20003 		movw	r3, #:lower16:LIN_1_fsmFlags
 3239 007a C0F20003 		movt	r3, #:upper16:LIN_1_fsmFlags
 3240 007e 1A70     		strb	r2, [r3, #0]
 3241 0080 57E0     		b	.L167
 3242              	.L170:
2939:.\Generated_Source\PSoC5/LIN_1.c **** 
2940:.\Generated_Source\PSoC5/LIN_1.c ****         #if(1u == LIN_1_TL_ENABLED)
2941:.\Generated_Source\PSoC5/LIN_1.c **** 
2942:.\Generated_Source\PSoC5/LIN_1.c ****             if(0u != (LIN_1_tlFlags & LIN_1_TL_TX_DIRECTION))
2943:.\Generated_Source\PSoC5/LIN_1.c ****             {
2944:.\Generated_Source\PSoC5/LIN_1.c ****                 /* Transport Layer Functions: Cooked Transport Layer API */
2945:.\Generated_Source\PSoC5/LIN_1.c ****                 #if(1u == LIN_1_TL_API_FORMAT)
2946:.\Generated_Source\PSoC5/LIN_1.c **** 
2947:.\Generated_Source\PSoC5/LIN_1.c ****                     /* Set TL TX error status */
2948:.\Generated_Source\PSoC5/LIN_1.c ****                     LIN_1_txTlStatus = LD_FAILED;
2949:.\Generated_Source\PSoC5/LIN_1.c **** 
2950:.\Generated_Source\PSoC5/LIN_1.c ****                 #else   /* Transport Layer Functions: Raw Transport Layer API */
2951:.\Generated_Source\PSoC5/LIN_1.c **** 
2952:.\Generated_Source\PSoC5/LIN_1.c ****                     /* Set TL TX error status */
2953:.\Generated_Source\PSoC5/LIN_1.c ****                     LIN_1_txTlStatus = LD_TRANSMIT_ERROR;
2954:.\Generated_Source\PSoC5/LIN_1.c **** 
2955:.\Generated_Source\PSoC5/LIN_1.c ****                 #endif /* (1u == LIN_1_TL_API_FORMAT) */
2956:.\Generated_Source\PSoC5/LIN_1.c **** 
2957:.\Generated_Source\PSoC5/LIN_1.c ****                 /* Clear TL flags register */
2958:.\Generated_Source\PSoC5/LIN_1.c ****                 LIN_1_tlFlags = 0u;
2959:.\Generated_Source\PSoC5/LIN_1.c ****             }
2960:.\Generated_Source\PSoC5/LIN_1.c **** 
2961:.\Generated_Source\PSoC5/LIN_1.c ****             if(0u != (LIN_1_tlFlags & LIN_1_TL_RX_DIRECTION))
2962:.\Generated_Source\PSoC5/LIN_1.c ****             {
2963:.\Generated_Source\PSoC5/LIN_1.c ****                 /* Transport Layer Functions: Cooked Transport Layer API */
2964:.\Generated_Source\PSoC5/LIN_1.c ****                 #if(1u == LIN_1_TL_API_FORMAT)
ARM GAS  C:\Users\MATSUD~1\AppData\Local\Temp\ccLjdAaK.s 			page 111


2965:.\Generated_Source\PSoC5/LIN_1.c **** 
2966:.\Generated_Source\PSoC5/LIN_1.c ****                     /* Set TL RX error status */
2967:.\Generated_Source\PSoC5/LIN_1.c ****                     LIN_1_rxTlStatus = LD_FAILED;
2968:.\Generated_Source\PSoC5/LIN_1.c **** 
2969:.\Generated_Source\PSoC5/LIN_1.c ****                 #else   /* Transport Layer Functions: Raw Transport Layer API */
2970:.\Generated_Source\PSoC5/LIN_1.c **** 
2971:.\Generated_Source\PSoC5/LIN_1.c ****                     /* Set TL RX error status */
2972:.\Generated_Source\PSoC5/LIN_1.c ****                     LIN_1_rxTlStatus = LD_RECEIVE_ERROR;
2973:.\Generated_Source\PSoC5/LIN_1.c **** 
2974:.\Generated_Source\PSoC5/LIN_1.c ****                 #endif /* (1u == LIN_1_TL_API_FORMAT) */
2975:.\Generated_Source\PSoC5/LIN_1.c **** 
2976:.\Generated_Source\PSoC5/LIN_1.c ****                 /* Clear TL flags register */
2977:.\Generated_Source\PSoC5/LIN_1.c ****                 LIN_1_tlFlags = 0u;
2978:.\Generated_Source\PSoC5/LIN_1.c ****             }
2979:.\Generated_Source\PSoC5/LIN_1.c **** 
2980:.\Generated_Source\PSoC5/LIN_1.c ****         #endif /* (1u == LIN_1_TL_ENABLED) */
2981:.\Generated_Source\PSoC5/LIN_1.c ****     }
2982:.\Generated_Source\PSoC5/LIN_1.c ****     else if(status == LIN_1_HANDLING_RESET_FSM_ERR)
 3243              		.loc 1 2982 0
 3244 0082 FB79     		ldrb	r3, [r7, #7]	@ zero_extendqisi2
 3245 0084 012B     		cmp	r3, #1
 3246 0086 54D1     		bne	.L167
2983:.\Generated_Source\PSoC5/LIN_1.c ****     {
2984:.\Generated_Source\PSoC5/LIN_1.c ****         /* Clear UART enable flag */
2985:.\Generated_Source\PSoC5/LIN_1.c ****         LIN_1_fsmFlags &= ((l_u8) ~LIN_1_FSM_UART_ENABLE_FLAG);
 3247              		.loc 1 2985 0
 3248 0088 40F20003 		movw	r3, #:lower16:LIN_1_fsmFlags
 3249 008c C0F20003 		movt	r3, #:upper16:LIN_1_fsmFlags
 3250 0090 1B78     		ldrb	r3, [r3, #0]
 3251 0092 DBB2     		uxtb	r3, r3
 3252 0094 23F00803 		bic	r3, r3, #8
 3253 0098 DAB2     		uxtb	r2, r3
 3254 009a 40F20003 		movw	r3, #:lower16:LIN_1_fsmFlags
 3255 009e C0F20003 		movt	r3, #:upper16:LIN_1_fsmFlags
 3256 00a2 1A70     		strb	r2, [r3, #0]
2986:.\Generated_Source\PSoC5/LIN_1.c **** 
2987:.\Generated_Source\PSoC5/LIN_1.c ****         /* Shutdown and disconnect UART, clear pending interrupts */
2988:.\Generated_Source\PSoC5/LIN_1.c ****         CyIntDisable(LIN_1_UART_ISR_NUMBER);
 3257              		.loc 1 2988 0
 3258 00a4 4EF28013 		movw	r3, #57728
 3259 00a8 CEF20003 		movt	r3, 57344
 3260 00ac 4FF00202 		mov	r2, #2
 3261 00b0 1A60     		str	r2, [r3, #0]
2989:.\Generated_Source\PSoC5/LIN_1.c **** 
2990:.\Generated_Source\PSoC5/LIN_1.c ****         /* Disconnect bus RX from UART */
2991:.\Generated_Source\PSoC5/LIN_1.c ****         LIN_1_CONTROL_REG |=  LIN_1_CONTROL_RX_DIS;
 3262              		.loc 1 2991 0
 3263 00b2 46F27643 		movw	r3, #25718
 3264 00b6 C4F20003 		movt	r3, 16384
 3265 00ba 46F27642 		movw	r2, #25718
 3266 00be C4F20002 		movt	r2, 16384
 3267 00c2 1278     		ldrb	r2, [r2, #0]
 3268 00c4 D2B2     		uxtb	r2, r2
 3269 00c6 42F00402 		orr	r2, r2, #4
 3270 00ca D2B2     		uxtb	r2, r2
 3271 00cc 1A70     		strb	r2, [r3, #0]
2992:.\Generated_Source\PSoC5/LIN_1.c **** 
ARM GAS  C:\Users\MATSUD~1\AppData\Local\Temp\ccLjdAaK.s 			page 112


2993:.\Generated_Source\PSoC5/LIN_1.c ****         /*******************************************************************
2994:.\Generated_Source\PSoC5/LIN_1.c ****         * Clear UART Rx FIFO.
2995:.\Generated_Source\PSoC5/LIN_1.c ****         * This should be done by calling UART_ClearRxBuffer() function, but
2996:.\Generated_Source\PSoC5/LIN_1.c ****         * its current implementation clears only memory buffer, but not FIFO
2997:.\Generated_Source\PSoC5/LIN_1.c ****         * one.
2998:.\Generated_Source\PSoC5/LIN_1.c ****         *******************************************************************/
2999:.\Generated_Source\PSoC5/LIN_1.c ****         interruptState = CyEnterCriticalSection();
 3272              		.loc 1 2999 0
 3273 00ce FFF7FEFF 		bl	CyEnterCriticalSection
 3274 00d2 0346     		mov	r3, r0
 3275 00d4 FB73     		strb	r3, [r7, #15]
3000:.\Generated_Source\PSoC5/LIN_1.c **** 
3001:.\Generated_Source\PSoC5/LIN_1.c ****         LIN_1_UART_RX_FIFO_REG |= LIN_1_UART_RX_FIFO_CLEAR;
 3276              		.loc 1 3001 0
 3277 00d6 46F29453 		movw	r3, #26004
 3278 00da C4F20003 		movt	r3, 16384
 3279 00de 46F29452 		movw	r2, #26004
 3280 00e2 C4F20002 		movt	r2, 16384
 3281 00e6 1278     		ldrb	r2, [r2, #0]
 3282 00e8 D2B2     		uxtb	r2, r2
 3283 00ea 42F00102 		orr	r2, r2, #1
 3284 00ee D2B2     		uxtb	r2, r2
 3285 00f0 1A70     		strb	r2, [r3, #0]
3002:.\Generated_Source\PSoC5/LIN_1.c ****         LIN_1_UART_RX_FIFO_REG &= ((l_u8) ~LIN_1_UART_RX_FIFO_CLEAR);
 3286              		.loc 1 3002 0
 3287 00f2 46F29453 		movw	r3, #26004
 3288 00f6 C4F20003 		movt	r3, 16384
 3289 00fa 46F29452 		movw	r2, #26004
 3290 00fe C4F20002 		movt	r2, 16384
 3291 0102 1278     		ldrb	r2, [r2, #0]
 3292 0104 D2B2     		uxtb	r2, r2
 3293 0106 22F00102 		bic	r2, r2, #1
 3294 010a D2B2     		uxtb	r2, r2
 3295 010c 1A70     		strb	r2, [r3, #0]
3003:.\Generated_Source\PSoC5/LIN_1.c **** 
3004:.\Generated_Source\PSoC5/LIN_1.c ****         CyExitCriticalSection(interruptState);
 3296              		.loc 1 3004 0
 3297 010e FB7B     		ldrb	r3, [r7, #15]	@ zero_extendqisi2
 3298 0110 1846     		mov	r0, r3
 3299 0112 FFF7FEFF 		bl	CyExitCriticalSection
3005:.\Generated_Source\PSoC5/LIN_1.c **** 
3006:.\Generated_Source\PSoC5/LIN_1.c ****         /* Clear any pending UART interrupt */
3007:.\Generated_Source\PSoC5/LIN_1.c ****         CyIntClearPending(LIN_1_UART_ISR_NUMBER);
 3300              		.loc 1 3007 0
 3301 0116 4EF28023 		movw	r3, #57984
 3302 011a CEF20003 		movt	r3, 57344
 3303 011e 4FF00202 		mov	r2, #2
 3304 0122 1A60     		str	r2, [r3, #0]
3008:.\Generated_Source\PSoC5/LIN_1.c **** 
3009:.\Generated_Source\PSoC5/LIN_1.c ****         /* Update UART ISR FSM state */
3010:.\Generated_Source\PSoC5/LIN_1.c ****          #if(1u == LIN_1_AUTO_BAUD_RATE_SYNC)
3011:.\Generated_Source\PSoC5/LIN_1.c **** 
3012:.\Generated_Source\PSoC5/LIN_1.c ****             /* Auto Baud Rate Sync Enabled */
3013:.\Generated_Source\PSoC5/LIN_1.c ****             LIN_1_uartFsmState = LIN_1_UART_ISR_STATE_1_PID;
 3305              		.loc 1 3013 0
 3306 0124 40F20003 		movw	r3, #:lower16:LIN_1_uartFsmState
 3307 0128 C0F20003 		movt	r3, #:upper16:LIN_1_uartFsmState
ARM GAS  C:\Users\MATSUD~1\AppData\Local\Temp\ccLjdAaK.s 			page 113


 3308 012c 4FF00102 		mov	r2, #1
 3309 0130 1A70     		strb	r2, [r3, #0]
 3310              	.L167:
3014:.\Generated_Source\PSoC5/LIN_1.c **** 
3015:.\Generated_Source\PSoC5/LIN_1.c ****         #else
3016:.\Generated_Source\PSoC5/LIN_1.c **** 
3017:.\Generated_Source\PSoC5/LIN_1.c ****             /* Auto Baud Rate Sync disabled */
3018:.\Generated_Source\PSoC5/LIN_1.c ****             LIN_1_uartFsmState = LIN_1_UART_ISR_STATE_0_SNC;
3019:.\Generated_Source\PSoC5/LIN_1.c **** 
3020:.\Generated_Source\PSoC5/LIN_1.c ****         #endif  /* (1u == LIN_1_AUTO_BAUD_RATE_SYNC) */
3021:.\Generated_Source\PSoC5/LIN_1.c ****     }
3022:.\Generated_Source\PSoC5/LIN_1.c ****     else
3023:.\Generated_Source\PSoC5/LIN_1.c ****     {
3024:.\Generated_Source\PSoC5/LIN_1.c ****         /* Do nothing */
3025:.\Generated_Source\PSoC5/LIN_1.c ****     }
3026:.\Generated_Source\PSoC5/LIN_1.c **** }
 3311              		.loc 1 3026 0
 3312 0132 07F11007 		add	r7, r7, #16
 3313 0136 BD46     		mov	sp, r7
 3314 0138 80BD     		pop	{r7, pc}
 3315              		.cfi_endproc
 3316              	.LFE32:
 3317              		.size	LIN_1_EndFrame, .-LIN_1_EndFrame
 3318 013a 00BF     		.section	.text.LIN_1_SetAssociatedFlags,"ax",%progbits
 3319              		.align	2
 3320              		.thumb
 3321              		.thumb_func
 3322              		.type	LIN_1_SetAssociatedFlags, %function
 3323              	LIN_1_SetAssociatedFlags:
 3324              	.LFB33:
3027:.\Generated_Source\PSoC5/LIN_1.c **** 
3028:.\Generated_Source\PSoC5/LIN_1.c **** 
3029:.\Generated_Source\PSoC5/LIN_1.c **** /*******************************************************************************
3030:.\Generated_Source\PSoC5/LIN_1.c **** * Function Name: LIN_1_SetAssociatedFlags
3031:.\Generated_Source\PSoC5/LIN_1.c **** ********************************************************************************
3032:.\Generated_Source\PSoC5/LIN_1.c **** *
3033:.\Generated_Source\PSoC5/LIN_1.c **** * Summary:
3034:.\Generated_Source\PSoC5/LIN_1.c **** *  This function sets appropriate flags. Used by ISR.
3035:.\Generated_Source\PSoC5/LIN_1.c **** *
3036:.\Generated_Source\PSoC5/LIN_1.c **** * Parameters:
3037:.\Generated_Source\PSoC5/LIN_1.c **** *  Index of the PID in LIN_1_LinSlaveConfig.
3038:.\Generated_Source\PSoC5/LIN_1.c **** *
3039:.\Generated_Source\PSoC5/LIN_1.c **** * Return:
3040:.\Generated_Source\PSoC5/LIN_1.c **** *  None
3041:.\Generated_Source\PSoC5/LIN_1.c **** *
3042:.\Generated_Source\PSoC5/LIN_1.c **** * Reentrant:
3043:.\Generated_Source\PSoC5/LIN_1.c **** *  No
3044:.\Generated_Source\PSoC5/LIN_1.c **** *
3045:.\Generated_Source\PSoC5/LIN_1.c **** *******************************************************************************/
3046:.\Generated_Source\PSoC5/LIN_1.c **** static void LIN_1_SetAssociatedFlags(l_u8 pIndex)
3047:.\Generated_Source\PSoC5/LIN_1.c **** {
 3325              		.loc 1 3047 0
 3326              		.cfi_startproc
 3327              		@ args = 0, pretend = 0, frame = 8
 3328              		@ frame_needed = 1, uses_anonymous_args = 0
 3329              		@ link register save eliminated.
 3330 0000 80B4     		push	{r7}
ARM GAS  C:\Users\MATSUD~1\AppData\Local\Temp\ccLjdAaK.s 			page 114


 3331              	.LCFI91:
 3332              		.cfi_def_cfa_offset 4
 3333              		.cfi_offset 7, -4
 3334 0002 83B0     		sub	sp, sp, #12
 3335              	.LCFI92:
 3336              		.cfi_def_cfa_offset 16
 3337 0004 00AF     		add	r7, sp, #0
 3338              	.LCFI93:
 3339              		.cfi_def_cfa_register 7
 3340 0006 0346     		mov	r3, r0
 3341 0008 FB71     		strb	r3, [r7, #7]
3048:.\Generated_Source\PSoC5/LIN_1.c ****     switch(pIndex)
 3342              		.loc 1 3048 0
 3343 000a FB79     		ldrb	r3, [r7, #7]	@ zero_extendqisi2
 3344 000c 002B     		cmp	r3, #0
 3345 000e 02D0     		beq	.L173
 3346 0010 012B     		cmp	r3, #1
 3347 0012 0ED0     		beq	.L174
 3348 0014 1BE0     		b	.L176
 3349              	.L173:
3049:.\Generated_Source\PSoC5/LIN_1.c ****     {
3050:.\Generated_Source\PSoC5/LIN_1.c ****         case 0u:
3051:.\Generated_Source\PSoC5/LIN_1.c ****             /* Mark frame "Frame1" (Type:Unconditional,Associated With:None) and associated signals
3052:.\Generated_Source\PSoC5/LIN_1.c ****             LIN_1_statusFlagArray[LIN_1_ISR_AUX_SET_FLAGS_Frame1_FLAG_BYTE_OFFSET_0] |=
 3350              		.loc 1 3052 0
 3351 0016 40F20003 		movw	r3, #:lower16:LIN_1_statusFlagArray
 3352 001a C0F20003 		movt	r3, #:upper16:LIN_1_statusFlagArray
 3353 001e 1B78     		ldrb	r3, [r3, #0]	@ zero_extendqisi2
 3354 0020 43F00203 		orr	r3, r3, #2
 3355 0024 DAB2     		uxtb	r2, r3
 3356 0026 40F20003 		movw	r3, #:lower16:LIN_1_statusFlagArray
 3357 002a C0F20003 		movt	r3, #:upper16:LIN_1_statusFlagArray
 3358 002e 1A70     		strb	r2, [r3, #0]
3053:.\Generated_Source\PSoC5/LIN_1.c ****                 LIN_1_ISR_AUX_SET_FLAGS_Frame1_FLAG_MASK_0;
3054:.\Generated_Source\PSoC5/LIN_1.c ****         break;
 3359              		.loc 1 3054 0
 3360 0030 0EE0     		b	.L171
 3361              	.L174:
3055:.\Generated_Source\PSoC5/LIN_1.c **** 
3056:.\Generated_Source\PSoC5/LIN_1.c ****         case 1u:
3057:.\Generated_Source\PSoC5/LIN_1.c ****             /* Mark frame "Frame2" (Type:Unconditional,Associated With:None) and associated signals
3058:.\Generated_Source\PSoC5/LIN_1.c ****             LIN_1_statusFlagArray[LIN_1_ISR_AUX_SET_FLAGS_Frame2_FLAG_BYTE_OFFSET_0] |=
 3362              		.loc 1 3058 0
 3363 0032 40F20003 		movw	r3, #:lower16:LIN_1_statusFlagArray
 3364 0036 C0F20003 		movt	r3, #:upper16:LIN_1_statusFlagArray
 3365 003a 1B78     		ldrb	r3, [r3, #0]	@ zero_extendqisi2
 3366 003c 43F00503 		orr	r3, r3, #5
 3367 0040 DAB2     		uxtb	r2, r3
 3368 0042 40F20003 		movw	r3, #:lower16:LIN_1_statusFlagArray
 3369 0046 C0F20003 		movt	r3, #:upper16:LIN_1_statusFlagArray
 3370 004a 1A70     		strb	r2, [r3, #0]
3059:.\Generated_Source\PSoC5/LIN_1.c ****                 LIN_1_ISR_AUX_SET_FLAGS_Frame2_FLAG_MASK_0;
3060:.\Generated_Source\PSoC5/LIN_1.c ****         break;
 3371              		.loc 1 3060 0
 3372 004c 00E0     		b	.L171
 3373              	.L176:
3061:.\Generated_Source\PSoC5/LIN_1.c **** 
ARM GAS  C:\Users\MATSUD~1\AppData\Local\Temp\ccLjdAaK.s 			page 115


3062:.\Generated_Source\PSoC5/LIN_1.c **** 
3063:.\Generated_Source\PSoC5/LIN_1.c ****         default:
3064:.\Generated_Source\PSoC5/LIN_1.c ****         break;    
 3374              		.loc 1 3064 0
 3375 004e 00BF     		nop
 3376              	.L171:
3065:.\Generated_Source\PSoC5/LIN_1.c ****     }
3066:.\Generated_Source\PSoC5/LIN_1.c **** }
 3377              		.loc 1 3066 0
 3378 0050 07F10C07 		add	r7, r7, #12
 3379 0054 BD46     		mov	sp, r7
 3380 0056 80BC     		pop	{r7}
 3381 0058 7047     		bx	lr
 3382              		.cfi_endproc
 3383              	.LFE33:
 3384              		.size	LIN_1_SetAssociatedFlags, .-LIN_1_SetAssociatedFlags
 3385 005a 00BF     		.section	.text.LIN_1_GetEtFlagValue,"ax",%progbits
 3386              		.align	2
 3387              		.thumb
 3388              		.thumb_func
 3389              		.type	LIN_1_GetEtFlagValue, %function
 3390              	LIN_1_GetEtFlagValue:
 3391              	.LFB34:
3067:.\Generated_Source\PSoC5/LIN_1.c **** 
3068:.\Generated_Source\PSoC5/LIN_1.c **** 
3069:.\Generated_Source\PSoC5/LIN_1.c **** 
3070:.\Generated_Source\PSoC5/LIN_1.c **** /* SAE J2602 is disabled */
3071:.\Generated_Source\PSoC5/LIN_1.c **** #if(0u == LIN_1_SAE_J2602)
3072:.\Generated_Source\PSoC5/LIN_1.c **** 
3073:.\Generated_Source\PSoC5/LIN_1.c **** 
3074:.\Generated_Source\PSoC5/LIN_1.c ****     /*******************************************************************************
3075:.\Generated_Source\PSoC5/LIN_1.c ****     * Function Name: LIN_1_GetEtFlagValue
3076:.\Generated_Source\PSoC5/LIN_1.c ****     ********************************************************************************
3077:.\Generated_Source\PSoC5/LIN_1.c ****     *
3078:.\Generated_Source\PSoC5/LIN_1.c ****     * Summary:
3079:.\Generated_Source\PSoC5/LIN_1.c ****     *  This function gets value of appropriate event-triggered frame flag.
3080:.\Generated_Source\PSoC5/LIN_1.c ****     *
3081:.\Generated_Source\PSoC5/LIN_1.c ****     * Parameters:
3082:.\Generated_Source\PSoC5/LIN_1.c ****     *  Index of the PID in LIN_1_LinSlaveConfig.
3083:.\Generated_Source\PSoC5/LIN_1.c ****     *
3084:.\Generated_Source\PSoC5/LIN_1.c ****     * Return:
3085:.\Generated_Source\PSoC5/LIN_1.c ****     *  Current flag value.
3086:.\Generated_Source\PSoC5/LIN_1.c ****     *
3087:.\Generated_Source\PSoC5/LIN_1.c ****     *******************************************************************************/
3088:.\Generated_Source\PSoC5/LIN_1.c ****     static l_bool LIN_1_GetEtFlagValue(l_u8 pidIndex)
3089:.\Generated_Source\PSoC5/LIN_1.c **** {
 3392              		.loc 1 3089 0
 3393              		.cfi_startproc
 3394              		@ args = 0, pretend = 0, frame = 16
 3395              		@ frame_needed = 1, uses_anonymous_args = 0
 3396              		@ link register save eliminated.
 3397 0000 80B4     		push	{r7}
 3398              	.LCFI94:
 3399              		.cfi_def_cfa_offset 4
 3400              		.cfi_offset 7, -4
 3401 0002 85B0     		sub	sp, sp, #20
 3402              	.LCFI95:
ARM GAS  C:\Users\MATSUD~1\AppData\Local\Temp\ccLjdAaK.s 			page 116


 3403              		.cfi_def_cfa_offset 24
 3404 0004 00AF     		add	r7, sp, #0
 3405              	.LCFI96:
 3406              		.cfi_def_cfa_register 7
 3407 0006 0346     		mov	r3, r0
 3408 0008 FB71     		strb	r3, [r7, #7]
3090:.\Generated_Source\PSoC5/LIN_1.c ****     l_bool returnValue;
3091:.\Generated_Source\PSoC5/LIN_1.c **** 
3092:.\Generated_Source\PSoC5/LIN_1.c ****     switch(pidIndex)
3093:.\Generated_Source\PSoC5/LIN_1.c ****     {
3094:.\Generated_Source\PSoC5/LIN_1.c ****         default:
3095:.\Generated_Source\PSoC5/LIN_1.c ****              returnValue = LIN_1_FALSE;
 3409              		.loc 1 3095 0
 3410 000a 4FF00003 		mov	r3, #0
 3411 000e FB73     		strb	r3, [r7, #15]
3096:.\Generated_Source\PSoC5/LIN_1.c ****         break;    
 3412              		.loc 1 3096 0
 3413 0010 00BF     		nop
3097:.\Generated_Source\PSoC5/LIN_1.c ****     }
3098:.\Generated_Source\PSoC5/LIN_1.c **** 
3099:.\Generated_Source\PSoC5/LIN_1.c ****     return (returnValue);
 3414              		.loc 1 3099 0
 3415 0012 FB7B     		ldrb	r3, [r7, #15]	@ zero_extendqisi2
3100:.\Generated_Source\PSoC5/LIN_1.c **** }
 3416              		.loc 1 3100 0
 3417 0014 1846     		mov	r0, r3
 3418 0016 07F11407 		add	r7, r7, #20
 3419 001a BD46     		mov	sp, r7
 3420 001c 80BC     		pop	{r7}
 3421 001e 7047     		bx	lr
 3422              		.cfi_endproc
 3423              	.LFE34:
 3424              		.size	LIN_1_GetEtFlagValue, .-LIN_1_GetEtFlagValue
 3425              		.section	.text.LIN_1_ClearEtFlagValue,"ax",%progbits
 3426              		.align	2
 3427              		.thumb
 3428              		.thumb_func
 3429              		.type	LIN_1_ClearEtFlagValue, %function
 3430              	LIN_1_ClearEtFlagValue:
 3431              	.LFB35:
3101:.\Generated_Source\PSoC5/LIN_1.c **** 
3102:.\Generated_Source\PSoC5/LIN_1.c **** 
3103:.\Generated_Source\PSoC5/LIN_1.c **** 
3104:.\Generated_Source\PSoC5/LIN_1.c ****     /*******************************************************************************
3105:.\Generated_Source\PSoC5/LIN_1.c ****     * Function Name: LIN_1_ClearEtFlagValue
3106:.\Generated_Source\PSoC5/LIN_1.c ****     ********************************************************************************
3107:.\Generated_Source\PSoC5/LIN_1.c ****     *
3108:.\Generated_Source\PSoC5/LIN_1.c ****     * Summary:
3109:.\Generated_Source\PSoC5/LIN_1.c ****     *  This function clears value of appropriate event-triggered frame flag.
3110:.\Generated_Source\PSoC5/LIN_1.c ****     *
3111:.\Generated_Source\PSoC5/LIN_1.c ****     * Parameters:
3112:.\Generated_Source\PSoC5/LIN_1.c ****     *  Index of the PID in LIN_1_LinSlaveConfig.
3113:.\Generated_Source\PSoC5/LIN_1.c ****     *
3114:.\Generated_Source\PSoC5/LIN_1.c ****     * Return:
3115:.\Generated_Source\PSoC5/LIN_1.c ****     *  None
3116:.\Generated_Source\PSoC5/LIN_1.c ****     *
3117:.\Generated_Source\PSoC5/LIN_1.c ****     * Reentrant:
ARM GAS  C:\Users\MATSUD~1\AppData\Local\Temp\ccLjdAaK.s 			page 117


3118:.\Generated_Source\PSoC5/LIN_1.c ****     *  No
3119:.\Generated_Source\PSoC5/LIN_1.c ****     *
3120:.\Generated_Source\PSoC5/LIN_1.c ****     *******************************************************************************/
3121:.\Generated_Source\PSoC5/LIN_1.c ****     static void LIN_1_ClearEtFlagValue(l_u8 pidIndex)
3122:.\Generated_Source\PSoC5/LIN_1.c **** {
 3432              		.loc 1 3122 0
 3433              		.cfi_startproc
 3434              		@ args = 0, pretend = 0, frame = 8
 3435              		@ frame_needed = 1, uses_anonymous_args = 0
 3436              		@ link register save eliminated.
 3437 0000 80B4     		push	{r7}
 3438              	.LCFI97:
 3439              		.cfi_def_cfa_offset 4
 3440              		.cfi_offset 7, -4
 3441 0002 83B0     		sub	sp, sp, #12
 3442              	.LCFI98:
 3443              		.cfi_def_cfa_offset 16
 3444 0004 00AF     		add	r7, sp, #0
 3445              	.LCFI99:
 3446              		.cfi_def_cfa_register 7
 3447 0006 0346     		mov	r3, r0
 3448 0008 FB71     		strb	r3, [r7, #7]
3123:.\Generated_Source\PSoC5/LIN_1.c ****     switch(pidIndex)
3124:.\Generated_Source\PSoC5/LIN_1.c ****     {
3125:.\Generated_Source\PSoC5/LIN_1.c ****         default:
3126:.\Generated_Source\PSoC5/LIN_1.c ****         break;    
 3449              		.loc 1 3126 0
 3450 000a 00BF     		nop
3127:.\Generated_Source\PSoC5/LIN_1.c ****     }
3128:.\Generated_Source\PSoC5/LIN_1.c **** }
 3451              		.loc 1 3128 0
 3452 000c 07F10C07 		add	r7, r7, #12
 3453 0010 BD46     		mov	sp, r7
 3454 0012 80BC     		pop	{r7}
 3455 0014 7047     		bx	lr
 3456              		.cfi_endproc
 3457              	.LFE35:
 3458              		.size	LIN_1_ClearEtFlagValue, .-LIN_1_ClearEtFlagValue
 3459 0016 00BF     		.bss
 3460              	LIN_1_framePid.5055:
 3461 0012 00       		.space	1
 3462              	LIN_1_bytesTransferred.5057:
 3463 0013 00       		.space	1
 3464              		.section	.rodata
 3465 0002 0000     		.align	2
 3466              		.type	LIN_1_parityTable.5062, %object
 3467              		.size	LIN_1_parityTable.5062, 64
 3468              	LIN_1_parityTable.5062:
 3469 0004 80       		.byte	-128
 3470 0005 C1       		.byte	-63
 3471 0006 42       		.byte	66
 3472 0007 03       		.byte	3
 3473 0008 C4       		.byte	-60
 3474 0009 85       		.byte	-123
 3475 000a 06       		.byte	6
 3476 000b 47       		.byte	71
 3477 000c 08       		.byte	8
ARM GAS  C:\Users\MATSUD~1\AppData\Local\Temp\ccLjdAaK.s 			page 118


 3478 000d 49       		.byte	73
 3479 000e CA       		.byte	-54
 3480 000f 8B       		.byte	-117
 3481 0010 4C       		.byte	76
 3482 0011 0D       		.byte	13
 3483 0012 8E       		.byte	-114
 3484 0013 CF       		.byte	-49
 3485 0014 50       		.byte	80
 3486 0015 11       		.byte	17
 3487 0016 92       		.byte	-110
 3488 0017 D3       		.byte	-45
 3489 0018 14       		.byte	20
 3490 0019 55       		.byte	85
 3491 001a D6       		.byte	-42
 3492 001b 97       		.byte	-105
 3493 001c D8       		.byte	-40
 3494 001d 99       		.byte	-103
 3495 001e 1A       		.byte	26
 3496 001f 5B       		.byte	91
 3497 0020 9C       		.byte	-100
 3498 0021 DD       		.byte	-35
 3499 0022 5E       		.byte	94
 3500 0023 1F       		.byte	31
 3501 0024 20       		.byte	32
 3502 0025 61       		.byte	97
 3503 0026 E2       		.byte	-30
 3504 0027 A3       		.byte	-93
 3505 0028 64       		.byte	100
 3506 0029 25       		.byte	37
 3507 002a A6       		.byte	-90
 3508 002b E7       		.byte	-25
 3509 002c A8       		.byte	-88
 3510 002d E9       		.byte	-23
 3511 002e 6A       		.byte	106
 3512 002f 2B       		.byte	43
 3513 0030 EC       		.byte	-20
 3514 0031 AD       		.byte	-83
 3515 0032 2E       		.byte	46
 3516 0033 6F       		.byte	111
 3517 0034 F0       		.byte	-16
 3518 0035 B1       		.byte	-79
 3519 0036 32       		.byte	50
 3520 0037 73       		.byte	115
 3521 0038 B4       		.byte	-76
 3522 0039 F5       		.byte	-11
 3523 003a 76       		.byte	118
 3524 003b 37       		.byte	55
 3525 003c 78       		.byte	120
 3526 003d 39       		.byte	57
 3527 003e BA       		.byte	-70
 3528 003f FB       		.byte	-5
 3529 0040 3C       		.byte	60
 3530 0041 7D       		.byte	125
 3531 0042 FE       		.byte	-2
 3532 0043 BF       		.byte	-65
 3533              		.bss
 3534              	LIN_1_pidIndex.5059:
ARM GAS  C:\Users\MATSUD~1\AppData\Local\Temp\ccLjdAaK.s 			page 119


 3535 0014 00       		.space	1
 3536 0015 00       		.align	1
 3537              	LIN_1_interimChecksum.5054:
 3538 0016 0000     		.space	2
 3539              		.section	.rodata
 3540              		.align	2
 3541              		.type	LIN_1_pidInfoTable.5063, %object
 3542              		.size	LIN_1_pidInfoTable.5063, 16
 3543              	LIN_1_pidInfoTable.5063:
 3544 0044 11       		.byte	17
 3545 0045 000000   		.space	3
 3546 0048 00000000 		.word	LIN_1_Buffer_Frame1
 3547 004c 01       		.byte	1
 3548 004d 000000   		.space	3
 3549 0050 04000000 		.word	LIN_1_Buffer_Frame2
 3550              		.bss
 3551              	LIN_1_frameSize.5056:
 3552 0018 00       		.space	1
 3553 0019 000000   		.align	2
 3554              	LIN_1_frameData.5061:
 3555 001c 00000000 		.space	4
 3556              	LIN_1_tmpData.5058:
 3557 0020 00       		.space	1
 3558 0021 000000   		.align	2
 3559              	LIN_1_tmpRxFrameData.5060:
 3560 0024 00000000 		.space	8
 3560      00000000 
 3561              		.align	2
 3562              	LIN_1_backup.5030:
 3563 002c 00000000 		.space	5
 3563      00
 3564 0031 000000   		.text
 3565              	.Letext0:
 3566              		.file 2 ".\\Generated_Source\\PSoC5\\cytypes.h"
 3567              		.file 3 ".\\Generated_Source\\PSoC5\\LIN_1.h"
 3568              		.section	.debug_info,"",%progbits
 3569              	.Ldebug_info0:
 3570 0000 BD0A0000 		.4byte	0xabd
 3571 0004 0200     		.2byte	0x2
 3572 0006 00000000 		.4byte	.Ldebug_abbrev0
 3573 000a 04       		.byte	0x4
 3574 000b 01       		.uleb128 0x1
 3575 000c 46040000 		.4byte	.LASF106
 3576 0010 01       		.byte	0x1
 3577 0011 7A020000 		.4byte	.LASF107
 3578 0015 0A060000 		.4byte	.LASF108
 3579 0019 00000000 		.4byte	.Ldebug_ranges0+0
 3580 001d 00000000 		.4byte	0
 3581 0021 00000000 		.4byte	0
 3582 0025 00000000 		.4byte	.Ldebug_line0
 3583 0029 02       		.uleb128 0x2
 3584 002a 01       		.byte	0x1
 3585 002b 06       		.byte	0x6
 3586 002c 73010000 		.4byte	.LASF0
 3587 0030 02       		.uleb128 0x2
 3588 0031 01       		.byte	0x1
 3589 0032 08       		.byte	0x8
ARM GAS  C:\Users\MATSUD~1\AppData\Local\Temp\ccLjdAaK.s 			page 120


 3590 0033 94040000 		.4byte	.LASF1
 3591 0037 02       		.uleb128 0x2
 3592 0038 02       		.byte	0x2
 3593 0039 05       		.byte	0x5
 3594 003a C1040000 		.4byte	.LASF2
 3595 003e 02       		.uleb128 0x2
 3596 003f 02       		.byte	0x2
 3597 0040 07       		.byte	0x7
 3598 0041 E4020000 		.4byte	.LASF3
 3599 0045 03       		.uleb128 0x3
 3600 0046 04       		.byte	0x4
 3601 0047 05       		.byte	0x5
 3602 0048 696E7400 		.ascii	"int\000"
 3603 004c 02       		.uleb128 0x2
 3604 004d 04       		.byte	0x4
 3605 004e 07       		.byte	0x7
 3606 004f 6D020000 		.4byte	.LASF4
 3607 0053 02       		.uleb128 0x2
 3608 0054 08       		.byte	0x8
 3609 0055 05       		.byte	0x5
 3610 0056 65010000 		.4byte	.LASF5
 3611 005a 02       		.uleb128 0x2
 3612 005b 08       		.byte	0x8
 3613 005c 07       		.byte	0x7
 3614 005d E1000000 		.4byte	.LASF6
 3615 0061 02       		.uleb128 0x2
 3616 0062 04       		.byte	0x4
 3617 0063 05       		.byte	0x5
 3618 0064 AB010000 		.4byte	.LASF7
 3619 0068 02       		.uleb128 0x2
 3620 0069 04       		.byte	0x4
 3621 006a 07       		.byte	0x7
 3622 006b 69030000 		.4byte	.LASF8
 3623 006f 04       		.uleb128 0x4
 3624 0070 04       		.byte	0x4
 3625 0071 02       		.uleb128 0x2
 3626 0072 04       		.byte	0x4
 3627 0073 07       		.byte	0x7
 3628 0074 B4020000 		.4byte	.LASF9
 3629 0078 02       		.uleb128 0x2
 3630 0079 01       		.byte	0x1
 3631 007a 08       		.byte	0x8
 3632 007b 02050000 		.4byte	.LASF10
 3633 007f 05       		.uleb128 0x5
 3634 0080 BB010000 		.4byte	.LASF11
 3635 0084 02       		.byte	0x2
 3636 0085 5B       		.byte	0x5b
 3637 0086 30000000 		.4byte	0x30
 3638 008a 05       		.uleb128 0x5
 3639 008b 1A000000 		.4byte	.LASF12
 3640 008f 02       		.byte	0x2
 3641 0090 5C       		.byte	0x5c
 3642 0091 3E000000 		.4byte	0x3e
 3643 0095 05       		.uleb128 0x5
 3644 0096 0A020000 		.4byte	.LASF13
 3645 009a 02       		.byte	0x2
 3646 009b 5D       		.byte	0x5d
ARM GAS  C:\Users\MATSUD~1\AppData\Local\Temp\ccLjdAaK.s 			page 121


 3647 009c 71000000 		.4byte	0x71
 3648 00a0 02       		.uleb128 0x2
 3649 00a1 04       		.byte	0x4
 3650 00a2 04       		.byte	0x4
 3651 00a3 06040000 		.4byte	.LASF14
 3652 00a7 02       		.uleb128 0x2
 3653 00a8 08       		.byte	0x8
 3654 00a9 04       		.byte	0x4
 3655 00aa D5010000 		.4byte	.LASF15
 3656 00ae 05       		.uleb128 0x5
 3657 00af 8F040000 		.4byte	.LASF16
 3658 00b3 02       		.byte	0x2
 3659 00b4 F0       		.byte	0xf0
 3660 00b5 B9000000 		.4byte	0xb9
 3661 00b9 06       		.uleb128 0x6
 3662 00ba 7F000000 		.4byte	0x7f
 3663 00be 05       		.uleb128 0x5
 3664 00bf 59030000 		.4byte	.LASF17
 3665 00c3 02       		.byte	0x2
 3666 00c4 F2       		.byte	0xf2
 3667 00c5 C9000000 		.4byte	0xc9
 3668 00c9 06       		.uleb128 0x6
 3669 00ca 95000000 		.4byte	0x95
 3670 00ce 05       		.uleb128 0x5
 3671 00cf B4010000 		.4byte	.LASF18
 3672 00d3 03       		.byte	0x3
 3673 00d4 6F       		.byte	0x6f
 3674 00d5 30000000 		.4byte	0x30
 3675 00d9 05       		.uleb128 0x5
 3676 00da D3050000 		.4byte	.LASF19
 3677 00de 03       		.byte	0x3
 3678 00df 70       		.byte	0x70
 3679 00e0 30000000 		.4byte	0x30
 3680 00e4 05       		.uleb128 0x5
 3681 00e5 23020000 		.4byte	.LASF20
 3682 00e9 03       		.byte	0x3
 3683 00ea 71       		.byte	0x71
 3684 00eb 3E000000 		.4byte	0x3e
 3685 00ef 05       		.uleb128 0x5
 3686 00f0 CF020000 		.4byte	.LASF21
 3687 00f4 03       		.byte	0x3
 3688 00f5 72       		.byte	0x72
 3689 00f6 30000000 		.4byte	0x30
 3690 00fa 05       		.uleb128 0x5
 3691 00fb F0030000 		.4byte	.LASF22
 3692 00ff 03       		.byte	0x3
 3693 0100 73       		.byte	0x73
 3694 0101 30000000 		.4byte	0x30
 3695 0105 05       		.uleb128 0x5
 3696 0106 82050000 		.4byte	.LASF23
 3697 010a 03       		.byte	0x3
 3698 010b 74       		.byte	0x74
 3699 010c 30000000 		.4byte	0x30
 3700 0110 05       		.uleb128 0x5
 3701 0111 C1010000 		.4byte	.LASF24
 3702 0115 03       		.byte	0x3
 3703 0116 75       		.byte	0x75
ARM GAS  C:\Users\MATSUD~1\AppData\Local\Temp\ccLjdAaK.s 			page 122


 3704 0117 30000000 		.4byte	0x30
 3705 011b 05       		.uleb128 0x5
 3706 011c 92030000 		.4byte	.LASF25
 3707 0120 03       		.byte	0x3
 3708 0121 76       		.byte	0x76
 3709 0122 30000000 		.4byte	0x30
 3710 0126 07       		.uleb128 0x7
 3711 0127 08       		.byte	0x8
 3712 0128 03       		.byte	0x3
 3713 0129 79       		.byte	0x79
 3714 012a 4B010000 		.4byte	0x14b
 3715 012e 08       		.uleb128 0x8
 3716 012f 85030000 		.4byte	.LASF26
 3717 0133 03       		.byte	0x3
 3718 0134 7B       		.byte	0x7b
 3719 0135 D9000000 		.4byte	0xd9
 3720 0139 02       		.byte	0x2
 3721 013a 23       		.byte	0x23
 3722 013b 00       		.uleb128 0
 3723 013c 08       		.uleb128 0x8
 3724 013d B4030000 		.4byte	.LASF27
 3725 0141 03       		.byte	0x3
 3726 0142 7C       		.byte	0x7c
 3727 0143 4B010000 		.4byte	0x14b
 3728 0147 02       		.byte	0x2
 3729 0148 23       		.byte	0x23
 3730 0149 04       		.uleb128 0x4
 3731 014a 00       		.byte	0
 3732 014b 09       		.uleb128 0x9
 3733 014c 04       		.byte	0x4
 3734 014d 51010000 		.4byte	0x151
 3735 0151 06       		.uleb128 0x6
 3736 0152 D9000000 		.4byte	0xd9
 3737 0156 05       		.uleb128 0x5
 3738 0157 9D000000 		.4byte	.LASF28
 3739 015b 03       		.byte	0x3
 3740 015c 7D       		.byte	0x7d
 3741 015d 26010000 		.4byte	0x126
 3742 0161 07       		.uleb128 0x7
 3743 0162 02       		.byte	0x2
 3744 0163 03       		.byte	0x3
 3745 0164 80       		.byte	0x80
 3746 0165 78010000 		.4byte	0x178
 3747 0169 08       		.uleb128 0x8
 3748 016a A2040000 		.4byte	.LASF29
 3749 016e 03       		.byte	0x3
 3750 016f 8A       		.byte	0x8a
 3751 0170 78010000 		.4byte	0x178
 3752 0174 02       		.byte	0x2
 3753 0175 23       		.byte	0x23
 3754 0176 00       		.uleb128 0
 3755 0177 00       		.byte	0
 3756 0178 0A       		.uleb128 0xa
 3757 0179 D9000000 		.4byte	0xd9
 3758 017d 88010000 		.4byte	0x188
 3759 0181 0B       		.uleb128 0xb
 3760 0182 68000000 		.4byte	0x68
ARM GAS  C:\Users\MATSUD~1\AppData\Local\Temp\ccLjdAaK.s 			page 123


 3761 0186 01       		.byte	0x1
 3762 0187 00       		.byte	0
 3763 0188 05       		.uleb128 0x5
 3764 0189 46030000 		.4byte	.LASF30
 3765 018d 03       		.byte	0x3
 3766 018e 8C       		.byte	0x8c
 3767 018f 61010000 		.4byte	0x161
 3768 0193 07       		.uleb128 0x7
 3769 0194 05       		.byte	0x5
 3770 0195 03       		.byte	0x3
 3771 0196 A0       		.byte	0xa0
 3772 0197 E2010000 		.4byte	0x1e2
 3773 019b 08       		.uleb128 0x8
 3774 019c 1E050000 		.4byte	.LASF31
 3775 01a0 03       		.byte	0x3
 3776 01a1 A2       		.byte	0xa2
 3777 01a2 D9000000 		.4byte	0xd9
 3778 01a6 02       		.byte	0x2
 3779 01a7 23       		.byte	0x23
 3780 01a8 00       		.uleb128 0
 3781 01a9 08       		.uleb128 0x8
 3782 01aa 29020000 		.4byte	.LASF32
 3783 01ae 03       		.byte	0x3
 3784 01af A3       		.byte	0xa3
 3785 01b0 D9000000 		.4byte	0xd9
 3786 01b4 02       		.byte	0x2
 3787 01b5 23       		.byte	0x23
 3788 01b6 01       		.uleb128 0x1
 3789 01b7 08       		.uleb128 0x8
 3790 01b8 D9020000 		.4byte	.LASF33
 3791 01bc 03       		.byte	0x3
 3792 01bd A5       		.byte	0xa5
 3793 01be D9000000 		.4byte	0xd9
 3794 01c2 02       		.byte	0x2
 3795 01c3 23       		.byte	0x23
 3796 01c4 02       		.uleb128 0x2
 3797 01c5 08       		.uleb128 0x8
 3798 01c6 AE050000 		.4byte	.LASF34
 3799 01ca 03       		.byte	0x3
 3800 01cb A9       		.byte	0xa9
 3801 01cc D9000000 		.4byte	0xd9
 3802 01d0 02       		.byte	0x2
 3803 01d1 23       		.byte	0x23
 3804 01d2 03       		.uleb128 0x3
 3805 01d3 08       		.uleb128 0x8
 3806 01d4 BD050000 		.4byte	.LASF35
 3807 01d8 03       		.byte	0x3
 3808 01d9 AA       		.byte	0xaa
 3809 01da D9000000 		.4byte	0xd9
 3810 01de 02       		.byte	0x2
 3811 01df 23       		.byte	0x23
 3812 01e0 04       		.uleb128 0x4
 3813 01e1 00       		.byte	0
 3814 01e2 05       		.uleb128 0x5
 3815 01e3 21000000 		.4byte	.LASF36
 3816 01e7 03       		.byte	0x3
 3817 01e8 AE       		.byte	0xae
ARM GAS  C:\Users\MATSUD~1\AppData\Local\Temp\ccLjdAaK.s 			page 124


 3818 01e9 93010000 		.4byte	0x193
 3819 01ed 0C       		.uleb128 0xc
 3820 01ee 01       		.byte	0x1
 3821 01ef 59010000 		.4byte	.LASF39
 3822 01f3 01       		.byte	0x1
 3823 01f4 FB       		.byte	0xfb
 3824 01f5 01       		.byte	0x1
 3825 01f6 CE000000 		.4byte	0xce
 3826 01fa 00000000 		.4byte	.LFB0
 3827 01fe 1E000000 		.4byte	.LFE0
 3828 0202 00000000 		.4byte	.LLST0
 3829 0206 01       		.byte	0x1
 3830 0207 1A020000 		.4byte	0x21a
 3831 020b 0D       		.uleb128 0xd
 3832 020c 83060000 		.4byte	.LASF41
 3833 0210 01       		.byte	0x1
 3834 0211 FD       		.byte	0xfd
 3835 0212 CE000000 		.4byte	0xce
 3836 0216 02       		.byte	0x2
 3837 0217 91       		.byte	0x91
 3838 0218 77       		.sleb128 -9
 3839 0219 00       		.byte	0
 3840 021a 0E       		.uleb128 0xe
 3841 021b 01       		.byte	0x1
 3842 021c 8F060000 		.4byte	.LASF37
 3843 0220 01       		.byte	0x1
 3844 0221 1701     		.2byte	0x117
 3845 0223 01       		.byte	0x1
 3846 0224 D9000000 		.4byte	0xd9
 3847 0228 00000000 		.4byte	.LFB1
 3848 022c 2E000000 		.4byte	.LFE1
 3849 0230 38000000 		.4byte	.LLST1
 3850 0234 01       		.byte	0x1
 3851 0235 0F       		.uleb128 0xf
 3852 0236 01       		.byte	0x1
 3853 0237 06030000 		.4byte	.LASF38
 3854 023b 01       		.byte	0x1
 3855 023c 3401     		.2byte	0x134
 3856 023e 01       		.byte	0x1
 3857 023f CE000000 		.4byte	0xce
 3858 0243 00000000 		.4byte	.LFB2
 3859 0247 10000000 		.4byte	.LFE2
 3860 024b 64000000 		.4byte	.LLST2
 3861 024f 01       		.byte	0x1
 3862 0250 10       		.uleb128 0x10
 3863 0251 01       		.byte	0x1
 3864 0252 DA030000 		.4byte	.LASF40
 3865 0256 01       		.byte	0x1
 3866 0257 4D01     		.2byte	0x14d
 3867 0259 01       		.byte	0x1
 3868 025a D9000000 		.4byte	0xd9
 3869 025e 00000000 		.4byte	.LFB3
 3870 0262 2E000000 		.4byte	.LFE3
 3871 0266 90000000 		.4byte	.LLST3
 3872 026a 01       		.byte	0x1
 3873 026b 8E020000 		.4byte	0x28e
 3874 026f 11       		.uleb128 0x11
ARM GAS  C:\Users\MATSUD~1\AppData\Local\Temp\ccLjdAaK.s 			page 125


 3875 0270 73737300 		.ascii	"sss\000"
 3876 0274 01       		.byte	0x1
 3877 0275 4D01     		.2byte	0x14d
 3878 0277 05010000 		.4byte	0x105
 3879 027b 02       		.byte	0x2
 3880 027c 91       		.byte	0x91
 3881 027d 6F       		.sleb128 -17
 3882 027e 12       		.uleb128 0x12
 3883 027f 83060000 		.4byte	.LASF41
 3884 0283 01       		.byte	0x1
 3885 0284 4F01     		.2byte	0x14f
 3886 0286 D9000000 		.4byte	0xd9
 3887 028a 02       		.byte	0x2
 3888 028b 91       		.byte	0x91
 3889 028c 77       		.sleb128 -9
 3890 028d 00       		.byte	0
 3891 028e 0F       		.uleb128 0xf
 3892 028f 01       		.byte	0x1
 3893 0290 43050000 		.4byte	.LASF42
 3894 0294 01       		.byte	0x1
 3895 0295 6F01     		.2byte	0x16f
 3896 0297 01       		.byte	0x1
 3897 0298 D9000000 		.4byte	0xd9
 3898 029c 00000000 		.4byte	.LFB4
 3899 02a0 1E000000 		.4byte	.LFE4
 3900 02a4 C8000000 		.4byte	.LLST4
 3901 02a8 01       		.byte	0x1
 3902 02a9 13       		.uleb128 0x13
 3903 02aa 01       		.byte	0x1
 3904 02ab A4050000 		.4byte	.LASF43
 3905 02af 01       		.byte	0x1
 3906 02b0 9201     		.2byte	0x192
 3907 02b2 01       		.byte	0x1
 3908 02b3 00000000 		.4byte	.LFB5
 3909 02b7 28000000 		.4byte	.LFE5
 3910 02bb F4000000 		.4byte	.LLST5
 3911 02bf 01       		.byte	0x1
 3912 02c0 E1020000 		.4byte	0x2e1
 3913 02c4 11       		.uleb128 0x11
 3914 02c5 73737300 		.ascii	"sss\000"
 3915 02c9 01       		.byte	0x1
 3916 02ca 9201     		.2byte	0x192
 3917 02cc 05010000 		.4byte	0x105
 3918 02d0 02       		.byte	0x2
 3919 02d1 91       		.byte	0x91
 3920 02d2 77       		.sleb128 -9
 3921 02d3 11       		.uleb128 0x11
 3922 02d4 7600     		.ascii	"v\000"
 3923 02d6 01       		.byte	0x1
 3924 02d7 9201     		.2byte	0x192
 3925 02d9 CE000000 		.4byte	0xce
 3926 02dd 02       		.byte	0x2
 3927 02de 91       		.byte	0x91
 3928 02df 76       		.sleb128 -10
 3929 02e0 00       		.byte	0
 3930 02e1 13       		.uleb128 0x13
 3931 02e2 01       		.byte	0x1
ARM GAS  C:\Users\MATSUD~1\AppData\Local\Temp\ccLjdAaK.s 			page 126


 3932 02e3 2A050000 		.4byte	.LASF44
 3933 02e7 01       		.byte	0x1
 3934 02e8 B101     		.2byte	0x1b1
 3935 02ea 01       		.byte	0x1
 3936 02eb 00000000 		.4byte	.LFB6
 3937 02ef 62000000 		.4byte	.LFE6
 3938 02f3 2C010000 		.4byte	.LLST6
 3939 02f7 01       		.byte	0x1
 3940 02f8 19030000 		.4byte	0x319
 3941 02fc 11       		.uleb128 0x11
 3942 02fd 7600     		.ascii	"v\000"
 3943 02ff 01       		.byte	0x1
 3944 0300 B101     		.2byte	0x1b1
 3945 0302 CE000000 		.4byte	0xce
 3946 0306 02       		.byte	0x2
 3947 0307 91       		.byte	0x91
 3948 0308 6F       		.sleb128 -17
 3949 0309 12       		.uleb128 0x12
 3950 030a 7F010000 		.4byte	.LASF45
 3951 030e 01       		.byte	0x1
 3952 030f B301     		.2byte	0x1b3
 3953 0311 7F000000 		.4byte	0x7f
 3954 0315 02       		.byte	0x2
 3955 0316 91       		.byte	0x91
 3956 0317 77       		.sleb128 -9
 3957 0318 00       		.byte	0
 3958 0319 10       		.uleb128 0x10
 3959 031a 01       		.byte	0x1
 3960 031b 9B020000 		.4byte	.LASF46
 3961 031f 01       		.byte	0x1
 3962 0320 E301     		.2byte	0x1e3
 3963 0322 01       		.byte	0x1
 3964 0323 CE000000 		.4byte	0xce
 3965 0327 00000000 		.4byte	.LFB7
 3966 032b 4A000000 		.4byte	.LFE7
 3967 032f 64010000 		.4byte	.LLST7
 3968 0333 01       		.byte	0x1
 3969 0334 57030000 		.4byte	0x357
 3970 0338 11       		.uleb128 0x11
 3971 0339 66666600 		.ascii	"fff\000"
 3972 033d 01       		.byte	0x1
 3973 033e E301     		.2byte	0x1e3
 3974 0340 1B010000 		.4byte	0x11b
 3975 0344 02       		.byte	0x2
 3976 0345 91       		.byte	0x91
 3977 0346 6F       		.sleb128 -17
 3978 0347 12       		.uleb128 0x12
 3979 0348 83060000 		.4byte	.LASF41
 3980 034c 01       		.byte	0x1
 3981 034d E501     		.2byte	0x1e5
 3982 034f CE000000 		.4byte	0xce
 3983 0353 02       		.byte	0x2
 3984 0354 91       		.byte	0x91
 3985 0355 77       		.sleb128 -9
 3986 0356 00       		.byte	0
 3987 0357 14       		.uleb128 0x14
 3988 0358 01       		.byte	0x1
ARM GAS  C:\Users\MATSUD~1\AppData\Local\Temp\ccLjdAaK.s 			page 127


 3989 0359 FC050000 		.4byte	.LASF47
 3990 035d 01       		.byte	0x1
 3991 035e 1002     		.2byte	0x210
 3992 0360 01       		.byte	0x1
 3993 0361 CE000000 		.4byte	0xce
 3994 0365 00000000 		.4byte	.LFB8
 3995 0369 32000000 		.4byte	.LFE8
 3996 036d 9C010000 		.4byte	.LLST8
 3997 0371 01       		.byte	0x1
 3998 0372 86030000 		.4byte	0x386
 3999 0376 12       		.uleb128 0x12
 4000 0377 CE010000 		.4byte	.LASF48
 4001 037b 01       		.byte	0x1
 4002 037c 1202     		.2byte	0x212
 4003 037e CE000000 		.4byte	0xce
 4004 0382 02       		.byte	0x2
 4005 0383 91       		.byte	0x91
 4006 0384 77       		.sleb128 -9
 4007 0385 00       		.byte	0
 4008 0386 14       		.uleb128 0x14
 4009 0387 01       		.byte	0x1
 4010 0388 F9010000 		.4byte	.LASF49
 4011 038c 01       		.byte	0x1
 4012 038d 2F02     		.2byte	0x22f
 4013 038f 01       		.byte	0x1
 4014 0390 CE000000 		.4byte	0xce
 4015 0394 00000000 		.4byte	.LFB9
 4016 0398 32000000 		.4byte	.LFE9
 4017 039c D4010000 		.4byte	.LLST9
 4018 03a0 01       		.byte	0x1
 4019 03a1 B5030000 		.4byte	0x3b5
 4020 03a5 12       		.uleb128 0x12
 4021 03a6 CE010000 		.4byte	.LASF48
 4022 03aa 01       		.byte	0x1
 4023 03ab 3102     		.2byte	0x231
 4024 03ad CE000000 		.4byte	0xce
 4025 03b1 02       		.byte	0x2
 4026 03b2 91       		.byte	0x91
 4027 03b3 77       		.sleb128 -9
 4028 03b4 00       		.byte	0
 4029 03b5 14       		.uleb128 0x14
 4030 03b6 01       		.byte	0x1
 4031 03b7 11030000 		.4byte	.LASF50
 4032 03bb 01       		.byte	0x1
 4033 03bc 4E02     		.2byte	0x24e
 4034 03be 01       		.byte	0x1
 4035 03bf CE000000 		.4byte	0xce
 4036 03c3 00000000 		.4byte	.LFB10
 4037 03c7 32000000 		.4byte	.LFE10
 4038 03cb 0C020000 		.4byte	.LLST10
 4039 03cf 01       		.byte	0x1
 4040 03d0 E4030000 		.4byte	0x3e4
 4041 03d4 12       		.uleb128 0x12
 4042 03d5 CE010000 		.4byte	.LASF48
 4043 03d9 01       		.byte	0x1
 4044 03da 5002     		.2byte	0x250
 4045 03dc CE000000 		.4byte	0xce
ARM GAS  C:\Users\MATSUD~1\AppData\Local\Temp\ccLjdAaK.s 			page 128


 4046 03e0 02       		.byte	0x2
 4047 03e1 91       		.byte	0x91
 4048 03e2 77       		.sleb128 -9
 4049 03e3 00       		.byte	0
 4050 03e4 13       		.uleb128 0x13
 4051 03e5 01       		.byte	0x1
 4052 03e6 5F030000 		.4byte	.LASF51
 4053 03ea 01       		.byte	0x1
 4054 03eb 7102     		.2byte	0x271
 4055 03ed 01       		.byte	0x1
 4056 03ee 00000000 		.4byte	.LFB11
 4057 03f2 34000000 		.4byte	.LFE11
 4058 03f6 44020000 		.4byte	.LLST11
 4059 03fa 01       		.byte	0x1
 4060 03fb 0F040000 		.4byte	0x40f
 4061 03ff 11       		.uleb128 0x11
 4062 0400 66666600 		.ascii	"fff\000"
 4063 0404 01       		.byte	0x1
 4064 0405 7102     		.2byte	0x271
 4065 0407 1B010000 		.4byte	0x11b
 4066 040b 02       		.byte	0x2
 4067 040c 91       		.byte	0x91
 4068 040d 77       		.sleb128 -9
 4069 040e 00       		.byte	0
 4070 040f 15       		.uleb128 0x15
 4071 0410 01       		.byte	0x1
 4072 0411 9D010000 		.4byte	.LASF52
 4073 0415 01       		.byte	0x1
 4074 0416 9802     		.2byte	0x298
 4075 0418 01       		.byte	0x1
 4076 0419 00000000 		.4byte	.LFB12
 4077 041d 24000000 		.4byte	.LFE12
 4078 0421 7C020000 		.4byte	.LLST12
 4079 0425 01       		.byte	0x1
 4080 0426 15       		.uleb128 0x15
 4081 0427 01       		.byte	0x1
 4082 0428 7B000000 		.4byte	.LASF53
 4083 042c 01       		.byte	0x1
 4084 042d AF02     		.2byte	0x2af
 4085 042f 01       		.byte	0x1
 4086 0430 00000000 		.4byte	.LFB13
 4087 0434 24000000 		.4byte	.LFE13
 4088 0438 A8020000 		.4byte	.LLST13
 4089 043c 01       		.byte	0x1
 4090 043d 15       		.uleb128 0x15
 4091 043e 01       		.byte	0x1
 4092 043f 8C000000 		.4byte	.LASF54
 4093 0443 01       		.byte	0x1
 4094 0444 C602     		.2byte	0x2c6
 4095 0446 01       		.byte	0x1
 4096 0447 00000000 		.4byte	.LFB14
 4097 044b 24000000 		.4byte	.LFE14
 4098 044f D4020000 		.4byte	.LLST14
 4099 0453 01       		.byte	0x1
 4100 0454 10       		.uleb128 0x10
 4101 0455 01       		.byte	0x1
 4102 0456 D8050000 		.4byte	.LASF55
ARM GAS  C:\Users\MATSUD~1\AppData\Local\Temp\ccLjdAaK.s 			page 129


 4103 045a 01       		.byte	0x1
 4104 045b E802     		.2byte	0x2e8
 4105 045d 01       		.byte	0x1
 4106 045e CE000000 		.4byte	0xce
 4107 0462 00000000 		.4byte	.LFB15
 4108 0466 60010000 		.4byte	.LFE15
 4109 046a 00030000 		.4byte	.LLST15
 4110 046e 01       		.byte	0x1
 4111 046f 90040000 		.4byte	0x490
 4112 0473 12       		.uleb128 0x12
 4113 0474 7F010000 		.4byte	.LASF45
 4114 0478 01       		.byte	0x1
 4115 0479 EA02     		.2byte	0x2ea
 4116 047b D9000000 		.4byte	0xd9
 4117 047f 02       		.byte	0x2
 4118 0480 91       		.byte	0x91
 4119 0481 76       		.sleb128 -10
 4120 0482 16       		.uleb128 0x16
 4121 0483 6900     		.ascii	"i\000"
 4122 0485 01       		.byte	0x1
 4123 0486 EB02     		.2byte	0x2eb
 4124 0488 D9000000 		.4byte	0xd9
 4125 048c 02       		.byte	0x2
 4126 048d 91       		.byte	0x91
 4127 048e 77       		.sleb128 -9
 4128 048f 00       		.byte	0
 4129 0490 10       		.uleb128 0x10
 4130 0491 01       		.byte	0x1
 4131 0492 FB030000 		.4byte	.LASF56
 4132 0496 01       		.byte	0x1
 4133 0497 5203     		.2byte	0x352
 4134 0499 01       		.byte	0x1
 4135 049a CE000000 		.4byte	0xce
 4136 049e 00000000 		.4byte	.LFB16
 4137 04a2 2E000000 		.4byte	.LFE16
 4138 04a6 38030000 		.4byte	.LLST16
 4139 04aa 01       		.byte	0x1
 4140 04ab CE040000 		.4byte	0x4ce
 4141 04af 11       		.uleb128 0x11
 4142 04b0 69696900 		.ascii	"iii\000"
 4143 04b4 01       		.byte	0x1
 4144 04b5 5203     		.2byte	0x352
 4145 04b7 10010000 		.4byte	0x110
 4146 04bb 02       		.byte	0x2
 4147 04bc 91       		.byte	0x91
 4148 04bd 6F       		.sleb128 -17
 4149 04be 12       		.uleb128 0x12
 4150 04bf 83060000 		.4byte	.LASF41
 4151 04c3 01       		.byte	0x1
 4152 04c4 5403     		.2byte	0x354
 4153 04c6 CE000000 		.4byte	0xce
 4154 04ca 02       		.byte	0x2
 4155 04cb 91       		.byte	0x91
 4156 04cc 77       		.sleb128 -9
 4157 04cd 00       		.byte	0
 4158 04ce 17       		.uleb128 0x17
 4159 04cf 01       		.byte	0x1
ARM GAS  C:\Users\MATSUD~1\AppData\Local\Temp\ccLjdAaK.s 			page 130


 4160 04d0 59020000 		.4byte	.LASF57
 4161 04d4 01       		.byte	0x1
 4162 04d5 7803     		.2byte	0x378
 4163 04d7 01       		.byte	0x1
 4164 04d8 00000000 		.4byte	.LFB17
 4165 04dc 46000000 		.4byte	.LFE17
 4166 04e0 70030000 		.4byte	.LLST17
 4167 04e4 01       		.byte	0x1
 4168 04e5 13       		.uleb128 0x13
 4169 04e6 01       		.byte	0x1
 4170 04e7 E2030000 		.4byte	.LASF58
 4171 04eb 01       		.byte	0x1
 4172 04ec 9703     		.2byte	0x397
 4173 04ee 01       		.byte	0x1
 4174 04ef 00000000 		.4byte	.LFB18
 4175 04f3 20000000 		.4byte	.LFE18
 4176 04f7 9C030000 		.4byte	.LLST18
 4177 04fb 01       		.byte	0x1
 4178 04fc 10050000 		.4byte	0x510
 4179 0500 11       		.uleb128 0x11
 4180 0501 69696900 		.ascii	"iii\000"
 4181 0505 01       		.byte	0x1
 4182 0506 9703     		.2byte	0x397
 4183 0508 10010000 		.4byte	0x110
 4184 050c 02       		.byte	0x2
 4185 050d 91       		.byte	0x91
 4186 050e 77       		.sleb128 -9
 4187 050f 00       		.byte	0
 4188 0510 10       		.uleb128 0x10
 4189 0511 01       		.byte	0x1
 4190 0512 4F050000 		.4byte	.LASF59
 4191 0516 01       		.byte	0x1
 4192 0517 E003     		.2byte	0x3e0
 4193 0519 01       		.byte	0x1
 4194 051a E4000000 		.4byte	0xe4
 4195 051e 00000000 		.4byte	.LFB19
 4196 0522 1A020000 		.4byte	.LFE19
 4197 0526 D4030000 		.4byte	.LLST19
 4198 052a 01       		.byte	0x1
 4199 052b 7C050000 		.4byte	0x57c
 4200 052f 11       		.uleb128 0x11
 4201 0530 6F7000   		.ascii	"op\000"
 4202 0533 01       		.byte	0x1
 4203 0534 E003     		.2byte	0x3e0
 4204 0536 FA000000 		.4byte	0xfa
 4205 053a 02       		.byte	0x2
 4206 053b 91       		.byte	0x91
 4207 053c 6F       		.sleb128 -17
 4208 053d 11       		.uleb128 0x11
 4209 053e 707600   		.ascii	"pv\000"
 4210 0541 01       		.byte	0x1
 4211 0542 E003     		.2byte	0x3e0
 4212 0544 6F000000 		.4byte	0x6f
 4213 0548 02       		.byte	0x2
 4214 0549 91       		.byte	0x91
 4215 054a 68       		.sleb128 -24
 4216 054b 12       		.uleb128 0x12
ARM GAS  C:\Users\MATSUD~1\AppData\Local\Temp\ccLjdAaK.s 			page 131


 4217 054c DC010000 		.4byte	.LASF60
 4218 0550 01       		.byte	0x1
 4219 0551 E303     		.2byte	0x3e3
 4220 0553 E2010000 		.4byte	0x1e2
 4221 0557 05       		.byte	0x5
 4222 0558 03       		.byte	0x3
 4223 0559 2C000000 		.4byte	LIN_1_backup.5030
 4224 055d 12       		.uleb128 0x12
 4225 055e 83060000 		.4byte	.LASF41
 4226 0562 01       		.byte	0x1
 4227 0563 E503     		.2byte	0x3e5
 4228 0565 E4000000 		.4byte	0xe4
 4229 0569 02       		.byte	0x2
 4230 056a 91       		.byte	0x91
 4231 056b 76       		.sleb128 -10
 4232 056c 12       		.uleb128 0x12
 4233 056d 7F010000 		.4byte	.LASF45
 4234 0571 01       		.byte	0x1
 4235 0572 E603     		.2byte	0x3e6
 4236 0574 D9000000 		.4byte	0xd9
 4237 0578 02       		.byte	0x2
 4238 0579 91       		.byte	0x91
 4239 057a 75       		.sleb128 -11
 4240 057b 00       		.byte	0
 4241 057c 10       		.uleb128 0x10
 4242 057d 01       		.byte	0x1
 4243 057e 0D010000 		.4byte	.LASF61
 4244 0582 01       		.byte	0x1
 4245 0583 B404     		.2byte	0x4b4
 4246 0585 01       		.byte	0x1
 4247 0586 E4000000 		.4byte	0xe4
 4248 058a 00000000 		.4byte	.LFB20
 4249 058e 3A000000 		.4byte	.LFE20
 4250 0592 0C040000 		.4byte	.LLST20
 4251 0596 01       		.byte	0x1
 4252 0597 D6050000 		.4byte	0x5d6
 4253 059b 11       		.uleb128 0x11
 4254 059c 69696900 		.ascii	"iii\000"
 4255 05a0 01       		.byte	0x1
 4256 05a1 B404     		.2byte	0x4b4
 4257 05a3 10010000 		.4byte	0x110
 4258 05a7 02       		.byte	0x2
 4259 05a8 91       		.byte	0x91
 4260 05a9 6F       		.sleb128 -17
 4261 05aa 11       		.uleb128 0x11
 4262 05ab 6F7000   		.ascii	"op\000"
 4263 05ae 01       		.byte	0x1
 4264 05af B404     		.2byte	0x4b4
 4265 05b1 FA000000 		.4byte	0xfa
 4266 05b5 02       		.byte	0x2
 4267 05b6 91       		.byte	0x91
 4268 05b7 6E       		.sleb128 -18
 4269 05b8 11       		.uleb128 0x11
 4270 05b9 707600   		.ascii	"pv\000"
 4271 05bc 01       		.byte	0x1
 4272 05bd B404     		.2byte	0x4b4
 4273 05bf 6F000000 		.4byte	0x6f
ARM GAS  C:\Users\MATSUD~1\AppData\Local\Temp\ccLjdAaK.s 			page 132


 4274 05c3 02       		.byte	0x2
 4275 05c4 91       		.byte	0x91
 4276 05c5 68       		.sleb128 -24
 4277 05c6 12       		.uleb128 0x12
 4278 05c7 83060000 		.4byte	.LASF41
 4279 05cb 01       		.byte	0x1
 4280 05cc B604     		.2byte	0x4b6
 4281 05ce E4000000 		.4byte	0xe4
 4282 05d2 02       		.byte	0x2
 4283 05d3 91       		.byte	0x91
 4284 05d4 76       		.sleb128 -10
 4285 05d5 00       		.byte	0
 4286 05d6 13       		.uleb128 0x13
 4287 05d7 01       		.byte	0x1
 4288 05d8 8E010000 		.4byte	.LASF62
 4289 05dc 01       		.byte	0x1
 4290 05dd DA04     		.2byte	0x4da
 4291 05df 01       		.byte	0x1
 4292 05e0 00000000 		.4byte	.LFB21
 4293 05e4 44090000 		.4byte	.LFE21
 4294 05e8 44040000 		.4byte	.LLST21
 4295 05ec 01       		.byte	0x1
 4296 05ed C2060000 		.4byte	0x6c2
 4297 05f1 16       		.uleb128 0x16
 4298 05f2 6900     		.ascii	"i\000"
 4299 05f4 01       		.byte	0x1
 4300 05f5 DC04     		.2byte	0x4dc
 4301 05f7 D9000000 		.4byte	0xd9
 4302 05fb 02       		.byte	0x2
 4303 05fc 91       		.byte	0x91
 4304 05fd 6F       		.sleb128 -17
 4305 05fe 12       		.uleb128 0x12
 4306 05ff 7F010000 		.4byte	.LASF45
 4307 0603 01       		.byte	0x1
 4308 0604 DD04     		.2byte	0x4dd
 4309 0606 D9000000 		.4byte	0xd9
 4310 060a 02       		.byte	0x2
 4311 060b 91       		.byte	0x91
 4312 060c 6E       		.sleb128 -18
 4313 060d 12       		.uleb128 0x12
 4314 060e AB040000 		.4byte	.LASF63
 4315 0612 01       		.byte	0x1
 4316 0613 DF04     		.2byte	0x4df
 4317 0615 E4000000 		.4byte	0xe4
 4318 0619 05       		.byte	0x5
 4319 061a 03       		.byte	0x3
 4320 061b 16000000 		.4byte	LIN_1_interimChecksum.5054
 4321 061f 12       		.uleb128 0x12
 4322 0620 37030000 		.4byte	.LASF64
 4323 0624 01       		.byte	0x1
 4324 0625 E004     		.2byte	0x4e0
 4325 0627 D9000000 		.4byte	0xd9
 4326 062b 05       		.byte	0x5
 4327 062c 03       		.byte	0x3
 4328 062d 12000000 		.4byte	LIN_1_framePid.5055
 4329 0631 12       		.uleb128 0x12
 4330 0632 E9010000 		.4byte	.LASF65
ARM GAS  C:\Users\MATSUD~1\AppData\Local\Temp\ccLjdAaK.s 			page 133


 4331 0636 01       		.byte	0x1
 4332 0637 E104     		.2byte	0x4e1
 4333 0639 D9000000 		.4byte	0xd9
 4334 063d 05       		.byte	0x5
 4335 063e 03       		.byte	0x3
 4336 063f 18000000 		.4byte	LIN_1_frameSize.5056
 4337 0643 12       		.uleb128 0x12
 4338 0644 42010000 		.4byte	.LASF66
 4339 0648 01       		.byte	0x1
 4340 0649 E204     		.2byte	0x4e2
 4341 064b D9000000 		.4byte	0xd9
 4342 064f 05       		.byte	0x5
 4343 0650 03       		.byte	0x3
 4344 0651 13000000 		.4byte	LIN_1_bytesTransferred.5057
 4345 0655 12       		.uleb128 0x12
 4346 0656 BC030000 		.4byte	.LASF67
 4347 065a 01       		.byte	0x1
 4348 065b E304     		.2byte	0x4e3
 4349 065d D9000000 		.4byte	0xd9
 4350 0661 05       		.byte	0x5
 4351 0662 03       		.byte	0x3
 4352 0663 20000000 		.4byte	LIN_1_tmpData.5058
 4353 0667 12       		.uleb128 0x12
 4354 0668 35000000 		.4byte	.LASF68
 4355 066c 01       		.byte	0x1
 4356 066d E404     		.2byte	0x4e4
 4357 066f D9000000 		.4byte	0xd9
 4358 0673 05       		.byte	0x5
 4359 0674 03       		.byte	0x3
 4360 0675 14000000 		.4byte	LIN_1_pidIndex.5059
 4361 0679 12       		.uleb128 0x12
 4362 067a 22030000 		.4byte	.LASF69
 4363 067e 01       		.byte	0x1
 4364 067f E504     		.2byte	0x4e5
 4365 0681 C2060000 		.4byte	0x6c2
 4366 0685 05       		.byte	0x5
 4367 0686 03       		.byte	0x3
 4368 0687 24000000 		.4byte	LIN_1_tmpRxFrameData.5060
 4369 068b 12       		.uleb128 0x12
 4370 068c CA030000 		.4byte	.LASF70
 4371 0690 01       		.byte	0x1
 4372 0691 E604     		.2byte	0x4e6
 4373 0693 4B010000 		.4byte	0x14b
 4374 0697 05       		.byte	0x5
 4375 0698 03       		.byte	0x3
 4376 0699 1C000000 		.4byte	LIN_1_frameData.5061
 4377 069d 12       		.uleb128 0x12
 4378 069e 34040000 		.4byte	.LASF71
 4379 06a2 01       		.byte	0x1
 4380 06a3 F504     		.2byte	0x4f5
 4381 06a5 E2060000 		.4byte	0x6e2
 4382 06a9 05       		.byte	0x5
 4383 06aa 03       		.byte	0x3
 4384 06ab 04000000 		.4byte	LIN_1_parityTable.5062
 4385 06af 12       		.uleb128 0x12
 4386 06b0 72030000 		.4byte	.LASF72
 4387 06b4 01       		.byte	0x1
ARM GAS  C:\Users\MATSUD~1\AppData\Local\Temp\ccLjdAaK.s 			page 134


 4388 06b5 0005     		.2byte	0x500
 4389 06b7 F7060000 		.4byte	0x6f7
 4390 06bb 05       		.byte	0x5
 4391 06bc 03       		.byte	0x3
 4392 06bd 44000000 		.4byte	LIN_1_pidInfoTable.5063
 4393 06c1 00       		.byte	0
 4394 06c2 0A       		.uleb128 0xa
 4395 06c3 D9000000 		.4byte	0xd9
 4396 06c7 D2060000 		.4byte	0x6d2
 4397 06cb 0B       		.uleb128 0xb
 4398 06cc 68000000 		.4byte	0x68
 4399 06d0 07       		.byte	0x7
 4400 06d1 00       		.byte	0
 4401 06d2 0A       		.uleb128 0xa
 4402 06d3 D9000000 		.4byte	0xd9
 4403 06d7 E2060000 		.4byte	0x6e2
 4404 06db 0B       		.uleb128 0xb
 4405 06dc 68000000 		.4byte	0x68
 4406 06e0 3F       		.byte	0x3f
 4407 06e1 00       		.byte	0
 4408 06e2 18       		.uleb128 0x18
 4409 06e3 D2060000 		.4byte	0x6d2
 4410 06e7 0A       		.uleb128 0xa
 4411 06e8 56010000 		.4byte	0x156
 4412 06ec F7060000 		.4byte	0x6f7
 4413 06f0 0B       		.uleb128 0xb
 4414 06f1 68000000 		.4byte	0x68
 4415 06f5 01       		.byte	0x1
 4416 06f6 00       		.byte	0
 4417 06f7 18       		.uleb128 0x18
 4418 06f8 E7060000 		.4byte	0x6e7
 4419 06fc 13       		.uleb128 0x13
 4420 06fd 01       		.byte	0x1
 4421 06fe D8000000 		.4byte	.LASF73
 4422 0702 01       		.byte	0x1
 4423 0703 1609     		.2byte	0x916
 4424 0705 01       		.byte	0x1
 4425 0706 00000000 		.4byte	.LFB22
 4426 070a 20000000 		.4byte	.LFE22
 4427 070e 7C040000 		.4byte	.LLST22
 4428 0712 01       		.byte	0x1
 4429 0713 27070000 		.4byte	0x727
 4430 0717 11       		.uleb128 0x11
 4431 0718 69696900 		.ascii	"iii\000"
 4432 071c 01       		.byte	0x1
 4433 071d 1609     		.2byte	0x916
 4434 071f 10010000 		.4byte	0x110
 4435 0723 02       		.byte	0x2
 4436 0724 91       		.byte	0x91
 4437 0725 77       		.sleb128 -9
 4438 0726 00       		.byte	0
 4439 0727 17       		.uleb128 0x17
 4440 0728 01       		.byte	0x1
 4441 0729 F7020000 		.4byte	.LASF74
 4442 072d 01       		.byte	0x1
 4443 072e 3609     		.2byte	0x936
 4444 0730 01       		.byte	0x1
ARM GAS  C:\Users\MATSUD~1\AppData\Local\Temp\ccLjdAaK.s 			page 135


 4445 0731 00000000 		.4byte	.LFB23
 4446 0735 0A000000 		.4byte	.LFE23
 4447 0739 B4040000 		.4byte	.LLST23
 4448 073d 01       		.byte	0x1
 4449 073e 13       		.uleb128 0x13
 4450 073f 01       		.byte	0x1
 4451 0740 69000000 		.4byte	.LASF75
 4452 0744 01       		.byte	0x1
 4453 0745 4E09     		.2byte	0x94e
 4454 0747 01       		.byte	0x1
 4455 0748 00000000 		.4byte	.LFB24
 4456 074c 20000000 		.4byte	.LFE24
 4457 0750 E0040000 		.4byte	.LLST24
 4458 0754 01       		.byte	0x1
 4459 0755 69070000 		.4byte	0x769
 4460 0759 11       		.uleb128 0x11
 4461 075a 69696900 		.ascii	"iii\000"
 4462 075e 01       		.byte	0x1
 4463 075f 4E09     		.2byte	0x94e
 4464 0761 10010000 		.4byte	0x110
 4465 0765 02       		.byte	0x2
 4466 0766 91       		.byte	0x91
 4467 0767 77       		.sleb128 -9
 4468 0768 00       		.byte	0
 4469 0769 13       		.uleb128 0x13
 4470 076a 01       		.byte	0x1
 4471 076b 0C040000 		.4byte	.LASF76
 4472 076f 01       		.byte	0x1
 4473 0770 6E09     		.2byte	0x96e
 4474 0772 01       		.byte	0x1
 4475 0773 00000000 		.4byte	.LFB25
 4476 0777 D0020000 		.4byte	.LFE25
 4477 077b 18050000 		.4byte	.LLST25
 4478 077f 01       		.byte	0x1
 4479 0780 94070000 		.4byte	0x794
 4480 0784 12       		.uleb128 0x12
 4481 0785 7F010000 		.4byte	.LASF45
 4482 0789 01       		.byte	0x1
 4483 078a 7009     		.2byte	0x970
 4484 078c D9000000 		.4byte	0xd9
 4485 0790 02       		.byte	0x2
 4486 0791 91       		.byte	0x91
 4487 0792 77       		.sleb128 -9
 4488 0793 00       		.byte	0
 4489 0794 13       		.uleb128 0x13
 4490 0795 01       		.byte	0x1
 4491 0796 E8040000 		.4byte	.LASF77
 4492 079a 01       		.byte	0x1
 4493 079b 530A     		.2byte	0xa53
 4494 079d 01       		.byte	0x1
 4495 079e 00000000 		.4byte	.LFB26
 4496 07a2 20000000 		.4byte	.LFE26
 4497 07a6 50050000 		.4byte	.LLST26
 4498 07aa 01       		.byte	0x1
 4499 07ab BF070000 		.4byte	0x7bf
 4500 07af 11       		.uleb128 0x11
 4501 07b0 69696900 		.ascii	"iii\000"
ARM GAS  C:\Users\MATSUD~1\AppData\Local\Temp\ccLjdAaK.s 			page 136


 4502 07b4 01       		.byte	0x1
 4503 07b5 530A     		.2byte	0xa53
 4504 07b7 10010000 		.4byte	0x110
 4505 07bb 02       		.byte	0x2
 4506 07bc 91       		.byte	0x91
 4507 07bd 77       		.sleb128 -9
 4508 07be 00       		.byte	0
 4509 07bf 10       		.uleb128 0x10
 4510 07c0 01       		.byte	0x1
 4511 07c1 1C040000 		.4byte	.LASF78
 4512 07c5 01       		.byte	0x1
 4513 07c6 7E0A     		.2byte	0xa7e
 4514 07c8 01       		.byte	0x1
 4515 07c9 E4000000 		.4byte	0xe4
 4516 07cd 00000000 		.4byte	.LFB27
 4517 07d1 E2000000 		.4byte	.LFE27
 4518 07d5 88050000 		.4byte	.LLST27
 4519 07d9 01       		.byte	0x1
 4520 07da FD070000 		.4byte	0x7fd
 4521 07de 12       		.uleb128 0x12
 4522 07df 83060000 		.4byte	.LASF41
 4523 07e3 01       		.byte	0x1
 4524 07e4 800A     		.2byte	0xa80
 4525 07e6 E4000000 		.4byte	0xe4
 4526 07ea 02       		.byte	0x2
 4527 07eb 91       		.byte	0x91
 4528 07ec 74       		.sleb128 -12
 4529 07ed 12       		.uleb128 0x12
 4530 07ee 7F010000 		.4byte	.LASF45
 4531 07f2 01       		.byte	0x1
 4532 07f3 810A     		.2byte	0xa81
 4533 07f5 D9000000 		.4byte	0xd9
 4534 07f9 02       		.byte	0x2
 4535 07fa 91       		.byte	0x91
 4536 07fb 77       		.sleb128 -9
 4537 07fc 00       		.byte	0
 4538 07fd 10       		.uleb128 0x10
 4539 07fe 01       		.byte	0x1
 4540 07ff 92050000 		.4byte	.LASF79
 4541 0803 01       		.byte	0x1
 4542 0804 CC0A     		.2byte	0xacc
 4543 0806 01       		.byte	0x1
 4544 0807 E4000000 		.4byte	0xe4
 4545 080b 00000000 		.4byte	.LFB28
 4546 080f 2E000000 		.4byte	.LFE28
 4547 0813 C0050000 		.4byte	.LLST28
 4548 0817 01       		.byte	0x1
 4549 0818 3B080000 		.4byte	0x83b
 4550 081c 11       		.uleb128 0x11
 4551 081d 69696900 		.ascii	"iii\000"
 4552 0821 01       		.byte	0x1
 4553 0822 CC0A     		.2byte	0xacc
 4554 0824 10010000 		.4byte	0x110
 4555 0828 02       		.byte	0x2
 4556 0829 91       		.byte	0x91
 4557 082a 6F       		.sleb128 -17
 4558 082b 12       		.uleb128 0x12
ARM GAS  C:\Users\MATSUD~1\AppData\Local\Temp\ccLjdAaK.s 			page 137


 4559 082c 83060000 		.4byte	.LASF41
 4560 0830 01       		.byte	0x1
 4561 0831 CE0A     		.2byte	0xace
 4562 0833 E4000000 		.4byte	0xe4
 4563 0837 02       		.byte	0x2
 4564 0838 91       		.byte	0x91
 4565 0839 76       		.sleb128 -10
 4566 083a 00       		.byte	0
 4567 083b 10       		.uleb128 0x10
 4568 083c 01       		.byte	0x1
 4569 083d 11020000 		.4byte	.LASF80
 4570 0841 01       		.byte	0x1
 4571 0842 FC0A     		.2byte	0xafc
 4572 0844 01       		.byte	0x1
 4573 0845 EF000000 		.4byte	0xef
 4574 0849 00000000 		.4byte	.LFB29
 4575 084d 5E000000 		.4byte	.LFE29
 4576 0851 F8050000 		.4byte	.LLST29
 4577 0855 01       		.byte	0x1
 4578 0856 6A080000 		.4byte	0x86a
 4579 085a 12       		.uleb128 0x12
 4580 085b 61050000 		.4byte	.LASF81
 4581 085f 01       		.byte	0x1
 4582 0860 FE0A     		.2byte	0xafe
 4583 0862 EF000000 		.4byte	0xef
 4584 0866 02       		.byte	0x2
 4585 0867 91       		.byte	0x91
 4586 0868 77       		.sleb128 -9
 4587 0869 00       		.byte	0
 4588 086a 19       		.uleb128 0x19
 4589 086b 01       		.byte	0x1
 4590 086c 71060000 		.4byte	.LASF82
 4591 0870 01       		.byte	0x1
 4592 0871 260B     		.2byte	0xb26
 4593 0873 01       		.byte	0x1
 4594 0874 00000000 		.4byte	.LFB30
 4595 0878 44000000 		.4byte	.LFE30
 4596 087c 30060000 		.4byte	.LLST30
 4597 0880 01       		.byte	0x1
 4598 0881 95080000 		.4byte	0x895
 4599 0885 1A       		.uleb128 0x1a
 4600 0886 C6020000 		.4byte	.LASF83
 4601 088a 01       		.byte	0x1
 4602 088b 260B     		.2byte	0xb26
 4603 088d EF000000 		.4byte	0xef
 4604 0891 02       		.byte	0x2
 4605 0892 91       		.byte	0x91
 4606 0893 77       		.sleb128 -9
 4607 0894 00       		.byte	0
 4608 0895 1B       		.uleb128 0x1b
 4609 0896 E9050000 		.4byte	.LASF88
 4610 089a 01       		.byte	0x1
 4611 089b 430B     		.2byte	0xb43
 4612 089d 01       		.byte	0x1
 4613 089e D9000000 		.4byte	0xd9
 4614 08a2 00000000 		.4byte	.LFB31
 4615 08a6 4E000000 		.4byte	.LFE31
ARM GAS  C:\Users\MATSUD~1\AppData\Local\Temp\ccLjdAaK.s 			page 138


 4616 08aa 68060000 		.4byte	.LLST31
 4617 08ae 01       		.byte	0x1
 4618 08af DF080000 		.4byte	0x8df
 4619 08b3 11       		.uleb128 0x11
 4620 08b4 70696400 		.ascii	"pid\000"
 4621 08b8 01       		.byte	0x1
 4622 08b9 430B     		.2byte	0xb43
 4623 08bb D9000000 		.4byte	0xd9
 4624 08bf 02       		.byte	0x2
 4625 08c0 91       		.byte	0x91
 4626 08c1 6F       		.sleb128 -17
 4627 08c2 16       		.uleb128 0x16
 4628 08c3 6900     		.ascii	"i\000"
 4629 08c5 01       		.byte	0x1
 4630 08c6 450B     		.2byte	0xb45
 4631 08c8 D9000000 		.4byte	0xd9
 4632 08cc 02       		.byte	0x2
 4633 08cd 91       		.byte	0x91
 4634 08ce 77       		.sleb128 -9
 4635 08cf 12       		.uleb128 0x12
 4636 08d0 83060000 		.4byte	.LASF41
 4637 08d4 01       		.byte	0x1
 4638 08d5 460B     		.2byte	0xb46
 4639 08d7 D9000000 		.4byte	0xd9
 4640 08db 02       		.byte	0x2
 4641 08dc 91       		.byte	0x91
 4642 08dd 76       		.sleb128 -10
 4643 08de 00       		.byte	0
 4644 08df 1C       		.uleb128 0x1c
 4645 08e0 A5020000 		.4byte	.LASF85
 4646 08e4 01       		.byte	0x1
 4647 08e5 680B     		.2byte	0xb68
 4648 08e7 01       		.byte	0x1
 4649 08e8 00000000 		.4byte	.LFB32
 4650 08ec 3A010000 		.4byte	.LFE32
 4651 08f0 A0060000 		.4byte	.LLST32
 4652 08f4 01       		.byte	0x1
 4653 08f5 18090000 		.4byte	0x918
 4654 08f9 1A       		.uleb128 0x1a
 4655 08fa CC050000 		.4byte	.LASF84
 4656 08fe 01       		.byte	0x1
 4657 08ff 680B     		.2byte	0xb68
 4658 0901 D9000000 		.4byte	0xd9
 4659 0905 02       		.byte	0x2
 4660 0906 91       		.byte	0x91
 4661 0907 6F       		.sleb128 -17
 4662 0908 12       		.uleb128 0x12
 4663 0909 7F010000 		.4byte	.LASF45
 4664 090d 01       		.byte	0x1
 4665 090e 6A0B     		.2byte	0xb6a
 4666 0910 D9000000 		.4byte	0xd9
 4667 0914 02       		.byte	0x2
 4668 0915 91       		.byte	0x91
 4669 0916 77       		.sleb128 -9
 4670 0917 00       		.byte	0
 4671 0918 1D       		.uleb128 0x1d
 4672 0919 69050000 		.4byte	.LASF86
ARM GAS  C:\Users\MATSUD~1\AppData\Local\Temp\ccLjdAaK.s 			page 139


 4673 091d 01       		.byte	0x1
 4674 091e E60B     		.2byte	0xbe6
 4675 0920 01       		.byte	0x1
 4676 0921 00000000 		.4byte	.LFB33
 4677 0925 5A000000 		.4byte	.LFE33
 4678 0929 D8060000 		.4byte	.LLST33
 4679 092d 01       		.byte	0x1
 4680 092e 42090000 		.4byte	0x942
 4681 0932 1A       		.uleb128 0x1a
 4682 0933 8B030000 		.4byte	.LASF87
 4683 0937 01       		.byte	0x1
 4684 0938 E60B     		.2byte	0xbe6
 4685 093a D9000000 		.4byte	0xd9
 4686 093e 02       		.byte	0x2
 4687 093f 91       		.byte	0x91
 4688 0940 77       		.sleb128 -9
 4689 0941 00       		.byte	0
 4690 0942 1B       		.uleb128 0x1b
 4691 0943 44020000 		.4byte	.LASF89
 4692 0947 01       		.byte	0x1
 4693 0948 100C     		.2byte	0xc10
 4694 094a 01       		.byte	0x1
 4695 094b CE000000 		.4byte	0xce
 4696 094f 00000000 		.4byte	.LFB34
 4697 0953 20000000 		.4byte	.LFE34
 4698 0957 10070000 		.4byte	.LLST34
 4699 095b 01       		.byte	0x1
 4700 095c 7F090000 		.4byte	0x97f
 4701 0960 1A       		.uleb128 0x1a
 4702 0961 72000000 		.4byte	.LASF90
 4703 0965 01       		.byte	0x1
 4704 0966 100C     		.2byte	0xc10
 4705 0968 D9000000 		.4byte	0xd9
 4706 096c 02       		.byte	0x2
 4707 096d 91       		.byte	0x91
 4708 096e 6F       		.sleb128 -17
 4709 096f 12       		.uleb128 0x12
 4710 0970 83060000 		.4byte	.LASF41
 4711 0974 01       		.byte	0x1
 4712 0975 120C     		.2byte	0xc12
 4713 0977 CE000000 		.4byte	0xce
 4714 097b 02       		.byte	0x2
 4715 097c 91       		.byte	0x91
 4716 097d 77       		.sleb128 -9
 4717 097e 00       		.byte	0
 4718 097f 1D       		.uleb128 0x1d
 4719 0980 07050000 		.4byte	.LASF91
 4720 0984 01       		.byte	0x1
 4721 0985 310C     		.2byte	0xc31
 4722 0987 01       		.byte	0x1
 4723 0988 00000000 		.4byte	.LFB35
 4724 098c 16000000 		.4byte	.LFE35
 4725 0990 48070000 		.4byte	.LLST35
 4726 0994 01       		.byte	0x1
 4727 0995 A9090000 		.4byte	0x9a9
 4728 0999 1A       		.uleb128 0x1a
 4729 099a 72000000 		.4byte	.LASF90
ARM GAS  C:\Users\MATSUD~1\AppData\Local\Temp\ccLjdAaK.s 			page 140


 4730 099e 01       		.byte	0x1
 4731 099f 310C     		.2byte	0xc31
 4732 09a1 D9000000 		.4byte	0xd9
 4733 09a5 02       		.byte	0x2
 4734 09a6 91       		.byte	0x91
 4735 09a7 77       		.sleb128 -9
 4736 09a8 00       		.byte	0
 4737 09a9 0D       		.uleb128 0xd
 4738 09aa A0030000 		.4byte	.LASF92
 4739 09ae 01       		.byte	0x1
 4740 09af 57       		.byte	0x57
 4741 09b0 D9000000 		.4byte	0xd9
 4742 09b4 05       		.byte	0x5
 4743 09b5 03       		.byte	0x3
 4744 09b6 00000000 		.4byte	LIN_1_periodCounter
 4745 09ba 0D       		.uleb128 0xd
 4746 09bb CB040000 		.4byte	.LASF93
 4747 09bf 01       		.byte	0x1
 4748 09c0 5B       		.byte	0x5b
 4749 09c1 51010000 		.4byte	0x151
 4750 09c5 05       		.byte	0x5
 4751 09c6 03       		.byte	0x3
 4752 09c7 01000000 		.4byte	LIN_1_status
 4753 09cb 0D       		.uleb128 0xd
 4754 09cc 60060000 		.4byte	.LASF94
 4755 09d0 01       		.byte	0x1
 4756 09d1 5C       		.byte	0x5c
 4757 09d2 51010000 		.4byte	0x151
 4758 09d6 05       		.byte	0x5
 4759 09d7 03       		.byte	0x3
 4760 09d8 02000000 		.4byte	LIN_1_syncCounts
 4761 09dc 0D       		.uleb128 0xd
 4762 09dd D8040000 		.4byte	.LASF95
 4763 09e1 01       		.byte	0x1
 4764 09e2 5D       		.byte	0x5d
 4765 09e3 51010000 		.4byte	0x151
 4766 09e7 05       		.byte	0x5
 4767 09e8 03       		.byte	0x3
 4768 09e9 03000000 		.4byte	LIN_1_auxStatus
 4769 09ed 0D       		.uleb128 0xd
 4770 09ee C6000000 		.4byte	.LASF96
 4771 09f2 01       		.byte	0x1
 4772 09f3 5E       		.byte	0x5e
 4773 09f4 FE090000 		.4byte	0x9fe
 4774 09f8 05       		.byte	0x5
 4775 09f9 03       		.byte	0x3
 4776 09fa 04000000 		.4byte	LIN_1_ioctlStatus
 4777 09fe 06       		.uleb128 0x6
 4778 09ff E4000000 		.4byte	0xe4
 4779 0a03 0D       		.uleb128 0xd
 4780 0a04 F2040000 		.4byte	.LASF97
 4781 0a08 01       		.byte	0x1
 4782 0a09 5F       		.byte	0x5f
 4783 0a0a FE090000 		.4byte	0x9fe
 4784 0a0e 05       		.byte	0x5
 4785 0a0f 03       		.byte	0x3
 4786 0a10 06000000 		.4byte	LIN_1_ifcStatus
ARM GAS  C:\Users\MATSUD~1\AppData\Local\Temp\ccLjdAaK.s 			page 141


 4787 0a14 0D       		.uleb128 0xd
 4788 0a15 31020000 		.4byte	.LASF98
 4789 0a19 01       		.byte	0x1
 4790 0a1a 60       		.byte	0x60
 4791 0a1b 51010000 		.4byte	0x151
 4792 0a1f 05       		.byte	0x5
 4793 0a20 03       		.byte	0x3
 4794 0a21 08000000 		.4byte	LIN_1_uartFsmState
 4795 0a25 0D       		.uleb128 0xd
 4796 0a26 44000000 		.4byte	.LASF99
 4797 0a2a 01       		.byte	0x1
 4798 0a2b 61       		.byte	0x61
 4799 0a2c 51010000 		.4byte	0x151
 4800 0a30 05       		.byte	0x5
 4801 0a31 03       		.byte	0x3
 4802 0a32 09000000 		.4byte	LIN_1_fsmFlags
 4803 0a36 0D       		.uleb128 0xd
 4804 0a37 00000000 		.4byte	.LASF100
 4805 0a3b 01       		.byte	0x1
 4806 0a3c 66       		.byte	0x66
 4807 0a3d E4000000 		.4byte	0xe4
 4808 0a41 05       		.byte	0x5
 4809 0a42 03       		.byte	0x3
 4810 0a43 0A000000 		.4byte	LIN_1_initialClockDivider
 4811 0a47 0D       		.uleb128 0xd
 4812 0a48 53000000 		.4byte	.LASF101
 4813 0a4c 01       		.byte	0x1
 4814 0a4d 72       		.byte	0x72
 4815 0a4e 78010000 		.4byte	0x178
 4816 0a52 05       		.byte	0x5
 4817 0a53 03       		.byte	0x3
 4818 0a54 0C000000 		.4byte	LIN_1_statusFlagArray
 4819 0a58 0D       		.uleb128 0xd
 4820 0a59 F8000000 		.4byte	.LASF102
 4821 0a5d 01       		.byte	0x1
 4822 0a5e 7E       		.byte	0x7e
 4823 0a5f 690A0000 		.4byte	0xa69
 4824 0a63 05       		.byte	0x5
 4825 0a64 03       		.byte	0x3
 4826 0a65 10000000 		.4byte	LIN_1_volatileConfig
 4827 0a69 06       		.uleb128 0x6
 4828 0a6a 78010000 		.4byte	0x178
 4829 0a6e 0D       		.uleb128 0xd
 4830 0a6f 2D010000 		.4byte	.LASF103
 4831 0a73 01       		.byte	0x1
 4832 0a74 D5       		.byte	0xd5
 4833 0a75 7F0A0000 		.4byte	0xa7f
 4834 0a79 05       		.byte	0x5
 4835 0a7a 03       		.byte	0x3
 4836 0a7b 00000000 		.4byte	LIN_1_LinSlaveConfig
 4837 0a7f 18       		.uleb128 0x18
 4838 0a80 88010000 		.4byte	0x188
 4839 0a84 0A       		.uleb128 0xa
 4840 0a85 D9000000 		.4byte	0xd9
 4841 0a89 940A0000 		.4byte	0xa94
 4842 0a8d 0B       		.uleb128 0xb
 4843 0a8e 68000000 		.4byte	0x68
ARM GAS  C:\Users\MATSUD~1\AppData\Local\Temp\ccLjdAaK.s 			page 142


 4844 0a92 00       		.byte	0
 4845 0a93 00       		.byte	0
 4846 0a94 0D       		.uleb128 0xd
 4847 0a95 19010000 		.4byte	.LASF104
 4848 0a99 01       		.byte	0x1
 4849 0a9a DC       		.byte	0xdc
 4850 0a9b A50A0000 		.4byte	0xaa5
 4851 0a9f 05       		.byte	0x5
 4852 0aa0 03       		.byte	0x3
 4853 0aa1 00000000 		.4byte	LIN_1_Buffer_Frame1
 4854 0aa5 06       		.uleb128 0x6
 4855 0aa6 840A0000 		.4byte	0xa84
 4856 0aaa 0D       		.uleb128 0xd
 4857 0aab B2000000 		.4byte	.LASF105
 4858 0aaf 01       		.byte	0x1
 4859 0ab0 DD       		.byte	0xdd
 4860 0ab1 BB0A0000 		.4byte	0xabb
 4861 0ab5 05       		.byte	0x5
 4862 0ab6 03       		.byte	0x3
 4863 0ab7 04000000 		.4byte	LIN_1_Buffer_Frame2
 4864 0abb 06       		.uleb128 0x6
 4865 0abc 840A0000 		.4byte	0xa84
 4866 0ac0 00       		.byte	0
 4867              		.section	.debug_abbrev,"",%progbits
 4868              	.Ldebug_abbrev0:
 4869 0000 01       		.uleb128 0x1
 4870 0001 11       		.uleb128 0x11
 4871 0002 01       		.byte	0x1
 4872 0003 25       		.uleb128 0x25
 4873 0004 0E       		.uleb128 0xe
 4874 0005 13       		.uleb128 0x13
 4875 0006 0B       		.uleb128 0xb
 4876 0007 03       		.uleb128 0x3
 4877 0008 0E       		.uleb128 0xe
 4878 0009 1B       		.uleb128 0x1b
 4879 000a 0E       		.uleb128 0xe
 4880 000b 55       		.uleb128 0x55
 4881 000c 06       		.uleb128 0x6
 4882 000d 11       		.uleb128 0x11
 4883 000e 01       		.uleb128 0x1
 4884 000f 52       		.uleb128 0x52
 4885 0010 01       		.uleb128 0x1
 4886 0011 10       		.uleb128 0x10
 4887 0012 06       		.uleb128 0x6
 4888 0013 00       		.byte	0
 4889 0014 00       		.byte	0
 4890 0015 02       		.uleb128 0x2
 4891 0016 24       		.uleb128 0x24
 4892 0017 00       		.byte	0
 4893 0018 0B       		.uleb128 0xb
 4894 0019 0B       		.uleb128 0xb
 4895 001a 3E       		.uleb128 0x3e
 4896 001b 0B       		.uleb128 0xb
 4897 001c 03       		.uleb128 0x3
 4898 001d 0E       		.uleb128 0xe
 4899 001e 00       		.byte	0
 4900 001f 00       		.byte	0
ARM GAS  C:\Users\MATSUD~1\AppData\Local\Temp\ccLjdAaK.s 			page 143


 4901 0020 03       		.uleb128 0x3
 4902 0021 24       		.uleb128 0x24
 4903 0022 00       		.byte	0
 4904 0023 0B       		.uleb128 0xb
 4905 0024 0B       		.uleb128 0xb
 4906 0025 3E       		.uleb128 0x3e
 4907 0026 0B       		.uleb128 0xb
 4908 0027 03       		.uleb128 0x3
 4909 0028 08       		.uleb128 0x8
 4910 0029 00       		.byte	0
 4911 002a 00       		.byte	0
 4912 002b 04       		.uleb128 0x4
 4913 002c 0F       		.uleb128 0xf
 4914 002d 00       		.byte	0
 4915 002e 0B       		.uleb128 0xb
 4916 002f 0B       		.uleb128 0xb
 4917 0030 00       		.byte	0
 4918 0031 00       		.byte	0
 4919 0032 05       		.uleb128 0x5
 4920 0033 16       		.uleb128 0x16
 4921 0034 00       		.byte	0
 4922 0035 03       		.uleb128 0x3
 4923 0036 0E       		.uleb128 0xe
 4924 0037 3A       		.uleb128 0x3a
 4925 0038 0B       		.uleb128 0xb
 4926 0039 3B       		.uleb128 0x3b
 4927 003a 0B       		.uleb128 0xb
 4928 003b 49       		.uleb128 0x49
 4929 003c 13       		.uleb128 0x13
 4930 003d 00       		.byte	0
 4931 003e 00       		.byte	0
 4932 003f 06       		.uleb128 0x6
 4933 0040 35       		.uleb128 0x35
 4934 0041 00       		.byte	0
 4935 0042 49       		.uleb128 0x49
 4936 0043 13       		.uleb128 0x13
 4937 0044 00       		.byte	0
 4938 0045 00       		.byte	0
 4939 0046 07       		.uleb128 0x7
 4940 0047 13       		.uleb128 0x13
 4941 0048 01       		.byte	0x1
 4942 0049 0B       		.uleb128 0xb
 4943 004a 0B       		.uleb128 0xb
 4944 004b 3A       		.uleb128 0x3a
 4945 004c 0B       		.uleb128 0xb
 4946 004d 3B       		.uleb128 0x3b
 4947 004e 0B       		.uleb128 0xb
 4948 004f 01       		.uleb128 0x1
 4949 0050 13       		.uleb128 0x13
 4950 0051 00       		.byte	0
 4951 0052 00       		.byte	0
 4952 0053 08       		.uleb128 0x8
 4953 0054 0D       		.uleb128 0xd
 4954 0055 00       		.byte	0
 4955 0056 03       		.uleb128 0x3
 4956 0057 0E       		.uleb128 0xe
 4957 0058 3A       		.uleb128 0x3a
ARM GAS  C:\Users\MATSUD~1\AppData\Local\Temp\ccLjdAaK.s 			page 144


 4958 0059 0B       		.uleb128 0xb
 4959 005a 3B       		.uleb128 0x3b
 4960 005b 0B       		.uleb128 0xb
 4961 005c 49       		.uleb128 0x49
 4962 005d 13       		.uleb128 0x13
 4963 005e 38       		.uleb128 0x38
 4964 005f 0A       		.uleb128 0xa
 4965 0060 00       		.byte	0
 4966 0061 00       		.byte	0
 4967 0062 09       		.uleb128 0x9
 4968 0063 0F       		.uleb128 0xf
 4969 0064 00       		.byte	0
 4970 0065 0B       		.uleb128 0xb
 4971 0066 0B       		.uleb128 0xb
 4972 0067 49       		.uleb128 0x49
 4973 0068 13       		.uleb128 0x13
 4974 0069 00       		.byte	0
 4975 006a 00       		.byte	0
 4976 006b 0A       		.uleb128 0xa
 4977 006c 01       		.uleb128 0x1
 4978 006d 01       		.byte	0x1
 4979 006e 49       		.uleb128 0x49
 4980 006f 13       		.uleb128 0x13
 4981 0070 01       		.uleb128 0x1
 4982 0071 13       		.uleb128 0x13
 4983 0072 00       		.byte	0
 4984 0073 00       		.byte	0
 4985 0074 0B       		.uleb128 0xb
 4986 0075 21       		.uleb128 0x21
 4987 0076 00       		.byte	0
 4988 0077 49       		.uleb128 0x49
 4989 0078 13       		.uleb128 0x13
 4990 0079 2F       		.uleb128 0x2f
 4991 007a 0B       		.uleb128 0xb
 4992 007b 00       		.byte	0
 4993 007c 00       		.byte	0
 4994 007d 0C       		.uleb128 0xc
 4995 007e 2E       		.uleb128 0x2e
 4996 007f 01       		.byte	0x1
 4997 0080 3F       		.uleb128 0x3f
 4998 0081 0C       		.uleb128 0xc
 4999 0082 03       		.uleb128 0x3
 5000 0083 0E       		.uleb128 0xe
 5001 0084 3A       		.uleb128 0x3a
 5002 0085 0B       		.uleb128 0xb
 5003 0086 3B       		.uleb128 0x3b
 5004 0087 0B       		.uleb128 0xb
 5005 0088 27       		.uleb128 0x27
 5006 0089 0C       		.uleb128 0xc
 5007 008a 49       		.uleb128 0x49
 5008 008b 13       		.uleb128 0x13
 5009 008c 11       		.uleb128 0x11
 5010 008d 01       		.uleb128 0x1
 5011 008e 12       		.uleb128 0x12
 5012 008f 01       		.uleb128 0x1
 5013 0090 40       		.uleb128 0x40
 5014 0091 06       		.uleb128 0x6
ARM GAS  C:\Users\MATSUD~1\AppData\Local\Temp\ccLjdAaK.s 			page 145


 5015 0092 9642     		.uleb128 0x2116
 5016 0094 0C       		.uleb128 0xc
 5017 0095 01       		.uleb128 0x1
 5018 0096 13       		.uleb128 0x13
 5019 0097 00       		.byte	0
 5020 0098 00       		.byte	0
 5021 0099 0D       		.uleb128 0xd
 5022 009a 34       		.uleb128 0x34
 5023 009b 00       		.byte	0
 5024 009c 03       		.uleb128 0x3
 5025 009d 0E       		.uleb128 0xe
 5026 009e 3A       		.uleb128 0x3a
 5027 009f 0B       		.uleb128 0xb
 5028 00a0 3B       		.uleb128 0x3b
 5029 00a1 0B       		.uleb128 0xb
 5030 00a2 49       		.uleb128 0x49
 5031 00a3 13       		.uleb128 0x13
 5032 00a4 02       		.uleb128 0x2
 5033 00a5 0A       		.uleb128 0xa
 5034 00a6 00       		.byte	0
 5035 00a7 00       		.byte	0
 5036 00a8 0E       		.uleb128 0xe
 5037 00a9 2E       		.uleb128 0x2e
 5038 00aa 00       		.byte	0
 5039 00ab 3F       		.uleb128 0x3f
 5040 00ac 0C       		.uleb128 0xc
 5041 00ad 03       		.uleb128 0x3
 5042 00ae 0E       		.uleb128 0xe
 5043 00af 3A       		.uleb128 0x3a
 5044 00b0 0B       		.uleb128 0xb
 5045 00b1 3B       		.uleb128 0x3b
 5046 00b2 05       		.uleb128 0x5
 5047 00b3 27       		.uleb128 0x27
 5048 00b4 0C       		.uleb128 0xc
 5049 00b5 49       		.uleb128 0x49
 5050 00b6 13       		.uleb128 0x13
 5051 00b7 11       		.uleb128 0x11
 5052 00b8 01       		.uleb128 0x1
 5053 00b9 12       		.uleb128 0x12
 5054 00ba 01       		.uleb128 0x1
 5055 00bb 40       		.uleb128 0x40
 5056 00bc 06       		.uleb128 0x6
 5057 00bd 9642     		.uleb128 0x2116
 5058 00bf 0C       		.uleb128 0xc
 5059 00c0 00       		.byte	0
 5060 00c1 00       		.byte	0
 5061 00c2 0F       		.uleb128 0xf
 5062 00c3 2E       		.uleb128 0x2e
 5063 00c4 00       		.byte	0
 5064 00c5 3F       		.uleb128 0x3f
 5065 00c6 0C       		.uleb128 0xc
 5066 00c7 03       		.uleb128 0x3
 5067 00c8 0E       		.uleb128 0xe
 5068 00c9 3A       		.uleb128 0x3a
 5069 00ca 0B       		.uleb128 0xb
 5070 00cb 3B       		.uleb128 0x3b
 5071 00cc 05       		.uleb128 0x5
ARM GAS  C:\Users\MATSUD~1\AppData\Local\Temp\ccLjdAaK.s 			page 146


 5072 00cd 27       		.uleb128 0x27
 5073 00ce 0C       		.uleb128 0xc
 5074 00cf 49       		.uleb128 0x49
 5075 00d0 13       		.uleb128 0x13
 5076 00d1 11       		.uleb128 0x11
 5077 00d2 01       		.uleb128 0x1
 5078 00d3 12       		.uleb128 0x12
 5079 00d4 01       		.uleb128 0x1
 5080 00d5 40       		.uleb128 0x40
 5081 00d6 06       		.uleb128 0x6
 5082 00d7 9742     		.uleb128 0x2117
 5083 00d9 0C       		.uleb128 0xc
 5084 00da 00       		.byte	0
 5085 00db 00       		.byte	0
 5086 00dc 10       		.uleb128 0x10
 5087 00dd 2E       		.uleb128 0x2e
 5088 00de 01       		.byte	0x1
 5089 00df 3F       		.uleb128 0x3f
 5090 00e0 0C       		.uleb128 0xc
 5091 00e1 03       		.uleb128 0x3
 5092 00e2 0E       		.uleb128 0xe
 5093 00e3 3A       		.uleb128 0x3a
 5094 00e4 0B       		.uleb128 0xb
 5095 00e5 3B       		.uleb128 0x3b
 5096 00e6 05       		.uleb128 0x5
 5097 00e7 27       		.uleb128 0x27
 5098 00e8 0C       		.uleb128 0xc
 5099 00e9 49       		.uleb128 0x49
 5100 00ea 13       		.uleb128 0x13
 5101 00eb 11       		.uleb128 0x11
 5102 00ec 01       		.uleb128 0x1
 5103 00ed 12       		.uleb128 0x12
 5104 00ee 01       		.uleb128 0x1
 5105 00ef 40       		.uleb128 0x40
 5106 00f0 06       		.uleb128 0x6
 5107 00f1 9642     		.uleb128 0x2116
 5108 00f3 0C       		.uleb128 0xc
 5109 00f4 01       		.uleb128 0x1
 5110 00f5 13       		.uleb128 0x13
 5111 00f6 00       		.byte	0
 5112 00f7 00       		.byte	0
 5113 00f8 11       		.uleb128 0x11
 5114 00f9 05       		.uleb128 0x5
 5115 00fa 00       		.byte	0
 5116 00fb 03       		.uleb128 0x3
 5117 00fc 08       		.uleb128 0x8
 5118 00fd 3A       		.uleb128 0x3a
 5119 00fe 0B       		.uleb128 0xb
 5120 00ff 3B       		.uleb128 0x3b
 5121 0100 05       		.uleb128 0x5
 5122 0101 49       		.uleb128 0x49
 5123 0102 13       		.uleb128 0x13
 5124 0103 02       		.uleb128 0x2
 5125 0104 0A       		.uleb128 0xa
 5126 0105 00       		.byte	0
 5127 0106 00       		.byte	0
 5128 0107 12       		.uleb128 0x12
ARM GAS  C:\Users\MATSUD~1\AppData\Local\Temp\ccLjdAaK.s 			page 147


 5129 0108 34       		.uleb128 0x34
 5130 0109 00       		.byte	0
 5131 010a 03       		.uleb128 0x3
 5132 010b 0E       		.uleb128 0xe
 5133 010c 3A       		.uleb128 0x3a
 5134 010d 0B       		.uleb128 0xb
 5135 010e 3B       		.uleb128 0x3b
 5136 010f 05       		.uleb128 0x5
 5137 0110 49       		.uleb128 0x49
 5138 0111 13       		.uleb128 0x13
 5139 0112 02       		.uleb128 0x2
 5140 0113 0A       		.uleb128 0xa
 5141 0114 00       		.byte	0
 5142 0115 00       		.byte	0
 5143 0116 13       		.uleb128 0x13
 5144 0117 2E       		.uleb128 0x2e
 5145 0118 01       		.byte	0x1
 5146 0119 3F       		.uleb128 0x3f
 5147 011a 0C       		.uleb128 0xc
 5148 011b 03       		.uleb128 0x3
 5149 011c 0E       		.uleb128 0xe
 5150 011d 3A       		.uleb128 0x3a
 5151 011e 0B       		.uleb128 0xb
 5152 011f 3B       		.uleb128 0x3b
 5153 0120 05       		.uleb128 0x5
 5154 0121 27       		.uleb128 0x27
 5155 0122 0C       		.uleb128 0xc
 5156 0123 11       		.uleb128 0x11
 5157 0124 01       		.uleb128 0x1
 5158 0125 12       		.uleb128 0x12
 5159 0126 01       		.uleb128 0x1
 5160 0127 40       		.uleb128 0x40
 5161 0128 06       		.uleb128 0x6
 5162 0129 9642     		.uleb128 0x2116
 5163 012b 0C       		.uleb128 0xc
 5164 012c 01       		.uleb128 0x1
 5165 012d 13       		.uleb128 0x13
 5166 012e 00       		.byte	0
 5167 012f 00       		.byte	0
 5168 0130 14       		.uleb128 0x14
 5169 0131 2E       		.uleb128 0x2e
 5170 0132 01       		.byte	0x1
 5171 0133 3F       		.uleb128 0x3f
 5172 0134 0C       		.uleb128 0xc
 5173 0135 03       		.uleb128 0x3
 5174 0136 0E       		.uleb128 0xe
 5175 0137 3A       		.uleb128 0x3a
 5176 0138 0B       		.uleb128 0xb
 5177 0139 3B       		.uleb128 0x3b
 5178 013a 05       		.uleb128 0x5
 5179 013b 27       		.uleb128 0x27
 5180 013c 0C       		.uleb128 0xc
 5181 013d 49       		.uleb128 0x49
 5182 013e 13       		.uleb128 0x13
 5183 013f 11       		.uleb128 0x11
 5184 0140 01       		.uleb128 0x1
 5185 0141 12       		.uleb128 0x12
ARM GAS  C:\Users\MATSUD~1\AppData\Local\Temp\ccLjdAaK.s 			page 148


 5186 0142 01       		.uleb128 0x1
 5187 0143 40       		.uleb128 0x40
 5188 0144 06       		.uleb128 0x6
 5189 0145 9742     		.uleb128 0x2117
 5190 0147 0C       		.uleb128 0xc
 5191 0148 01       		.uleb128 0x1
 5192 0149 13       		.uleb128 0x13
 5193 014a 00       		.byte	0
 5194 014b 00       		.byte	0
 5195 014c 15       		.uleb128 0x15
 5196 014d 2E       		.uleb128 0x2e
 5197 014e 00       		.byte	0
 5198 014f 3F       		.uleb128 0x3f
 5199 0150 0C       		.uleb128 0xc
 5200 0151 03       		.uleb128 0x3
 5201 0152 0E       		.uleb128 0xe
 5202 0153 3A       		.uleb128 0x3a
 5203 0154 0B       		.uleb128 0xb
 5204 0155 3B       		.uleb128 0x3b
 5205 0156 05       		.uleb128 0x5
 5206 0157 27       		.uleb128 0x27
 5207 0158 0C       		.uleb128 0xc
 5208 0159 11       		.uleb128 0x11
 5209 015a 01       		.uleb128 0x1
 5210 015b 12       		.uleb128 0x12
 5211 015c 01       		.uleb128 0x1
 5212 015d 40       		.uleb128 0x40
 5213 015e 06       		.uleb128 0x6
 5214 015f 9742     		.uleb128 0x2117
 5215 0161 0C       		.uleb128 0xc
 5216 0162 00       		.byte	0
 5217 0163 00       		.byte	0
 5218 0164 16       		.uleb128 0x16
 5219 0165 34       		.uleb128 0x34
 5220 0166 00       		.byte	0
 5221 0167 03       		.uleb128 0x3
 5222 0168 08       		.uleb128 0x8
 5223 0169 3A       		.uleb128 0x3a
 5224 016a 0B       		.uleb128 0xb
 5225 016b 3B       		.uleb128 0x3b
 5226 016c 05       		.uleb128 0x5
 5227 016d 49       		.uleb128 0x49
 5228 016e 13       		.uleb128 0x13
 5229 016f 02       		.uleb128 0x2
 5230 0170 0A       		.uleb128 0xa
 5231 0171 00       		.byte	0
 5232 0172 00       		.byte	0
 5233 0173 17       		.uleb128 0x17
 5234 0174 2E       		.uleb128 0x2e
 5235 0175 00       		.byte	0
 5236 0176 3F       		.uleb128 0x3f
 5237 0177 0C       		.uleb128 0xc
 5238 0178 03       		.uleb128 0x3
 5239 0179 0E       		.uleb128 0xe
 5240 017a 3A       		.uleb128 0x3a
 5241 017b 0B       		.uleb128 0xb
 5242 017c 3B       		.uleb128 0x3b
ARM GAS  C:\Users\MATSUD~1\AppData\Local\Temp\ccLjdAaK.s 			page 149


 5243 017d 05       		.uleb128 0x5
 5244 017e 27       		.uleb128 0x27
 5245 017f 0C       		.uleb128 0xc
 5246 0180 11       		.uleb128 0x11
 5247 0181 01       		.uleb128 0x1
 5248 0182 12       		.uleb128 0x12
 5249 0183 01       		.uleb128 0x1
 5250 0184 40       		.uleb128 0x40
 5251 0185 06       		.uleb128 0x6
 5252 0186 9642     		.uleb128 0x2116
 5253 0188 0C       		.uleb128 0xc
 5254 0189 00       		.byte	0
 5255 018a 00       		.byte	0
 5256 018b 18       		.uleb128 0x18
 5257 018c 26       		.uleb128 0x26
 5258 018d 00       		.byte	0
 5259 018e 49       		.uleb128 0x49
 5260 018f 13       		.uleb128 0x13
 5261 0190 00       		.byte	0
 5262 0191 00       		.byte	0
 5263 0192 19       		.uleb128 0x19
 5264 0193 2E       		.uleb128 0x2e
 5265 0194 01       		.byte	0x1
 5266 0195 3F       		.uleb128 0x3f
 5267 0196 0C       		.uleb128 0xc
 5268 0197 03       		.uleb128 0x3
 5269 0198 0E       		.uleb128 0xe
 5270 0199 3A       		.uleb128 0x3a
 5271 019a 0B       		.uleb128 0xb
 5272 019b 3B       		.uleb128 0x3b
 5273 019c 05       		.uleb128 0x5
 5274 019d 27       		.uleb128 0x27
 5275 019e 0C       		.uleb128 0xc
 5276 019f 11       		.uleb128 0x11
 5277 01a0 01       		.uleb128 0x1
 5278 01a1 12       		.uleb128 0x12
 5279 01a2 01       		.uleb128 0x1
 5280 01a3 40       		.uleb128 0x40
 5281 01a4 06       		.uleb128 0x6
 5282 01a5 9742     		.uleb128 0x2117
 5283 01a7 0C       		.uleb128 0xc
 5284 01a8 01       		.uleb128 0x1
 5285 01a9 13       		.uleb128 0x13
 5286 01aa 00       		.byte	0
 5287 01ab 00       		.byte	0
 5288 01ac 1A       		.uleb128 0x1a
 5289 01ad 05       		.uleb128 0x5
 5290 01ae 00       		.byte	0
 5291 01af 03       		.uleb128 0x3
 5292 01b0 0E       		.uleb128 0xe
 5293 01b1 3A       		.uleb128 0x3a
 5294 01b2 0B       		.uleb128 0xb
 5295 01b3 3B       		.uleb128 0x3b
 5296 01b4 05       		.uleb128 0x5
 5297 01b5 49       		.uleb128 0x49
 5298 01b6 13       		.uleb128 0x13
 5299 01b7 02       		.uleb128 0x2
ARM GAS  C:\Users\MATSUD~1\AppData\Local\Temp\ccLjdAaK.s 			page 150


 5300 01b8 0A       		.uleb128 0xa
 5301 01b9 00       		.byte	0
 5302 01ba 00       		.byte	0
 5303 01bb 1B       		.uleb128 0x1b
 5304 01bc 2E       		.uleb128 0x2e
 5305 01bd 01       		.byte	0x1
 5306 01be 03       		.uleb128 0x3
 5307 01bf 0E       		.uleb128 0xe
 5308 01c0 3A       		.uleb128 0x3a
 5309 01c1 0B       		.uleb128 0xb
 5310 01c2 3B       		.uleb128 0x3b
 5311 01c3 05       		.uleb128 0x5
 5312 01c4 27       		.uleb128 0x27
 5313 01c5 0C       		.uleb128 0xc
 5314 01c6 49       		.uleb128 0x49
 5315 01c7 13       		.uleb128 0x13
 5316 01c8 11       		.uleb128 0x11
 5317 01c9 01       		.uleb128 0x1
 5318 01ca 12       		.uleb128 0x12
 5319 01cb 01       		.uleb128 0x1
 5320 01cc 40       		.uleb128 0x40
 5321 01cd 06       		.uleb128 0x6
 5322 01ce 9742     		.uleb128 0x2117
 5323 01d0 0C       		.uleb128 0xc
 5324 01d1 01       		.uleb128 0x1
 5325 01d2 13       		.uleb128 0x13
 5326 01d3 00       		.byte	0
 5327 01d4 00       		.byte	0
 5328 01d5 1C       		.uleb128 0x1c
 5329 01d6 2E       		.uleb128 0x2e
 5330 01d7 01       		.byte	0x1
 5331 01d8 03       		.uleb128 0x3
 5332 01d9 0E       		.uleb128 0xe
 5333 01da 3A       		.uleb128 0x3a
 5334 01db 0B       		.uleb128 0xb
 5335 01dc 3B       		.uleb128 0x3b
 5336 01dd 05       		.uleb128 0x5
 5337 01de 27       		.uleb128 0x27
 5338 01df 0C       		.uleb128 0xc
 5339 01e0 11       		.uleb128 0x11
 5340 01e1 01       		.uleb128 0x1
 5341 01e2 12       		.uleb128 0x12
 5342 01e3 01       		.uleb128 0x1
 5343 01e4 40       		.uleb128 0x40
 5344 01e5 06       		.uleb128 0x6
 5345 01e6 9642     		.uleb128 0x2116
 5346 01e8 0C       		.uleb128 0xc
 5347 01e9 01       		.uleb128 0x1
 5348 01ea 13       		.uleb128 0x13
 5349 01eb 00       		.byte	0
 5350 01ec 00       		.byte	0
 5351 01ed 1D       		.uleb128 0x1d
 5352 01ee 2E       		.uleb128 0x2e
 5353 01ef 01       		.byte	0x1
 5354 01f0 03       		.uleb128 0x3
 5355 01f1 0E       		.uleb128 0xe
 5356 01f2 3A       		.uleb128 0x3a
ARM GAS  C:\Users\MATSUD~1\AppData\Local\Temp\ccLjdAaK.s 			page 151


 5357 01f3 0B       		.uleb128 0xb
 5358 01f4 3B       		.uleb128 0x3b
 5359 01f5 05       		.uleb128 0x5
 5360 01f6 27       		.uleb128 0x27
 5361 01f7 0C       		.uleb128 0xc
 5362 01f8 11       		.uleb128 0x11
 5363 01f9 01       		.uleb128 0x1
 5364 01fa 12       		.uleb128 0x12
 5365 01fb 01       		.uleb128 0x1
 5366 01fc 40       		.uleb128 0x40
 5367 01fd 06       		.uleb128 0x6
 5368 01fe 9742     		.uleb128 0x2117
 5369 0200 0C       		.uleb128 0xc
 5370 0201 01       		.uleb128 0x1
 5371 0202 13       		.uleb128 0x13
 5372 0203 00       		.byte	0
 5373 0204 00       		.byte	0
 5374 0205 00       		.byte	0
 5375              		.section	.debug_loc,"",%progbits
 5376              	.Ldebug_loc0:
 5377              	.LLST0:
 5378 0000 00000000 		.4byte	.LFB0
 5379 0004 02000000 		.4byte	.LCFI0
 5380 0008 0200     		.2byte	0x2
 5381 000a 7D       		.byte	0x7d
 5382 000b 00       		.sleb128 0
 5383 000c 02000000 		.4byte	.LCFI0
 5384 0010 04000000 		.4byte	.LCFI1
 5385 0014 0200     		.2byte	0x2
 5386 0016 7D       		.byte	0x7d
 5387 0017 08       		.sleb128 8
 5388 0018 04000000 		.4byte	.LCFI1
 5389 001c 06000000 		.4byte	.LCFI2
 5390 0020 0200     		.2byte	0x2
 5391 0022 7D       		.byte	0x7d
 5392 0023 10       		.sleb128 16
 5393 0024 06000000 		.4byte	.LCFI2
 5394 0028 1E000000 		.4byte	.LFE0
 5395 002c 0200     		.2byte	0x2
 5396 002e 77       		.byte	0x77
 5397 002f 10       		.sleb128 16
 5398 0030 00000000 		.4byte	0
 5399 0034 00000000 		.4byte	0
 5400              	.LLST1:
 5401 0038 00000000 		.4byte	.LFB1
 5402 003c 02000000 		.4byte	.LCFI3
 5403 0040 0200     		.2byte	0x2
 5404 0042 7D       		.byte	0x7d
 5405 0043 00       		.sleb128 0
 5406 0044 02000000 		.4byte	.LCFI3
 5407 0048 04000000 		.4byte	.LCFI4
 5408 004c 0200     		.2byte	0x2
 5409 004e 7D       		.byte	0x7d
 5410 004f 08       		.sleb128 8
 5411 0050 04000000 		.4byte	.LCFI4
 5412 0054 2E000000 		.4byte	.LFE1
 5413 0058 0200     		.2byte	0x2
ARM GAS  C:\Users\MATSUD~1\AppData\Local\Temp\ccLjdAaK.s 			page 152


 5414 005a 77       		.byte	0x77
 5415 005b 08       		.sleb128 8
 5416 005c 00000000 		.4byte	0
 5417 0060 00000000 		.4byte	0
 5418              	.LLST2:
 5419 0064 00000000 		.4byte	.LFB2
 5420 0068 02000000 		.4byte	.LCFI5
 5421 006c 0200     		.2byte	0x2
 5422 006e 7D       		.byte	0x7d
 5423 006f 00       		.sleb128 0
 5424 0070 02000000 		.4byte	.LCFI5
 5425 0074 04000000 		.4byte	.LCFI6
 5426 0078 0200     		.2byte	0x2
 5427 007a 7D       		.byte	0x7d
 5428 007b 04       		.sleb128 4
 5429 007c 04000000 		.4byte	.LCFI6
 5430 0080 10000000 		.4byte	.LFE2
 5431 0084 0200     		.2byte	0x2
 5432 0086 77       		.byte	0x77
 5433 0087 04       		.sleb128 4
 5434 0088 00000000 		.4byte	0
 5435 008c 00000000 		.4byte	0
 5436              	.LLST3:
 5437 0090 00000000 		.4byte	.LFB3
 5438 0094 02000000 		.4byte	.LCFI7
 5439 0098 0200     		.2byte	0x2
 5440 009a 7D       		.byte	0x7d
 5441 009b 00       		.sleb128 0
 5442 009c 02000000 		.4byte	.LCFI7
 5443 00a0 04000000 		.4byte	.LCFI8
 5444 00a4 0200     		.2byte	0x2
 5445 00a6 7D       		.byte	0x7d
 5446 00a7 08       		.sleb128 8
 5447 00a8 04000000 		.4byte	.LCFI8
 5448 00ac 06000000 		.4byte	.LCFI9
 5449 00b0 0200     		.2byte	0x2
 5450 00b2 7D       		.byte	0x7d
 5451 00b3 18       		.sleb128 24
 5452 00b4 06000000 		.4byte	.LCFI9
 5453 00b8 2E000000 		.4byte	.LFE3
 5454 00bc 0200     		.2byte	0x2
 5455 00be 77       		.byte	0x77
 5456 00bf 18       		.sleb128 24
 5457 00c0 00000000 		.4byte	0
 5458 00c4 00000000 		.4byte	0
 5459              	.LLST4:
 5460 00c8 00000000 		.4byte	.LFB4
 5461 00cc 02000000 		.4byte	.LCFI10
 5462 00d0 0200     		.2byte	0x2
 5463 00d2 7D       		.byte	0x7d
 5464 00d3 00       		.sleb128 0
 5465 00d4 02000000 		.4byte	.LCFI10
 5466 00d8 04000000 		.4byte	.LCFI11
 5467 00dc 0200     		.2byte	0x2
 5468 00de 7D       		.byte	0x7d
 5469 00df 04       		.sleb128 4
 5470 00e0 04000000 		.4byte	.LCFI11
ARM GAS  C:\Users\MATSUD~1\AppData\Local\Temp\ccLjdAaK.s 			page 153


 5471 00e4 1E000000 		.4byte	.LFE4
 5472 00e8 0200     		.2byte	0x2
 5473 00ea 77       		.byte	0x77
 5474 00eb 04       		.sleb128 4
 5475 00ec 00000000 		.4byte	0
 5476 00f0 00000000 		.4byte	0
 5477              	.LLST5:
 5478 00f4 00000000 		.4byte	.LFB5
 5479 00f8 02000000 		.4byte	.LCFI12
 5480 00fc 0200     		.2byte	0x2
 5481 00fe 7D       		.byte	0x7d
 5482 00ff 00       		.sleb128 0
 5483 0100 02000000 		.4byte	.LCFI12
 5484 0104 04000000 		.4byte	.LCFI13
 5485 0108 0200     		.2byte	0x2
 5486 010a 7D       		.byte	0x7d
 5487 010b 08       		.sleb128 8
 5488 010c 04000000 		.4byte	.LCFI13
 5489 0110 06000000 		.4byte	.LCFI14
 5490 0114 0200     		.2byte	0x2
 5491 0116 7D       		.byte	0x7d
 5492 0117 10       		.sleb128 16
 5493 0118 06000000 		.4byte	.LCFI14
 5494 011c 28000000 		.4byte	.LFE5
 5495 0120 0200     		.2byte	0x2
 5496 0122 77       		.byte	0x77
 5497 0123 10       		.sleb128 16
 5498 0124 00000000 		.4byte	0
 5499 0128 00000000 		.4byte	0
 5500              	.LLST6:
 5501 012c 00000000 		.4byte	.LFB6
 5502 0130 02000000 		.4byte	.LCFI15
 5503 0134 0200     		.2byte	0x2
 5504 0136 7D       		.byte	0x7d
 5505 0137 00       		.sleb128 0
 5506 0138 02000000 		.4byte	.LCFI15
 5507 013c 04000000 		.4byte	.LCFI16
 5508 0140 0200     		.2byte	0x2
 5509 0142 7D       		.byte	0x7d
 5510 0143 08       		.sleb128 8
 5511 0144 04000000 		.4byte	.LCFI16
 5512 0148 06000000 		.4byte	.LCFI17
 5513 014c 0200     		.2byte	0x2
 5514 014e 7D       		.byte	0x7d
 5515 014f 18       		.sleb128 24
 5516 0150 06000000 		.4byte	.LCFI17
 5517 0154 62000000 		.4byte	.LFE6
 5518 0158 0200     		.2byte	0x2
 5519 015a 77       		.byte	0x77
 5520 015b 18       		.sleb128 24
 5521 015c 00000000 		.4byte	0
 5522 0160 00000000 		.4byte	0
 5523              	.LLST7:
 5524 0164 00000000 		.4byte	.LFB7
 5525 0168 02000000 		.4byte	.LCFI18
 5526 016c 0200     		.2byte	0x2
 5527 016e 7D       		.byte	0x7d
ARM GAS  C:\Users\MATSUD~1\AppData\Local\Temp\ccLjdAaK.s 			page 154


 5528 016f 00       		.sleb128 0
 5529 0170 02000000 		.4byte	.LCFI18
 5530 0174 04000000 		.4byte	.LCFI19
 5531 0178 0200     		.2byte	0x2
 5532 017a 7D       		.byte	0x7d
 5533 017b 08       		.sleb128 8
 5534 017c 04000000 		.4byte	.LCFI19
 5535 0180 06000000 		.4byte	.LCFI20
 5536 0184 0200     		.2byte	0x2
 5537 0186 7D       		.byte	0x7d
 5538 0187 18       		.sleb128 24
 5539 0188 06000000 		.4byte	.LCFI20
 5540 018c 4A000000 		.4byte	.LFE7
 5541 0190 0200     		.2byte	0x2
 5542 0192 77       		.byte	0x77
 5543 0193 18       		.sleb128 24
 5544 0194 00000000 		.4byte	0
 5545 0198 00000000 		.4byte	0
 5546              	.LLST8:
 5547 019c 00000000 		.4byte	.LFB8
 5548 01a0 02000000 		.4byte	.LCFI21
 5549 01a4 0200     		.2byte	0x2
 5550 01a6 7D       		.byte	0x7d
 5551 01a7 00       		.sleb128 0
 5552 01a8 02000000 		.4byte	.LCFI21
 5553 01ac 04000000 		.4byte	.LCFI22
 5554 01b0 0200     		.2byte	0x2
 5555 01b2 7D       		.byte	0x7d
 5556 01b3 04       		.sleb128 4
 5557 01b4 04000000 		.4byte	.LCFI22
 5558 01b8 06000000 		.4byte	.LCFI23
 5559 01bc 0200     		.2byte	0x2
 5560 01be 7D       		.byte	0x7d
 5561 01bf 10       		.sleb128 16
 5562 01c0 06000000 		.4byte	.LCFI23
 5563 01c4 32000000 		.4byte	.LFE8
 5564 01c8 0200     		.2byte	0x2
 5565 01ca 77       		.byte	0x77
 5566 01cb 10       		.sleb128 16
 5567 01cc 00000000 		.4byte	0
 5568 01d0 00000000 		.4byte	0
 5569              	.LLST9:
 5570 01d4 00000000 		.4byte	.LFB9
 5571 01d8 02000000 		.4byte	.LCFI24
 5572 01dc 0200     		.2byte	0x2
 5573 01de 7D       		.byte	0x7d
 5574 01df 00       		.sleb128 0
 5575 01e0 02000000 		.4byte	.LCFI24
 5576 01e4 04000000 		.4byte	.LCFI25
 5577 01e8 0200     		.2byte	0x2
 5578 01ea 7D       		.byte	0x7d
 5579 01eb 04       		.sleb128 4
 5580 01ec 04000000 		.4byte	.LCFI25
 5581 01f0 06000000 		.4byte	.LCFI26
 5582 01f4 0200     		.2byte	0x2
 5583 01f6 7D       		.byte	0x7d
 5584 01f7 10       		.sleb128 16
ARM GAS  C:\Users\MATSUD~1\AppData\Local\Temp\ccLjdAaK.s 			page 155


 5585 01f8 06000000 		.4byte	.LCFI26
 5586 01fc 32000000 		.4byte	.LFE9
 5587 0200 0200     		.2byte	0x2
 5588 0202 77       		.byte	0x77
 5589 0203 10       		.sleb128 16
 5590 0204 00000000 		.4byte	0
 5591 0208 00000000 		.4byte	0
 5592              	.LLST10:
 5593 020c 00000000 		.4byte	.LFB10
 5594 0210 02000000 		.4byte	.LCFI27
 5595 0214 0200     		.2byte	0x2
 5596 0216 7D       		.byte	0x7d
 5597 0217 00       		.sleb128 0
 5598 0218 02000000 		.4byte	.LCFI27
 5599 021c 04000000 		.4byte	.LCFI28
 5600 0220 0200     		.2byte	0x2
 5601 0222 7D       		.byte	0x7d
 5602 0223 04       		.sleb128 4
 5603 0224 04000000 		.4byte	.LCFI28
 5604 0228 06000000 		.4byte	.LCFI29
 5605 022c 0200     		.2byte	0x2
 5606 022e 7D       		.byte	0x7d
 5607 022f 10       		.sleb128 16
 5608 0230 06000000 		.4byte	.LCFI29
 5609 0234 32000000 		.4byte	.LFE10
 5610 0238 0200     		.2byte	0x2
 5611 023a 77       		.byte	0x77
 5612 023b 10       		.sleb128 16
 5613 023c 00000000 		.4byte	0
 5614 0240 00000000 		.4byte	0
 5615              	.LLST11:
 5616 0244 00000000 		.4byte	.LFB11
 5617 0248 02000000 		.4byte	.LCFI30
 5618 024c 0200     		.2byte	0x2
 5619 024e 7D       		.byte	0x7d
 5620 024f 00       		.sleb128 0
 5621 0250 02000000 		.4byte	.LCFI30
 5622 0254 04000000 		.4byte	.LCFI31
 5623 0258 0200     		.2byte	0x2
 5624 025a 7D       		.byte	0x7d
 5625 025b 08       		.sleb128 8
 5626 025c 04000000 		.4byte	.LCFI31
 5627 0260 06000000 		.4byte	.LCFI32
 5628 0264 0200     		.2byte	0x2
 5629 0266 7D       		.byte	0x7d
 5630 0267 10       		.sleb128 16
 5631 0268 06000000 		.4byte	.LCFI32
 5632 026c 34000000 		.4byte	.LFE11
 5633 0270 0200     		.2byte	0x2
 5634 0272 77       		.byte	0x77
 5635 0273 10       		.sleb128 16
 5636 0274 00000000 		.4byte	0
 5637 0278 00000000 		.4byte	0
 5638              	.LLST12:
 5639 027c 00000000 		.4byte	.LFB12
 5640 0280 02000000 		.4byte	.LCFI33
 5641 0284 0200     		.2byte	0x2
ARM GAS  C:\Users\MATSUD~1\AppData\Local\Temp\ccLjdAaK.s 			page 156


 5642 0286 7D       		.byte	0x7d
 5643 0287 00       		.sleb128 0
 5644 0288 02000000 		.4byte	.LCFI33
 5645 028c 04000000 		.4byte	.LCFI34
 5646 0290 0200     		.2byte	0x2
 5647 0292 7D       		.byte	0x7d
 5648 0293 04       		.sleb128 4
 5649 0294 04000000 		.4byte	.LCFI34
 5650 0298 24000000 		.4byte	.LFE12
 5651 029c 0200     		.2byte	0x2
 5652 029e 77       		.byte	0x77
 5653 029f 04       		.sleb128 4
 5654 02a0 00000000 		.4byte	0
 5655 02a4 00000000 		.4byte	0
 5656              	.LLST13:
 5657 02a8 00000000 		.4byte	.LFB13
 5658 02ac 02000000 		.4byte	.LCFI35
 5659 02b0 0200     		.2byte	0x2
 5660 02b2 7D       		.byte	0x7d
 5661 02b3 00       		.sleb128 0
 5662 02b4 02000000 		.4byte	.LCFI35
 5663 02b8 04000000 		.4byte	.LCFI36
 5664 02bc 0200     		.2byte	0x2
 5665 02be 7D       		.byte	0x7d
 5666 02bf 04       		.sleb128 4
 5667 02c0 04000000 		.4byte	.LCFI36
 5668 02c4 24000000 		.4byte	.LFE13
 5669 02c8 0200     		.2byte	0x2
 5670 02ca 77       		.byte	0x77
 5671 02cb 04       		.sleb128 4
 5672 02cc 00000000 		.4byte	0
 5673 02d0 00000000 		.4byte	0
 5674              	.LLST14:
 5675 02d4 00000000 		.4byte	.LFB14
 5676 02d8 02000000 		.4byte	.LCFI37
 5677 02dc 0200     		.2byte	0x2
 5678 02de 7D       		.byte	0x7d
 5679 02df 00       		.sleb128 0
 5680 02e0 02000000 		.4byte	.LCFI37
 5681 02e4 04000000 		.4byte	.LCFI38
 5682 02e8 0200     		.2byte	0x2
 5683 02ea 7D       		.byte	0x7d
 5684 02eb 04       		.sleb128 4
 5685 02ec 04000000 		.4byte	.LCFI38
 5686 02f0 24000000 		.4byte	.LFE14
 5687 02f4 0200     		.2byte	0x2
 5688 02f6 77       		.byte	0x77
 5689 02f7 04       		.sleb128 4
 5690 02f8 00000000 		.4byte	0
 5691 02fc 00000000 		.4byte	0
 5692              	.LLST15:
 5693 0300 00000000 		.4byte	.LFB15
 5694 0304 02000000 		.4byte	.LCFI39
 5695 0308 0200     		.2byte	0x2
 5696 030a 7D       		.byte	0x7d
 5697 030b 00       		.sleb128 0
 5698 030c 02000000 		.4byte	.LCFI39
ARM GAS  C:\Users\MATSUD~1\AppData\Local\Temp\ccLjdAaK.s 			page 157


 5699 0310 04000000 		.4byte	.LCFI40
 5700 0314 0200     		.2byte	0x2
 5701 0316 7D       		.byte	0x7d
 5702 0317 08       		.sleb128 8
 5703 0318 04000000 		.4byte	.LCFI40
 5704 031c 06000000 		.4byte	.LCFI41
 5705 0320 0200     		.2byte	0x2
 5706 0322 7D       		.byte	0x7d
 5707 0323 10       		.sleb128 16
 5708 0324 06000000 		.4byte	.LCFI41
 5709 0328 60010000 		.4byte	.LFE15
 5710 032c 0200     		.2byte	0x2
 5711 032e 77       		.byte	0x77
 5712 032f 10       		.sleb128 16
 5713 0330 00000000 		.4byte	0
 5714 0334 00000000 		.4byte	0
 5715              	.LLST16:
 5716 0338 00000000 		.4byte	.LFB16
 5717 033c 02000000 		.4byte	.LCFI42
 5718 0340 0200     		.2byte	0x2
 5719 0342 7D       		.byte	0x7d
 5720 0343 00       		.sleb128 0
 5721 0344 02000000 		.4byte	.LCFI42
 5722 0348 04000000 		.4byte	.LCFI43
 5723 034c 0200     		.2byte	0x2
 5724 034e 7D       		.byte	0x7d
 5725 034f 08       		.sleb128 8
 5726 0350 04000000 		.4byte	.LCFI43
 5727 0354 06000000 		.4byte	.LCFI44
 5728 0358 0200     		.2byte	0x2
 5729 035a 7D       		.byte	0x7d
 5730 035b 18       		.sleb128 24
 5731 035c 06000000 		.4byte	.LCFI44
 5732 0360 2E000000 		.4byte	.LFE16
 5733 0364 0200     		.2byte	0x2
 5734 0366 77       		.byte	0x77
 5735 0367 18       		.sleb128 24
 5736 0368 00000000 		.4byte	0
 5737 036c 00000000 		.4byte	0
 5738              	.LLST17:
 5739 0370 00000000 		.4byte	.LFB17
 5740 0374 02000000 		.4byte	.LCFI45
 5741 0378 0200     		.2byte	0x2
 5742 037a 7D       		.byte	0x7d
 5743 037b 00       		.sleb128 0
 5744 037c 02000000 		.4byte	.LCFI45
 5745 0380 04000000 		.4byte	.LCFI46
 5746 0384 0200     		.2byte	0x2
 5747 0386 7D       		.byte	0x7d
 5748 0387 08       		.sleb128 8
 5749 0388 04000000 		.4byte	.LCFI46
 5750 038c 46000000 		.4byte	.LFE17
 5751 0390 0200     		.2byte	0x2
 5752 0392 77       		.byte	0x77
 5753 0393 08       		.sleb128 8
 5754 0394 00000000 		.4byte	0
 5755 0398 00000000 		.4byte	0
ARM GAS  C:\Users\MATSUD~1\AppData\Local\Temp\ccLjdAaK.s 			page 158


 5756              	.LLST18:
 5757 039c 00000000 		.4byte	.LFB18
 5758 03a0 02000000 		.4byte	.LCFI47
 5759 03a4 0200     		.2byte	0x2
 5760 03a6 7D       		.byte	0x7d
 5761 03a7 00       		.sleb128 0
 5762 03a8 02000000 		.4byte	.LCFI47
 5763 03ac 04000000 		.4byte	.LCFI48
 5764 03b0 0200     		.2byte	0x2
 5765 03b2 7D       		.byte	0x7d
 5766 03b3 08       		.sleb128 8
 5767 03b4 04000000 		.4byte	.LCFI48
 5768 03b8 06000000 		.4byte	.LCFI49
 5769 03bc 0200     		.2byte	0x2
 5770 03be 7D       		.byte	0x7d
 5771 03bf 10       		.sleb128 16
 5772 03c0 06000000 		.4byte	.LCFI49
 5773 03c4 20000000 		.4byte	.LFE18
 5774 03c8 0200     		.2byte	0x2
 5775 03ca 77       		.byte	0x77
 5776 03cb 10       		.sleb128 16
 5777 03cc 00000000 		.4byte	0
 5778 03d0 00000000 		.4byte	0
 5779              	.LLST19:
 5780 03d4 00000000 		.4byte	.LFB19
 5781 03d8 02000000 		.4byte	.LCFI50
 5782 03dc 0200     		.2byte	0x2
 5783 03de 7D       		.byte	0x7d
 5784 03df 00       		.sleb128 0
 5785 03e0 02000000 		.4byte	.LCFI50
 5786 03e4 04000000 		.4byte	.LCFI51
 5787 03e8 0200     		.2byte	0x2
 5788 03ea 7D       		.byte	0x7d
 5789 03eb 08       		.sleb128 8
 5790 03ec 04000000 		.4byte	.LCFI51
 5791 03f0 06000000 		.4byte	.LCFI52
 5792 03f4 0200     		.2byte	0x2
 5793 03f6 7D       		.byte	0x7d
 5794 03f7 18       		.sleb128 24
 5795 03f8 06000000 		.4byte	.LCFI52
 5796 03fc 1A020000 		.4byte	.LFE19
 5797 0400 0200     		.2byte	0x2
 5798 0402 77       		.byte	0x77
 5799 0403 18       		.sleb128 24
 5800 0404 00000000 		.4byte	0
 5801 0408 00000000 		.4byte	0
 5802              	.LLST20:
 5803 040c 00000000 		.4byte	.LFB20
 5804 0410 02000000 		.4byte	.LCFI53
 5805 0414 0200     		.2byte	0x2
 5806 0416 7D       		.byte	0x7d
 5807 0417 00       		.sleb128 0
 5808 0418 02000000 		.4byte	.LCFI53
 5809 041c 04000000 		.4byte	.LCFI54
 5810 0420 0200     		.2byte	0x2
 5811 0422 7D       		.byte	0x7d
 5812 0423 08       		.sleb128 8
ARM GAS  C:\Users\MATSUD~1\AppData\Local\Temp\ccLjdAaK.s 			page 159


 5813 0424 04000000 		.4byte	.LCFI54
 5814 0428 06000000 		.4byte	.LCFI55
 5815 042c 0200     		.2byte	0x2
 5816 042e 7D       		.byte	0x7d
 5817 042f 18       		.sleb128 24
 5818 0430 06000000 		.4byte	.LCFI55
 5819 0434 3A000000 		.4byte	.LFE20
 5820 0438 0200     		.2byte	0x2
 5821 043a 77       		.byte	0x77
 5822 043b 18       		.sleb128 24
 5823 043c 00000000 		.4byte	0
 5824 0440 00000000 		.4byte	0
 5825              	.LLST21:
 5826 0444 00000000 		.4byte	.LFB21
 5827 0448 02000000 		.4byte	.LCFI56
 5828 044c 0200     		.2byte	0x2
 5829 044e 7D       		.byte	0x7d
 5830 044f 00       		.sleb128 0
 5831 0450 02000000 		.4byte	.LCFI56
 5832 0454 04000000 		.4byte	.LCFI57
 5833 0458 0200     		.2byte	0x2
 5834 045a 7D       		.byte	0x7d
 5835 045b 0C       		.sleb128 12
 5836 045c 04000000 		.4byte	.LCFI57
 5837 0460 06000000 		.4byte	.LCFI58
 5838 0464 0200     		.2byte	0x2
 5839 0466 7D       		.byte	0x7d
 5840 0467 18       		.sleb128 24
 5841 0468 06000000 		.4byte	.LCFI58
 5842 046c 44090000 		.4byte	.LFE21
 5843 0470 0200     		.2byte	0x2
 5844 0472 77       		.byte	0x77
 5845 0473 18       		.sleb128 24
 5846 0474 00000000 		.4byte	0
 5847 0478 00000000 		.4byte	0
 5848              	.LLST22:
 5849 047c 00000000 		.4byte	.LFB22
 5850 0480 02000000 		.4byte	.LCFI59
 5851 0484 0200     		.2byte	0x2
 5852 0486 7D       		.byte	0x7d
 5853 0487 00       		.sleb128 0
 5854 0488 02000000 		.4byte	.LCFI59
 5855 048c 04000000 		.4byte	.LCFI60
 5856 0490 0200     		.2byte	0x2
 5857 0492 7D       		.byte	0x7d
 5858 0493 08       		.sleb128 8
 5859 0494 04000000 		.4byte	.LCFI60
 5860 0498 06000000 		.4byte	.LCFI61
 5861 049c 0200     		.2byte	0x2
 5862 049e 7D       		.byte	0x7d
 5863 049f 10       		.sleb128 16
 5864 04a0 06000000 		.4byte	.LCFI61
 5865 04a4 20000000 		.4byte	.LFE22
 5866 04a8 0200     		.2byte	0x2
 5867 04aa 77       		.byte	0x77
 5868 04ab 10       		.sleb128 16
 5869 04ac 00000000 		.4byte	0
ARM GAS  C:\Users\MATSUD~1\AppData\Local\Temp\ccLjdAaK.s 			page 160


 5870 04b0 00000000 		.4byte	0
 5871              	.LLST23:
 5872 04b4 00000000 		.4byte	.LFB23
 5873 04b8 02000000 		.4byte	.LCFI62
 5874 04bc 0200     		.2byte	0x2
 5875 04be 7D       		.byte	0x7d
 5876 04bf 00       		.sleb128 0
 5877 04c0 02000000 		.4byte	.LCFI62
 5878 04c4 04000000 		.4byte	.LCFI63
 5879 04c8 0200     		.2byte	0x2
 5880 04ca 7D       		.byte	0x7d
 5881 04cb 08       		.sleb128 8
 5882 04cc 04000000 		.4byte	.LCFI63
 5883 04d0 0A000000 		.4byte	.LFE23
 5884 04d4 0200     		.2byte	0x2
 5885 04d6 77       		.byte	0x77
 5886 04d7 08       		.sleb128 8
 5887 04d8 00000000 		.4byte	0
 5888 04dc 00000000 		.4byte	0
 5889              	.LLST24:
 5890 04e0 00000000 		.4byte	.LFB24
 5891 04e4 02000000 		.4byte	.LCFI64
 5892 04e8 0200     		.2byte	0x2
 5893 04ea 7D       		.byte	0x7d
 5894 04eb 00       		.sleb128 0
 5895 04ec 02000000 		.4byte	.LCFI64
 5896 04f0 04000000 		.4byte	.LCFI65
 5897 04f4 0200     		.2byte	0x2
 5898 04f6 7D       		.byte	0x7d
 5899 04f7 08       		.sleb128 8
 5900 04f8 04000000 		.4byte	.LCFI65
 5901 04fc 06000000 		.4byte	.LCFI66
 5902 0500 0200     		.2byte	0x2
 5903 0502 7D       		.byte	0x7d
 5904 0503 10       		.sleb128 16
 5905 0504 06000000 		.4byte	.LCFI66
 5906 0508 20000000 		.4byte	.LFE24
 5907 050c 0200     		.2byte	0x2
 5908 050e 77       		.byte	0x77
 5909 050f 10       		.sleb128 16
 5910 0510 00000000 		.4byte	0
 5911 0514 00000000 		.4byte	0
 5912              	.LLST25:
 5913 0518 00000000 		.4byte	.LFB25
 5914 051c 02000000 		.4byte	.LCFI67
 5915 0520 0200     		.2byte	0x2
 5916 0522 7D       		.byte	0x7d
 5917 0523 00       		.sleb128 0
 5918 0524 02000000 		.4byte	.LCFI67
 5919 0528 04000000 		.4byte	.LCFI68
 5920 052c 0200     		.2byte	0x2
 5921 052e 7D       		.byte	0x7d
 5922 052f 08       		.sleb128 8
 5923 0530 04000000 		.4byte	.LCFI68
 5924 0534 06000000 		.4byte	.LCFI69
 5925 0538 0200     		.2byte	0x2
 5926 053a 7D       		.byte	0x7d
ARM GAS  C:\Users\MATSUD~1\AppData\Local\Temp\ccLjdAaK.s 			page 161


 5927 053b 10       		.sleb128 16
 5928 053c 06000000 		.4byte	.LCFI69
 5929 0540 D0020000 		.4byte	.LFE25
 5930 0544 0200     		.2byte	0x2
 5931 0546 77       		.byte	0x77
 5932 0547 10       		.sleb128 16
 5933 0548 00000000 		.4byte	0
 5934 054c 00000000 		.4byte	0
 5935              	.LLST26:
 5936 0550 00000000 		.4byte	.LFB26
 5937 0554 02000000 		.4byte	.LCFI70
 5938 0558 0200     		.2byte	0x2
 5939 055a 7D       		.byte	0x7d
 5940 055b 00       		.sleb128 0
 5941 055c 02000000 		.4byte	.LCFI70
 5942 0560 04000000 		.4byte	.LCFI71
 5943 0564 0200     		.2byte	0x2
 5944 0566 7D       		.byte	0x7d
 5945 0567 08       		.sleb128 8
 5946 0568 04000000 		.4byte	.LCFI71
 5947 056c 06000000 		.4byte	.LCFI72
 5948 0570 0200     		.2byte	0x2
 5949 0572 7D       		.byte	0x7d
 5950 0573 10       		.sleb128 16
 5951 0574 06000000 		.4byte	.LCFI72
 5952 0578 20000000 		.4byte	.LFE26
 5953 057c 0200     		.2byte	0x2
 5954 057e 77       		.byte	0x77
 5955 057f 10       		.sleb128 16
 5956 0580 00000000 		.4byte	0
 5957 0584 00000000 		.4byte	0
 5958              	.LLST27:
 5959 0588 00000000 		.4byte	.LFB27
 5960 058c 02000000 		.4byte	.LCFI73
 5961 0590 0200     		.2byte	0x2
 5962 0592 7D       		.byte	0x7d
 5963 0593 00       		.sleb128 0
 5964 0594 02000000 		.4byte	.LCFI73
 5965 0598 04000000 		.4byte	.LCFI74
 5966 059c 0200     		.2byte	0x2
 5967 059e 7D       		.byte	0x7d
 5968 059f 08       		.sleb128 8
 5969 05a0 04000000 		.4byte	.LCFI74
 5970 05a4 06000000 		.4byte	.LCFI75
 5971 05a8 0200     		.2byte	0x2
 5972 05aa 7D       		.byte	0x7d
 5973 05ab 10       		.sleb128 16
 5974 05ac 06000000 		.4byte	.LCFI75
 5975 05b0 E2000000 		.4byte	.LFE27
 5976 05b4 0200     		.2byte	0x2
 5977 05b6 77       		.byte	0x77
 5978 05b7 10       		.sleb128 16
 5979 05b8 00000000 		.4byte	0
 5980 05bc 00000000 		.4byte	0
 5981              	.LLST28:
 5982 05c0 00000000 		.4byte	.LFB28
 5983 05c4 02000000 		.4byte	.LCFI76
ARM GAS  C:\Users\MATSUD~1\AppData\Local\Temp\ccLjdAaK.s 			page 162


 5984 05c8 0200     		.2byte	0x2
 5985 05ca 7D       		.byte	0x7d
 5986 05cb 00       		.sleb128 0
 5987 05cc 02000000 		.4byte	.LCFI76
 5988 05d0 04000000 		.4byte	.LCFI77
 5989 05d4 0200     		.2byte	0x2
 5990 05d6 7D       		.byte	0x7d
 5991 05d7 08       		.sleb128 8
 5992 05d8 04000000 		.4byte	.LCFI77
 5993 05dc 06000000 		.4byte	.LCFI78
 5994 05e0 0200     		.2byte	0x2
 5995 05e2 7D       		.byte	0x7d
 5996 05e3 18       		.sleb128 24
 5997 05e4 06000000 		.4byte	.LCFI78
 5998 05e8 2E000000 		.4byte	.LFE28
 5999 05ec 0200     		.2byte	0x2
 6000 05ee 77       		.byte	0x77
 6001 05ef 18       		.sleb128 24
 6002 05f0 00000000 		.4byte	0
 6003 05f4 00000000 		.4byte	0
 6004              	.LLST29:
 6005 05f8 00000000 		.4byte	.LFB29
 6006 05fc 02000000 		.4byte	.LCFI79
 6007 0600 0200     		.2byte	0x2
 6008 0602 7D       		.byte	0x7d
 6009 0603 00       		.sleb128 0
 6010 0604 02000000 		.4byte	.LCFI79
 6011 0608 04000000 		.4byte	.LCFI80
 6012 060c 0200     		.2byte	0x2
 6013 060e 7D       		.byte	0x7d
 6014 060f 08       		.sleb128 8
 6015 0610 04000000 		.4byte	.LCFI80
 6016 0614 06000000 		.4byte	.LCFI81
 6017 0618 0200     		.2byte	0x2
 6018 061a 7D       		.byte	0x7d
 6019 061b 10       		.sleb128 16
 6020 061c 06000000 		.4byte	.LCFI81
 6021 0620 5E000000 		.4byte	.LFE29
 6022 0624 0200     		.2byte	0x2
 6023 0626 77       		.byte	0x77
 6024 0627 10       		.sleb128 16
 6025 0628 00000000 		.4byte	0
 6026 062c 00000000 		.4byte	0
 6027              	.LLST30:
 6028 0630 00000000 		.4byte	.LFB30
 6029 0634 02000000 		.4byte	.LCFI82
 6030 0638 0200     		.2byte	0x2
 6031 063a 7D       		.byte	0x7d
 6032 063b 00       		.sleb128 0
 6033 063c 02000000 		.4byte	.LCFI82
 6034 0640 04000000 		.4byte	.LCFI83
 6035 0644 0200     		.2byte	0x2
 6036 0646 7D       		.byte	0x7d
 6037 0647 04       		.sleb128 4
 6038 0648 04000000 		.4byte	.LCFI83
 6039 064c 06000000 		.4byte	.LCFI84
 6040 0650 0200     		.2byte	0x2
ARM GAS  C:\Users\MATSUD~1\AppData\Local\Temp\ccLjdAaK.s 			page 163


 6041 0652 7D       		.byte	0x7d
 6042 0653 10       		.sleb128 16
 6043 0654 06000000 		.4byte	.LCFI84
 6044 0658 44000000 		.4byte	.LFE30
 6045 065c 0200     		.2byte	0x2
 6046 065e 77       		.byte	0x77
 6047 065f 10       		.sleb128 16
 6048 0660 00000000 		.4byte	0
 6049 0664 00000000 		.4byte	0
 6050              	.LLST31:
 6051 0668 00000000 		.4byte	.LFB31
 6052 066c 02000000 		.4byte	.LCFI85
 6053 0670 0200     		.2byte	0x2
 6054 0672 7D       		.byte	0x7d
 6055 0673 00       		.sleb128 0
 6056 0674 02000000 		.4byte	.LCFI85
 6057 0678 04000000 		.4byte	.LCFI86
 6058 067c 0200     		.2byte	0x2
 6059 067e 7D       		.byte	0x7d
 6060 067f 04       		.sleb128 4
 6061 0680 04000000 		.4byte	.LCFI86
 6062 0684 06000000 		.4byte	.LCFI87
 6063 0688 0200     		.2byte	0x2
 6064 068a 7D       		.byte	0x7d
 6065 068b 18       		.sleb128 24
 6066 068c 06000000 		.4byte	.LCFI87
 6067 0690 4E000000 		.4byte	.LFE31
 6068 0694 0200     		.2byte	0x2
 6069 0696 77       		.byte	0x77
 6070 0697 18       		.sleb128 24
 6071 0698 00000000 		.4byte	0
 6072 069c 00000000 		.4byte	0
 6073              	.LLST32:
 6074 06a0 00000000 		.4byte	.LFB32
 6075 06a4 02000000 		.4byte	.LCFI88
 6076 06a8 0200     		.2byte	0x2
 6077 06aa 7D       		.byte	0x7d
 6078 06ab 00       		.sleb128 0
 6079 06ac 02000000 		.4byte	.LCFI88
 6080 06b0 04000000 		.4byte	.LCFI89
 6081 06b4 0200     		.2byte	0x2
 6082 06b6 7D       		.byte	0x7d
 6083 06b7 08       		.sleb128 8
 6084 06b8 04000000 		.4byte	.LCFI89
 6085 06bc 06000000 		.4byte	.LCFI90
 6086 06c0 0200     		.2byte	0x2
 6087 06c2 7D       		.byte	0x7d
 6088 06c3 18       		.sleb128 24
 6089 06c4 06000000 		.4byte	.LCFI90
 6090 06c8 3A010000 		.4byte	.LFE32
 6091 06cc 0200     		.2byte	0x2
 6092 06ce 77       		.byte	0x77
 6093 06cf 18       		.sleb128 24
 6094 06d0 00000000 		.4byte	0
 6095 06d4 00000000 		.4byte	0
 6096              	.LLST33:
 6097 06d8 00000000 		.4byte	.LFB33
ARM GAS  C:\Users\MATSUD~1\AppData\Local\Temp\ccLjdAaK.s 			page 164


 6098 06dc 02000000 		.4byte	.LCFI91
 6099 06e0 0200     		.2byte	0x2
 6100 06e2 7D       		.byte	0x7d
 6101 06e3 00       		.sleb128 0
 6102 06e4 02000000 		.4byte	.LCFI91
 6103 06e8 04000000 		.4byte	.LCFI92
 6104 06ec 0200     		.2byte	0x2
 6105 06ee 7D       		.byte	0x7d
 6106 06ef 04       		.sleb128 4
 6107 06f0 04000000 		.4byte	.LCFI92
 6108 06f4 06000000 		.4byte	.LCFI93
 6109 06f8 0200     		.2byte	0x2
 6110 06fa 7D       		.byte	0x7d
 6111 06fb 10       		.sleb128 16
 6112 06fc 06000000 		.4byte	.LCFI93
 6113 0700 5A000000 		.4byte	.LFE33
 6114 0704 0200     		.2byte	0x2
 6115 0706 77       		.byte	0x77
 6116 0707 10       		.sleb128 16
 6117 0708 00000000 		.4byte	0
 6118 070c 00000000 		.4byte	0
 6119              	.LLST34:
 6120 0710 00000000 		.4byte	.LFB34
 6121 0714 02000000 		.4byte	.LCFI94
 6122 0718 0200     		.2byte	0x2
 6123 071a 7D       		.byte	0x7d
 6124 071b 00       		.sleb128 0
 6125 071c 02000000 		.4byte	.LCFI94
 6126 0720 04000000 		.4byte	.LCFI95
 6127 0724 0200     		.2byte	0x2
 6128 0726 7D       		.byte	0x7d
 6129 0727 04       		.sleb128 4
 6130 0728 04000000 		.4byte	.LCFI95
 6131 072c 06000000 		.4byte	.LCFI96
 6132 0730 0200     		.2byte	0x2
 6133 0732 7D       		.byte	0x7d
 6134 0733 18       		.sleb128 24
 6135 0734 06000000 		.4byte	.LCFI96
 6136 0738 20000000 		.4byte	.LFE34
 6137 073c 0200     		.2byte	0x2
 6138 073e 77       		.byte	0x77
 6139 073f 18       		.sleb128 24
 6140 0740 00000000 		.4byte	0
 6141 0744 00000000 		.4byte	0
 6142              	.LLST35:
 6143 0748 00000000 		.4byte	.LFB35
 6144 074c 02000000 		.4byte	.LCFI97
 6145 0750 0200     		.2byte	0x2
 6146 0752 7D       		.byte	0x7d
 6147 0753 00       		.sleb128 0
 6148 0754 02000000 		.4byte	.LCFI97
 6149 0758 04000000 		.4byte	.LCFI98
 6150 075c 0200     		.2byte	0x2
 6151 075e 7D       		.byte	0x7d
 6152 075f 04       		.sleb128 4
 6153 0760 04000000 		.4byte	.LCFI98
 6154 0764 06000000 		.4byte	.LCFI99
ARM GAS  C:\Users\MATSUD~1\AppData\Local\Temp\ccLjdAaK.s 			page 165


 6155 0768 0200     		.2byte	0x2
 6156 076a 7D       		.byte	0x7d
 6157 076b 10       		.sleb128 16
 6158 076c 06000000 		.4byte	.LCFI99
 6159 0770 16000000 		.4byte	.LFE35
 6160 0774 0200     		.2byte	0x2
 6161 0776 77       		.byte	0x77
 6162 0777 10       		.sleb128 16
 6163 0778 00000000 		.4byte	0
 6164 077c 00000000 		.4byte	0
 6165              		.section	.debug_aranges,"",%progbits
 6166 0000 34010000 		.4byte	0x134
 6167 0004 0200     		.2byte	0x2
 6168 0006 00000000 		.4byte	.Ldebug_info0
 6169 000a 04       		.byte	0x4
 6170 000b 00       		.byte	0
 6171 000c 0000     		.2byte	0
 6172 000e 0000     		.2byte	0
 6173 0010 00000000 		.4byte	.LFB0
 6174 0014 1E000000 		.4byte	.LFE0-.LFB0
 6175 0018 00000000 		.4byte	.LFB1
 6176 001c 2E000000 		.4byte	.LFE1-.LFB1
 6177 0020 00000000 		.4byte	.LFB2
 6178 0024 10000000 		.4byte	.LFE2-.LFB2
 6179 0028 00000000 		.4byte	.LFB3
 6180 002c 2E000000 		.4byte	.LFE3-.LFB3
 6181 0030 00000000 		.4byte	.LFB4
 6182 0034 1E000000 		.4byte	.LFE4-.LFB4
 6183 0038 00000000 		.4byte	.LFB5
 6184 003c 28000000 		.4byte	.LFE5-.LFB5
 6185 0040 00000000 		.4byte	.LFB6
 6186 0044 62000000 		.4byte	.LFE6-.LFB6
 6187 0048 00000000 		.4byte	.LFB7
 6188 004c 4A000000 		.4byte	.LFE7-.LFB7
 6189 0050 00000000 		.4byte	.LFB8
 6190 0054 32000000 		.4byte	.LFE8-.LFB8
 6191 0058 00000000 		.4byte	.LFB9
 6192 005c 32000000 		.4byte	.LFE9-.LFB9
 6193 0060 00000000 		.4byte	.LFB10
 6194 0064 32000000 		.4byte	.LFE10-.LFB10
 6195 0068 00000000 		.4byte	.LFB11
 6196 006c 34000000 		.4byte	.LFE11-.LFB11
 6197 0070 00000000 		.4byte	.LFB12
 6198 0074 24000000 		.4byte	.LFE12-.LFB12
 6199 0078 00000000 		.4byte	.LFB13
 6200 007c 24000000 		.4byte	.LFE13-.LFB13
 6201 0080 00000000 		.4byte	.LFB14
 6202 0084 24000000 		.4byte	.LFE14-.LFB14
 6203 0088 00000000 		.4byte	.LFB15
 6204 008c 60010000 		.4byte	.LFE15-.LFB15
 6205 0090 00000000 		.4byte	.LFB16
 6206 0094 2E000000 		.4byte	.LFE16-.LFB16
 6207 0098 00000000 		.4byte	.LFB17
 6208 009c 46000000 		.4byte	.LFE17-.LFB17
 6209 00a0 00000000 		.4byte	.LFB18
 6210 00a4 20000000 		.4byte	.LFE18-.LFB18
 6211 00a8 00000000 		.4byte	.LFB19
ARM GAS  C:\Users\MATSUD~1\AppData\Local\Temp\ccLjdAaK.s 			page 166


 6212 00ac 1A020000 		.4byte	.LFE19-.LFB19
 6213 00b0 00000000 		.4byte	.LFB20
 6214 00b4 3A000000 		.4byte	.LFE20-.LFB20
 6215 00b8 00000000 		.4byte	.LFB21
 6216 00bc 44090000 		.4byte	.LFE21-.LFB21
 6217 00c0 00000000 		.4byte	.LFB22
 6218 00c4 20000000 		.4byte	.LFE22-.LFB22
 6219 00c8 00000000 		.4byte	.LFB23
 6220 00cc 0A000000 		.4byte	.LFE23-.LFB23
 6221 00d0 00000000 		.4byte	.LFB24
 6222 00d4 20000000 		.4byte	.LFE24-.LFB24
 6223 00d8 00000000 		.4byte	.LFB25
 6224 00dc D0020000 		.4byte	.LFE25-.LFB25
 6225 00e0 00000000 		.4byte	.LFB26
 6226 00e4 20000000 		.4byte	.LFE26-.LFB26
 6227 00e8 00000000 		.4byte	.LFB27
 6228 00ec E2000000 		.4byte	.LFE27-.LFB27
 6229 00f0 00000000 		.4byte	.LFB28
 6230 00f4 2E000000 		.4byte	.LFE28-.LFB28
 6231 00f8 00000000 		.4byte	.LFB29
 6232 00fc 5E000000 		.4byte	.LFE29-.LFB29
 6233 0100 00000000 		.4byte	.LFB30
 6234 0104 44000000 		.4byte	.LFE30-.LFB30
 6235 0108 00000000 		.4byte	.LFB31
 6236 010c 4E000000 		.4byte	.LFE31-.LFB31
 6237 0110 00000000 		.4byte	.LFB32
 6238 0114 3A010000 		.4byte	.LFE32-.LFB32
 6239 0118 00000000 		.4byte	.LFB33
 6240 011c 5A000000 		.4byte	.LFE33-.LFB33
 6241 0120 00000000 		.4byte	.LFB34
 6242 0124 20000000 		.4byte	.LFE34-.LFB34
 6243 0128 00000000 		.4byte	.LFB35
 6244 012c 16000000 		.4byte	.LFE35-.LFB35
 6245 0130 00000000 		.4byte	0
 6246 0134 00000000 		.4byte	0
 6247              		.section	.debug_ranges,"",%progbits
 6248              	.Ldebug_ranges0:
 6249 0000 00000000 		.4byte	.LFB0
 6250 0004 1E000000 		.4byte	.LFE0
 6251 0008 00000000 		.4byte	.LFB1
 6252 000c 2E000000 		.4byte	.LFE1
 6253 0010 00000000 		.4byte	.LFB2
 6254 0014 10000000 		.4byte	.LFE2
 6255 0018 00000000 		.4byte	.LFB3
 6256 001c 2E000000 		.4byte	.LFE3
 6257 0020 00000000 		.4byte	.LFB4
 6258 0024 1E000000 		.4byte	.LFE4
 6259 0028 00000000 		.4byte	.LFB5
 6260 002c 28000000 		.4byte	.LFE5
 6261 0030 00000000 		.4byte	.LFB6
 6262 0034 62000000 		.4byte	.LFE6
 6263 0038 00000000 		.4byte	.LFB7
 6264 003c 4A000000 		.4byte	.LFE7
 6265 0040 00000000 		.4byte	.LFB8
 6266 0044 32000000 		.4byte	.LFE8
 6267 0048 00000000 		.4byte	.LFB9
 6268 004c 32000000 		.4byte	.LFE9
ARM GAS  C:\Users\MATSUD~1\AppData\Local\Temp\ccLjdAaK.s 			page 167


 6269 0050 00000000 		.4byte	.LFB10
 6270 0054 32000000 		.4byte	.LFE10
 6271 0058 00000000 		.4byte	.LFB11
 6272 005c 34000000 		.4byte	.LFE11
 6273 0060 00000000 		.4byte	.LFB12
 6274 0064 24000000 		.4byte	.LFE12
 6275 0068 00000000 		.4byte	.LFB13
 6276 006c 24000000 		.4byte	.LFE13
 6277 0070 00000000 		.4byte	.LFB14
 6278 0074 24000000 		.4byte	.LFE14
 6279 0078 00000000 		.4byte	.LFB15
 6280 007c 60010000 		.4byte	.LFE15
 6281 0080 00000000 		.4byte	.LFB16
 6282 0084 2E000000 		.4byte	.LFE16
 6283 0088 00000000 		.4byte	.LFB17
 6284 008c 46000000 		.4byte	.LFE17
 6285 0090 00000000 		.4byte	.LFB18
 6286 0094 20000000 		.4byte	.LFE18
 6287 0098 00000000 		.4byte	.LFB19
 6288 009c 1A020000 		.4byte	.LFE19
 6289 00a0 00000000 		.4byte	.LFB20
 6290 00a4 3A000000 		.4byte	.LFE20
 6291 00a8 00000000 		.4byte	.LFB21
 6292 00ac 44090000 		.4byte	.LFE21
 6293 00b0 00000000 		.4byte	.LFB22
 6294 00b4 20000000 		.4byte	.LFE22
 6295 00b8 00000000 		.4byte	.LFB23
 6296 00bc 0A000000 		.4byte	.LFE23
 6297 00c0 00000000 		.4byte	.LFB24
 6298 00c4 20000000 		.4byte	.LFE24
 6299 00c8 00000000 		.4byte	.LFB25
 6300 00cc D0020000 		.4byte	.LFE25
 6301 00d0 00000000 		.4byte	.LFB26
 6302 00d4 20000000 		.4byte	.LFE26
 6303 00d8 00000000 		.4byte	.LFB27
 6304 00dc E2000000 		.4byte	.LFE27
 6305 00e0 00000000 		.4byte	.LFB28
 6306 00e4 2E000000 		.4byte	.LFE28
 6307 00e8 00000000 		.4byte	.LFB29
 6308 00ec 5E000000 		.4byte	.LFE29
 6309 00f0 00000000 		.4byte	.LFB30
 6310 00f4 44000000 		.4byte	.LFE30
 6311 00f8 00000000 		.4byte	.LFB31
 6312 00fc 4E000000 		.4byte	.LFE31
 6313 0100 00000000 		.4byte	.LFB32
 6314 0104 3A010000 		.4byte	.LFE32
 6315 0108 00000000 		.4byte	.LFB33
 6316 010c 5A000000 		.4byte	.LFE33
 6317 0110 00000000 		.4byte	.LFB34
 6318 0114 20000000 		.4byte	.LFE34
 6319 0118 00000000 		.4byte	.LFB35
 6320 011c 16000000 		.4byte	.LFE35
 6321 0120 00000000 		.4byte	0
 6322 0124 00000000 		.4byte	0
 6323              		.section	.debug_line,"",%progbits
 6324              	.Ldebug_line0:
 6325 0000 DF040000 		.section	.debug_str,"MS",%progbits,1
ARM GAS  C:\Users\MATSUD~1\AppData\Local\Temp\ccLjdAaK.s 			page 168


 6325      02004F00 
 6325      00000201 
 6325      FB0E0D00 
 6325      01010101 
 6326              	.LASF100:
 6327 0000 4C494E5F 		.ascii	"LIN_1_initialClockDivider\000"
 6327      315F696E 
 6327      69746961 
 6327      6C436C6F 
 6327      636B4469 
 6328              	.LASF12:
 6329 001a 75696E74 		.ascii	"uint16\000"
 6329      313600
 6330              	.LASF36:
 6331 0021 4C494E5F 		.ascii	"LIN_1_BACKUP_STRUCT\000"
 6331      315F4241 
 6331      434B5550 
 6331      5F535452 
 6331      55435400 
 6332              	.LASF68:
 6333 0035 4C494E5F 		.ascii	"LIN_1_pidIndex\000"
 6333      315F7069 
 6333      64496E64 
 6333      657800
 6334              	.LASF99:
 6335 0044 4C494E5F 		.ascii	"LIN_1_fsmFlags\000"
 6335      315F6673 
 6335      6D466C61 
 6335      677300
 6336              	.LASF101:
 6337 0053 4C494E5F 		.ascii	"LIN_1_statusFlagArray\000"
 6337      315F7374 
 6337      61747573 
 6337      466C6167 
 6337      41727261 
 6338              	.LASF75:
 6339 0069 6C5F6966 		.ascii	"l_ifc_tx\000"
 6339      635F7478 
 6339      00
 6340              	.LASF90:
 6341 0072 70696449 		.ascii	"pidIndex\000"
 6341      6E646578 
 6341      00
 6342              	.LASF53:
 6343 007b 6C5F666C 		.ascii	"l_flg_clr_Frame1\000"
 6343      675F636C 
 6343      725F4672 
 6343      616D6531 
 6343      00
 6344              	.LASF54:
 6345 008c 6C5F666C 		.ascii	"l_flg_clr_Frame2\000"
 6345      675F636C 
 6345      725F4672 
 6345      616D6532 
 6345      00
 6346              	.LASF28:
 6347 009d 4C494E5F 		.ascii	"LIN_1_PID_INFO_TABLE\000"
ARM GAS  C:\Users\MATSUD~1\AppData\Local\Temp\ccLjdAaK.s 			page 169


 6347      315F5049 
 6347      445F494E 
 6347      464F5F54 
 6347      41424C45 
 6348              	.LASF105:
 6349 00b2 4C494E5F 		.ascii	"LIN_1_Buffer_Frame2\000"
 6349      315F4275 
 6349      66666572 
 6349      5F467261 
 6349      6D653200 
 6350              	.LASF96:
 6351 00c6 4C494E5F 		.ascii	"LIN_1_ioctlStatus\000"
 6351      315F696F 
 6351      63746C53 
 6351      74617475 
 6351      7300
 6352              	.LASF73:
 6353 00d8 6C5F6966 		.ascii	"l_ifc_rx\000"
 6353      635F7278 
 6353      00
 6354              	.LASF6:
 6355 00e1 6C6F6E67 		.ascii	"long long unsigned int\000"
 6355      206C6F6E 
 6355      6720756E 
 6355      7369676E 
 6355      65642069 
 6356              	.LASF102:
 6357 00f8 4C494E5F 		.ascii	"LIN_1_volatileConfig\000"
 6357      315F766F 
 6357      6C617469 
 6357      6C65436F 
 6357      6E666967 
 6358              	.LASF61:
 6359 010d 6C5F6966 		.ascii	"l_ifc_ioctl\000"
 6359      635F696F 
 6359      63746C00 
 6360              	.LASF104:
 6361 0119 4C494E5F 		.ascii	"LIN_1_Buffer_Frame1\000"
 6361      315F4275 
 6361      66666572 
 6361      5F467261 
 6361      6D653100 
 6362              	.LASF103:
 6363 012d 4C494E5F 		.ascii	"LIN_1_LinSlaveConfig\000"
 6363      315F4C69 
 6363      6E536C61 
 6363      7665436F 
 6363      6E666967 
 6364              	.LASF66:
 6365 0142 4C494E5F 		.ascii	"LIN_1_bytesTransferred\000"
 6365      315F6279 
 6365      74657354 
 6365      72616E73 
 6365      66657272 
 6366              	.LASF39:
 6367 0159 4C494E5F 		.ascii	"LIN_1_Start\000"
 6367      315F5374 
ARM GAS  C:\Users\MATSUD~1\AppData\Local\Temp\ccLjdAaK.s 			page 170


 6367      61727400 
 6368              	.LASF5:
 6369 0165 6C6F6E67 		.ascii	"long long int\000"
 6369      206C6F6E 
 6369      6720696E 
 6369      7400
 6370              	.LASF0:
 6371 0173 7369676E 		.ascii	"signed char\000"
 6371      65642063 
 6371      68617200 
 6372              	.LASF45:
 6373 017f 696E7465 		.ascii	"interruptState\000"
 6373      72727570 
 6373      74537461 
 6373      746500
 6374              	.LASF62:
 6375 018e 6C5F6966 		.ascii	"l_ifc_rx_LIN_1\000"
 6375      635F7278 
 6375      5F4C494E 
 6375      5F3100
 6376              	.LASF52:
 6377 019d 6C5F666C 		.ascii	"l_flg_clr_arm\000"
 6377      675F636C 
 6377      725F6172 
 6377      6D00
 6378              	.LASF7:
 6379 01ab 6C6F6E67 		.ascii	"long int\000"
 6379      20696E74 
 6379      00
 6380              	.LASF18:
 6381 01b4 6C5F626F 		.ascii	"l_bool\000"
 6381      6F6C00
 6382              	.LASF11:
 6383 01bb 75696E74 		.ascii	"uint8\000"
 6383      3800
 6384              	.LASF24:
 6385 01c1 6C5F6966 		.ascii	"l_ifc_handle\000"
 6385      635F6861 
 6385      6E646C65 
 6385      00
 6386              	.LASF48:
 6387 01ce 72657375 		.ascii	"result\000"
 6387      6C7400
 6388              	.LASF15:
 6389 01d5 646F7562 		.ascii	"double\000"
 6389      6C6500
 6390              	.LASF60:
 6391 01dc 4C494E5F 		.ascii	"LIN_1_backup\000"
 6391      315F6261 
 6391      636B7570 
 6391      00
 6392              	.LASF65:
 6393 01e9 4C494E5F 		.ascii	"LIN_1_frameSize\000"
 6393      315F6672 
 6393      616D6553 
 6393      697A6500 
 6394              	.LASF49:
ARM GAS  C:\Users\MATSUD~1\AppData\Local\Temp\ccLjdAaK.s 			page 171


 6395 01f9 6C5F666C 		.ascii	"l_flg_tst_Frame1\000"
 6395      675F7473 
 6395      745F4672 
 6395      616D6531 
 6395      00
 6396              	.LASF13:
 6397 020a 75696E74 		.ascii	"uint32\000"
 6397      333200
 6398              	.LASF80:
 6399 0211 6C5F7379 		.ascii	"l_sys_irq_disable\000"
 6399      735F6972 
 6399      715F6469 
 6399      7361626C 
 6399      6500
 6400              	.LASF20:
 6401 0223 6C5F7531 		.ascii	"l_u16\000"
 6401      3600
 6402              	.LASF32:
 6403 0229 636F6E74 		.ascii	"control\000"
 6403      726F6C00 
 6404              	.LASF98:
 6405 0231 4C494E5F 		.ascii	"LIN_1_uartFsmState\000"
 6405      315F7561 
 6405      72744673 
 6405      6D537461 
 6405      746500
 6406              	.LASF89:
 6407 0244 4C494E5F 		.ascii	"LIN_1_GetEtFlagValue\000"
 6407      315F4765 
 6407      74457446 
 6407      6C616756 
 6407      616C7565 
 6408              	.LASF57:
 6409 0259 6C5F6966 		.ascii	"l_ifc_wake_up_LIN_1\000"
 6409      635F7761 
 6409      6B655F75 
 6409      705F4C49 
 6409      4E5F3100 
 6410              	.LASF4:
 6411 026d 756E7369 		.ascii	"unsigned int\000"
 6411      676E6564 
 6411      20696E74 
 6411      00
 6412              	.LASF107:
 6413 027a 2E5C4765 		.ascii	".\\Generated_Source\\PSoC5\\LIN_1.c\000"
 6413      6E657261 
 6413      7465645F 
 6413      536F7572 
 6413      63655C50 
 6414              	.LASF46:
 6415 029b 6C5F666C 		.ascii	"l_flg_tst\000"
 6415      675F7473 
 6415      7400
 6416              	.LASF85:
 6417 02a5 4C494E5F 		.ascii	"LIN_1_EndFrame\000"
 6417      315F456E 
 6417      64467261 
ARM GAS  C:\Users\MATSUD~1\AppData\Local\Temp\ccLjdAaK.s 			page 172


 6417      6D6500
 6418              	.LASF9:
 6419 02b4 6C6F6E67 		.ascii	"long unsigned int\000"
 6419      20756E73 
 6419      69676E65 
 6419      6420696E 
 6419      7400
 6420              	.LASF83:
 6421 02c6 70726576 		.ascii	"previous\000"
 6421      696F7573 
 6421      00
 6422              	.LASF21:
 6423 02cf 6C5F6972 		.ascii	"l_irqmask\000"
 6423      716D6173 
 6423      6B00
 6424              	.LASF33:
 6425 02d9 73746174 		.ascii	"statusMask\000"
 6425      75734D61 
 6425      736B00
 6426              	.LASF3:
 6427 02e4 73686F72 		.ascii	"short unsigned int\000"
 6427      7420756E 
 6427      7369676E 
 6427      65642069 
 6427      6E7400
 6428              	.LASF74:
 6429 02f7 6C5F6966 		.ascii	"l_ifc_tx_LIN_1\000"
 6429      635F7478 
 6429      5F4C494E 
 6429      5F3100
 6430              	.LASF38:
 6431 0306 6C5F7379 		.ascii	"l_sys_init\000"
 6431      735F696E 
 6431      697400
 6432              	.LASF50:
 6433 0311 6C5F666C 		.ascii	"l_flg_tst_Frame2\000"
 6433      675F7473 
 6433      745F4672 
 6433      616D6532 
 6433      00
 6434              	.LASF69:
 6435 0322 4C494E5F 		.ascii	"LIN_1_tmpRxFrameData\000"
 6435      315F746D 
 6435      70527846 
 6435      72616D65 
 6435      44617461 
 6436              	.LASF64:
 6437 0337 4C494E5F 		.ascii	"LIN_1_framePid\000"
 6437      315F6672 
 6437      616D6550 
 6437      696400
 6438              	.LASF30:
 6439 0346 4C494E5F 		.ascii	"LIN_1_SLAVE_CONFIG\000"
 6439      315F534C 
 6439      4156455F 
 6439      434F4E46 
 6439      494700
ARM GAS  C:\Users\MATSUD~1\AppData\Local\Temp\ccLjdAaK.s 			page 173


 6440              	.LASF17:
 6441 0359 72656733 		.ascii	"reg32\000"
 6441      3200
 6442              	.LASF51:
 6443 035f 6C5F666C 		.ascii	"l_flg_clr\000"
 6443      675F636C 
 6443      7200
 6444              	.LASF8:
 6445 0369 73697A65 		.ascii	"sizetype\000"
 6445      74797065 
 6445      00
 6446              	.LASF72:
 6447 0372 4C494E5F 		.ascii	"LIN_1_pidInfoTable\000"
 6447      315F7069 
 6447      64496E66 
 6447      6F546162 
 6447      6C6500
 6448              	.LASF26:
 6449 0385 70617261 		.ascii	"param\000"
 6449      6D00
 6450              	.LASF87:
 6451 038b 70496E64 		.ascii	"pIndex\000"
 6451      657800
 6452              	.LASF25:
 6453 0392 6C5F666C 		.ascii	"l_flag_handle\000"
 6453      61675F68 
 6453      616E646C 
 6453      6500
 6454              	.LASF92:
 6455 03a0 4C494E5F 		.ascii	"LIN_1_periodCounter\000"
 6455      315F7065 
 6455      72696F64 
 6455      436F756E 
 6455      74657200 
 6456              	.LASF27:
 6457 03b4 64617461 		.ascii	"dataPtr\000"
 6457      50747200 
 6458              	.LASF67:
 6459 03bc 4C494E5F 		.ascii	"LIN_1_tmpData\000"
 6459      315F746D 
 6459      70446174 
 6459      6100
 6460              	.LASF70:
 6461 03ca 4C494E5F 		.ascii	"LIN_1_frameData\000"
 6461      315F6672 
 6461      616D6544 
 6461      61746100 
 6462              	.LASF40:
 6463 03da 6C5F7538 		.ascii	"l_u8_rd\000"
 6463      5F726400 
 6464              	.LASF58:
 6465 03e2 6C5F6966 		.ascii	"l_ifc_wake_up\000"
 6465      635F7761 
 6465      6B655F75 
 6465      7000
 6466              	.LASF22:
 6467 03f0 6C5F696F 		.ascii	"l_ioctl_op\000"
ARM GAS  C:\Users\MATSUD~1\AppData\Local\Temp\ccLjdAaK.s 			page 174


 6467      63746C5F 
 6467      6F7000
 6468              	.LASF56:
 6469 03fb 6C5F6966 		.ascii	"l_ifc_init\000"
 6469      635F696E 
 6469      697400
 6470              	.LASF14:
 6471 0406 666C6F61 		.ascii	"float\000"
 6471      7400
 6472              	.LASF76:
 6473 040c 6C5F6966 		.ascii	"l_ifc_aux_LIN_1\000"
 6473      635F6175 
 6473      785F4C49 
 6473      4E5F3100 
 6474              	.LASF78:
 6475 041c 6C5F6966 		.ascii	"l_ifc_read_status_LIN_1\000"
 6475      635F7265 
 6475      61645F73 
 6475      74617475 
 6475      735F4C49 
 6476              	.LASF71:
 6477 0434 4C494E5F 		.ascii	"LIN_1_parityTable\000"
 6477      315F7061 
 6477      72697479 
 6477      5461626C 
 6477      6500
 6478              	.LASF106:
 6479 0446 474E5520 		.ascii	"GNU C 4.7.3 20130312 (release) [ARM/embedded-4_7-br"
 6479      4320342E 
 6479      372E3320 
 6479      32303133 
 6479      30333132 
 6480 0479 616E6368 		.ascii	"anch revision 196615]\000"
 6480      20726576 
 6480      6973696F 
 6480      6E203139 
 6480      36363135 
 6481              	.LASF16:
 6482 048f 72656738 		.ascii	"reg8\000"
 6482      00
 6483              	.LASF1:
 6484 0494 756E7369 		.ascii	"unsigned char\000"
 6484      676E6564 
 6484      20636861 
 6484      7200
 6485              	.LASF29:
 6486 04a2 70696454 		.ascii	"pidTable\000"
 6486      61626C65 
 6486      00
 6487              	.LASF63:
 6488 04ab 4C494E5F 		.ascii	"LIN_1_interimChecksum\000"
 6488      315F696E 
 6488      74657269 
 6488      6D436865 
 6488      636B7375 
 6489              	.LASF2:
 6490 04c1 73686F72 		.ascii	"short int\000"
ARM GAS  C:\Users\MATSUD~1\AppData\Local\Temp\ccLjdAaK.s 			page 175


 6490      7420696E 
 6490      7400
 6491              	.LASF93:
 6492 04cb 4C494E5F 		.ascii	"LIN_1_status\000"
 6492      315F7374 
 6492      61747573 
 6492      00
 6493              	.LASF95:
 6494 04d8 4C494E5F 		.ascii	"LIN_1_auxStatus\000"
 6494      315F6175 
 6494      78537461 
 6494      74757300 
 6495              	.LASF77:
 6496 04e8 6C5F6966 		.ascii	"l_ifc_aux\000"
 6496      635F6175 
 6496      7800
 6497              	.LASF97:
 6498 04f2 4C494E5F 		.ascii	"LIN_1_ifcStatus\000"
 6498      315F6966 
 6498      63537461 
 6498      74757300 
 6499              	.LASF10:
 6500 0502 63686172 		.ascii	"char\000"
 6500      00
 6501              	.LASF91:
 6502 0507 4C494E5F 		.ascii	"LIN_1_ClearEtFlagValue\000"
 6502      315F436C 
 6502      65617245 
 6502      74466C61 
 6502      6756616C 
 6503              	.LASF31:
 6504 051e 656E6162 		.ascii	"enableState\000"
 6504      6C655374 
 6504      61746500 
 6505              	.LASF44:
 6506 052a 6C5F626F 		.ascii	"l_bool_wr_Response_Error\000"
 6506      6F6C5F77 
 6506      725F5265 
 6506      73706F6E 
 6506      73655F45 
 6507              	.LASF42:
 6508 0543 6C5F7538 		.ascii	"l_u8_rd_arm\000"
 6508      5F72645F 
 6508      61726D00 
 6509              	.LASF59:
 6510 054f 6C5F6966 		.ascii	"l_ifc_ioctl_LIN_1\000"
 6510      635F696F 
 6510      63746C5F 
 6510      4C494E5F 
 6510      3100
 6511              	.LASF81:
 6512 0561 6972714D 		.ascii	"irqMask\000"
 6512      61736B00 
 6513              	.LASF86:
 6514 0569 4C494E5F 		.ascii	"LIN_1_SetAssociatedFlags\000"
 6514      315F5365 
 6514      74417373 
ARM GAS  C:\Users\MATSUD~1\AppData\Local\Temp\ccLjdAaK.s 			page 176


 6514      6F636961 
 6514      74656446 
 6515              	.LASF23:
 6516 0582 6C5F7369 		.ascii	"l_signal_handle\000"
 6516      676E616C 
 6516      5F68616E 
 6516      646C6500 
 6517              	.LASF79:
 6518 0592 6C5F6966 		.ascii	"l_ifc_read_status\000"
 6518      635F7265 
 6518      61645F73 
 6518      74617475 
 6518      7300
 6519              	.LASF43:
 6520 05a4 6C5F626F 		.ascii	"l_bool_wr\000"
 6520      6F6C5F77 
 6520      7200
 6521              	.LASF34:
 6522 05ae 696E6163 		.ascii	"inactivityDiv0\000"
 6522      74697669 
 6522      74794469 
 6522      763000
 6523              	.LASF35:
 6524 05bd 696E6163 		.ascii	"inactivityDiv1\000"
 6524      74697669 
 6524      74794469 
 6524      763100
 6525              	.LASF84:
 6526 05cc 73746174 		.ascii	"status\000"
 6526      757300
 6527              	.LASF19:
 6528 05d3 6C5F7538 		.ascii	"l_u8\000"
 6528      00
 6529              	.LASF55:
 6530 05d8 6C5F6966 		.ascii	"l_ifc_init_LIN_1\000"
 6530      635F696E 
 6530      69745F4C 
 6530      494E5F31 
 6530      00
 6531              	.LASF88:
 6532 05e9 4C494E5F 		.ascii	"LIN_1_FindPidIndex\000"
 6532      315F4669 
 6532      6E645069 
 6532      64496E64 
 6532      657800
 6533              	.LASF47:
 6534 05fc 6C5F666C 		.ascii	"l_flg_tst_arm\000"
 6534      675F7473 
 6534      745F6172 
 6534      6D00
 6535              	.LASF108:
 6536 060a 433A5C55 		.ascii	"C:\\Users\\matsuda_kazuaki\\Documents\\PSoC Creator"
 6536      73657273 
 6536      5C6D6174 
 6536      73756461 
 6536      5F6B617A 
 6537 0639 5C726F62 		.ascii	"\\roboconn_MT_arm\\roboconn_MT_arm.cydsn\000"
ARM GAS  C:\Users\MATSUD~1\AppData\Local\Temp\ccLjdAaK.s 			page 177


 6537      6F636F6E 
 6537      6E5F4D54 
 6537      5F61726D 
 6537      5C726F62 
 6538              	.LASF94:
 6539 0660 4C494E5F 		.ascii	"LIN_1_syncCounts\000"
 6539      315F7379 
 6539      6E63436F 
 6539      756E7473 
 6539      00
 6540              	.LASF82:
 6541 0671 6C5F7379 		.ascii	"l_sys_irq_restore\000"
 6541      735F6972 
 6541      715F7265 
 6541      73746F72 
 6541      6500
 6542              	.LASF41:
 6543 0683 72657475 		.ascii	"returnValue\000"
 6543      726E5661 
 6543      6C756500 
 6544              	.LASF37:
 6545 068f 4C494E5F 		.ascii	"LIN_1_Stop\000"
 6545      315F5374 
 6545      6F7000
 6546              		.ident	"GCC: (GNU Tools for ARM Embedded Processors) 4.7.3 20130312 (release) [ARM/embedded-4_7-br
