ARM GAS  C:\Users\MATSUD~1\AppData\Local\Temp\ccwDh0Hw.s 			page 1


   1              		.syntax unified
   2              		.cpu cortex-m3
   3              		.fpu softvfp
   4              		.eabi_attribute 20, 1
   5              		.eabi_attribute 21, 1
   6              		.eabi_attribute 23, 3
   7              		.eabi_attribute 24, 1
   8              		.eabi_attribute 25, 1
   9              		.eabi_attribute 26, 1
  10              		.eabi_attribute 30, 6
  11              		.eabi_attribute 34, 1
  12              		.eabi_attribute 18, 4
  13              		.thumb
  14              		.file	"LIN_1_UART.c"
  15              		.text
  16              	.Ltext0:
  17              		.cfi_sections	.debug_frame
  18              		.global	LIN_1_UART_initVar
  19              		.bss
  20              		.type	LIN_1_UART_initVar, %object
  21              		.size	LIN_1_UART_initVar, 1
  22              	LIN_1_UART_initVar:
  23 0000 00       		.space	1
  24              		.section	.text.LIN_1_UART_Start,"ax",%progbits
  25              		.align	2
  26              		.global	LIN_1_UART_Start
  27              		.thumb
  28              		.thumb_func
  29              		.type	LIN_1_UART_Start, %function
  30              	LIN_1_UART_Start:
  31              	.LFB0:
  32              		.file 1 ".\\Generated_Source\\PSoC5\\LIN_1_UART.c"
   1:.\Generated_Source\PSoC5/LIN_1_UART.c **** /*******************************************************************************
   2:.\Generated_Source\PSoC5/LIN_1_UART.c **** * File Name: LIN_1_UART.c
   3:.\Generated_Source\PSoC5/LIN_1_UART.c **** * Version 2.30
   4:.\Generated_Source\PSoC5/LIN_1_UART.c **** *
   5:.\Generated_Source\PSoC5/LIN_1_UART.c **** * Description:
   6:.\Generated_Source\PSoC5/LIN_1_UART.c **** *  This file provides all API functionality of the UART component
   7:.\Generated_Source\PSoC5/LIN_1_UART.c **** *
   8:.\Generated_Source\PSoC5/LIN_1_UART.c **** * Note:
   9:.\Generated_Source\PSoC5/LIN_1_UART.c **** *
  10:.\Generated_Source\PSoC5/LIN_1_UART.c **** ********************************************************************************
  11:.\Generated_Source\PSoC5/LIN_1_UART.c **** * Copyright 2008-2012, Cypress Semiconductor Corporation.  All rights reserved.
  12:.\Generated_Source\PSoC5/LIN_1_UART.c **** * You may use this file only in accordance with the license, terms, conditions,
  13:.\Generated_Source\PSoC5/LIN_1_UART.c **** * disclaimers, and limitations in the end user license agreement accompanying
  14:.\Generated_Source\PSoC5/LIN_1_UART.c **** * the software package with which this file was provided.
  15:.\Generated_Source\PSoC5/LIN_1_UART.c **** *******************************************************************************/
  16:.\Generated_Source\PSoC5/LIN_1_UART.c **** 
  17:.\Generated_Source\PSoC5/LIN_1_UART.c **** #include "LIN_1_UART.h"
  18:.\Generated_Source\PSoC5/LIN_1_UART.c **** #include "CyLib.h"
  19:.\Generated_Source\PSoC5/LIN_1_UART.c **** #if(LIN_1_UART_INTERNAL_CLOCK_USED)
  20:.\Generated_Source\PSoC5/LIN_1_UART.c ****     #include "LIN_1_UART_IntClock.h"
  21:.\Generated_Source\PSoC5/LIN_1_UART.c **** #endif /* End LIN_1_UART_INTERNAL_CLOCK_USED */
  22:.\Generated_Source\PSoC5/LIN_1_UART.c **** 
  23:.\Generated_Source\PSoC5/LIN_1_UART.c **** 
  24:.\Generated_Source\PSoC5/LIN_1_UART.c **** /***************************************
  25:.\Generated_Source\PSoC5/LIN_1_UART.c **** * Global data allocation
ARM GAS  C:\Users\MATSUD~1\AppData\Local\Temp\ccwDh0Hw.s 			page 2


  26:.\Generated_Source\PSoC5/LIN_1_UART.c **** ***************************************/
  27:.\Generated_Source\PSoC5/LIN_1_UART.c **** 
  28:.\Generated_Source\PSoC5/LIN_1_UART.c **** uint8 LIN_1_UART_initVar = 0u;
  29:.\Generated_Source\PSoC5/LIN_1_UART.c **** #if( LIN_1_UART_TX_ENABLED && (LIN_1_UART_TXBUFFERSIZE > LIN_1_UART_FIFO_LENGTH))
  30:.\Generated_Source\PSoC5/LIN_1_UART.c ****     volatile uint8 LIN_1_UART_txBuffer[LIN_1_UART_TXBUFFERSIZE];
  31:.\Generated_Source\PSoC5/LIN_1_UART.c ****     volatile uint8 LIN_1_UART_txBufferRead = 0u;
  32:.\Generated_Source\PSoC5/LIN_1_UART.c ****     uint8 LIN_1_UART_txBufferWrite = 0u;
  33:.\Generated_Source\PSoC5/LIN_1_UART.c **** #endif /* End LIN_1_UART_TX_ENABLED */
  34:.\Generated_Source\PSoC5/LIN_1_UART.c **** #if( ( LIN_1_UART_RX_ENABLED || LIN_1_UART_HD_ENABLED ) && \
  35:.\Generated_Source\PSoC5/LIN_1_UART.c ****      (LIN_1_UART_RXBUFFERSIZE > LIN_1_UART_FIFO_LENGTH) )
  36:.\Generated_Source\PSoC5/LIN_1_UART.c ****     volatile uint8 LIN_1_UART_rxBuffer[LIN_1_UART_RXBUFFERSIZE];
  37:.\Generated_Source\PSoC5/LIN_1_UART.c ****     volatile uint8 LIN_1_UART_rxBufferRead = 0u;
  38:.\Generated_Source\PSoC5/LIN_1_UART.c ****     volatile uint8 LIN_1_UART_rxBufferWrite = 0u;
  39:.\Generated_Source\PSoC5/LIN_1_UART.c ****     volatile uint8 LIN_1_UART_rxBufferLoopDetect = 0u;
  40:.\Generated_Source\PSoC5/LIN_1_UART.c ****     volatile uint8 LIN_1_UART_rxBufferOverflow = 0u;
  41:.\Generated_Source\PSoC5/LIN_1_UART.c ****     #if (LIN_1_UART_RXHW_ADDRESS_ENABLED)
  42:.\Generated_Source\PSoC5/LIN_1_UART.c ****         volatile uint8 LIN_1_UART_rxAddressMode = LIN_1_UART_RXADDRESSMODE;
  43:.\Generated_Source\PSoC5/LIN_1_UART.c ****         volatile uint8 LIN_1_UART_rxAddressDetected = 0u;
  44:.\Generated_Source\PSoC5/LIN_1_UART.c ****     #endif /* End EnableHWAddress */
  45:.\Generated_Source\PSoC5/LIN_1_UART.c **** #endif /* End LIN_1_UART_RX_ENABLED */
  46:.\Generated_Source\PSoC5/LIN_1_UART.c **** 
  47:.\Generated_Source\PSoC5/LIN_1_UART.c **** 
  48:.\Generated_Source\PSoC5/LIN_1_UART.c **** /*******************************************************************************
  49:.\Generated_Source\PSoC5/LIN_1_UART.c **** * Function Name: LIN_1_UART_Start
  50:.\Generated_Source\PSoC5/LIN_1_UART.c **** ********************************************************************************
  51:.\Generated_Source\PSoC5/LIN_1_UART.c **** *
  52:.\Generated_Source\PSoC5/LIN_1_UART.c **** * Summary:
  53:.\Generated_Source\PSoC5/LIN_1_UART.c **** *  Initialize and Enable the UART component.
  54:.\Generated_Source\PSoC5/LIN_1_UART.c **** *  Enable the clock input to enable operation.
  55:.\Generated_Source\PSoC5/LIN_1_UART.c **** *
  56:.\Generated_Source\PSoC5/LIN_1_UART.c **** * Parameters:
  57:.\Generated_Source\PSoC5/LIN_1_UART.c **** *  None.
  58:.\Generated_Source\PSoC5/LIN_1_UART.c **** *
  59:.\Generated_Source\PSoC5/LIN_1_UART.c **** * Return:
  60:.\Generated_Source\PSoC5/LIN_1_UART.c **** *  None.
  61:.\Generated_Source\PSoC5/LIN_1_UART.c **** *
  62:.\Generated_Source\PSoC5/LIN_1_UART.c **** * Global variables:
  63:.\Generated_Source\PSoC5/LIN_1_UART.c **** *  The LIN_1_UART_intiVar variable is used to indicate initial
  64:.\Generated_Source\PSoC5/LIN_1_UART.c **** *  configuration of this component. The variable is initialized to zero (0u)
  65:.\Generated_Source\PSoC5/LIN_1_UART.c **** *  and set to one (1u) the first time UART_Start() is called. This allows for
  66:.\Generated_Source\PSoC5/LIN_1_UART.c **** *  component initialization without re-initialization in all subsequent calls
  67:.\Generated_Source\PSoC5/LIN_1_UART.c **** *  to the LIN_1_UART_Start() routine.
  68:.\Generated_Source\PSoC5/LIN_1_UART.c **** *
  69:.\Generated_Source\PSoC5/LIN_1_UART.c **** * Reentrant:
  70:.\Generated_Source\PSoC5/LIN_1_UART.c **** *  No.
  71:.\Generated_Source\PSoC5/LIN_1_UART.c **** *
  72:.\Generated_Source\PSoC5/LIN_1_UART.c **** *******************************************************************************/
  73:.\Generated_Source\PSoC5/LIN_1_UART.c **** void LIN_1_UART_Start(void) 
  74:.\Generated_Source\PSoC5/LIN_1_UART.c **** {
  33              		.loc 1 74 0
  34              		.cfi_startproc
  35              		@ args = 0, pretend = 0, frame = 0
  36              		@ frame_needed = 1, uses_anonymous_args = 0
  37 0000 80B5     		push	{r7, lr}
  38              	.LCFI0:
  39              		.cfi_def_cfa_offset 8
  40              		.cfi_offset 7, -8
ARM GAS  C:\Users\MATSUD~1\AppData\Local\Temp\ccwDh0Hw.s 			page 3


  41              		.cfi_offset 14, -4
  42 0002 00AF     		add	r7, sp, #0
  43              	.LCFI1:
  44              		.cfi_def_cfa_register 7
  75:.\Generated_Source\PSoC5/LIN_1_UART.c ****     /* If not Initialized then initialize all required hardware and software */
  76:.\Generated_Source\PSoC5/LIN_1_UART.c ****     if(LIN_1_UART_initVar == 0u)
  45              		.loc 1 76 0
  46 0004 40F20003 		movw	r3, #:lower16:LIN_1_UART_initVar
  47 0008 C0F20003 		movt	r3, #:upper16:LIN_1_UART_initVar
  48 000c 1B78     		ldrb	r3, [r3, #0]	@ zero_extendqisi2
  49 000e 002B     		cmp	r3, #0
  50 0010 08D1     		bne	.L2
  77:.\Generated_Source\PSoC5/LIN_1_UART.c ****     {
  78:.\Generated_Source\PSoC5/LIN_1_UART.c ****         LIN_1_UART_Init();
  51              		.loc 1 78 0
  52 0012 FFF7FEFF 		bl	LIN_1_UART_Init
  79:.\Generated_Source\PSoC5/LIN_1_UART.c ****         LIN_1_UART_initVar = 1u;
  53              		.loc 1 79 0
  54 0016 40F20003 		movw	r3, #:lower16:LIN_1_UART_initVar
  55 001a C0F20003 		movt	r3, #:upper16:LIN_1_UART_initVar
  56 001e 4FF00102 		mov	r2, #1
  57 0022 1A70     		strb	r2, [r3, #0]
  58              	.L2:
  80:.\Generated_Source\PSoC5/LIN_1_UART.c ****     }
  81:.\Generated_Source\PSoC5/LIN_1_UART.c ****     LIN_1_UART_Enable();
  59              		.loc 1 81 0
  60 0024 FFF7FEFF 		bl	LIN_1_UART_Enable
  82:.\Generated_Source\PSoC5/LIN_1_UART.c **** }
  61              		.loc 1 82 0
  62 0028 80BD     		pop	{r7, pc}
  63              		.cfi_endproc
  64              	.LFE0:
  65              		.size	LIN_1_UART_Start, .-LIN_1_UART_Start
  66 002a 00BF     		.section	.text.LIN_1_UART_Init,"ax",%progbits
  67              		.align	2
  68              		.global	LIN_1_UART_Init
  69              		.thumb
  70              		.thumb_func
  71              		.type	LIN_1_UART_Init, %function
  72              	LIN_1_UART_Init:
  73              	.LFB1:
  83:.\Generated_Source\PSoC5/LIN_1_UART.c **** 
  84:.\Generated_Source\PSoC5/LIN_1_UART.c **** 
  85:.\Generated_Source\PSoC5/LIN_1_UART.c **** /*******************************************************************************
  86:.\Generated_Source\PSoC5/LIN_1_UART.c **** * Function Name: LIN_1_UART_Init
  87:.\Generated_Source\PSoC5/LIN_1_UART.c **** ********************************************************************************
  88:.\Generated_Source\PSoC5/LIN_1_UART.c **** *
  89:.\Generated_Source\PSoC5/LIN_1_UART.c **** * Summary:
  90:.\Generated_Source\PSoC5/LIN_1_UART.c **** *  Initialize component's parameters to the parameters set by user in the
  91:.\Generated_Source\PSoC5/LIN_1_UART.c **** *  customizer of the component placed onto schematic. Usually called in
  92:.\Generated_Source\PSoC5/LIN_1_UART.c **** *  LIN_1_UART_Start().
  93:.\Generated_Source\PSoC5/LIN_1_UART.c **** *
  94:.\Generated_Source\PSoC5/LIN_1_UART.c **** * Parameters:
  95:.\Generated_Source\PSoC5/LIN_1_UART.c **** *  None.
  96:.\Generated_Source\PSoC5/LIN_1_UART.c **** *
  97:.\Generated_Source\PSoC5/LIN_1_UART.c **** * Return:
  98:.\Generated_Source\PSoC5/LIN_1_UART.c **** *  None.
ARM GAS  C:\Users\MATSUD~1\AppData\Local\Temp\ccwDh0Hw.s 			page 4


  99:.\Generated_Source\PSoC5/LIN_1_UART.c **** *
 100:.\Generated_Source\PSoC5/LIN_1_UART.c **** *******************************************************************************/
 101:.\Generated_Source\PSoC5/LIN_1_UART.c **** void LIN_1_UART_Init(void) 
 102:.\Generated_Source\PSoC5/LIN_1_UART.c **** {
  74              		.loc 1 102 0
  75              		.cfi_startproc
  76              		@ args = 0, pretend = 0, frame = 0
  77              		@ frame_needed = 1, uses_anonymous_args = 0
  78              		@ link register save eliminated.
  79 0000 80B4     		push	{r7}
  80              	.LCFI2:
  81              		.cfi_def_cfa_offset 4
  82              		.cfi_offset 7, -4
  83 0002 00AF     		add	r7, sp, #0
  84              	.LCFI3:
  85              		.cfi_def_cfa_register 7
 103:.\Generated_Source\PSoC5/LIN_1_UART.c ****     #if(LIN_1_UART_RX_ENABLED || LIN_1_UART_HD_ENABLED)
 104:.\Generated_Source\PSoC5/LIN_1_UART.c **** 
 105:.\Generated_Source\PSoC5/LIN_1_UART.c ****         #if(LIN_1_UART_RX_INTERRUPT_ENABLED && (LIN_1_UART_RXBUFFERSIZE > LIN_1_UART_FIFO_LENGTH))
 106:.\Generated_Source\PSoC5/LIN_1_UART.c ****             /* Set the RX Interrupt. */
 107:.\Generated_Source\PSoC5/LIN_1_UART.c ****             (void)CyIntSetVector(LIN_1_UART_RX_VECT_NUM, &LIN_1_UART_RXISR);
 108:.\Generated_Source\PSoC5/LIN_1_UART.c ****             CyIntSetPriority(LIN_1_UART_RX_VECT_NUM, LIN_1_UART_RX_PRIOR_NUM);
 109:.\Generated_Source\PSoC5/LIN_1_UART.c ****         #endif /* End LIN_1_UART_RX_INTERRUPT_ENABLED */
 110:.\Generated_Source\PSoC5/LIN_1_UART.c **** 
 111:.\Generated_Source\PSoC5/LIN_1_UART.c ****         #if (LIN_1_UART_RXHW_ADDRESS_ENABLED)
 112:.\Generated_Source\PSoC5/LIN_1_UART.c ****             LIN_1_UART_SetRxAddressMode(LIN_1_UART_RXAddressMode);
 113:.\Generated_Source\PSoC5/LIN_1_UART.c ****             LIN_1_UART_SetRxAddress1(LIN_1_UART_RXHWADDRESS1);
 114:.\Generated_Source\PSoC5/LIN_1_UART.c ****             LIN_1_UART_SetRxAddress2(LIN_1_UART_RXHWADDRESS2);
 115:.\Generated_Source\PSoC5/LIN_1_UART.c ****         #endif /* End LIN_1_UART_RXHW_ADDRESS_ENABLED */
 116:.\Generated_Source\PSoC5/LIN_1_UART.c **** 
 117:.\Generated_Source\PSoC5/LIN_1_UART.c ****         /* Init Count7 period */
 118:.\Generated_Source\PSoC5/LIN_1_UART.c ****         LIN_1_UART_RXBITCTR_PERIOD_REG = LIN_1_UART_RXBITCTR_INIT;
  86              		.loc 1 118 0
  87 0004 46F28453 		movw	r3, #25988
  88 0008 C4F20003 		movt	r3, 16384
  89 000c 4FF07202 		mov	r2, #114
  90 0010 1A70     		strb	r2, [r3, #0]
 119:.\Generated_Source\PSoC5/LIN_1_UART.c ****         /* Configure the Initial RX interrupt mask */
 120:.\Generated_Source\PSoC5/LIN_1_UART.c ****         LIN_1_UART_RXSTATUS_MASK_REG  = LIN_1_UART_INIT_RX_INTERRUPTS_MASK;
  91              		.loc 1 120 0
  92 0012 46F28753 		movw	r3, #25991
  93 0016 C4F20003 		movt	r3, 16384
  94 001a 4FF02002 		mov	r2, #32
  95 001e 1A70     		strb	r2, [r3, #0]
 121:.\Generated_Source\PSoC5/LIN_1_UART.c ****     #endif /* End LIN_1_UART_RX_ENABLED || LIN_1_UART_HD_ENABLED*/
 122:.\Generated_Source\PSoC5/LIN_1_UART.c **** 
 123:.\Generated_Source\PSoC5/LIN_1_UART.c ****     #if(LIN_1_UART_TX_ENABLED)
 124:.\Generated_Source\PSoC5/LIN_1_UART.c ****         #if(LIN_1_UART_TX_INTERRUPT_ENABLED && (LIN_1_UART_TXBUFFERSIZE > LIN_1_UART_FIFO_LENGTH))
 125:.\Generated_Source\PSoC5/LIN_1_UART.c ****             /* Set the TX Interrupt. */
 126:.\Generated_Source\PSoC5/LIN_1_UART.c ****             (void)CyIntSetVector(LIN_1_UART_TX_VECT_NUM, &LIN_1_UART_TXISR);
 127:.\Generated_Source\PSoC5/LIN_1_UART.c ****             CyIntSetPriority(LIN_1_UART_TX_VECT_NUM, LIN_1_UART_TX_PRIOR_NUM);
 128:.\Generated_Source\PSoC5/LIN_1_UART.c ****         #endif /* End LIN_1_UART_TX_INTERRUPT_ENABLED */
 129:.\Generated_Source\PSoC5/LIN_1_UART.c **** 
 130:.\Generated_Source\PSoC5/LIN_1_UART.c ****         /* Write Counter Value for TX Bit Clk Generator*/
 131:.\Generated_Source\PSoC5/LIN_1_UART.c ****         #if(LIN_1_UART_TXCLKGEN_DP)
 132:.\Generated_Source\PSoC5/LIN_1_UART.c ****             LIN_1_UART_TXBITCLKGEN_CTR_REG = LIN_1_UART_BIT_CENTER;
 133:.\Generated_Source\PSoC5/LIN_1_UART.c ****             LIN_1_UART_TXBITCLKTX_COMPLETE_REG = (LIN_1_UART_NUMBER_OF_DATA_BITS +
ARM GAS  C:\Users\MATSUD~1\AppData\Local\Temp\ccwDh0Hw.s 			page 5


 134:.\Generated_Source\PSoC5/LIN_1_UART.c ****                         LIN_1_UART_NUMBER_OF_START_BIT) * LIN_1_UART_OVER_SAMPLE_COUNT;
 135:.\Generated_Source\PSoC5/LIN_1_UART.c ****         #else
 136:.\Generated_Source\PSoC5/LIN_1_UART.c ****             LIN_1_UART_TXBITCTR_PERIOD_REG = ((LIN_1_UART_NUMBER_OF_DATA_BITS +
  96              		.loc 1 136 0
  97 0020 46F28343 		movw	r3, #25731
  98 0024 C4F20003 		movt	r3, 16384
  99 0028 4FF04702 		mov	r2, #71
 100 002c 1A70     		strb	r2, [r3, #0]
 137:.\Generated_Source\PSoC5/LIN_1_UART.c ****                         LIN_1_UART_NUMBER_OF_START_BIT) * LIN_1_UART_OVER_SAMPLE_8) - 1u;
 138:.\Generated_Source\PSoC5/LIN_1_UART.c ****         #endif /* End LIN_1_UART_TXCLKGEN_DP */
 139:.\Generated_Source\PSoC5/LIN_1_UART.c **** 
 140:.\Generated_Source\PSoC5/LIN_1_UART.c ****         /* Configure the Initial TX interrupt mask */
 141:.\Generated_Source\PSoC5/LIN_1_UART.c ****         #if(LIN_1_UART_TX_INTERRUPT_ENABLED && (LIN_1_UART_TXBUFFERSIZE > LIN_1_UART_FIFO_LENGTH))
 142:.\Generated_Source\PSoC5/LIN_1_UART.c ****             LIN_1_UART_TXSTATUS_MASK_REG = LIN_1_UART_TX_STS_FIFO_EMPTY;
 143:.\Generated_Source\PSoC5/LIN_1_UART.c ****         #else
 144:.\Generated_Source\PSoC5/LIN_1_UART.c ****             LIN_1_UART_TXSTATUS_MASK_REG = LIN_1_UART_INIT_TX_INTERRUPTS_MASK;
 101              		.loc 1 144 0
 102 002e 46F28743 		movw	r3, #25735
 103 0032 C4F20003 		movt	r3, 16384
 104 0036 4FF00002 		mov	r2, #0
 105 003a 1A70     		strb	r2, [r3, #0]
 145:.\Generated_Source\PSoC5/LIN_1_UART.c ****         #endif /*End LIN_1_UART_TX_INTERRUPT_ENABLED*/
 146:.\Generated_Source\PSoC5/LIN_1_UART.c **** 
 147:.\Generated_Source\PSoC5/LIN_1_UART.c ****     #endif /* End LIN_1_UART_TX_ENABLED */
 148:.\Generated_Source\PSoC5/LIN_1_UART.c **** 
 149:.\Generated_Source\PSoC5/LIN_1_UART.c ****     #if(LIN_1_UART_PARITY_TYPE_SW)  /* Write Parity to Control Register */
 150:.\Generated_Source\PSoC5/LIN_1_UART.c ****         LIN_1_UART_WriteControlRegister( \
 151:.\Generated_Source\PSoC5/LIN_1_UART.c ****             (LIN_1_UART_ReadControlRegister() & (uint8)~LIN_1_UART_CTRL_PARITY_TYPE_MASK) | \
 152:.\Generated_Source\PSoC5/LIN_1_UART.c ****             (uint8)(LIN_1_UART_PARITY_TYPE << LIN_1_UART_CTRL_PARITY_TYPE0_SHIFT) );
 153:.\Generated_Source\PSoC5/LIN_1_UART.c ****     #endif /* End LIN_1_UART_PARITY_TYPE_SW */
 154:.\Generated_Source\PSoC5/LIN_1_UART.c **** }
 106              		.loc 1 154 0
 107 003c BD46     		mov	sp, r7
 108 003e 80BC     		pop	{r7}
 109 0040 7047     		bx	lr
 110              		.cfi_endproc
 111              	.LFE1:
 112              		.size	LIN_1_UART_Init, .-LIN_1_UART_Init
 113 0042 00BF     		.section	.text.LIN_1_UART_Enable,"ax",%progbits
 114              		.align	2
 115              		.global	LIN_1_UART_Enable
 116              		.thumb
 117              		.thumb_func
 118              		.type	LIN_1_UART_Enable, %function
 119              	LIN_1_UART_Enable:
 120              	.LFB2:
 155:.\Generated_Source\PSoC5/LIN_1_UART.c **** 
 156:.\Generated_Source\PSoC5/LIN_1_UART.c **** 
 157:.\Generated_Source\PSoC5/LIN_1_UART.c **** /*******************************************************************************
 158:.\Generated_Source\PSoC5/LIN_1_UART.c **** * Function Name: LIN_1_UART_Enable
 159:.\Generated_Source\PSoC5/LIN_1_UART.c **** ********************************************************************************
 160:.\Generated_Source\PSoC5/LIN_1_UART.c **** *
 161:.\Generated_Source\PSoC5/LIN_1_UART.c **** * Summary:
 162:.\Generated_Source\PSoC5/LIN_1_UART.c **** *  Enables the UART block operation
 163:.\Generated_Source\PSoC5/LIN_1_UART.c **** *
 164:.\Generated_Source\PSoC5/LIN_1_UART.c **** * Parameters:
 165:.\Generated_Source\PSoC5/LIN_1_UART.c **** *  None.
ARM GAS  C:\Users\MATSUD~1\AppData\Local\Temp\ccwDh0Hw.s 			page 6


 166:.\Generated_Source\PSoC5/LIN_1_UART.c **** *
 167:.\Generated_Source\PSoC5/LIN_1_UART.c **** * Return:
 168:.\Generated_Source\PSoC5/LIN_1_UART.c **** *  None.
 169:.\Generated_Source\PSoC5/LIN_1_UART.c **** *
 170:.\Generated_Source\PSoC5/LIN_1_UART.c **** * Global Variables:
 171:.\Generated_Source\PSoC5/LIN_1_UART.c **** *  LIN_1_UART_rxAddressDetected - set to initial state (0).
 172:.\Generated_Source\PSoC5/LIN_1_UART.c **** *
 173:.\Generated_Source\PSoC5/LIN_1_UART.c **** *******************************************************************************/
 174:.\Generated_Source\PSoC5/LIN_1_UART.c **** void LIN_1_UART_Enable(void) 
 175:.\Generated_Source\PSoC5/LIN_1_UART.c **** {
 121              		.loc 1 175 0
 122              		.cfi_startproc
 123              		@ args = 0, pretend = 0, frame = 8
 124              		@ frame_needed = 1, uses_anonymous_args = 0
 125 0000 80B5     		push	{r7, lr}
 126              	.LCFI4:
 127              		.cfi_def_cfa_offset 8
 128              		.cfi_offset 7, -8
 129              		.cfi_offset 14, -4
 130 0002 82B0     		sub	sp, sp, #8
 131              	.LCFI5:
 132              		.cfi_def_cfa_offset 16
 133 0004 00AF     		add	r7, sp, #0
 134              	.LCFI6:
 135              		.cfi_def_cfa_register 7
 176:.\Generated_Source\PSoC5/LIN_1_UART.c ****     uint8 enableInterrupts;
 177:.\Generated_Source\PSoC5/LIN_1_UART.c ****     enableInterrupts = CyEnterCriticalSection();
 136              		.loc 1 177 0
 137 0006 FFF7FEFF 		bl	CyEnterCriticalSection
 138 000a 0346     		mov	r3, r0
 139 000c FB71     		strb	r3, [r7, #7]
 178:.\Generated_Source\PSoC5/LIN_1_UART.c **** 
 179:.\Generated_Source\PSoC5/LIN_1_UART.c ****     #if(LIN_1_UART_RX_ENABLED || LIN_1_UART_HD_ENABLED)
 180:.\Generated_Source\PSoC5/LIN_1_UART.c ****         /*RX Counter (Count7) Enable */
 181:.\Generated_Source\PSoC5/LIN_1_UART.c ****         LIN_1_UART_RXBITCTR_CONTROL_REG |= LIN_1_UART_CNTR_ENABLE;
 140              		.loc 1 181 0
 141 000e 46F29453 		movw	r3, #26004
 142 0012 C4F20003 		movt	r3, 16384
 143 0016 46F29452 		movw	r2, #26004
 144 001a C4F20002 		movt	r2, 16384
 145 001e 1278     		ldrb	r2, [r2, #0]
 146 0020 D2B2     		uxtb	r2, r2
 147 0022 42F02002 		orr	r2, r2, #32
 148 0026 D2B2     		uxtb	r2, r2
 149 0028 1A70     		strb	r2, [r3, #0]
 182:.\Generated_Source\PSoC5/LIN_1_UART.c ****         /* Enable the RX Interrupt. */
 183:.\Generated_Source\PSoC5/LIN_1_UART.c ****         LIN_1_UART_RXSTATUS_ACTL_REG  |= LIN_1_UART_INT_ENABLE;
 150              		.loc 1 183 0
 151 002a 46F29753 		movw	r3, #26007
 152 002e C4F20003 		movt	r3, 16384
 153 0032 46F29752 		movw	r2, #26007
 154 0036 C4F20002 		movt	r2, 16384
 155 003a 1278     		ldrb	r2, [r2, #0]
 156 003c D2B2     		uxtb	r2, r2
 157 003e 42F01002 		orr	r2, r2, #16
 158 0042 D2B2     		uxtb	r2, r2
 159 0044 1A70     		strb	r2, [r3, #0]
ARM GAS  C:\Users\MATSUD~1\AppData\Local\Temp\ccwDh0Hw.s 			page 7


 184:.\Generated_Source\PSoC5/LIN_1_UART.c ****         #if(LIN_1_UART_RX_INTERRUPT_ENABLED && (LIN_1_UART_RXBUFFERSIZE > LIN_1_UART_FIFO_LENGTH))
 185:.\Generated_Source\PSoC5/LIN_1_UART.c ****             CyIntEnable(LIN_1_UART_RX_VECT_NUM);
 186:.\Generated_Source\PSoC5/LIN_1_UART.c ****             #if (LIN_1_UART_RXHW_ADDRESS_ENABLED)
 187:.\Generated_Source\PSoC5/LIN_1_UART.c ****                 LIN_1_UART_rxAddressDetected = 0u;
 188:.\Generated_Source\PSoC5/LIN_1_UART.c ****             #endif /* End LIN_1_UART_RXHW_ADDRESS_ENABLED */
 189:.\Generated_Source\PSoC5/LIN_1_UART.c ****         #endif /* End LIN_1_UART_RX_INTERRUPT_ENABLED */
 190:.\Generated_Source\PSoC5/LIN_1_UART.c ****     #endif /* End LIN_1_UART_RX_ENABLED || LIN_1_UART_HD_ENABLED*/
 191:.\Generated_Source\PSoC5/LIN_1_UART.c **** 
 192:.\Generated_Source\PSoC5/LIN_1_UART.c ****     #if(LIN_1_UART_TX_ENABLED)
 193:.\Generated_Source\PSoC5/LIN_1_UART.c ****         /*TX Counter (DP/Count7) Enable */
 194:.\Generated_Source\PSoC5/LIN_1_UART.c ****         #if(!LIN_1_UART_TXCLKGEN_DP)
 195:.\Generated_Source\PSoC5/LIN_1_UART.c ****             LIN_1_UART_TXBITCTR_CONTROL_REG |= LIN_1_UART_CNTR_ENABLE;
 160              		.loc 1 195 0
 161 0046 46F29343 		movw	r3, #25747
 162 004a C4F20003 		movt	r3, 16384
 163 004e 46F29342 		movw	r2, #25747
 164 0052 C4F20002 		movt	r2, 16384
 165 0056 1278     		ldrb	r2, [r2, #0]
 166 0058 D2B2     		uxtb	r2, r2
 167 005a 42F02002 		orr	r2, r2, #32
 168 005e D2B2     		uxtb	r2, r2
 169 0060 1A70     		strb	r2, [r3, #0]
 196:.\Generated_Source\PSoC5/LIN_1_UART.c ****         #endif /* End LIN_1_UART_TXCLKGEN_DP */
 197:.\Generated_Source\PSoC5/LIN_1_UART.c ****         /* Enable the TX Interrupt. */
 198:.\Generated_Source\PSoC5/LIN_1_UART.c ****         LIN_1_UART_TXSTATUS_ACTL_REG |= LIN_1_UART_INT_ENABLE;
 170              		.loc 1 198 0
 171 0062 46F29743 		movw	r3, #25751
 172 0066 C4F20003 		movt	r3, 16384
 173 006a 46F29742 		movw	r2, #25751
 174 006e C4F20002 		movt	r2, 16384
 175 0072 1278     		ldrb	r2, [r2, #0]
 176 0074 D2B2     		uxtb	r2, r2
 177 0076 42F01002 		orr	r2, r2, #16
 178 007a D2B2     		uxtb	r2, r2
 179 007c 1A70     		strb	r2, [r3, #0]
 199:.\Generated_Source\PSoC5/LIN_1_UART.c ****         #if(LIN_1_UART_TX_INTERRUPT_ENABLED && (LIN_1_UART_TXBUFFERSIZE > LIN_1_UART_FIFO_LENGTH))
 200:.\Generated_Source\PSoC5/LIN_1_UART.c ****             CyIntEnable(LIN_1_UART_TX_VECT_NUM);
 201:.\Generated_Source\PSoC5/LIN_1_UART.c ****         #endif /* End LIN_1_UART_TX_INTERRUPT_ENABLED*/
 202:.\Generated_Source\PSoC5/LIN_1_UART.c ****      #endif /* End LIN_1_UART_TX_ENABLED */
 203:.\Generated_Source\PSoC5/LIN_1_UART.c **** 
 204:.\Generated_Source\PSoC5/LIN_1_UART.c ****     #if(LIN_1_UART_INTERNAL_CLOCK_USED)
 205:.\Generated_Source\PSoC5/LIN_1_UART.c ****         /* Enable the clock. */
 206:.\Generated_Source\PSoC5/LIN_1_UART.c ****         LIN_1_UART_IntClock_Start();
 207:.\Generated_Source\PSoC5/LIN_1_UART.c ****     #endif /* End LIN_1_UART_INTERNAL_CLOCK_USED */
 208:.\Generated_Source\PSoC5/LIN_1_UART.c **** 
 209:.\Generated_Source\PSoC5/LIN_1_UART.c ****     CyExitCriticalSection(enableInterrupts);
 180              		.loc 1 209 0
 181 007e FB79     		ldrb	r3, [r7, #7]	@ zero_extendqisi2
 182 0080 1846     		mov	r0, r3
 183 0082 FFF7FEFF 		bl	CyExitCriticalSection
 210:.\Generated_Source\PSoC5/LIN_1_UART.c **** }
 184              		.loc 1 210 0
 185 0086 07F10807 		add	r7, r7, #8
 186 008a BD46     		mov	sp, r7
 187 008c 80BD     		pop	{r7, pc}
 188              		.cfi_endproc
 189              	.LFE2:
ARM GAS  C:\Users\MATSUD~1\AppData\Local\Temp\ccwDh0Hw.s 			page 8


 190              		.size	LIN_1_UART_Enable, .-LIN_1_UART_Enable
 191 008e 00BF     		.section	.text.LIN_1_UART_Stop,"ax",%progbits
 192              		.align	2
 193              		.global	LIN_1_UART_Stop
 194              		.thumb
 195              		.thumb_func
 196              		.type	LIN_1_UART_Stop, %function
 197              	LIN_1_UART_Stop:
 198              	.LFB3:
 211:.\Generated_Source\PSoC5/LIN_1_UART.c **** 
 212:.\Generated_Source\PSoC5/LIN_1_UART.c **** 
 213:.\Generated_Source\PSoC5/LIN_1_UART.c **** /*******************************************************************************
 214:.\Generated_Source\PSoC5/LIN_1_UART.c **** * Function Name: LIN_1_UART_Stop
 215:.\Generated_Source\PSoC5/LIN_1_UART.c **** ********************************************************************************
 216:.\Generated_Source\PSoC5/LIN_1_UART.c **** *
 217:.\Generated_Source\PSoC5/LIN_1_UART.c **** * Summary:
 218:.\Generated_Source\PSoC5/LIN_1_UART.c **** *  Disable the UART component
 219:.\Generated_Source\PSoC5/LIN_1_UART.c **** *
 220:.\Generated_Source\PSoC5/LIN_1_UART.c **** * Parameters:
 221:.\Generated_Source\PSoC5/LIN_1_UART.c **** *  None.
 222:.\Generated_Source\PSoC5/LIN_1_UART.c **** *
 223:.\Generated_Source\PSoC5/LIN_1_UART.c **** * Return:
 224:.\Generated_Source\PSoC5/LIN_1_UART.c **** *  None.
 225:.\Generated_Source\PSoC5/LIN_1_UART.c **** *
 226:.\Generated_Source\PSoC5/LIN_1_UART.c **** *******************************************************************************/
 227:.\Generated_Source\PSoC5/LIN_1_UART.c **** void LIN_1_UART_Stop(void) 
 228:.\Generated_Source\PSoC5/LIN_1_UART.c **** {
 199              		.loc 1 228 0
 200              		.cfi_startproc
 201              		@ args = 0, pretend = 0, frame = 8
 202              		@ frame_needed = 1, uses_anonymous_args = 0
 203 0000 80B5     		push	{r7, lr}
 204              	.LCFI7:
 205              		.cfi_def_cfa_offset 8
 206              		.cfi_offset 7, -8
 207              		.cfi_offset 14, -4
 208 0002 82B0     		sub	sp, sp, #8
 209              	.LCFI8:
 210              		.cfi_def_cfa_offset 16
 211 0004 00AF     		add	r7, sp, #0
 212              	.LCFI9:
 213              		.cfi_def_cfa_register 7
 229:.\Generated_Source\PSoC5/LIN_1_UART.c ****     uint8 enableInterrupts;
 230:.\Generated_Source\PSoC5/LIN_1_UART.c ****     enableInterrupts = CyEnterCriticalSection();
 214              		.loc 1 230 0
 215 0006 FFF7FEFF 		bl	CyEnterCriticalSection
 216 000a 0346     		mov	r3, r0
 217 000c FB71     		strb	r3, [r7, #7]
 231:.\Generated_Source\PSoC5/LIN_1_UART.c **** 
 232:.\Generated_Source\PSoC5/LIN_1_UART.c ****     /* Write Bit Counter Disable */
 233:.\Generated_Source\PSoC5/LIN_1_UART.c ****     #if(LIN_1_UART_RX_ENABLED || LIN_1_UART_HD_ENABLED)
 234:.\Generated_Source\PSoC5/LIN_1_UART.c ****         LIN_1_UART_RXBITCTR_CONTROL_REG &= (uint8)~LIN_1_UART_CNTR_ENABLE;
 218              		.loc 1 234 0
 219 000e 46F29453 		movw	r3, #26004
 220 0012 C4F20003 		movt	r3, 16384
 221 0016 46F29452 		movw	r2, #26004
 222 001a C4F20002 		movt	r2, 16384
ARM GAS  C:\Users\MATSUD~1\AppData\Local\Temp\ccwDh0Hw.s 			page 9


 223 001e 1278     		ldrb	r2, [r2, #0]
 224 0020 D2B2     		uxtb	r2, r2
 225 0022 22F02002 		bic	r2, r2, #32
 226 0026 D2B2     		uxtb	r2, r2
 227 0028 1A70     		strb	r2, [r3, #0]
 235:.\Generated_Source\PSoC5/LIN_1_UART.c ****     #endif /* End LIN_1_UART_RX_ENABLED */
 236:.\Generated_Source\PSoC5/LIN_1_UART.c **** 
 237:.\Generated_Source\PSoC5/LIN_1_UART.c ****     #if(LIN_1_UART_TX_ENABLED)
 238:.\Generated_Source\PSoC5/LIN_1_UART.c ****         #if(!LIN_1_UART_TXCLKGEN_DP)
 239:.\Generated_Source\PSoC5/LIN_1_UART.c ****             LIN_1_UART_TXBITCTR_CONTROL_REG &= (uint8)~LIN_1_UART_CNTR_ENABLE;
 228              		.loc 1 239 0
 229 002a 46F29343 		movw	r3, #25747
 230 002e C4F20003 		movt	r3, 16384
 231 0032 46F29342 		movw	r2, #25747
 232 0036 C4F20002 		movt	r2, 16384
 233 003a 1278     		ldrb	r2, [r2, #0]
 234 003c D2B2     		uxtb	r2, r2
 235 003e 22F02002 		bic	r2, r2, #32
 236 0042 D2B2     		uxtb	r2, r2
 237 0044 1A70     		strb	r2, [r3, #0]
 240:.\Generated_Source\PSoC5/LIN_1_UART.c ****         #endif /* End LIN_1_UART_TXCLKGEN_DP */
 241:.\Generated_Source\PSoC5/LIN_1_UART.c ****     #endif /* LIN_1_UART_TX_ENABLED */
 242:.\Generated_Source\PSoC5/LIN_1_UART.c **** 
 243:.\Generated_Source\PSoC5/LIN_1_UART.c ****     #if(LIN_1_UART_INTERNAL_CLOCK_USED)
 244:.\Generated_Source\PSoC5/LIN_1_UART.c ****         /* Disable the clock. */
 245:.\Generated_Source\PSoC5/LIN_1_UART.c ****         LIN_1_UART_IntClock_Stop();
 246:.\Generated_Source\PSoC5/LIN_1_UART.c ****     #endif /* End LIN_1_UART_INTERNAL_CLOCK_USED */
 247:.\Generated_Source\PSoC5/LIN_1_UART.c **** 
 248:.\Generated_Source\PSoC5/LIN_1_UART.c ****     /* Disable internal interrupt component */
 249:.\Generated_Source\PSoC5/LIN_1_UART.c ****     #if(LIN_1_UART_RX_ENABLED || LIN_1_UART_HD_ENABLED)
 250:.\Generated_Source\PSoC5/LIN_1_UART.c ****         LIN_1_UART_RXSTATUS_ACTL_REG  &= (uint8)~LIN_1_UART_INT_ENABLE;
 238              		.loc 1 250 0
 239 0046 46F29753 		movw	r3, #26007
 240 004a C4F20003 		movt	r3, 16384
 241 004e 46F29752 		movw	r2, #26007
 242 0052 C4F20002 		movt	r2, 16384
 243 0056 1278     		ldrb	r2, [r2, #0]
 244 0058 D2B2     		uxtb	r2, r2
 245 005a 22F01002 		bic	r2, r2, #16
 246 005e D2B2     		uxtb	r2, r2
 247 0060 1A70     		strb	r2, [r3, #0]
 251:.\Generated_Source\PSoC5/LIN_1_UART.c ****         #if(LIN_1_UART_RX_INTERRUPT_ENABLED && (LIN_1_UART_RXBUFFERSIZE > LIN_1_UART_FIFO_LENGTH))
 252:.\Generated_Source\PSoC5/LIN_1_UART.c ****             LIN_1_UART_DisableRxInt();
 253:.\Generated_Source\PSoC5/LIN_1_UART.c ****         #endif /* End LIN_1_UART_RX_INTERRUPT_ENABLED */
 254:.\Generated_Source\PSoC5/LIN_1_UART.c ****     #endif /* End LIN_1_UART_RX_ENABLED */
 255:.\Generated_Source\PSoC5/LIN_1_UART.c **** 
 256:.\Generated_Source\PSoC5/LIN_1_UART.c ****     #if(LIN_1_UART_TX_ENABLED)
 257:.\Generated_Source\PSoC5/LIN_1_UART.c ****         LIN_1_UART_TXSTATUS_ACTL_REG &= (uint8)~LIN_1_UART_INT_ENABLE;
 248              		.loc 1 257 0
 249 0062 46F29743 		movw	r3, #25751
 250 0066 C4F20003 		movt	r3, 16384
 251 006a 46F29742 		movw	r2, #25751
 252 006e C4F20002 		movt	r2, 16384
 253 0072 1278     		ldrb	r2, [r2, #0]
 254 0074 D2B2     		uxtb	r2, r2
 255 0076 22F01002 		bic	r2, r2, #16
 256 007a D2B2     		uxtb	r2, r2
ARM GAS  C:\Users\MATSUD~1\AppData\Local\Temp\ccwDh0Hw.s 			page 10


 257 007c 1A70     		strb	r2, [r3, #0]
 258:.\Generated_Source\PSoC5/LIN_1_UART.c ****         #if(LIN_1_UART_TX_INTERRUPT_ENABLED && (LIN_1_UART_TXBUFFERSIZE > LIN_1_UART_FIFO_LENGTH))
 259:.\Generated_Source\PSoC5/LIN_1_UART.c ****             LIN_1_UART_DisableTxInt();
 260:.\Generated_Source\PSoC5/LIN_1_UART.c ****         #endif /* End LIN_1_UART_TX_INTERRUPT_ENABLED */
 261:.\Generated_Source\PSoC5/LIN_1_UART.c ****     #endif /* End LIN_1_UART_TX_ENABLED */
 262:.\Generated_Source\PSoC5/LIN_1_UART.c **** 
 263:.\Generated_Source\PSoC5/LIN_1_UART.c ****     CyExitCriticalSection(enableInterrupts);
 258              		.loc 1 263 0
 259 007e FB79     		ldrb	r3, [r7, #7]	@ zero_extendqisi2
 260 0080 1846     		mov	r0, r3
 261 0082 FFF7FEFF 		bl	CyExitCriticalSection
 264:.\Generated_Source\PSoC5/LIN_1_UART.c **** }
 262              		.loc 1 264 0
 263 0086 07F10807 		add	r7, r7, #8
 264 008a BD46     		mov	sp, r7
 265 008c 80BD     		pop	{r7, pc}
 266              		.cfi_endproc
 267              	.LFE3:
 268              		.size	LIN_1_UART_Stop, .-LIN_1_UART_Stop
 269 008e 00BF     		.section	.text.LIN_1_UART_ReadControlRegister,"ax",%progbits
 270              		.align	2
 271              		.global	LIN_1_UART_ReadControlRegister
 272              		.thumb
 273              		.thumb_func
 274              		.type	LIN_1_UART_ReadControlRegister, %function
 275              	LIN_1_UART_ReadControlRegister:
 276              	.LFB4:
 265:.\Generated_Source\PSoC5/LIN_1_UART.c **** 
 266:.\Generated_Source\PSoC5/LIN_1_UART.c **** 
 267:.\Generated_Source\PSoC5/LIN_1_UART.c **** /*******************************************************************************
 268:.\Generated_Source\PSoC5/LIN_1_UART.c **** * Function Name: LIN_1_UART_ReadControlRegister
 269:.\Generated_Source\PSoC5/LIN_1_UART.c **** ********************************************************************************
 270:.\Generated_Source\PSoC5/LIN_1_UART.c **** *
 271:.\Generated_Source\PSoC5/LIN_1_UART.c **** * Summary:
 272:.\Generated_Source\PSoC5/LIN_1_UART.c **** *  Read the current state of the control register
 273:.\Generated_Source\PSoC5/LIN_1_UART.c **** *
 274:.\Generated_Source\PSoC5/LIN_1_UART.c **** * Parameters:
 275:.\Generated_Source\PSoC5/LIN_1_UART.c **** *  None.
 276:.\Generated_Source\PSoC5/LIN_1_UART.c **** *
 277:.\Generated_Source\PSoC5/LIN_1_UART.c **** * Return:
 278:.\Generated_Source\PSoC5/LIN_1_UART.c **** *  Current state of the control register.
 279:.\Generated_Source\PSoC5/LIN_1_UART.c **** *
 280:.\Generated_Source\PSoC5/LIN_1_UART.c **** *******************************************************************************/
 281:.\Generated_Source\PSoC5/LIN_1_UART.c **** uint8 LIN_1_UART_ReadControlRegister(void) 
 282:.\Generated_Source\PSoC5/LIN_1_UART.c **** {
 277              		.loc 1 282 0
 278              		.cfi_startproc
 279              		@ args = 0, pretend = 0, frame = 0
 280              		@ frame_needed = 1, uses_anonymous_args = 0
 281              		@ link register save eliminated.
 282 0000 80B4     		push	{r7}
 283              	.LCFI10:
 284              		.cfi_def_cfa_offset 4
 285              		.cfi_offset 7, -4
 286 0002 00AF     		add	r7, sp, #0
 287              	.LCFI11:
 288              		.cfi_def_cfa_register 7
ARM GAS  C:\Users\MATSUD~1\AppData\Local\Temp\ccwDh0Hw.s 			page 11


 283:.\Generated_Source\PSoC5/LIN_1_UART.c ****     #if( LIN_1_UART_CONTROL_REG_REMOVED )
 284:.\Generated_Source\PSoC5/LIN_1_UART.c ****         return(0u);
 289              		.loc 1 284 0
 290 0004 4FF00003 		mov	r3, #0
 285:.\Generated_Source\PSoC5/LIN_1_UART.c ****     #else
 286:.\Generated_Source\PSoC5/LIN_1_UART.c ****         return(LIN_1_UART_CONTROL_REG);
 287:.\Generated_Source\PSoC5/LIN_1_UART.c ****     #endif /* End LIN_1_UART_CONTROL_REG_REMOVED */
 288:.\Generated_Source\PSoC5/LIN_1_UART.c **** }
 291              		.loc 1 288 0
 292 0008 1846     		mov	r0, r3
 293 000a BD46     		mov	sp, r7
 294 000c 80BC     		pop	{r7}
 295 000e 7047     		bx	lr
 296              		.cfi_endproc
 297              	.LFE4:
 298              		.size	LIN_1_UART_ReadControlRegister, .-LIN_1_UART_ReadControlRegister
 299              		.section	.text.LIN_1_UART_WriteControlRegister,"ax",%progbits
 300              		.align	2
 301              		.global	LIN_1_UART_WriteControlRegister
 302              		.thumb
 303              		.thumb_func
 304              		.type	LIN_1_UART_WriteControlRegister, %function
 305              	LIN_1_UART_WriteControlRegister:
 306              	.LFB5:
 289:.\Generated_Source\PSoC5/LIN_1_UART.c **** 
 290:.\Generated_Source\PSoC5/LIN_1_UART.c **** 
 291:.\Generated_Source\PSoC5/LIN_1_UART.c **** /*******************************************************************************
 292:.\Generated_Source\PSoC5/LIN_1_UART.c **** * Function Name: LIN_1_UART_WriteControlRegister
 293:.\Generated_Source\PSoC5/LIN_1_UART.c **** ********************************************************************************
 294:.\Generated_Source\PSoC5/LIN_1_UART.c **** *
 295:.\Generated_Source\PSoC5/LIN_1_UART.c **** * Summary:
 296:.\Generated_Source\PSoC5/LIN_1_UART.c **** *  Writes an 8-bit value into the control register
 297:.\Generated_Source\PSoC5/LIN_1_UART.c **** *
 298:.\Generated_Source\PSoC5/LIN_1_UART.c **** * Parameters:
 299:.\Generated_Source\PSoC5/LIN_1_UART.c **** *  control:  control register value
 300:.\Generated_Source\PSoC5/LIN_1_UART.c **** *
 301:.\Generated_Source\PSoC5/LIN_1_UART.c **** * Return:
 302:.\Generated_Source\PSoC5/LIN_1_UART.c **** *  None.
 303:.\Generated_Source\PSoC5/LIN_1_UART.c **** *
 304:.\Generated_Source\PSoC5/LIN_1_UART.c **** *******************************************************************************/
 305:.\Generated_Source\PSoC5/LIN_1_UART.c **** void  LIN_1_UART_WriteControlRegister(uint8 control) 
 306:.\Generated_Source\PSoC5/LIN_1_UART.c **** {
 307              		.loc 1 306 0
 308              		.cfi_startproc
 309              		@ args = 0, pretend = 0, frame = 8
 310              		@ frame_needed = 1, uses_anonymous_args = 0
 311              		@ link register save eliminated.
 312 0000 80B4     		push	{r7}
 313              	.LCFI12:
 314              		.cfi_def_cfa_offset 4
 315              		.cfi_offset 7, -4
 316 0002 83B0     		sub	sp, sp, #12
 317              	.LCFI13:
 318              		.cfi_def_cfa_offset 16
 319 0004 00AF     		add	r7, sp, #0
 320              	.LCFI14:
 321              		.cfi_def_cfa_register 7
ARM GAS  C:\Users\MATSUD~1\AppData\Local\Temp\ccwDh0Hw.s 			page 12


 322 0006 0346     		mov	r3, r0
 323 0008 FB71     		strb	r3, [r7, #7]
 307:.\Generated_Source\PSoC5/LIN_1_UART.c ****     #if( LIN_1_UART_CONTROL_REG_REMOVED )
 308:.\Generated_Source\PSoC5/LIN_1_UART.c ****         if(control != 0u) { }      /* release compiler warning */
 309:.\Generated_Source\PSoC5/LIN_1_UART.c ****     #else
 310:.\Generated_Source\PSoC5/LIN_1_UART.c ****        LIN_1_UART_CONTROL_REG = control;
 311:.\Generated_Source\PSoC5/LIN_1_UART.c ****     #endif /* End LIN_1_UART_CONTROL_REG_REMOVED */
 312:.\Generated_Source\PSoC5/LIN_1_UART.c **** }
 324              		.loc 1 312 0
 325 000a 07F10C07 		add	r7, r7, #12
 326 000e BD46     		mov	sp, r7
 327 0010 80BC     		pop	{r7}
 328 0012 7047     		bx	lr
 329              		.cfi_endproc
 330              	.LFE5:
 331              		.size	LIN_1_UART_WriteControlRegister, .-LIN_1_UART_WriteControlRegister
 332              		.section	.text.LIN_1_UART_SetRxInterruptMode,"ax",%progbits
 333              		.align	2
 334              		.global	LIN_1_UART_SetRxInterruptMode
 335              		.thumb
 336              		.thumb_func
 337              		.type	LIN_1_UART_SetRxInterruptMode, %function
 338              	LIN_1_UART_SetRxInterruptMode:
 339              	.LFB6:
 313:.\Generated_Source\PSoC5/LIN_1_UART.c **** 
 314:.\Generated_Source\PSoC5/LIN_1_UART.c **** 
 315:.\Generated_Source\PSoC5/LIN_1_UART.c **** #if(LIN_1_UART_RX_ENABLED || LIN_1_UART_HD_ENABLED)
 316:.\Generated_Source\PSoC5/LIN_1_UART.c **** 
 317:.\Generated_Source\PSoC5/LIN_1_UART.c ****     #if(LIN_1_UART_RX_INTERRUPT_ENABLED)
 318:.\Generated_Source\PSoC5/LIN_1_UART.c **** 
 319:.\Generated_Source\PSoC5/LIN_1_UART.c ****         /*******************************************************************************
 320:.\Generated_Source\PSoC5/LIN_1_UART.c ****         * Function Name: LIN_1_UART_EnableRxInt
 321:.\Generated_Source\PSoC5/LIN_1_UART.c ****         ********************************************************************************
 322:.\Generated_Source\PSoC5/LIN_1_UART.c ****         *
 323:.\Generated_Source\PSoC5/LIN_1_UART.c ****         * Summary:
 324:.\Generated_Source\PSoC5/LIN_1_UART.c ****         *  Enable RX interrupt generation
 325:.\Generated_Source\PSoC5/LIN_1_UART.c ****         *
 326:.\Generated_Source\PSoC5/LIN_1_UART.c ****         * Parameters:
 327:.\Generated_Source\PSoC5/LIN_1_UART.c ****         *  None.
 328:.\Generated_Source\PSoC5/LIN_1_UART.c ****         *
 329:.\Generated_Source\PSoC5/LIN_1_UART.c ****         * Return:
 330:.\Generated_Source\PSoC5/LIN_1_UART.c ****         *  None.
 331:.\Generated_Source\PSoC5/LIN_1_UART.c ****         *
 332:.\Generated_Source\PSoC5/LIN_1_UART.c ****         * Theory:
 333:.\Generated_Source\PSoC5/LIN_1_UART.c ****         *  Enable the interrupt output -or- the interrupt component itself
 334:.\Generated_Source\PSoC5/LIN_1_UART.c ****         *
 335:.\Generated_Source\PSoC5/LIN_1_UART.c ****         *******************************************************************************/
 336:.\Generated_Source\PSoC5/LIN_1_UART.c ****         void LIN_1_UART_EnableRxInt(void) 
 337:.\Generated_Source\PSoC5/LIN_1_UART.c ****         {
 338:.\Generated_Source\PSoC5/LIN_1_UART.c ****             CyIntEnable(LIN_1_UART_RX_VECT_NUM);
 339:.\Generated_Source\PSoC5/LIN_1_UART.c ****         }
 340:.\Generated_Source\PSoC5/LIN_1_UART.c **** 
 341:.\Generated_Source\PSoC5/LIN_1_UART.c **** 
 342:.\Generated_Source\PSoC5/LIN_1_UART.c ****         /*******************************************************************************
 343:.\Generated_Source\PSoC5/LIN_1_UART.c ****         * Function Name: LIN_1_UART_DisableRxInt
 344:.\Generated_Source\PSoC5/LIN_1_UART.c ****         ********************************************************************************
 345:.\Generated_Source\PSoC5/LIN_1_UART.c ****         *
ARM GAS  C:\Users\MATSUD~1\AppData\Local\Temp\ccwDh0Hw.s 			page 13


 346:.\Generated_Source\PSoC5/LIN_1_UART.c ****         * Summary:
 347:.\Generated_Source\PSoC5/LIN_1_UART.c ****         *  Disable RX interrupt generation
 348:.\Generated_Source\PSoC5/LIN_1_UART.c ****         *
 349:.\Generated_Source\PSoC5/LIN_1_UART.c ****         * Parameters:
 350:.\Generated_Source\PSoC5/LIN_1_UART.c ****         *  None.
 351:.\Generated_Source\PSoC5/LIN_1_UART.c ****         *
 352:.\Generated_Source\PSoC5/LIN_1_UART.c ****         * Return:
 353:.\Generated_Source\PSoC5/LIN_1_UART.c ****         *  None.
 354:.\Generated_Source\PSoC5/LIN_1_UART.c ****         *
 355:.\Generated_Source\PSoC5/LIN_1_UART.c ****         * Theory:
 356:.\Generated_Source\PSoC5/LIN_1_UART.c ****         *  Disable the interrupt output -or- the interrupt component itself
 357:.\Generated_Source\PSoC5/LIN_1_UART.c ****         *
 358:.\Generated_Source\PSoC5/LIN_1_UART.c ****         *******************************************************************************/
 359:.\Generated_Source\PSoC5/LIN_1_UART.c ****         void LIN_1_UART_DisableRxInt(void) 
 360:.\Generated_Source\PSoC5/LIN_1_UART.c ****         {
 361:.\Generated_Source\PSoC5/LIN_1_UART.c ****             CyIntDisable(LIN_1_UART_RX_VECT_NUM);
 362:.\Generated_Source\PSoC5/LIN_1_UART.c ****         }
 363:.\Generated_Source\PSoC5/LIN_1_UART.c **** 
 364:.\Generated_Source\PSoC5/LIN_1_UART.c ****     #endif /* LIN_1_UART_RX_INTERRUPT_ENABLED */
 365:.\Generated_Source\PSoC5/LIN_1_UART.c **** 
 366:.\Generated_Source\PSoC5/LIN_1_UART.c **** 
 367:.\Generated_Source\PSoC5/LIN_1_UART.c ****     /*******************************************************************************
 368:.\Generated_Source\PSoC5/LIN_1_UART.c ****     * Function Name: LIN_1_UART_SetRxInterruptMode
 369:.\Generated_Source\PSoC5/LIN_1_UART.c ****     ********************************************************************************
 370:.\Generated_Source\PSoC5/LIN_1_UART.c ****     *
 371:.\Generated_Source\PSoC5/LIN_1_UART.c ****     * Summary:
 372:.\Generated_Source\PSoC5/LIN_1_UART.c ****     *  Configure which status bits trigger an interrupt event
 373:.\Generated_Source\PSoC5/LIN_1_UART.c ****     *
 374:.\Generated_Source\PSoC5/LIN_1_UART.c ****     * Parameters:
 375:.\Generated_Source\PSoC5/LIN_1_UART.c ****     *  IntSrc:  An or'd combination of the desired status bit masks (defined in
 376:.\Generated_Source\PSoC5/LIN_1_UART.c ****     *           the header file)
 377:.\Generated_Source\PSoC5/LIN_1_UART.c ****     *
 378:.\Generated_Source\PSoC5/LIN_1_UART.c ****     * Return:
 379:.\Generated_Source\PSoC5/LIN_1_UART.c ****     *  None.
 380:.\Generated_Source\PSoC5/LIN_1_UART.c ****     *
 381:.\Generated_Source\PSoC5/LIN_1_UART.c ****     * Theory:
 382:.\Generated_Source\PSoC5/LIN_1_UART.c ****     *  Enables the output of specific status bits to the interrupt controller
 383:.\Generated_Source\PSoC5/LIN_1_UART.c ****     *
 384:.\Generated_Source\PSoC5/LIN_1_UART.c ****     *******************************************************************************/
 385:.\Generated_Source\PSoC5/LIN_1_UART.c ****     void LIN_1_UART_SetRxInterruptMode(uint8 intSrc) 
 386:.\Generated_Source\PSoC5/LIN_1_UART.c ****     {
 340              		.loc 1 386 0
 341              		.cfi_startproc
 342              		@ args = 0, pretend = 0, frame = 8
 343              		@ frame_needed = 1, uses_anonymous_args = 0
 344              		@ link register save eliminated.
 345 0000 80B4     		push	{r7}
 346              	.LCFI15:
 347              		.cfi_def_cfa_offset 4
 348              		.cfi_offset 7, -4
 349 0002 83B0     		sub	sp, sp, #12
 350              	.LCFI16:
 351              		.cfi_def_cfa_offset 16
 352 0004 00AF     		add	r7, sp, #0
 353              	.LCFI17:
 354              		.cfi_def_cfa_register 7
 355 0006 0346     		mov	r3, r0
ARM GAS  C:\Users\MATSUD~1\AppData\Local\Temp\ccwDh0Hw.s 			page 14


 356 0008 FB71     		strb	r3, [r7, #7]
 387:.\Generated_Source\PSoC5/LIN_1_UART.c ****         LIN_1_UART_RXSTATUS_MASK_REG  = intSrc;
 357              		.loc 1 387 0
 358 000a 46F28753 		movw	r3, #25991
 359 000e C4F20003 		movt	r3, 16384
 360 0012 FA79     		ldrb	r2, [r7, #7]
 361 0014 1A70     		strb	r2, [r3, #0]
 388:.\Generated_Source\PSoC5/LIN_1_UART.c ****     }
 362              		.loc 1 388 0
 363 0016 07F10C07 		add	r7, r7, #12
 364 001a BD46     		mov	sp, r7
 365 001c 80BC     		pop	{r7}
 366 001e 7047     		bx	lr
 367              		.cfi_endproc
 368              	.LFE6:
 369              		.size	LIN_1_UART_SetRxInterruptMode, .-LIN_1_UART_SetRxInterruptMode
 370              		.section	.text.LIN_1_UART_ReadRxData,"ax",%progbits
 371              		.align	2
 372              		.global	LIN_1_UART_ReadRxData
 373              		.thumb
 374              		.thumb_func
 375              		.type	LIN_1_UART_ReadRxData, %function
 376              	LIN_1_UART_ReadRxData:
 377              	.LFB7:
 389:.\Generated_Source\PSoC5/LIN_1_UART.c **** 
 390:.\Generated_Source\PSoC5/LIN_1_UART.c **** 
 391:.\Generated_Source\PSoC5/LIN_1_UART.c ****     /*******************************************************************************
 392:.\Generated_Source\PSoC5/LIN_1_UART.c ****     * Function Name: LIN_1_UART_ReadRxData
 393:.\Generated_Source\PSoC5/LIN_1_UART.c ****     ********************************************************************************
 394:.\Generated_Source\PSoC5/LIN_1_UART.c ****     *
 395:.\Generated_Source\PSoC5/LIN_1_UART.c ****     * Summary:
 396:.\Generated_Source\PSoC5/LIN_1_UART.c ****     *  Returns data in RX Data register without checking status register to
 397:.\Generated_Source\PSoC5/LIN_1_UART.c ****     *  determine if data is valid
 398:.\Generated_Source\PSoC5/LIN_1_UART.c ****     *
 399:.\Generated_Source\PSoC5/LIN_1_UART.c ****     * Parameters:
 400:.\Generated_Source\PSoC5/LIN_1_UART.c ****     *  None.
 401:.\Generated_Source\PSoC5/LIN_1_UART.c ****     *
 402:.\Generated_Source\PSoC5/LIN_1_UART.c ****     * Return:
 403:.\Generated_Source\PSoC5/LIN_1_UART.c ****     *  Received data from RX register
 404:.\Generated_Source\PSoC5/LIN_1_UART.c ****     *
 405:.\Generated_Source\PSoC5/LIN_1_UART.c ****     * Global Variables:
 406:.\Generated_Source\PSoC5/LIN_1_UART.c ****     *  LIN_1_UART_rxBuffer - RAM buffer pointer for save received data.
 407:.\Generated_Source\PSoC5/LIN_1_UART.c ****     *  LIN_1_UART_rxBufferWrite - cyclic index for write to rxBuffer,
 408:.\Generated_Source\PSoC5/LIN_1_UART.c ****     *     checked to identify new data.
 409:.\Generated_Source\PSoC5/LIN_1_UART.c ****     *  LIN_1_UART_rxBufferRead - cyclic index for read from rxBuffer,
 410:.\Generated_Source\PSoC5/LIN_1_UART.c ****     *     incremented after each byte has been read from buffer.
 411:.\Generated_Source\PSoC5/LIN_1_UART.c ****     *  LIN_1_UART_rxBufferLoopDetect - creared if loop condition was detected
 412:.\Generated_Source\PSoC5/LIN_1_UART.c ****     *     in RX ISR.
 413:.\Generated_Source\PSoC5/LIN_1_UART.c ****     *
 414:.\Generated_Source\PSoC5/LIN_1_UART.c ****     * Reentrant:
 415:.\Generated_Source\PSoC5/LIN_1_UART.c ****     *  No.
 416:.\Generated_Source\PSoC5/LIN_1_UART.c ****     *
 417:.\Generated_Source\PSoC5/LIN_1_UART.c ****     *******************************************************************************/
 418:.\Generated_Source\PSoC5/LIN_1_UART.c ****     uint8 LIN_1_UART_ReadRxData(void) 
 419:.\Generated_Source\PSoC5/LIN_1_UART.c ****     {
 378              		.loc 1 419 0
 379              		.cfi_startproc
ARM GAS  C:\Users\MATSUD~1\AppData\Local\Temp\ccwDh0Hw.s 			page 15


 380              		@ args = 0, pretend = 0, frame = 8
 381              		@ frame_needed = 1, uses_anonymous_args = 0
 382              		@ link register save eliminated.
 383 0000 80B4     		push	{r7}
 384              	.LCFI18:
 385              		.cfi_def_cfa_offset 4
 386              		.cfi_offset 7, -4
 387 0002 83B0     		sub	sp, sp, #12
 388              	.LCFI19:
 389              		.cfi_def_cfa_offset 16
 390 0004 00AF     		add	r7, sp, #0
 391              	.LCFI20:
 392              		.cfi_def_cfa_register 7
 420:.\Generated_Source\PSoC5/LIN_1_UART.c ****         uint8 rxData;
 421:.\Generated_Source\PSoC5/LIN_1_UART.c **** 
 422:.\Generated_Source\PSoC5/LIN_1_UART.c ****         #if(LIN_1_UART_RXBUFFERSIZE > LIN_1_UART_FIFO_LENGTH)
 423:.\Generated_Source\PSoC5/LIN_1_UART.c ****             uint8 loc_rxBufferRead;
 424:.\Generated_Source\PSoC5/LIN_1_UART.c ****             uint8 loc_rxBufferWrite;
 425:.\Generated_Source\PSoC5/LIN_1_UART.c ****             /* Protect variables that could change on interrupt. */
 426:.\Generated_Source\PSoC5/LIN_1_UART.c ****             /* Disable Rx interrupt. */
 427:.\Generated_Source\PSoC5/LIN_1_UART.c ****             #if(LIN_1_UART_RX_INTERRUPT_ENABLED)
 428:.\Generated_Source\PSoC5/LIN_1_UART.c ****                 LIN_1_UART_DisableRxInt();
 429:.\Generated_Source\PSoC5/LIN_1_UART.c ****             #endif /* LIN_1_UART_RX_INTERRUPT_ENABLED */
 430:.\Generated_Source\PSoC5/LIN_1_UART.c ****             loc_rxBufferRead = LIN_1_UART_rxBufferRead;
 431:.\Generated_Source\PSoC5/LIN_1_UART.c ****             loc_rxBufferWrite = LIN_1_UART_rxBufferWrite;
 432:.\Generated_Source\PSoC5/LIN_1_UART.c **** 
 433:.\Generated_Source\PSoC5/LIN_1_UART.c ****             if( (LIN_1_UART_rxBufferLoopDetect != 0u) || (loc_rxBufferRead != loc_rxBufferWrite) )
 434:.\Generated_Source\PSoC5/LIN_1_UART.c ****             {
 435:.\Generated_Source\PSoC5/LIN_1_UART.c ****                 rxData = LIN_1_UART_rxBuffer[loc_rxBufferRead];
 436:.\Generated_Source\PSoC5/LIN_1_UART.c ****                 loc_rxBufferRead++;
 437:.\Generated_Source\PSoC5/LIN_1_UART.c **** 
 438:.\Generated_Source\PSoC5/LIN_1_UART.c ****                 if(loc_rxBufferRead >= LIN_1_UART_RXBUFFERSIZE)
 439:.\Generated_Source\PSoC5/LIN_1_UART.c ****                 {
 440:.\Generated_Source\PSoC5/LIN_1_UART.c ****                     loc_rxBufferRead = 0u;
 441:.\Generated_Source\PSoC5/LIN_1_UART.c ****                 }
 442:.\Generated_Source\PSoC5/LIN_1_UART.c ****                 /* Update the real pointer */
 443:.\Generated_Source\PSoC5/LIN_1_UART.c ****                 LIN_1_UART_rxBufferRead = loc_rxBufferRead;
 444:.\Generated_Source\PSoC5/LIN_1_UART.c **** 
 445:.\Generated_Source\PSoC5/LIN_1_UART.c ****                 if(LIN_1_UART_rxBufferLoopDetect != 0u )
 446:.\Generated_Source\PSoC5/LIN_1_UART.c ****                 {
 447:.\Generated_Source\PSoC5/LIN_1_UART.c ****                     LIN_1_UART_rxBufferLoopDetect = 0u;
 448:.\Generated_Source\PSoC5/LIN_1_UART.c ****                     #if( (LIN_1_UART_RX_INTERRUPT_ENABLED) && (LIN_1_UART_FLOW_CONTROL != 0u) && \
 449:.\Generated_Source\PSoC5/LIN_1_UART.c ****                          (LIN_1_UART_RXBUFFERSIZE > LIN_1_UART_FIFO_LENGTH) )
 450:.\Generated_Source\PSoC5/LIN_1_UART.c ****                         /* When Hardware Flow Control selected - return RX mask */
 451:.\Generated_Source\PSoC5/LIN_1_UART.c ****                         #if( LIN_1_UART_HD_ENABLED )
 452:.\Generated_Source\PSoC5/LIN_1_UART.c ****                             if((LIN_1_UART_CONTROL_REG & LIN_1_UART_CTRL_HD_SEND) == 0u)
 453:.\Generated_Source\PSoC5/LIN_1_UART.c ****                             {   /* In Half duplex mode return RX mask only in RX
 454:.\Generated_Source\PSoC5/LIN_1_UART.c ****                                 *  configuration set, otherwise
 455:.\Generated_Source\PSoC5/LIN_1_UART.c ****                                 *  mask will be returned in LoadRxConfig() API.
 456:.\Generated_Source\PSoC5/LIN_1_UART.c ****                                 */
 457:.\Generated_Source\PSoC5/LIN_1_UART.c ****                                 LIN_1_UART_RXSTATUS_MASK_REG  |= LIN_1_UART_RX_STS_FIFO_NOTEMPTY;
 458:.\Generated_Source\PSoC5/LIN_1_UART.c ****                             }
 459:.\Generated_Source\PSoC5/LIN_1_UART.c ****                         #else
 460:.\Generated_Source\PSoC5/LIN_1_UART.c ****                             LIN_1_UART_RXSTATUS_MASK_REG  |= LIN_1_UART_RX_STS_FIFO_NOTEMPTY;
 461:.\Generated_Source\PSoC5/LIN_1_UART.c ****                         #endif /* end LIN_1_UART_HD_ENABLED */
 462:.\Generated_Source\PSoC5/LIN_1_UART.c ****                     #endif /* LIN_1_UART_RX_INTERRUPT_ENABLED and Hardware flow control*/
 463:.\Generated_Source\PSoC5/LIN_1_UART.c ****                 }
ARM GAS  C:\Users\MATSUD~1\AppData\Local\Temp\ccwDh0Hw.s 			page 16


 464:.\Generated_Source\PSoC5/LIN_1_UART.c ****             }
 465:.\Generated_Source\PSoC5/LIN_1_UART.c ****             else
 466:.\Generated_Source\PSoC5/LIN_1_UART.c ****             {   /* Needs to check status for RX_STS_FIFO_NOTEMPTY bit*/
 467:.\Generated_Source\PSoC5/LIN_1_UART.c ****                 rxData = LIN_1_UART_RXDATA_REG;
 468:.\Generated_Source\PSoC5/LIN_1_UART.c ****             }
 469:.\Generated_Source\PSoC5/LIN_1_UART.c **** 
 470:.\Generated_Source\PSoC5/LIN_1_UART.c ****             /* Enable Rx interrupt. */
 471:.\Generated_Source\PSoC5/LIN_1_UART.c ****             #if(LIN_1_UART_RX_INTERRUPT_ENABLED)
 472:.\Generated_Source\PSoC5/LIN_1_UART.c ****                 LIN_1_UART_EnableRxInt();
 473:.\Generated_Source\PSoC5/LIN_1_UART.c ****             #endif /* End LIN_1_UART_RX_INTERRUPT_ENABLED */
 474:.\Generated_Source\PSoC5/LIN_1_UART.c **** 
 475:.\Generated_Source\PSoC5/LIN_1_UART.c ****         #else /* LIN_1_UART_RXBUFFERSIZE > LIN_1_UART_FIFO_LENGTH */
 476:.\Generated_Source\PSoC5/LIN_1_UART.c **** 
 477:.\Generated_Source\PSoC5/LIN_1_UART.c ****             /* Needs to check status for RX_STS_FIFO_NOTEMPTY bit*/
 478:.\Generated_Source\PSoC5/LIN_1_UART.c ****             rxData = LIN_1_UART_RXDATA_REG;
 393              		.loc 1 478 0
 394 0006 46F24453 		movw	r3, #25924
 395 000a C4F20003 		movt	r3, 16384
 396 000e 1B78     		ldrb	r3, [r3, #0]
 397 0010 FB71     		strb	r3, [r7, #7]
 479:.\Generated_Source\PSoC5/LIN_1_UART.c **** 
 480:.\Generated_Source\PSoC5/LIN_1_UART.c ****         #endif /* LIN_1_UART_RXBUFFERSIZE > LIN_1_UART_FIFO_LENGTH */
 481:.\Generated_Source\PSoC5/LIN_1_UART.c **** 
 482:.\Generated_Source\PSoC5/LIN_1_UART.c ****         return(rxData);
 398              		.loc 1 482 0
 399 0012 FB79     		ldrb	r3, [r7, #7]	@ zero_extendqisi2
 483:.\Generated_Source\PSoC5/LIN_1_UART.c ****     }
 400              		.loc 1 483 0
 401 0014 1846     		mov	r0, r3
 402 0016 07F10C07 		add	r7, r7, #12
 403 001a BD46     		mov	sp, r7
 404 001c 80BC     		pop	{r7}
 405 001e 7047     		bx	lr
 406              		.cfi_endproc
 407              	.LFE7:
 408              		.size	LIN_1_UART_ReadRxData, .-LIN_1_UART_ReadRxData
 409              		.section	.text.LIN_1_UART_ReadRxStatus,"ax",%progbits
 410              		.align	2
 411              		.global	LIN_1_UART_ReadRxStatus
 412              		.thumb
 413              		.thumb_func
 414              		.type	LIN_1_UART_ReadRxStatus, %function
 415              	LIN_1_UART_ReadRxStatus:
 416              	.LFB8:
 484:.\Generated_Source\PSoC5/LIN_1_UART.c **** 
 485:.\Generated_Source\PSoC5/LIN_1_UART.c **** 
 486:.\Generated_Source\PSoC5/LIN_1_UART.c ****     /*******************************************************************************
 487:.\Generated_Source\PSoC5/LIN_1_UART.c ****     * Function Name: LIN_1_UART_ReadRxStatus
 488:.\Generated_Source\PSoC5/LIN_1_UART.c ****     ********************************************************************************
 489:.\Generated_Source\PSoC5/LIN_1_UART.c ****     *
 490:.\Generated_Source\PSoC5/LIN_1_UART.c ****     * Summary:
 491:.\Generated_Source\PSoC5/LIN_1_UART.c ****     *  Read the current state of the status register
 492:.\Generated_Source\PSoC5/LIN_1_UART.c ****     *  And detect software buffer overflow.
 493:.\Generated_Source\PSoC5/LIN_1_UART.c ****     *
 494:.\Generated_Source\PSoC5/LIN_1_UART.c ****     * Parameters:
 495:.\Generated_Source\PSoC5/LIN_1_UART.c ****     *  None.
 496:.\Generated_Source\PSoC5/LIN_1_UART.c ****     *
ARM GAS  C:\Users\MATSUD~1\AppData\Local\Temp\ccwDh0Hw.s 			page 17


 497:.\Generated_Source\PSoC5/LIN_1_UART.c ****     * Return:
 498:.\Generated_Source\PSoC5/LIN_1_UART.c ****     *  Current state of the status register.
 499:.\Generated_Source\PSoC5/LIN_1_UART.c ****     *
 500:.\Generated_Source\PSoC5/LIN_1_UART.c ****     * Global Variables:
 501:.\Generated_Source\PSoC5/LIN_1_UART.c ****     *  LIN_1_UART_rxBufferOverflow - used to indicate overload condition.
 502:.\Generated_Source\PSoC5/LIN_1_UART.c ****     *   It set to one in RX interrupt when there isn?t free space in
 503:.\Generated_Source\PSoC5/LIN_1_UART.c ****     *   LIN_1_UART_rxBufferRead to write new data. This condition returned
 504:.\Generated_Source\PSoC5/LIN_1_UART.c ****     *   and cleared to zero by this API as an
 505:.\Generated_Source\PSoC5/LIN_1_UART.c ****     *   LIN_1_UART_RX_STS_SOFT_BUFF_OVER bit along with RX Status register
 506:.\Generated_Source\PSoC5/LIN_1_UART.c ****     *   bits.
 507:.\Generated_Source\PSoC5/LIN_1_UART.c ****     *
 508:.\Generated_Source\PSoC5/LIN_1_UART.c ****     *******************************************************************************/
 509:.\Generated_Source\PSoC5/LIN_1_UART.c ****     uint8 LIN_1_UART_ReadRxStatus(void) 
 510:.\Generated_Source\PSoC5/LIN_1_UART.c ****     {
 417              		.loc 1 510 0
 418              		.cfi_startproc
 419              		@ args = 0, pretend = 0, frame = 8
 420              		@ frame_needed = 1, uses_anonymous_args = 0
 421              		@ link register save eliminated.
 422 0000 80B4     		push	{r7}
 423              	.LCFI21:
 424              		.cfi_def_cfa_offset 4
 425              		.cfi_offset 7, -4
 426 0002 83B0     		sub	sp, sp, #12
 427              	.LCFI22:
 428              		.cfi_def_cfa_offset 16
 429 0004 00AF     		add	r7, sp, #0
 430              	.LCFI23:
 431              		.cfi_def_cfa_register 7
 511:.\Generated_Source\PSoC5/LIN_1_UART.c ****         uint8 status;
 512:.\Generated_Source\PSoC5/LIN_1_UART.c **** 
 513:.\Generated_Source\PSoC5/LIN_1_UART.c ****         status = LIN_1_UART_RXSTATUS_REG & LIN_1_UART_RX_HW_MASK;
 432              		.loc 1 513 0
 433 0006 46F26753 		movw	r3, #25959
 434 000a C4F20003 		movt	r3, 16384
 435 000e 1B78     		ldrb	r3, [r3, #0]
 436 0010 DBB2     		uxtb	r3, r3
 437 0012 03F07F03 		and	r3, r3, #127
 438 0016 FB71     		strb	r3, [r7, #7]
 514:.\Generated_Source\PSoC5/LIN_1_UART.c **** 
 515:.\Generated_Source\PSoC5/LIN_1_UART.c ****         #if(LIN_1_UART_RXBUFFERSIZE > LIN_1_UART_FIFO_LENGTH)
 516:.\Generated_Source\PSoC5/LIN_1_UART.c ****             if( LIN_1_UART_rxBufferOverflow != 0u )
 517:.\Generated_Source\PSoC5/LIN_1_UART.c ****             {
 518:.\Generated_Source\PSoC5/LIN_1_UART.c ****                 status |= LIN_1_UART_RX_STS_SOFT_BUFF_OVER;
 519:.\Generated_Source\PSoC5/LIN_1_UART.c ****                 LIN_1_UART_rxBufferOverflow = 0u;
 520:.\Generated_Source\PSoC5/LIN_1_UART.c ****             }
 521:.\Generated_Source\PSoC5/LIN_1_UART.c ****         #endif /* LIN_1_UART_RXBUFFERSIZE */
 522:.\Generated_Source\PSoC5/LIN_1_UART.c **** 
 523:.\Generated_Source\PSoC5/LIN_1_UART.c ****         return(status);
 439              		.loc 1 523 0
 440 0018 FB79     		ldrb	r3, [r7, #7]	@ zero_extendqisi2
 524:.\Generated_Source\PSoC5/LIN_1_UART.c ****     }
 441              		.loc 1 524 0
 442 001a 1846     		mov	r0, r3
 443 001c 07F10C07 		add	r7, r7, #12
 444 0020 BD46     		mov	sp, r7
 445 0022 80BC     		pop	{r7}
ARM GAS  C:\Users\MATSUD~1\AppData\Local\Temp\ccwDh0Hw.s 			page 18


 446 0024 7047     		bx	lr
 447              		.cfi_endproc
 448              	.LFE8:
 449              		.size	LIN_1_UART_ReadRxStatus, .-LIN_1_UART_ReadRxStatus
 450 0026 00BF     		.section	.text.LIN_1_UART_GetChar,"ax",%progbits
 451              		.align	2
 452              		.global	LIN_1_UART_GetChar
 453              		.thumb
 454              		.thumb_func
 455              		.type	LIN_1_UART_GetChar, %function
 456              	LIN_1_UART_GetChar:
 457              	.LFB9:
 525:.\Generated_Source\PSoC5/LIN_1_UART.c **** 
 526:.\Generated_Source\PSoC5/LIN_1_UART.c **** 
 527:.\Generated_Source\PSoC5/LIN_1_UART.c ****     /*******************************************************************************
 528:.\Generated_Source\PSoC5/LIN_1_UART.c ****     * Function Name: LIN_1_UART_GetChar
 529:.\Generated_Source\PSoC5/LIN_1_UART.c ****     ********************************************************************************
 530:.\Generated_Source\PSoC5/LIN_1_UART.c ****     *
 531:.\Generated_Source\PSoC5/LIN_1_UART.c ****     * Summary:
 532:.\Generated_Source\PSoC5/LIN_1_UART.c ****     *  Reads UART RX buffer immediately, if data is not available or an error
 533:.\Generated_Source\PSoC5/LIN_1_UART.c ****     *  condition exists, zero is returned; otherwise, character is read and
 534:.\Generated_Source\PSoC5/LIN_1_UART.c ****     *  returned.
 535:.\Generated_Source\PSoC5/LIN_1_UART.c ****     *
 536:.\Generated_Source\PSoC5/LIN_1_UART.c ****     * Parameters:
 537:.\Generated_Source\PSoC5/LIN_1_UART.c ****     *  None.
 538:.\Generated_Source\PSoC5/LIN_1_UART.c ****     *
 539:.\Generated_Source\PSoC5/LIN_1_UART.c ****     * Return:
 540:.\Generated_Source\PSoC5/LIN_1_UART.c ****     *  Character read from UART RX buffer. ASCII characters from 1 to 255 are valid.
 541:.\Generated_Source\PSoC5/LIN_1_UART.c ****     *  A returned zero signifies an error condition or no data available.
 542:.\Generated_Source\PSoC5/LIN_1_UART.c ****     *
 543:.\Generated_Source\PSoC5/LIN_1_UART.c ****     * Global Variables:
 544:.\Generated_Source\PSoC5/LIN_1_UART.c ****     *  LIN_1_UART_rxBuffer - RAM buffer pointer for save received data.
 545:.\Generated_Source\PSoC5/LIN_1_UART.c ****     *  LIN_1_UART_rxBufferWrite - cyclic index for write to rxBuffer,
 546:.\Generated_Source\PSoC5/LIN_1_UART.c ****     *     checked to identify new data.
 547:.\Generated_Source\PSoC5/LIN_1_UART.c ****     *  LIN_1_UART_rxBufferRead - cyclic index for read from rxBuffer,
 548:.\Generated_Source\PSoC5/LIN_1_UART.c ****     *     incremented after each byte has been read from buffer.
 549:.\Generated_Source\PSoC5/LIN_1_UART.c ****     *  LIN_1_UART_rxBufferLoopDetect - creared if loop condition was detected
 550:.\Generated_Source\PSoC5/LIN_1_UART.c ****     *     in RX ISR.
 551:.\Generated_Source\PSoC5/LIN_1_UART.c ****     *
 552:.\Generated_Source\PSoC5/LIN_1_UART.c ****     * Reentrant:
 553:.\Generated_Source\PSoC5/LIN_1_UART.c ****     *  No.
 554:.\Generated_Source\PSoC5/LIN_1_UART.c ****     *
 555:.\Generated_Source\PSoC5/LIN_1_UART.c ****     *******************************************************************************/
 556:.\Generated_Source\PSoC5/LIN_1_UART.c ****     uint8 LIN_1_UART_GetChar(void) 
 557:.\Generated_Source\PSoC5/LIN_1_UART.c ****     {
 458              		.loc 1 557 0
 459              		.cfi_startproc
 460              		@ args = 0, pretend = 0, frame = 8
 461              		@ frame_needed = 1, uses_anonymous_args = 0
 462              		@ link register save eliminated.
 463 0000 80B4     		push	{r7}
 464              	.LCFI24:
 465              		.cfi_def_cfa_offset 4
 466              		.cfi_offset 7, -4
 467 0002 83B0     		sub	sp, sp, #12
 468              	.LCFI25:
 469              		.cfi_def_cfa_offset 16
ARM GAS  C:\Users\MATSUD~1\AppData\Local\Temp\ccwDh0Hw.s 			page 19


 470 0004 00AF     		add	r7, sp, #0
 471              	.LCFI26:
 472              		.cfi_def_cfa_register 7
 558:.\Generated_Source\PSoC5/LIN_1_UART.c ****         uint8 rxData = 0u;
 473              		.loc 1 558 0
 474 0006 4FF00003 		mov	r3, #0
 475 000a FB71     		strb	r3, [r7, #7]
 559:.\Generated_Source\PSoC5/LIN_1_UART.c ****         uint8 rxStatus;
 560:.\Generated_Source\PSoC5/LIN_1_UART.c **** 
 561:.\Generated_Source\PSoC5/LIN_1_UART.c ****         #if(LIN_1_UART_RXBUFFERSIZE > LIN_1_UART_FIFO_LENGTH)
 562:.\Generated_Source\PSoC5/LIN_1_UART.c ****             uint8 loc_rxBufferRead;
 563:.\Generated_Source\PSoC5/LIN_1_UART.c ****             uint8 loc_rxBufferWrite;
 564:.\Generated_Source\PSoC5/LIN_1_UART.c ****             /* Protect variables that could change on interrupt. */
 565:.\Generated_Source\PSoC5/LIN_1_UART.c ****             /* Disable Rx interrupt. */
 566:.\Generated_Source\PSoC5/LIN_1_UART.c ****             #if(LIN_1_UART_RX_INTERRUPT_ENABLED)
 567:.\Generated_Source\PSoC5/LIN_1_UART.c ****                 LIN_1_UART_DisableRxInt();
 568:.\Generated_Source\PSoC5/LIN_1_UART.c ****             #endif /* LIN_1_UART_RX_INTERRUPT_ENABLED */
 569:.\Generated_Source\PSoC5/LIN_1_UART.c ****             loc_rxBufferRead = LIN_1_UART_rxBufferRead;
 570:.\Generated_Source\PSoC5/LIN_1_UART.c ****             loc_rxBufferWrite = LIN_1_UART_rxBufferWrite;
 571:.\Generated_Source\PSoC5/LIN_1_UART.c **** 
 572:.\Generated_Source\PSoC5/LIN_1_UART.c ****             if( (LIN_1_UART_rxBufferLoopDetect != 0u) || (loc_rxBufferRead != loc_rxBufferWrite) )
 573:.\Generated_Source\PSoC5/LIN_1_UART.c ****             {
 574:.\Generated_Source\PSoC5/LIN_1_UART.c ****                 rxData = LIN_1_UART_rxBuffer[loc_rxBufferRead];
 575:.\Generated_Source\PSoC5/LIN_1_UART.c ****                 loc_rxBufferRead++;
 576:.\Generated_Source\PSoC5/LIN_1_UART.c ****                 if(loc_rxBufferRead >= LIN_1_UART_RXBUFFERSIZE)
 577:.\Generated_Source\PSoC5/LIN_1_UART.c ****                 {
 578:.\Generated_Source\PSoC5/LIN_1_UART.c ****                     loc_rxBufferRead = 0u;
 579:.\Generated_Source\PSoC5/LIN_1_UART.c ****                 }
 580:.\Generated_Source\PSoC5/LIN_1_UART.c ****                 /* Update the real pointer */
 581:.\Generated_Source\PSoC5/LIN_1_UART.c ****                 LIN_1_UART_rxBufferRead = loc_rxBufferRead;
 582:.\Generated_Source\PSoC5/LIN_1_UART.c **** 
 583:.\Generated_Source\PSoC5/LIN_1_UART.c ****                 if(LIN_1_UART_rxBufferLoopDetect > 0u )
 584:.\Generated_Source\PSoC5/LIN_1_UART.c ****                 {
 585:.\Generated_Source\PSoC5/LIN_1_UART.c ****                     LIN_1_UART_rxBufferLoopDetect = 0u;
 586:.\Generated_Source\PSoC5/LIN_1_UART.c ****                     #if( (LIN_1_UART_RX_INTERRUPT_ENABLED) && (LIN_1_UART_FLOW_CONTROL != 0u) )
 587:.\Generated_Source\PSoC5/LIN_1_UART.c ****                         /* When Hardware Flow Control selected - return RX mask */
 588:.\Generated_Source\PSoC5/LIN_1_UART.c ****                         #if( LIN_1_UART_HD_ENABLED )
 589:.\Generated_Source\PSoC5/LIN_1_UART.c ****                             if((LIN_1_UART_CONTROL_REG & LIN_1_UART_CTRL_HD_SEND) == 0u)
 590:.\Generated_Source\PSoC5/LIN_1_UART.c ****                             {   /* In Half duplex mode return RX mask only if
 591:.\Generated_Source\PSoC5/LIN_1_UART.c ****                                 *  RX configuration set, otherwise
 592:.\Generated_Source\PSoC5/LIN_1_UART.c ****                                 *  mask will be returned in LoadRxConfig() API.
 593:.\Generated_Source\PSoC5/LIN_1_UART.c ****                                 */
 594:.\Generated_Source\PSoC5/LIN_1_UART.c ****                                 LIN_1_UART_RXSTATUS_MASK_REG  |= LIN_1_UART_RX_STS_FIFO_NOTEMPTY;
 595:.\Generated_Source\PSoC5/LIN_1_UART.c ****                             }
 596:.\Generated_Source\PSoC5/LIN_1_UART.c ****                         #else
 597:.\Generated_Source\PSoC5/LIN_1_UART.c ****                             LIN_1_UART_RXSTATUS_MASK_REG  |= LIN_1_UART_RX_STS_FIFO_NOTEMPTY;
 598:.\Generated_Source\PSoC5/LIN_1_UART.c ****                         #endif /* end LIN_1_UART_HD_ENABLED */
 599:.\Generated_Source\PSoC5/LIN_1_UART.c ****                     #endif /* LIN_1_UART_RX_INTERRUPT_ENABLED and Hardware flow control*/
 600:.\Generated_Source\PSoC5/LIN_1_UART.c ****                 }
 601:.\Generated_Source\PSoC5/LIN_1_UART.c **** 
 602:.\Generated_Source\PSoC5/LIN_1_UART.c ****             }
 603:.\Generated_Source\PSoC5/LIN_1_UART.c ****             else
 604:.\Generated_Source\PSoC5/LIN_1_UART.c ****             {   rxStatus = LIN_1_UART_RXSTATUS_REG;
 605:.\Generated_Source\PSoC5/LIN_1_UART.c ****                 if((rxStatus & LIN_1_UART_RX_STS_FIFO_NOTEMPTY) != 0u)
 606:.\Generated_Source\PSoC5/LIN_1_UART.c ****                 {   /* Read received data from FIFO*/
 607:.\Generated_Source\PSoC5/LIN_1_UART.c ****                     rxData = LIN_1_UART_RXDATA_REG;
 608:.\Generated_Source\PSoC5/LIN_1_UART.c ****                     /*Check status on error*/
ARM GAS  C:\Users\MATSUD~1\AppData\Local\Temp\ccwDh0Hw.s 			page 20


 609:.\Generated_Source\PSoC5/LIN_1_UART.c ****                     if((rxStatus & (LIN_1_UART_RX_STS_BREAK | LIN_1_UART_RX_STS_PAR_ERROR |
 610:.\Generated_Source\PSoC5/LIN_1_UART.c ****                                    LIN_1_UART_RX_STS_STOP_ERROR | LIN_1_UART_RX_STS_OVERRUN)) != 0u
 611:.\Generated_Source\PSoC5/LIN_1_UART.c ****                     {
 612:.\Generated_Source\PSoC5/LIN_1_UART.c ****                         rxData = 0u;
 613:.\Generated_Source\PSoC5/LIN_1_UART.c ****                     }
 614:.\Generated_Source\PSoC5/LIN_1_UART.c ****                 }
 615:.\Generated_Source\PSoC5/LIN_1_UART.c ****             }
 616:.\Generated_Source\PSoC5/LIN_1_UART.c **** 
 617:.\Generated_Source\PSoC5/LIN_1_UART.c ****             /* Enable Rx interrupt. */
 618:.\Generated_Source\PSoC5/LIN_1_UART.c ****             #if(LIN_1_UART_RX_INTERRUPT_ENABLED)
 619:.\Generated_Source\PSoC5/LIN_1_UART.c ****                 LIN_1_UART_EnableRxInt();
 620:.\Generated_Source\PSoC5/LIN_1_UART.c ****             #endif /* LIN_1_UART_RX_INTERRUPT_ENABLED */
 621:.\Generated_Source\PSoC5/LIN_1_UART.c **** 
 622:.\Generated_Source\PSoC5/LIN_1_UART.c ****         #else /* LIN_1_UART_RXBUFFERSIZE > LIN_1_UART_FIFO_LENGTH */
 623:.\Generated_Source\PSoC5/LIN_1_UART.c **** 
 624:.\Generated_Source\PSoC5/LIN_1_UART.c ****             rxStatus =LIN_1_UART_RXSTATUS_REG;
 476              		.loc 1 624 0
 477 000c 46F26753 		movw	r3, #25959
 478 0010 C4F20003 		movt	r3, 16384
 479 0014 1B78     		ldrb	r3, [r3, #0]
 480 0016 BB71     		strb	r3, [r7, #6]
 625:.\Generated_Source\PSoC5/LIN_1_UART.c ****             if((rxStatus & LIN_1_UART_RX_STS_FIFO_NOTEMPTY) != 0u)
 481              		.loc 1 625 0
 482 0018 BB79     		ldrb	r3, [r7, #6]	@ zero_extendqisi2
 483 001a 03F02003 		and	r3, r3, #32
 484 001e 002B     		cmp	r3, #0
 485 0020 0DD0     		beq	.L15
 626:.\Generated_Source\PSoC5/LIN_1_UART.c ****             {   /* Read received data from FIFO*/
 627:.\Generated_Source\PSoC5/LIN_1_UART.c ****                 rxData = LIN_1_UART_RXDATA_REG;
 486              		.loc 1 627 0
 487 0022 46F24453 		movw	r3, #25924
 488 0026 C4F20003 		movt	r3, 16384
 489 002a 1B78     		ldrb	r3, [r3, #0]
 490 002c FB71     		strb	r3, [r7, #7]
 628:.\Generated_Source\PSoC5/LIN_1_UART.c ****                 /*Check status on error*/
 629:.\Generated_Source\PSoC5/LIN_1_UART.c ****                 if((rxStatus & (LIN_1_UART_RX_STS_BREAK | LIN_1_UART_RX_STS_PAR_ERROR |
 630:.\Generated_Source\PSoC5/LIN_1_UART.c ****                                LIN_1_UART_RX_STS_STOP_ERROR | LIN_1_UART_RX_STS_OVERRUN)) != 0u)
 491              		.loc 1 630 0
 492 002e BB79     		ldrb	r3, [r7, #6]	@ zero_extendqisi2
 493 0030 03F01E03 		and	r3, r3, #30
 629:.\Generated_Source\PSoC5/LIN_1_UART.c ****                 if((rxStatus & (LIN_1_UART_RX_STS_BREAK | LIN_1_UART_RX_STS_PAR_ERROR |
 494              		.loc 1 629 0
 495 0034 002B     		cmp	r3, #0
 496 0036 02D0     		beq	.L15
 631:.\Generated_Source\PSoC5/LIN_1_UART.c ****                 {
 632:.\Generated_Source\PSoC5/LIN_1_UART.c ****                     rxData = 0u;
 497              		.loc 1 632 0
 498 0038 4FF00003 		mov	r3, #0
 499 003c FB71     		strb	r3, [r7, #7]
 500              	.L15:
 633:.\Generated_Source\PSoC5/LIN_1_UART.c ****                 }
 634:.\Generated_Source\PSoC5/LIN_1_UART.c ****             }
 635:.\Generated_Source\PSoC5/LIN_1_UART.c ****         #endif /* LIN_1_UART_RXBUFFERSIZE > LIN_1_UART_FIFO_LENGTH */
 636:.\Generated_Source\PSoC5/LIN_1_UART.c **** 
 637:.\Generated_Source\PSoC5/LIN_1_UART.c ****         return(rxData);
 501              		.loc 1 637 0
 502 003e FB79     		ldrb	r3, [r7, #7]	@ zero_extendqisi2
ARM GAS  C:\Users\MATSUD~1\AppData\Local\Temp\ccwDh0Hw.s 			page 21


 638:.\Generated_Source\PSoC5/LIN_1_UART.c ****     }
 503              		.loc 1 638 0
 504 0040 1846     		mov	r0, r3
 505 0042 07F10C07 		add	r7, r7, #12
 506 0046 BD46     		mov	sp, r7
 507 0048 80BC     		pop	{r7}
 508 004a 7047     		bx	lr
 509              		.cfi_endproc
 510              	.LFE9:
 511              		.size	LIN_1_UART_GetChar, .-LIN_1_UART_GetChar
 512              		.section	.text.LIN_1_UART_GetByte,"ax",%progbits
 513              		.align	2
 514              		.global	LIN_1_UART_GetByte
 515              		.thumb
 516              		.thumb_func
 517              		.type	LIN_1_UART_GetByte, %function
 518              	LIN_1_UART_GetByte:
 519              	.LFB10:
 639:.\Generated_Source\PSoC5/LIN_1_UART.c **** 
 640:.\Generated_Source\PSoC5/LIN_1_UART.c **** 
 641:.\Generated_Source\PSoC5/LIN_1_UART.c ****     /*******************************************************************************
 642:.\Generated_Source\PSoC5/LIN_1_UART.c ****     * Function Name: LIN_1_UART_GetByte
 643:.\Generated_Source\PSoC5/LIN_1_UART.c ****     ********************************************************************************
 644:.\Generated_Source\PSoC5/LIN_1_UART.c ****     *
 645:.\Generated_Source\PSoC5/LIN_1_UART.c ****     * Summary:
 646:.\Generated_Source\PSoC5/LIN_1_UART.c ****     *  Grab the next available byte of data from the recieve FIFO
 647:.\Generated_Source\PSoC5/LIN_1_UART.c ****     *
 648:.\Generated_Source\PSoC5/LIN_1_UART.c ****     * Parameters:
 649:.\Generated_Source\PSoC5/LIN_1_UART.c ****     *  None.
 650:.\Generated_Source\PSoC5/LIN_1_UART.c ****     *
 651:.\Generated_Source\PSoC5/LIN_1_UART.c ****     * Return:
 652:.\Generated_Source\PSoC5/LIN_1_UART.c ****     *  MSB contains Status Register and LSB contains UART RX data
 653:.\Generated_Source\PSoC5/LIN_1_UART.c ****     *
 654:.\Generated_Source\PSoC5/LIN_1_UART.c ****     * Reentrant:
 655:.\Generated_Source\PSoC5/LIN_1_UART.c ****     *  No.
 656:.\Generated_Source\PSoC5/LIN_1_UART.c ****     *
 657:.\Generated_Source\PSoC5/LIN_1_UART.c ****     *******************************************************************************/
 658:.\Generated_Source\PSoC5/LIN_1_UART.c ****     uint16 LIN_1_UART_GetByte(void) 
 659:.\Generated_Source\PSoC5/LIN_1_UART.c ****     {
 520              		.loc 1 659 0
 521              		.cfi_startproc
 522              		@ args = 0, pretend = 0, frame = 0
 523              		@ frame_needed = 1, uses_anonymous_args = 0
 524 0000 98B5     		push	{r3, r4, r7, lr}
 525              	.LCFI27:
 526              		.cfi_def_cfa_offset 16
 527              		.cfi_offset 3, -16
 528              		.cfi_offset 4, -12
 529              		.cfi_offset 7, -8
 530              		.cfi_offset 14, -4
 531 0002 00AF     		add	r7, sp, #0
 532              	.LCFI28:
 533              		.cfi_def_cfa_register 7
 660:.\Generated_Source\PSoC5/LIN_1_UART.c ****         return ( ((uint16)LIN_1_UART_ReadRxStatus() << 8u) | LIN_1_UART_ReadRxData() );
 534              		.loc 1 660 0
 535 0004 FFF7FEFF 		bl	LIN_1_UART_ReadRxStatus
 536 0008 0346     		mov	r3, r0
ARM GAS  C:\Users\MATSUD~1\AppData\Local\Temp\ccwDh0Hw.s 			page 22


 537 000a 4FEA0323 		lsl	r3, r3, #8
 538 000e 9CB2     		uxth	r4, r3
 539 0010 FFF7FEFF 		bl	LIN_1_UART_ReadRxData
 540 0014 0346     		mov	r3, r0
 541 0016 2246     		mov	r2, r4	@ movhi
 542 0018 1343     		orrs	r3, r3, r2
 543 001a 9BB2     		uxth	r3, r3
 544 001c 9BB2     		uxth	r3, r3
 661:.\Generated_Source\PSoC5/LIN_1_UART.c ****     }
 545              		.loc 1 661 0
 546 001e 1846     		mov	r0, r3
 547 0020 98BD     		pop	{r3, r4, r7, pc}
 548              		.cfi_endproc
 549              	.LFE10:
 550              		.size	LIN_1_UART_GetByte, .-LIN_1_UART_GetByte
 551 0022 00BF     		.section	.text.LIN_1_UART_GetRxBufferSize,"ax",%progbits
 552              		.align	2
 553              		.global	LIN_1_UART_GetRxBufferSize
 554              		.thumb
 555              		.thumb_func
 556              		.type	LIN_1_UART_GetRxBufferSize, %function
 557              	LIN_1_UART_GetRxBufferSize:
 558              	.LFB11:
 662:.\Generated_Source\PSoC5/LIN_1_UART.c **** 
 663:.\Generated_Source\PSoC5/LIN_1_UART.c **** 
 664:.\Generated_Source\PSoC5/LIN_1_UART.c ****     /*******************************************************************************
 665:.\Generated_Source\PSoC5/LIN_1_UART.c ****     * Function Name: LIN_1_UART_GetRxBufferSize
 666:.\Generated_Source\PSoC5/LIN_1_UART.c ****     ********************************************************************************
 667:.\Generated_Source\PSoC5/LIN_1_UART.c ****     *
 668:.\Generated_Source\PSoC5/LIN_1_UART.c ****     * Summary:
 669:.\Generated_Source\PSoC5/LIN_1_UART.c ****     *  Determine the amount of bytes left in the RX buffer and return the count in
 670:.\Generated_Source\PSoC5/LIN_1_UART.c ****     *  bytes
 671:.\Generated_Source\PSoC5/LIN_1_UART.c ****     *
 672:.\Generated_Source\PSoC5/LIN_1_UART.c ****     * Parameters:
 673:.\Generated_Source\PSoC5/LIN_1_UART.c ****     *  None.
 674:.\Generated_Source\PSoC5/LIN_1_UART.c ****     *
 675:.\Generated_Source\PSoC5/LIN_1_UART.c ****     * Return:
 676:.\Generated_Source\PSoC5/LIN_1_UART.c ****     *  uint8: Integer count of the number of bytes left
 677:.\Generated_Source\PSoC5/LIN_1_UART.c ****     *  in the RX buffer
 678:.\Generated_Source\PSoC5/LIN_1_UART.c ****     *
 679:.\Generated_Source\PSoC5/LIN_1_UART.c ****     * Global Variables:
 680:.\Generated_Source\PSoC5/LIN_1_UART.c ****     *  LIN_1_UART_rxBufferWrite - used to calculate left bytes.
 681:.\Generated_Source\PSoC5/LIN_1_UART.c ****     *  LIN_1_UART_rxBufferRead - used to calculate left bytes.
 682:.\Generated_Source\PSoC5/LIN_1_UART.c ****     *  LIN_1_UART_rxBufferLoopDetect - checked to decide left bytes amount.
 683:.\Generated_Source\PSoC5/LIN_1_UART.c ****     *
 684:.\Generated_Source\PSoC5/LIN_1_UART.c ****     * Reentrant:
 685:.\Generated_Source\PSoC5/LIN_1_UART.c ****     *  No.
 686:.\Generated_Source\PSoC5/LIN_1_UART.c ****     *
 687:.\Generated_Source\PSoC5/LIN_1_UART.c ****     * Theory:
 688:.\Generated_Source\PSoC5/LIN_1_UART.c ****     *  Allows the user to find out how full the RX Buffer is.
 689:.\Generated_Source\PSoC5/LIN_1_UART.c ****     *
 690:.\Generated_Source\PSoC5/LIN_1_UART.c ****     *******************************************************************************/
 691:.\Generated_Source\PSoC5/LIN_1_UART.c ****     uint8 LIN_1_UART_GetRxBufferSize(void)
 692:.\Generated_Source\PSoC5/LIN_1_UART.c ****                                                             
 693:.\Generated_Source\PSoC5/LIN_1_UART.c ****     {
 559              		.loc 1 693 0
 560              		.cfi_startproc
ARM GAS  C:\Users\MATSUD~1\AppData\Local\Temp\ccwDh0Hw.s 			page 23


 561              		@ args = 0, pretend = 0, frame = 8
 562              		@ frame_needed = 1, uses_anonymous_args = 0
 563              		@ link register save eliminated.
 564 0000 80B4     		push	{r7}
 565              	.LCFI29:
 566              		.cfi_def_cfa_offset 4
 567              		.cfi_offset 7, -4
 568 0002 83B0     		sub	sp, sp, #12
 569              	.LCFI30:
 570              		.cfi_def_cfa_offset 16
 571 0004 00AF     		add	r7, sp, #0
 572              	.LCFI31:
 573              		.cfi_def_cfa_register 7
 694:.\Generated_Source\PSoC5/LIN_1_UART.c ****         uint8 size;
 695:.\Generated_Source\PSoC5/LIN_1_UART.c **** 
 696:.\Generated_Source\PSoC5/LIN_1_UART.c ****         #if(LIN_1_UART_RXBUFFERSIZE > LIN_1_UART_FIFO_LENGTH)
 697:.\Generated_Source\PSoC5/LIN_1_UART.c **** 
 698:.\Generated_Source\PSoC5/LIN_1_UART.c ****             /* Disable Rx interrupt. */
 699:.\Generated_Source\PSoC5/LIN_1_UART.c ****             /* Protect variables that could change on interrupt. */
 700:.\Generated_Source\PSoC5/LIN_1_UART.c ****             #if(LIN_1_UART_RX_INTERRUPT_ENABLED)
 701:.\Generated_Source\PSoC5/LIN_1_UART.c ****                 LIN_1_UART_DisableRxInt();
 702:.\Generated_Source\PSoC5/LIN_1_UART.c ****             #endif /* LIN_1_UART_RX_INTERRUPT_ENABLED */
 703:.\Generated_Source\PSoC5/LIN_1_UART.c **** 
 704:.\Generated_Source\PSoC5/LIN_1_UART.c ****             if(LIN_1_UART_rxBufferRead == LIN_1_UART_rxBufferWrite)
 705:.\Generated_Source\PSoC5/LIN_1_UART.c ****             {
 706:.\Generated_Source\PSoC5/LIN_1_UART.c ****                 if(LIN_1_UART_rxBufferLoopDetect > 0u)
 707:.\Generated_Source\PSoC5/LIN_1_UART.c ****                 {
 708:.\Generated_Source\PSoC5/LIN_1_UART.c ****                     size = LIN_1_UART_RXBUFFERSIZE;
 709:.\Generated_Source\PSoC5/LIN_1_UART.c ****                 }
 710:.\Generated_Source\PSoC5/LIN_1_UART.c ****                 else
 711:.\Generated_Source\PSoC5/LIN_1_UART.c ****                 {
 712:.\Generated_Source\PSoC5/LIN_1_UART.c ****                     size = 0u;
 713:.\Generated_Source\PSoC5/LIN_1_UART.c ****                 }
 714:.\Generated_Source\PSoC5/LIN_1_UART.c ****             }
 715:.\Generated_Source\PSoC5/LIN_1_UART.c ****             else if(LIN_1_UART_rxBufferRead < LIN_1_UART_rxBufferWrite)
 716:.\Generated_Source\PSoC5/LIN_1_UART.c ****             {
 717:.\Generated_Source\PSoC5/LIN_1_UART.c ****                 size = (LIN_1_UART_rxBufferWrite - LIN_1_UART_rxBufferRead);
 718:.\Generated_Source\PSoC5/LIN_1_UART.c ****             }
 719:.\Generated_Source\PSoC5/LIN_1_UART.c ****             else
 720:.\Generated_Source\PSoC5/LIN_1_UART.c ****             {
 721:.\Generated_Source\PSoC5/LIN_1_UART.c ****                 size = (LIN_1_UART_RXBUFFERSIZE - LIN_1_UART_rxBufferRead) + LIN_1_UART_rxBufferWri
 722:.\Generated_Source\PSoC5/LIN_1_UART.c ****             }
 723:.\Generated_Source\PSoC5/LIN_1_UART.c **** 
 724:.\Generated_Source\PSoC5/LIN_1_UART.c ****             /* Enable Rx interrupt. */
 725:.\Generated_Source\PSoC5/LIN_1_UART.c ****             #if(LIN_1_UART_RX_INTERRUPT_ENABLED)
 726:.\Generated_Source\PSoC5/LIN_1_UART.c ****                 LIN_1_UART_EnableRxInt();
 727:.\Generated_Source\PSoC5/LIN_1_UART.c ****             #endif /* End LIN_1_UART_RX_INTERRUPT_ENABLED */
 728:.\Generated_Source\PSoC5/LIN_1_UART.c **** 
 729:.\Generated_Source\PSoC5/LIN_1_UART.c ****         #else /* LIN_1_UART_RXBUFFERSIZE > LIN_1_UART_FIFO_LENGTH */
 730:.\Generated_Source\PSoC5/LIN_1_UART.c **** 
 731:.\Generated_Source\PSoC5/LIN_1_UART.c ****             /* We can only know if there is data in the fifo. */
 732:.\Generated_Source\PSoC5/LIN_1_UART.c ****             size = ((LIN_1_UART_RXSTATUS_REG & LIN_1_UART_RX_STS_FIFO_NOTEMPTY) != 0u) ? 1u : 0u;
 574              		.loc 1 732 0
 575 0006 46F26753 		movw	r3, #25959
 576 000a C4F20003 		movt	r3, 16384
 577 000e 1B78     		ldrb	r3, [r3, #0]
 578 0010 DBB2     		uxtb	r3, r3
ARM GAS  C:\Users\MATSUD~1\AppData\Local\Temp\ccwDh0Hw.s 			page 24


 579 0012 03F02003 		and	r3, r3, #32
 580 0016 002B     		cmp	r3, #0
 581 0018 02D0     		beq	.L20
 582              		.loc 1 732 0 is_stmt 0 discriminator 1
 583 001a 4FF00103 		mov	r3, #1
 584 001e 01E0     		b	.L21
 585              	.L20:
 586              		.loc 1 732 0 discriminator 2
 587 0020 4FF00003 		mov	r3, #0
 588              	.L21:
 589              		.loc 1 732 0 discriminator 3
 590 0024 FB71     		strb	r3, [r7, #7]
 733:.\Generated_Source\PSoC5/LIN_1_UART.c **** 
 734:.\Generated_Source\PSoC5/LIN_1_UART.c ****         #endif /* End LIN_1_UART_RXBUFFERSIZE > LIN_1_UART_FIFO_LENGTH */
 735:.\Generated_Source\PSoC5/LIN_1_UART.c **** 
 736:.\Generated_Source\PSoC5/LIN_1_UART.c ****         return(size);
 591              		.loc 1 736 0 is_stmt 1 discriminator 3
 592 0026 FB79     		ldrb	r3, [r7, #7]	@ zero_extendqisi2
 737:.\Generated_Source\PSoC5/LIN_1_UART.c ****     }
 593              		.loc 1 737 0 discriminator 3
 594 0028 1846     		mov	r0, r3
 595 002a 07F10C07 		add	r7, r7, #12
 596 002e BD46     		mov	sp, r7
 597 0030 80BC     		pop	{r7}
 598 0032 7047     		bx	lr
 599              		.cfi_endproc
 600              	.LFE11:
 601              		.size	LIN_1_UART_GetRxBufferSize, .-LIN_1_UART_GetRxBufferSize
 602              		.section	.text.LIN_1_UART_ClearRxBuffer,"ax",%progbits
 603              		.align	2
 604              		.global	LIN_1_UART_ClearRxBuffer
 605              		.thumb
 606              		.thumb_func
 607              		.type	LIN_1_UART_ClearRxBuffer, %function
 608              	LIN_1_UART_ClearRxBuffer:
 609              	.LFB12:
 738:.\Generated_Source\PSoC5/LIN_1_UART.c **** 
 739:.\Generated_Source\PSoC5/LIN_1_UART.c **** 
 740:.\Generated_Source\PSoC5/LIN_1_UART.c ****     /*******************************************************************************
 741:.\Generated_Source\PSoC5/LIN_1_UART.c ****     * Function Name: LIN_1_UART_ClearRxBuffer
 742:.\Generated_Source\PSoC5/LIN_1_UART.c ****     ********************************************************************************
 743:.\Generated_Source\PSoC5/LIN_1_UART.c ****     *
 744:.\Generated_Source\PSoC5/LIN_1_UART.c ****     * Summary:
 745:.\Generated_Source\PSoC5/LIN_1_UART.c ****     *  Clears the RX RAM buffer by setting the read and write pointers both to zero.
 746:.\Generated_Source\PSoC5/LIN_1_UART.c ****     *  Clears hardware RX FIFO.
 747:.\Generated_Source\PSoC5/LIN_1_UART.c ****     *
 748:.\Generated_Source\PSoC5/LIN_1_UART.c ****     * Parameters:
 749:.\Generated_Source\PSoC5/LIN_1_UART.c ****     *  None.
 750:.\Generated_Source\PSoC5/LIN_1_UART.c ****     *
 751:.\Generated_Source\PSoC5/LIN_1_UART.c ****     * Return:
 752:.\Generated_Source\PSoC5/LIN_1_UART.c ****     *  None.
 753:.\Generated_Source\PSoC5/LIN_1_UART.c ****     *
 754:.\Generated_Source\PSoC5/LIN_1_UART.c ****     * Global Variables:
 755:.\Generated_Source\PSoC5/LIN_1_UART.c ****     *  LIN_1_UART_rxBufferWrite - cleared to zero.
 756:.\Generated_Source\PSoC5/LIN_1_UART.c ****     *  LIN_1_UART_rxBufferRead - cleared to zero.
 757:.\Generated_Source\PSoC5/LIN_1_UART.c ****     *  LIN_1_UART_rxBufferLoopDetect - cleared to zero.
 758:.\Generated_Source\PSoC5/LIN_1_UART.c ****     *  LIN_1_UART_rxBufferOverflow - cleared to zero.
ARM GAS  C:\Users\MATSUD~1\AppData\Local\Temp\ccwDh0Hw.s 			page 25


 759:.\Generated_Source\PSoC5/LIN_1_UART.c ****     *
 760:.\Generated_Source\PSoC5/LIN_1_UART.c ****     * Reentrant:
 761:.\Generated_Source\PSoC5/LIN_1_UART.c ****     *  No.
 762:.\Generated_Source\PSoC5/LIN_1_UART.c ****     *
 763:.\Generated_Source\PSoC5/LIN_1_UART.c ****     * Theory:
 764:.\Generated_Source\PSoC5/LIN_1_UART.c ****     *  Setting the pointers to zero makes the system believe there is no data to
 765:.\Generated_Source\PSoC5/LIN_1_UART.c ****     *  read and writing will resume at address 0 overwriting any data that may
 766:.\Generated_Source\PSoC5/LIN_1_UART.c ****     *  have remained in the RAM.
 767:.\Generated_Source\PSoC5/LIN_1_UART.c ****     *
 768:.\Generated_Source\PSoC5/LIN_1_UART.c ****     * Side Effects:
 769:.\Generated_Source\PSoC5/LIN_1_UART.c ****     *  Any received data not read from the RAM or FIFO buffer will be lost.
 770:.\Generated_Source\PSoC5/LIN_1_UART.c ****     *******************************************************************************/
 771:.\Generated_Source\PSoC5/LIN_1_UART.c ****     void LIN_1_UART_ClearRxBuffer(void) 
 772:.\Generated_Source\PSoC5/LIN_1_UART.c ****     {
 610              		.loc 1 772 0
 611              		.cfi_startproc
 612              		@ args = 0, pretend = 0, frame = 8
 613              		@ frame_needed = 1, uses_anonymous_args = 0
 614 0000 80B5     		push	{r7, lr}
 615              	.LCFI32:
 616              		.cfi_def_cfa_offset 8
 617              		.cfi_offset 7, -8
 618              		.cfi_offset 14, -4
 619 0002 82B0     		sub	sp, sp, #8
 620              	.LCFI33:
 621              		.cfi_def_cfa_offset 16
 622 0004 00AF     		add	r7, sp, #0
 623              	.LCFI34:
 624              		.cfi_def_cfa_register 7
 773:.\Generated_Source\PSoC5/LIN_1_UART.c ****         uint8 enableInterrupts;
 774:.\Generated_Source\PSoC5/LIN_1_UART.c **** 
 775:.\Generated_Source\PSoC5/LIN_1_UART.c ****         /* clear the HW FIFO */
 776:.\Generated_Source\PSoC5/LIN_1_UART.c ****         /* Enter critical section */
 777:.\Generated_Source\PSoC5/LIN_1_UART.c ****         enableInterrupts = CyEnterCriticalSection();
 625              		.loc 1 777 0
 626 0006 FFF7FEFF 		bl	CyEnterCriticalSection
 627 000a 0346     		mov	r3, r0
 628 000c FB71     		strb	r3, [r7, #7]
 778:.\Generated_Source\PSoC5/LIN_1_UART.c ****         LIN_1_UART_RXDATA_AUX_CTL_REG |=  LIN_1_UART_RX_FIFO_CLR;
 629              		.loc 1 778 0
 630 000e 46F29453 		movw	r3, #26004
 631 0012 C4F20003 		movt	r3, 16384
 632 0016 46F29452 		movw	r2, #26004
 633 001a C4F20002 		movt	r2, 16384
 634 001e 1278     		ldrb	r2, [r2, #0]
 635 0020 D2B2     		uxtb	r2, r2
 636 0022 42F00102 		orr	r2, r2, #1
 637 0026 D2B2     		uxtb	r2, r2
 638 0028 1A70     		strb	r2, [r3, #0]
 779:.\Generated_Source\PSoC5/LIN_1_UART.c ****         LIN_1_UART_RXDATA_AUX_CTL_REG &= (uint8)~LIN_1_UART_RX_FIFO_CLR;
 639              		.loc 1 779 0
 640 002a 46F29453 		movw	r3, #26004
 641 002e C4F20003 		movt	r3, 16384
 642 0032 46F29452 		movw	r2, #26004
 643 0036 C4F20002 		movt	r2, 16384
 644 003a 1278     		ldrb	r2, [r2, #0]
 645 003c D2B2     		uxtb	r2, r2
ARM GAS  C:\Users\MATSUD~1\AppData\Local\Temp\ccwDh0Hw.s 			page 26


 646 003e 22F00102 		bic	r2, r2, #1
 647 0042 D2B2     		uxtb	r2, r2
 648 0044 1A70     		strb	r2, [r3, #0]
 780:.\Generated_Source\PSoC5/LIN_1_UART.c ****         /* Exit critical section */
 781:.\Generated_Source\PSoC5/LIN_1_UART.c ****         CyExitCriticalSection(enableInterrupts);
 649              		.loc 1 781 0
 650 0046 FB79     		ldrb	r3, [r7, #7]	@ zero_extendqisi2
 651 0048 1846     		mov	r0, r3
 652 004a FFF7FEFF 		bl	CyExitCriticalSection
 782:.\Generated_Source\PSoC5/LIN_1_UART.c **** 
 783:.\Generated_Source\PSoC5/LIN_1_UART.c ****         #if(LIN_1_UART_RXBUFFERSIZE > LIN_1_UART_FIFO_LENGTH)
 784:.\Generated_Source\PSoC5/LIN_1_UART.c ****             /* Disable Rx interrupt. */
 785:.\Generated_Source\PSoC5/LIN_1_UART.c ****             /* Protect variables that could change on interrupt. */
 786:.\Generated_Source\PSoC5/LIN_1_UART.c ****             #if(LIN_1_UART_RX_INTERRUPT_ENABLED)
 787:.\Generated_Source\PSoC5/LIN_1_UART.c ****                 LIN_1_UART_DisableRxInt();
 788:.\Generated_Source\PSoC5/LIN_1_UART.c ****             #endif /* End LIN_1_UART_RX_INTERRUPT_ENABLED */
 789:.\Generated_Source\PSoC5/LIN_1_UART.c **** 
 790:.\Generated_Source\PSoC5/LIN_1_UART.c ****             LIN_1_UART_rxBufferRead = 0u;
 791:.\Generated_Source\PSoC5/LIN_1_UART.c ****             LIN_1_UART_rxBufferWrite = 0u;
 792:.\Generated_Source\PSoC5/LIN_1_UART.c ****             LIN_1_UART_rxBufferLoopDetect = 0u;
 793:.\Generated_Source\PSoC5/LIN_1_UART.c ****             LIN_1_UART_rxBufferOverflow = 0u;
 794:.\Generated_Source\PSoC5/LIN_1_UART.c **** 
 795:.\Generated_Source\PSoC5/LIN_1_UART.c ****             /* Enable Rx interrupt. */
 796:.\Generated_Source\PSoC5/LIN_1_UART.c ****             #if(LIN_1_UART_RX_INTERRUPT_ENABLED)
 797:.\Generated_Source\PSoC5/LIN_1_UART.c ****                 LIN_1_UART_EnableRxInt();
 798:.\Generated_Source\PSoC5/LIN_1_UART.c ****             #endif /* End LIN_1_UART_RX_INTERRUPT_ENABLED */
 799:.\Generated_Source\PSoC5/LIN_1_UART.c ****         #endif /* End LIN_1_UART_RXBUFFERSIZE > LIN_1_UART_FIFO_LENGTH */
 800:.\Generated_Source\PSoC5/LIN_1_UART.c **** 
 801:.\Generated_Source\PSoC5/LIN_1_UART.c ****     }
 653              		.loc 1 801 0
 654 004e 07F10807 		add	r7, r7, #8
 655 0052 BD46     		mov	sp, r7
 656 0054 80BD     		pop	{r7, pc}
 657              		.cfi_endproc
 658              	.LFE12:
 659              		.size	LIN_1_UART_ClearRxBuffer, .-LIN_1_UART_ClearRxBuffer
 660 0056 00BF     		.section	.text.LIN_1_UART_SetRxAddressMode,"ax",%progbits
 661              		.align	2
 662              		.global	LIN_1_UART_SetRxAddressMode
 663              		.thumb
 664              		.thumb_func
 665              		.type	LIN_1_UART_SetRxAddressMode, %function
 666              	LIN_1_UART_SetRxAddressMode:
 667              	.LFB13:
 802:.\Generated_Source\PSoC5/LIN_1_UART.c **** 
 803:.\Generated_Source\PSoC5/LIN_1_UART.c **** 
 804:.\Generated_Source\PSoC5/LIN_1_UART.c ****     /*******************************************************************************
 805:.\Generated_Source\PSoC5/LIN_1_UART.c ****     * Function Name: LIN_1_UART_SetRxAddressMode
 806:.\Generated_Source\PSoC5/LIN_1_UART.c ****     ********************************************************************************
 807:.\Generated_Source\PSoC5/LIN_1_UART.c ****     *
 808:.\Generated_Source\PSoC5/LIN_1_UART.c ****     * Summary:
 809:.\Generated_Source\PSoC5/LIN_1_UART.c ****     *  Set the receive addressing mode
 810:.\Generated_Source\PSoC5/LIN_1_UART.c ****     *
 811:.\Generated_Source\PSoC5/LIN_1_UART.c ****     * Parameters:
 812:.\Generated_Source\PSoC5/LIN_1_UART.c ****     *  addressMode: Enumerated value indicating the mode of RX addressing
 813:.\Generated_Source\PSoC5/LIN_1_UART.c ****     *  LIN_1_UART__B_UART__AM_SW_BYTE_BYTE -  Software Byte-by-Byte address
 814:.\Generated_Source\PSoC5/LIN_1_UART.c ****     *                                               detection
ARM GAS  C:\Users\MATSUD~1\AppData\Local\Temp\ccwDh0Hw.s 			page 27


 815:.\Generated_Source\PSoC5/LIN_1_UART.c ****     *  LIN_1_UART__B_UART__AM_SW_DETECT_TO_BUFFER - Software Detect to Buffer
 816:.\Generated_Source\PSoC5/LIN_1_UART.c ****     *                                               address detection
 817:.\Generated_Source\PSoC5/LIN_1_UART.c ****     *  LIN_1_UART__B_UART__AM_HW_BYTE_BY_BYTE - Hardware Byte-by-Byte address
 818:.\Generated_Source\PSoC5/LIN_1_UART.c ****     *                                               detection
 819:.\Generated_Source\PSoC5/LIN_1_UART.c ****     *  LIN_1_UART__B_UART__AM_HW_DETECT_TO_BUFFER - Hardware Detect to Buffer
 820:.\Generated_Source\PSoC5/LIN_1_UART.c ****     *                                               address detection
 821:.\Generated_Source\PSoC5/LIN_1_UART.c ****     *  LIN_1_UART__B_UART__AM_NONE - No address detection
 822:.\Generated_Source\PSoC5/LIN_1_UART.c ****     *
 823:.\Generated_Source\PSoC5/LIN_1_UART.c ****     * Return:
 824:.\Generated_Source\PSoC5/LIN_1_UART.c ****     *  None.
 825:.\Generated_Source\PSoC5/LIN_1_UART.c ****     *
 826:.\Generated_Source\PSoC5/LIN_1_UART.c ****     * Global Variables:
 827:.\Generated_Source\PSoC5/LIN_1_UART.c ****     *  LIN_1_UART_rxAddressMode - the parameter stored in this variable for
 828:.\Generated_Source\PSoC5/LIN_1_UART.c ****     *   the farther usage in RX ISR.
 829:.\Generated_Source\PSoC5/LIN_1_UART.c ****     *  LIN_1_UART_rxAddressDetected - set to initial state (0).
 830:.\Generated_Source\PSoC5/LIN_1_UART.c ****     *
 831:.\Generated_Source\PSoC5/LIN_1_UART.c ****     *******************************************************************************/
 832:.\Generated_Source\PSoC5/LIN_1_UART.c ****     void LIN_1_UART_SetRxAddressMode(uint8 addressMode)
 833:.\Generated_Source\PSoC5/LIN_1_UART.c ****                                                         
 834:.\Generated_Source\PSoC5/LIN_1_UART.c ****     {
 668              		.loc 1 834 0
 669              		.cfi_startproc
 670              		@ args = 0, pretend = 0, frame = 8
 671              		@ frame_needed = 1, uses_anonymous_args = 0
 672              		@ link register save eliminated.
 673 0000 80B4     		push	{r7}
 674              	.LCFI35:
 675              		.cfi_def_cfa_offset 4
 676              		.cfi_offset 7, -4
 677 0002 83B0     		sub	sp, sp, #12
 678              	.LCFI36:
 679              		.cfi_def_cfa_offset 16
 680 0004 00AF     		add	r7, sp, #0
 681              	.LCFI37:
 682              		.cfi_def_cfa_register 7
 683 0006 0346     		mov	r3, r0
 684 0008 FB71     		strb	r3, [r7, #7]
 835:.\Generated_Source\PSoC5/LIN_1_UART.c ****         #if(LIN_1_UART_RXHW_ADDRESS_ENABLED)
 836:.\Generated_Source\PSoC5/LIN_1_UART.c ****             #if(LIN_1_UART_CONTROL_REG_REMOVED)
 837:.\Generated_Source\PSoC5/LIN_1_UART.c ****                 if(addressMode != 0u) { }     /* release compiler warning */
 838:.\Generated_Source\PSoC5/LIN_1_UART.c ****             #else /* LIN_1_UART_CONTROL_REG_REMOVED */
 839:.\Generated_Source\PSoC5/LIN_1_UART.c ****                 uint8 tmpCtrl;
 840:.\Generated_Source\PSoC5/LIN_1_UART.c ****                 tmpCtrl = LIN_1_UART_CONTROL_REG & (uint8)~LIN_1_UART_CTRL_RXADDR_MODE_MASK;
 841:.\Generated_Source\PSoC5/LIN_1_UART.c ****                 tmpCtrl |= (uint8)(addressMode << LIN_1_UART_CTRL_RXADDR_MODE0_SHIFT);
 842:.\Generated_Source\PSoC5/LIN_1_UART.c ****                 LIN_1_UART_CONTROL_REG = tmpCtrl;
 843:.\Generated_Source\PSoC5/LIN_1_UART.c ****                 #if(LIN_1_UART_RX_INTERRUPT_ENABLED && \
 844:.\Generated_Source\PSoC5/LIN_1_UART.c ****                    (LIN_1_UART_RXBUFFERSIZE > LIN_1_UART_FIFO_LENGTH) )
 845:.\Generated_Source\PSoC5/LIN_1_UART.c ****                     LIN_1_UART_rxAddressMode = addressMode;
 846:.\Generated_Source\PSoC5/LIN_1_UART.c ****                     LIN_1_UART_rxAddressDetected = 0u;
 847:.\Generated_Source\PSoC5/LIN_1_UART.c ****                 #endif /* End LIN_1_UART_RXBUFFERSIZE > LIN_1_UART_FIFO_LENGTH*/
 848:.\Generated_Source\PSoC5/LIN_1_UART.c ****             #endif /* End LIN_1_UART_CONTROL_REG_REMOVED */
 849:.\Generated_Source\PSoC5/LIN_1_UART.c ****         #else /* LIN_1_UART_RXHW_ADDRESS_ENABLED */
 850:.\Generated_Source\PSoC5/LIN_1_UART.c ****             if(addressMode != 0u) { }     /* release compiler warning */
 851:.\Generated_Source\PSoC5/LIN_1_UART.c ****         #endif /* End LIN_1_UART_RXHW_ADDRESS_ENABLED */
 852:.\Generated_Source\PSoC5/LIN_1_UART.c ****     }
 685              		.loc 1 852 0
 686 000a 07F10C07 		add	r7, r7, #12
ARM GAS  C:\Users\MATSUD~1\AppData\Local\Temp\ccwDh0Hw.s 			page 28


 687 000e BD46     		mov	sp, r7
 688 0010 80BC     		pop	{r7}
 689 0012 7047     		bx	lr
 690              		.cfi_endproc
 691              	.LFE13:
 692              		.size	LIN_1_UART_SetRxAddressMode, .-LIN_1_UART_SetRxAddressMode
 693              		.section	.text.LIN_1_UART_SetRxAddress1,"ax",%progbits
 694              		.align	2
 695              		.global	LIN_1_UART_SetRxAddress1
 696              		.thumb
 697              		.thumb_func
 698              		.type	LIN_1_UART_SetRxAddress1, %function
 699              	LIN_1_UART_SetRxAddress1:
 700              	.LFB14:
 853:.\Generated_Source\PSoC5/LIN_1_UART.c **** 
 854:.\Generated_Source\PSoC5/LIN_1_UART.c **** 
 855:.\Generated_Source\PSoC5/LIN_1_UART.c ****     /*******************************************************************************
 856:.\Generated_Source\PSoC5/LIN_1_UART.c ****     * Function Name: LIN_1_UART_SetRxAddress1
 857:.\Generated_Source\PSoC5/LIN_1_UART.c ****     ********************************************************************************
 858:.\Generated_Source\PSoC5/LIN_1_UART.c ****     *
 859:.\Generated_Source\PSoC5/LIN_1_UART.c ****     * Summary:
 860:.\Generated_Source\PSoC5/LIN_1_UART.c ****     *  Set the first hardware address compare value
 861:.\Generated_Source\PSoC5/LIN_1_UART.c ****     *
 862:.\Generated_Source\PSoC5/LIN_1_UART.c ****     * Parameters:
 863:.\Generated_Source\PSoC5/LIN_1_UART.c ****     *  address
 864:.\Generated_Source\PSoC5/LIN_1_UART.c ****     *
 865:.\Generated_Source\PSoC5/LIN_1_UART.c ****     * Return:
 866:.\Generated_Source\PSoC5/LIN_1_UART.c ****     *  None.
 867:.\Generated_Source\PSoC5/LIN_1_UART.c ****     *
 868:.\Generated_Source\PSoC5/LIN_1_UART.c ****     *******************************************************************************/
 869:.\Generated_Source\PSoC5/LIN_1_UART.c ****     void LIN_1_UART_SetRxAddress1(uint8 address) 
 870:.\Generated_Source\PSoC5/LIN_1_UART.c **** 
 871:.\Generated_Source\PSoC5/LIN_1_UART.c ****     {
 701              		.loc 1 871 0
 702              		.cfi_startproc
 703              		@ args = 0, pretend = 0, frame = 8
 704              		@ frame_needed = 1, uses_anonymous_args = 0
 705              		@ link register save eliminated.
 706 0000 80B4     		push	{r7}
 707              	.LCFI38:
 708              		.cfi_def_cfa_offset 4
 709              		.cfi_offset 7, -4
 710 0002 83B0     		sub	sp, sp, #12
 711              	.LCFI39:
 712              		.cfi_def_cfa_offset 16
 713 0004 00AF     		add	r7, sp, #0
 714              	.LCFI40:
 715              		.cfi_def_cfa_register 7
 716 0006 0346     		mov	r3, r0
 717 0008 FB71     		strb	r3, [r7, #7]
 872:.\Generated_Source\PSoC5/LIN_1_UART.c ****         LIN_1_UART_RXADDRESS1_REG = address;
 718              		.loc 1 872 0
 719 000a 46F22453 		movw	r3, #25892
 720 000e C4F20003 		movt	r3, 16384
 721 0012 FA79     		ldrb	r2, [r7, #7]
 722 0014 1A70     		strb	r2, [r3, #0]
 873:.\Generated_Source\PSoC5/LIN_1_UART.c ****     }
ARM GAS  C:\Users\MATSUD~1\AppData\Local\Temp\ccwDh0Hw.s 			page 29


 723              		.loc 1 873 0
 724 0016 07F10C07 		add	r7, r7, #12
 725 001a BD46     		mov	sp, r7
 726 001c 80BC     		pop	{r7}
 727 001e 7047     		bx	lr
 728              		.cfi_endproc
 729              	.LFE14:
 730              		.size	LIN_1_UART_SetRxAddress1, .-LIN_1_UART_SetRxAddress1
 731              		.section	.text.LIN_1_UART_SetRxAddress2,"ax",%progbits
 732              		.align	2
 733              		.global	LIN_1_UART_SetRxAddress2
 734              		.thumb
 735              		.thumb_func
 736              		.type	LIN_1_UART_SetRxAddress2, %function
 737              	LIN_1_UART_SetRxAddress2:
 738              	.LFB15:
 874:.\Generated_Source\PSoC5/LIN_1_UART.c **** 
 875:.\Generated_Source\PSoC5/LIN_1_UART.c **** 
 876:.\Generated_Source\PSoC5/LIN_1_UART.c ****     /*******************************************************************************
 877:.\Generated_Source\PSoC5/LIN_1_UART.c ****     * Function Name: LIN_1_UART_SetRxAddress2
 878:.\Generated_Source\PSoC5/LIN_1_UART.c ****     ********************************************************************************
 879:.\Generated_Source\PSoC5/LIN_1_UART.c ****     *
 880:.\Generated_Source\PSoC5/LIN_1_UART.c ****     * Summary:
 881:.\Generated_Source\PSoC5/LIN_1_UART.c ****     *  Set the second hardware address compare value
 882:.\Generated_Source\PSoC5/LIN_1_UART.c ****     *
 883:.\Generated_Source\PSoC5/LIN_1_UART.c ****     * Parameters:
 884:.\Generated_Source\PSoC5/LIN_1_UART.c ****     *  address
 885:.\Generated_Source\PSoC5/LIN_1_UART.c ****     *
 886:.\Generated_Source\PSoC5/LIN_1_UART.c ****     * Return:
 887:.\Generated_Source\PSoC5/LIN_1_UART.c ****     *  None.
 888:.\Generated_Source\PSoC5/LIN_1_UART.c ****     *
 889:.\Generated_Source\PSoC5/LIN_1_UART.c ****     *******************************************************************************/
 890:.\Generated_Source\PSoC5/LIN_1_UART.c ****     void LIN_1_UART_SetRxAddress2(uint8 address) 
 891:.\Generated_Source\PSoC5/LIN_1_UART.c ****     {
 739              		.loc 1 891 0
 740              		.cfi_startproc
 741              		@ args = 0, pretend = 0, frame = 8
 742              		@ frame_needed = 1, uses_anonymous_args = 0
 743              		@ link register save eliminated.
 744 0000 80B4     		push	{r7}
 745              	.LCFI41:
 746              		.cfi_def_cfa_offset 4
 747              		.cfi_offset 7, -4
 748 0002 83B0     		sub	sp, sp, #12
 749              	.LCFI42:
 750              		.cfi_def_cfa_offset 16
 751 0004 00AF     		add	r7, sp, #0
 752              	.LCFI43:
 753              		.cfi_def_cfa_register 7
 754 0006 0346     		mov	r3, r0
 755 0008 FB71     		strb	r3, [r7, #7]
 892:.\Generated_Source\PSoC5/LIN_1_UART.c ****         LIN_1_UART_RXADDRESS2_REG = address;
 756              		.loc 1 892 0
 757 000a 46F23453 		movw	r3, #25908
 758 000e C4F20003 		movt	r3, 16384
 759 0012 FA79     		ldrb	r2, [r7, #7]
 760 0014 1A70     		strb	r2, [r3, #0]
ARM GAS  C:\Users\MATSUD~1\AppData\Local\Temp\ccwDh0Hw.s 			page 30


 893:.\Generated_Source\PSoC5/LIN_1_UART.c ****     }
 761              		.loc 1 893 0
 762 0016 07F10C07 		add	r7, r7, #12
 763 001a BD46     		mov	sp, r7
 764 001c 80BC     		pop	{r7}
 765 001e 7047     		bx	lr
 766              		.cfi_endproc
 767              	.LFE15:
 768              		.size	LIN_1_UART_SetRxAddress2, .-LIN_1_UART_SetRxAddress2
 769              		.section	.text.LIN_1_UART_SetTxInterruptMode,"ax",%progbits
 770              		.align	2
 771              		.global	LIN_1_UART_SetTxInterruptMode
 772              		.thumb
 773              		.thumb_func
 774              		.type	LIN_1_UART_SetTxInterruptMode, %function
 775              	LIN_1_UART_SetTxInterruptMode:
 776              	.LFB16:
 894:.\Generated_Source\PSoC5/LIN_1_UART.c **** 
 895:.\Generated_Source\PSoC5/LIN_1_UART.c **** #endif  /* LIN_1_UART_RX_ENABLED || LIN_1_UART_HD_ENABLED*/
 896:.\Generated_Source\PSoC5/LIN_1_UART.c **** 
 897:.\Generated_Source\PSoC5/LIN_1_UART.c **** 
 898:.\Generated_Source\PSoC5/LIN_1_UART.c **** #if( (LIN_1_UART_TX_ENABLED) || (LIN_1_UART_HD_ENABLED) )
 899:.\Generated_Source\PSoC5/LIN_1_UART.c **** 
 900:.\Generated_Source\PSoC5/LIN_1_UART.c ****     #if(LIN_1_UART_TX_INTERRUPT_ENABLED)
 901:.\Generated_Source\PSoC5/LIN_1_UART.c **** 
 902:.\Generated_Source\PSoC5/LIN_1_UART.c ****         /*******************************************************************************
 903:.\Generated_Source\PSoC5/LIN_1_UART.c ****         * Function Name: LIN_1_UART_EnableTxInt
 904:.\Generated_Source\PSoC5/LIN_1_UART.c ****         ********************************************************************************
 905:.\Generated_Source\PSoC5/LIN_1_UART.c ****         *
 906:.\Generated_Source\PSoC5/LIN_1_UART.c ****         * Summary:
 907:.\Generated_Source\PSoC5/LIN_1_UART.c ****         *  Enable TX interrupt generation
 908:.\Generated_Source\PSoC5/LIN_1_UART.c ****         *
 909:.\Generated_Source\PSoC5/LIN_1_UART.c ****         * Parameters:
 910:.\Generated_Source\PSoC5/LIN_1_UART.c ****         *  None.
 911:.\Generated_Source\PSoC5/LIN_1_UART.c ****         *
 912:.\Generated_Source\PSoC5/LIN_1_UART.c ****         * Return:
 913:.\Generated_Source\PSoC5/LIN_1_UART.c ****         *  None.
 914:.\Generated_Source\PSoC5/LIN_1_UART.c ****         *
 915:.\Generated_Source\PSoC5/LIN_1_UART.c ****         * Theory:
 916:.\Generated_Source\PSoC5/LIN_1_UART.c ****         *  Enable the interrupt output -or- the interrupt component itself
 917:.\Generated_Source\PSoC5/LIN_1_UART.c ****         *
 918:.\Generated_Source\PSoC5/LIN_1_UART.c ****         *******************************************************************************/
 919:.\Generated_Source\PSoC5/LIN_1_UART.c ****         void LIN_1_UART_EnableTxInt(void) 
 920:.\Generated_Source\PSoC5/LIN_1_UART.c ****         {
 921:.\Generated_Source\PSoC5/LIN_1_UART.c ****             CyIntEnable(LIN_1_UART_TX_VECT_NUM);
 922:.\Generated_Source\PSoC5/LIN_1_UART.c ****         }
 923:.\Generated_Source\PSoC5/LIN_1_UART.c **** 
 924:.\Generated_Source\PSoC5/LIN_1_UART.c **** 
 925:.\Generated_Source\PSoC5/LIN_1_UART.c ****         /*******************************************************************************
 926:.\Generated_Source\PSoC5/LIN_1_UART.c ****         * Function Name: LIN_1_UART_DisableTxInt
 927:.\Generated_Source\PSoC5/LIN_1_UART.c ****         ********************************************************************************
 928:.\Generated_Source\PSoC5/LIN_1_UART.c ****         *
 929:.\Generated_Source\PSoC5/LIN_1_UART.c ****         * Summary:
 930:.\Generated_Source\PSoC5/LIN_1_UART.c ****         *  Disable TX interrupt generation
 931:.\Generated_Source\PSoC5/LIN_1_UART.c ****         *
 932:.\Generated_Source\PSoC5/LIN_1_UART.c ****         * Parameters:
 933:.\Generated_Source\PSoC5/LIN_1_UART.c ****         *  None.
ARM GAS  C:\Users\MATSUD~1\AppData\Local\Temp\ccwDh0Hw.s 			page 31


 934:.\Generated_Source\PSoC5/LIN_1_UART.c ****         *
 935:.\Generated_Source\PSoC5/LIN_1_UART.c ****         * Return:
 936:.\Generated_Source\PSoC5/LIN_1_UART.c ****         *  None.
 937:.\Generated_Source\PSoC5/LIN_1_UART.c ****         *
 938:.\Generated_Source\PSoC5/LIN_1_UART.c ****         * Theory:
 939:.\Generated_Source\PSoC5/LIN_1_UART.c ****         *  Disable the interrupt output -or- the interrupt component itself
 940:.\Generated_Source\PSoC5/LIN_1_UART.c ****         *
 941:.\Generated_Source\PSoC5/LIN_1_UART.c ****         *******************************************************************************/
 942:.\Generated_Source\PSoC5/LIN_1_UART.c ****         void LIN_1_UART_DisableTxInt(void) 
 943:.\Generated_Source\PSoC5/LIN_1_UART.c ****         {
 944:.\Generated_Source\PSoC5/LIN_1_UART.c ****             CyIntDisable(LIN_1_UART_TX_VECT_NUM);
 945:.\Generated_Source\PSoC5/LIN_1_UART.c ****         }
 946:.\Generated_Source\PSoC5/LIN_1_UART.c **** 
 947:.\Generated_Source\PSoC5/LIN_1_UART.c ****     #endif /* LIN_1_UART_TX_INTERRUPT_ENABLED */
 948:.\Generated_Source\PSoC5/LIN_1_UART.c **** 
 949:.\Generated_Source\PSoC5/LIN_1_UART.c **** 
 950:.\Generated_Source\PSoC5/LIN_1_UART.c ****     /*******************************************************************************
 951:.\Generated_Source\PSoC5/LIN_1_UART.c ****     * Function Name: LIN_1_UART_SetTxInterruptMode
 952:.\Generated_Source\PSoC5/LIN_1_UART.c ****     ********************************************************************************
 953:.\Generated_Source\PSoC5/LIN_1_UART.c ****     *
 954:.\Generated_Source\PSoC5/LIN_1_UART.c ****     * Summary:
 955:.\Generated_Source\PSoC5/LIN_1_UART.c ****     *  Configure which status bits trigger an interrupt event
 956:.\Generated_Source\PSoC5/LIN_1_UART.c ****     *
 957:.\Generated_Source\PSoC5/LIN_1_UART.c ****     * Parameters:
 958:.\Generated_Source\PSoC5/LIN_1_UART.c ****     *  intSrc: An or'd combination of the desired status bit masks (defined in
 959:.\Generated_Source\PSoC5/LIN_1_UART.c ****     *          the header file)
 960:.\Generated_Source\PSoC5/LIN_1_UART.c ****     *
 961:.\Generated_Source\PSoC5/LIN_1_UART.c ****     * Return:
 962:.\Generated_Source\PSoC5/LIN_1_UART.c ****     *  None.
 963:.\Generated_Source\PSoC5/LIN_1_UART.c ****     *
 964:.\Generated_Source\PSoC5/LIN_1_UART.c ****     * Theory:
 965:.\Generated_Source\PSoC5/LIN_1_UART.c ****     *  Enables the output of specific status bits to the interrupt controller
 966:.\Generated_Source\PSoC5/LIN_1_UART.c ****     *
 967:.\Generated_Source\PSoC5/LIN_1_UART.c ****     *******************************************************************************/
 968:.\Generated_Source\PSoC5/LIN_1_UART.c ****     void LIN_1_UART_SetTxInterruptMode(uint8 intSrc) 
 969:.\Generated_Source\PSoC5/LIN_1_UART.c ****     {
 777              		.loc 1 969 0
 778              		.cfi_startproc
 779              		@ args = 0, pretend = 0, frame = 8
 780              		@ frame_needed = 1, uses_anonymous_args = 0
 781              		@ link register save eliminated.
 782 0000 80B4     		push	{r7}
 783              	.LCFI44:
 784              		.cfi_def_cfa_offset 4
 785              		.cfi_offset 7, -4
 786 0002 83B0     		sub	sp, sp, #12
 787              	.LCFI45:
 788              		.cfi_def_cfa_offset 16
 789 0004 00AF     		add	r7, sp, #0
 790              	.LCFI46:
 791              		.cfi_def_cfa_register 7
 792 0006 0346     		mov	r3, r0
 793 0008 FB71     		strb	r3, [r7, #7]
 970:.\Generated_Source\PSoC5/LIN_1_UART.c ****         LIN_1_UART_TXSTATUS_MASK_REG = intSrc;
 794              		.loc 1 970 0
 795 000a 46F28743 		movw	r3, #25735
 796 000e C4F20003 		movt	r3, 16384
ARM GAS  C:\Users\MATSUD~1\AppData\Local\Temp\ccwDh0Hw.s 			page 32


 797 0012 FA79     		ldrb	r2, [r7, #7]
 798 0014 1A70     		strb	r2, [r3, #0]
 971:.\Generated_Source\PSoC5/LIN_1_UART.c ****     }
 799              		.loc 1 971 0
 800 0016 07F10C07 		add	r7, r7, #12
 801 001a BD46     		mov	sp, r7
 802 001c 80BC     		pop	{r7}
 803 001e 7047     		bx	lr
 804              		.cfi_endproc
 805              	.LFE16:
 806              		.size	LIN_1_UART_SetTxInterruptMode, .-LIN_1_UART_SetTxInterruptMode
 807              		.section	.text.LIN_1_UART_WriteTxData,"ax",%progbits
 808              		.align	2
 809              		.global	LIN_1_UART_WriteTxData
 810              		.thumb
 811              		.thumb_func
 812              		.type	LIN_1_UART_WriteTxData, %function
 813              	LIN_1_UART_WriteTxData:
 814              	.LFB17:
 972:.\Generated_Source\PSoC5/LIN_1_UART.c **** 
 973:.\Generated_Source\PSoC5/LIN_1_UART.c **** 
 974:.\Generated_Source\PSoC5/LIN_1_UART.c ****     /*******************************************************************************
 975:.\Generated_Source\PSoC5/LIN_1_UART.c ****     * Function Name: LIN_1_UART_WriteTxData
 976:.\Generated_Source\PSoC5/LIN_1_UART.c ****     ********************************************************************************
 977:.\Generated_Source\PSoC5/LIN_1_UART.c ****     *
 978:.\Generated_Source\PSoC5/LIN_1_UART.c ****     * Summary:
 979:.\Generated_Source\PSoC5/LIN_1_UART.c ****     *  Write a byte of data to the Transmit FIFO or TX buffer to be sent when the
 980:.\Generated_Source\PSoC5/LIN_1_UART.c ****     *  bus is available. WriteTxData sends a byte without checking for buffer room
 981:.\Generated_Source\PSoC5/LIN_1_UART.c ****     *  or status. It is up to the user to separately check status.
 982:.\Generated_Source\PSoC5/LIN_1_UART.c ****     *
 983:.\Generated_Source\PSoC5/LIN_1_UART.c ****     * Parameters:
 984:.\Generated_Source\PSoC5/LIN_1_UART.c ****     *  TXDataByte: byte of data to place in the transmit FIFO
 985:.\Generated_Source\PSoC5/LIN_1_UART.c ****     *
 986:.\Generated_Source\PSoC5/LIN_1_UART.c ****     * Return:
 987:.\Generated_Source\PSoC5/LIN_1_UART.c ****     * void
 988:.\Generated_Source\PSoC5/LIN_1_UART.c ****     *
 989:.\Generated_Source\PSoC5/LIN_1_UART.c ****     * Global Variables:
 990:.\Generated_Source\PSoC5/LIN_1_UART.c ****     *  LIN_1_UART_txBuffer - RAM buffer pointer for save data for transmission
 991:.\Generated_Source\PSoC5/LIN_1_UART.c ****     *  LIN_1_UART_txBufferWrite - cyclic index for write to txBuffer,
 992:.\Generated_Source\PSoC5/LIN_1_UART.c ****     *    incremented after each byte saved to buffer.
 993:.\Generated_Source\PSoC5/LIN_1_UART.c ****     *  LIN_1_UART_txBufferRead - cyclic index for read from txBuffer,
 994:.\Generated_Source\PSoC5/LIN_1_UART.c ****     *    checked to identify the condition to write to FIFO directly or to TX buffer
 995:.\Generated_Source\PSoC5/LIN_1_UART.c ****     *  LIN_1_UART_initVar - checked to identify that the component has been
 996:.\Generated_Source\PSoC5/LIN_1_UART.c ****     *    initialized.
 997:.\Generated_Source\PSoC5/LIN_1_UART.c ****     *
 998:.\Generated_Source\PSoC5/LIN_1_UART.c ****     * Reentrant:
 999:.\Generated_Source\PSoC5/LIN_1_UART.c ****     *  No.
1000:.\Generated_Source\PSoC5/LIN_1_UART.c ****     *
1001:.\Generated_Source\PSoC5/LIN_1_UART.c ****     *******************************************************************************/
1002:.\Generated_Source\PSoC5/LIN_1_UART.c ****     void LIN_1_UART_WriteTxData(uint8 txDataByte) 
1003:.\Generated_Source\PSoC5/LIN_1_UART.c ****     {
 815              		.loc 1 1003 0
 816              		.cfi_startproc
 817              		@ args = 0, pretend = 0, frame = 8
 818              		@ frame_needed = 1, uses_anonymous_args = 0
 819              		@ link register save eliminated.
 820 0000 80B4     		push	{r7}
ARM GAS  C:\Users\MATSUD~1\AppData\Local\Temp\ccwDh0Hw.s 			page 33


 821              	.LCFI47:
 822              		.cfi_def_cfa_offset 4
 823              		.cfi_offset 7, -4
 824 0002 83B0     		sub	sp, sp, #12
 825              	.LCFI48:
 826              		.cfi_def_cfa_offset 16
 827 0004 00AF     		add	r7, sp, #0
 828              	.LCFI49:
 829              		.cfi_def_cfa_register 7
 830 0006 0346     		mov	r3, r0
 831 0008 FB71     		strb	r3, [r7, #7]
1004:.\Generated_Source\PSoC5/LIN_1_UART.c ****         /* If not Initialized then skip this function*/
1005:.\Generated_Source\PSoC5/LIN_1_UART.c ****         if(LIN_1_UART_initVar != 0u)
 832              		.loc 1 1005 0
 833 000a 40F20003 		movw	r3, #:lower16:LIN_1_UART_initVar
 834 000e C0F20003 		movt	r3, #:upper16:LIN_1_UART_initVar
 835 0012 1B78     		ldrb	r3, [r3, #0]	@ zero_extendqisi2
 836 0014 002B     		cmp	r3, #0
 837 0016 05D0     		beq	.L28
1006:.\Generated_Source\PSoC5/LIN_1_UART.c ****         {
1007:.\Generated_Source\PSoC5/LIN_1_UART.c ****             #if(LIN_1_UART_TXBUFFERSIZE > LIN_1_UART_FIFO_LENGTH)
1008:.\Generated_Source\PSoC5/LIN_1_UART.c **** 
1009:.\Generated_Source\PSoC5/LIN_1_UART.c ****                 /* Disable Tx interrupt. */
1010:.\Generated_Source\PSoC5/LIN_1_UART.c ****                 /* Protect variables that could change on interrupt. */
1011:.\Generated_Source\PSoC5/LIN_1_UART.c ****                 #if(LIN_1_UART_TX_INTERRUPT_ENABLED)
1012:.\Generated_Source\PSoC5/LIN_1_UART.c ****                     LIN_1_UART_DisableTxInt();
1013:.\Generated_Source\PSoC5/LIN_1_UART.c ****                 #endif /* End LIN_1_UART_TX_INTERRUPT_ENABLED */
1014:.\Generated_Source\PSoC5/LIN_1_UART.c **** 
1015:.\Generated_Source\PSoC5/LIN_1_UART.c ****                 if( (LIN_1_UART_txBufferRead == LIN_1_UART_txBufferWrite) &&
1016:.\Generated_Source\PSoC5/LIN_1_UART.c ****                     ((LIN_1_UART_TXSTATUS_REG & LIN_1_UART_TX_STS_FIFO_FULL) == 0u) )
1017:.\Generated_Source\PSoC5/LIN_1_UART.c ****                 {
1018:.\Generated_Source\PSoC5/LIN_1_UART.c ****                     /* Add directly to the FIFO. */
1019:.\Generated_Source\PSoC5/LIN_1_UART.c ****                     LIN_1_UART_TXDATA_REG = txDataByte;
1020:.\Generated_Source\PSoC5/LIN_1_UART.c ****                 }
1021:.\Generated_Source\PSoC5/LIN_1_UART.c ****                 else
1022:.\Generated_Source\PSoC5/LIN_1_UART.c ****                 {
1023:.\Generated_Source\PSoC5/LIN_1_UART.c ****                     if(LIN_1_UART_txBufferWrite >= LIN_1_UART_TXBUFFERSIZE)
1024:.\Generated_Source\PSoC5/LIN_1_UART.c ****                     {
1025:.\Generated_Source\PSoC5/LIN_1_UART.c ****                         LIN_1_UART_txBufferWrite = 0u;
1026:.\Generated_Source\PSoC5/LIN_1_UART.c ****                     }
1027:.\Generated_Source\PSoC5/LIN_1_UART.c **** 
1028:.\Generated_Source\PSoC5/LIN_1_UART.c ****                     LIN_1_UART_txBuffer[LIN_1_UART_txBufferWrite] = txDataByte;
1029:.\Generated_Source\PSoC5/LIN_1_UART.c **** 
1030:.\Generated_Source\PSoC5/LIN_1_UART.c ****                     /* Add to the software buffer. */
1031:.\Generated_Source\PSoC5/LIN_1_UART.c ****                     LIN_1_UART_txBufferWrite++;
1032:.\Generated_Source\PSoC5/LIN_1_UART.c **** 
1033:.\Generated_Source\PSoC5/LIN_1_UART.c ****                 }
1034:.\Generated_Source\PSoC5/LIN_1_UART.c **** 
1035:.\Generated_Source\PSoC5/LIN_1_UART.c ****                 /* Enable Tx interrupt. */
1036:.\Generated_Source\PSoC5/LIN_1_UART.c ****                 #if(LIN_1_UART_TX_INTERRUPT_ENABLED)
1037:.\Generated_Source\PSoC5/LIN_1_UART.c ****                     LIN_1_UART_EnableTxInt();
1038:.\Generated_Source\PSoC5/LIN_1_UART.c ****                 #endif /* End LIN_1_UART_TX_INTERRUPT_ENABLED */
1039:.\Generated_Source\PSoC5/LIN_1_UART.c **** 
1040:.\Generated_Source\PSoC5/LIN_1_UART.c ****             #else /* LIN_1_UART_TXBUFFERSIZE > LIN_1_UART_FIFO_LENGTH */
1041:.\Generated_Source\PSoC5/LIN_1_UART.c **** 
1042:.\Generated_Source\PSoC5/LIN_1_UART.c ****                 /* Add directly to the FIFO. */
1043:.\Generated_Source\PSoC5/LIN_1_UART.c ****                 LIN_1_UART_TXDATA_REG = txDataByte;
ARM GAS  C:\Users\MATSUD~1\AppData\Local\Temp\ccwDh0Hw.s 			page 34


 838              		.loc 1 1043 0
 839 0018 46F24743 		movw	r3, #25671
 840 001c C4F20003 		movt	r3, 16384
 841 0020 FA79     		ldrb	r2, [r7, #7]
 842 0022 1A70     		strb	r2, [r3, #0]
 843              	.L28:
1044:.\Generated_Source\PSoC5/LIN_1_UART.c **** 
1045:.\Generated_Source\PSoC5/LIN_1_UART.c ****             #endif /* End LIN_1_UART_TXBUFFERSIZE > LIN_1_UART_FIFO_LENGTH */
1046:.\Generated_Source\PSoC5/LIN_1_UART.c ****         }
1047:.\Generated_Source\PSoC5/LIN_1_UART.c ****     }
 844              		.loc 1 1047 0
 845 0024 07F10C07 		add	r7, r7, #12
 846 0028 BD46     		mov	sp, r7
 847 002a 80BC     		pop	{r7}
 848 002c 7047     		bx	lr
 849              		.cfi_endproc
 850              	.LFE17:
 851              		.size	LIN_1_UART_WriteTxData, .-LIN_1_UART_WriteTxData
 852 002e 00BF     		.section	.text.LIN_1_UART_ReadTxStatus,"ax",%progbits
 853              		.align	2
 854              		.global	LIN_1_UART_ReadTxStatus
 855              		.thumb
 856              		.thumb_func
 857              		.type	LIN_1_UART_ReadTxStatus, %function
 858              	LIN_1_UART_ReadTxStatus:
 859              	.LFB18:
1048:.\Generated_Source\PSoC5/LIN_1_UART.c **** 
1049:.\Generated_Source\PSoC5/LIN_1_UART.c **** 
1050:.\Generated_Source\PSoC5/LIN_1_UART.c ****     /*******************************************************************************
1051:.\Generated_Source\PSoC5/LIN_1_UART.c ****     * Function Name: LIN_1_UART_ReadTxStatus
1052:.\Generated_Source\PSoC5/LIN_1_UART.c ****     ********************************************************************************
1053:.\Generated_Source\PSoC5/LIN_1_UART.c ****     *
1054:.\Generated_Source\PSoC5/LIN_1_UART.c ****     * Summary:
1055:.\Generated_Source\PSoC5/LIN_1_UART.c ****     *  Read the status register for the component
1056:.\Generated_Source\PSoC5/LIN_1_UART.c ****     *
1057:.\Generated_Source\PSoC5/LIN_1_UART.c ****     * Parameters:
1058:.\Generated_Source\PSoC5/LIN_1_UART.c ****     *  None.
1059:.\Generated_Source\PSoC5/LIN_1_UART.c ****     *
1060:.\Generated_Source\PSoC5/LIN_1_UART.c ****     * Return:
1061:.\Generated_Source\PSoC5/LIN_1_UART.c ****     *  Contents of the status register
1062:.\Generated_Source\PSoC5/LIN_1_UART.c ****     *
1063:.\Generated_Source\PSoC5/LIN_1_UART.c ****     * Theory:
1064:.\Generated_Source\PSoC5/LIN_1_UART.c ****     *  This function reads the status register which is clear on read. It is up to
1065:.\Generated_Source\PSoC5/LIN_1_UART.c ****     *  the user to handle all bits in this return value accordingly, even if the bit
1066:.\Generated_Source\PSoC5/LIN_1_UART.c ****     *  was not enabled as an interrupt source the event happened and must be handled
1067:.\Generated_Source\PSoC5/LIN_1_UART.c ****     *  accordingly.
1068:.\Generated_Source\PSoC5/LIN_1_UART.c ****     *
1069:.\Generated_Source\PSoC5/LIN_1_UART.c ****     *******************************************************************************/
1070:.\Generated_Source\PSoC5/LIN_1_UART.c ****     uint8 LIN_1_UART_ReadTxStatus(void) 
1071:.\Generated_Source\PSoC5/LIN_1_UART.c ****     {
 860              		.loc 1 1071 0
 861              		.cfi_startproc
 862              		@ args = 0, pretend = 0, frame = 0
 863              		@ frame_needed = 1, uses_anonymous_args = 0
 864              		@ link register save eliminated.
 865 0000 80B4     		push	{r7}
 866              	.LCFI50:
ARM GAS  C:\Users\MATSUD~1\AppData\Local\Temp\ccwDh0Hw.s 			page 35


 867              		.cfi_def_cfa_offset 4
 868              		.cfi_offset 7, -4
 869 0002 00AF     		add	r7, sp, #0
 870              	.LCFI51:
 871              		.cfi_def_cfa_register 7
1072:.\Generated_Source\PSoC5/LIN_1_UART.c ****         return(LIN_1_UART_TXSTATUS_REG);
 872              		.loc 1 1072 0
 873 0004 46F26743 		movw	r3, #25703
 874 0008 C4F20003 		movt	r3, 16384
 875 000c 1B78     		ldrb	r3, [r3, #0]
 876 000e DBB2     		uxtb	r3, r3
1073:.\Generated_Source\PSoC5/LIN_1_UART.c ****     }
 877              		.loc 1 1073 0
 878 0010 1846     		mov	r0, r3
 879 0012 BD46     		mov	sp, r7
 880 0014 80BC     		pop	{r7}
 881 0016 7047     		bx	lr
 882              		.cfi_endproc
 883              	.LFE18:
 884              		.size	LIN_1_UART_ReadTxStatus, .-LIN_1_UART_ReadTxStatus
 885              		.section	.text.LIN_1_UART_PutChar,"ax",%progbits
 886              		.align	2
 887              		.global	LIN_1_UART_PutChar
 888              		.thumb
 889              		.thumb_func
 890              		.type	LIN_1_UART_PutChar, %function
 891              	LIN_1_UART_PutChar:
 892              	.LFB19:
1074:.\Generated_Source\PSoC5/LIN_1_UART.c **** 
1075:.\Generated_Source\PSoC5/LIN_1_UART.c **** 
1076:.\Generated_Source\PSoC5/LIN_1_UART.c ****     /*******************************************************************************
1077:.\Generated_Source\PSoC5/LIN_1_UART.c ****     * Function Name: LIN_1_UART_PutChar
1078:.\Generated_Source\PSoC5/LIN_1_UART.c ****     ********************************************************************************
1079:.\Generated_Source\PSoC5/LIN_1_UART.c ****     *
1080:.\Generated_Source\PSoC5/LIN_1_UART.c ****     * Summary:
1081:.\Generated_Source\PSoC5/LIN_1_UART.c ****     *  Wait to send byte until TX register or buffer has room.
1082:.\Generated_Source\PSoC5/LIN_1_UART.c ****     *
1083:.\Generated_Source\PSoC5/LIN_1_UART.c ****     * Parameters:
1084:.\Generated_Source\PSoC5/LIN_1_UART.c ****     *  txDataByte: The 8-bit data value to send across the UART.
1085:.\Generated_Source\PSoC5/LIN_1_UART.c ****     *
1086:.\Generated_Source\PSoC5/LIN_1_UART.c ****     * Return:
1087:.\Generated_Source\PSoC5/LIN_1_UART.c ****     *  None.
1088:.\Generated_Source\PSoC5/LIN_1_UART.c ****     *
1089:.\Generated_Source\PSoC5/LIN_1_UART.c ****     * Global Variables:
1090:.\Generated_Source\PSoC5/LIN_1_UART.c ****     *  LIN_1_UART_txBuffer - RAM buffer pointer for save data for transmission
1091:.\Generated_Source\PSoC5/LIN_1_UART.c ****     *  LIN_1_UART_txBufferWrite - cyclic index for write to txBuffer,
1092:.\Generated_Source\PSoC5/LIN_1_UART.c ****     *     checked to identify free space in txBuffer and incremented after each byte
1093:.\Generated_Source\PSoC5/LIN_1_UART.c ****     *     saved to buffer.
1094:.\Generated_Source\PSoC5/LIN_1_UART.c ****     *  LIN_1_UART_txBufferRead - cyclic index for read from txBuffer,
1095:.\Generated_Source\PSoC5/LIN_1_UART.c ****     *     checked to identify free space in txBuffer.
1096:.\Generated_Source\PSoC5/LIN_1_UART.c ****     *  LIN_1_UART_initVar - checked to identify that the component has been
1097:.\Generated_Source\PSoC5/LIN_1_UART.c ****     *     initialized.
1098:.\Generated_Source\PSoC5/LIN_1_UART.c ****     *
1099:.\Generated_Source\PSoC5/LIN_1_UART.c ****     * Reentrant:
1100:.\Generated_Source\PSoC5/LIN_1_UART.c ****     *  No.
1101:.\Generated_Source\PSoC5/LIN_1_UART.c ****     *
1102:.\Generated_Source\PSoC5/LIN_1_UART.c ****     * Theory:
ARM GAS  C:\Users\MATSUD~1\AppData\Local\Temp\ccwDh0Hw.s 			page 36


1103:.\Generated_Source\PSoC5/LIN_1_UART.c ****     *  Allows the user to transmit any byte of data in a single transfer
1104:.\Generated_Source\PSoC5/LIN_1_UART.c ****     *
1105:.\Generated_Source\PSoC5/LIN_1_UART.c ****     *******************************************************************************/
1106:.\Generated_Source\PSoC5/LIN_1_UART.c ****     void LIN_1_UART_PutChar(uint8 txDataByte) 
1107:.\Generated_Source\PSoC5/LIN_1_UART.c ****     {
 893              		.loc 1 1107 0
 894              		.cfi_startproc
 895              		@ args = 0, pretend = 0, frame = 8
 896              		@ frame_needed = 1, uses_anonymous_args = 0
 897              		@ link register save eliminated.
 898 0000 80B4     		push	{r7}
 899              	.LCFI52:
 900              		.cfi_def_cfa_offset 4
 901              		.cfi_offset 7, -4
 902 0002 83B0     		sub	sp, sp, #12
 903              	.LCFI53:
 904              		.cfi_def_cfa_offset 16
 905 0004 00AF     		add	r7, sp, #0
 906              	.LCFI54:
 907              		.cfi_def_cfa_register 7
 908 0006 0346     		mov	r3, r0
 909 0008 FB71     		strb	r3, [r7, #7]
1108:.\Generated_Source\PSoC5/LIN_1_UART.c ****             #if(LIN_1_UART_TXBUFFERSIZE > LIN_1_UART_FIFO_LENGTH)
1109:.\Generated_Source\PSoC5/LIN_1_UART.c ****                 /* The temporary output pointer is used since it takes two instructions
1110:.\Generated_Source\PSoC5/LIN_1_UART.c ****                 *  to increment with a wrap, and we can't risk doing that with the real
1111:.\Generated_Source\PSoC5/LIN_1_UART.c ****                 *  pointer and getting an interrupt in between instructions.
1112:.\Generated_Source\PSoC5/LIN_1_UART.c ****                 */
1113:.\Generated_Source\PSoC5/LIN_1_UART.c ****                 uint8 loc_txBufferWrite;
1114:.\Generated_Source\PSoC5/LIN_1_UART.c ****                 uint8 loc_txBufferRead;
1115:.\Generated_Source\PSoC5/LIN_1_UART.c **** 
1116:.\Generated_Source\PSoC5/LIN_1_UART.c ****                 do{
1117:.\Generated_Source\PSoC5/LIN_1_UART.c ****                     /* Block if software buffer is full, so we don't overwrite. */
1118:.\Generated_Source\PSoC5/LIN_1_UART.c ****                     #if ((LIN_1_UART_TXBUFFERSIZE > LIN_1_UART_MAX_BYTE_VALUE) && (CY_PSOC3))
1119:.\Generated_Source\PSoC5/LIN_1_UART.c ****                         /* Disable TX interrupt to protect variables that could change on interrupt
1120:.\Generated_Source\PSoC5/LIN_1_UART.c ****                         CyIntDisable(LIN_1_UART_TX_VECT_NUM);
1121:.\Generated_Source\PSoC5/LIN_1_UART.c ****                     #endif /* End TXBUFFERSIZE > 255 */
1122:.\Generated_Source\PSoC5/LIN_1_UART.c ****                     loc_txBufferWrite = LIN_1_UART_txBufferWrite;
1123:.\Generated_Source\PSoC5/LIN_1_UART.c ****                     loc_txBufferRead = LIN_1_UART_txBufferRead;
1124:.\Generated_Source\PSoC5/LIN_1_UART.c ****                     #if ((LIN_1_UART_TXBUFFERSIZE > LIN_1_UART_MAX_BYTE_VALUE) && (CY_PSOC3))
1125:.\Generated_Source\PSoC5/LIN_1_UART.c ****                         /* Enable interrupt to continue transmission */
1126:.\Generated_Source\PSoC5/LIN_1_UART.c ****                         CyIntEnable(LIN_1_UART_TX_VECT_NUM);
1127:.\Generated_Source\PSoC5/LIN_1_UART.c ****                     #endif /* End TXBUFFERSIZE > 255 */
1128:.\Generated_Source\PSoC5/LIN_1_UART.c ****                 }while( (loc_txBufferWrite < loc_txBufferRead) ? (loc_txBufferWrite == (loc_txBuffe
1129:.\Generated_Source\PSoC5/LIN_1_UART.c ****                                         ((loc_txBufferWrite - loc_txBufferRead) ==
1130:.\Generated_Source\PSoC5/LIN_1_UART.c ****                                         (uint8)(LIN_1_UART_TXBUFFERSIZE - 1u)) );
1131:.\Generated_Source\PSoC5/LIN_1_UART.c **** 
1132:.\Generated_Source\PSoC5/LIN_1_UART.c ****                 if( (loc_txBufferRead == loc_txBufferWrite) &&
1133:.\Generated_Source\PSoC5/LIN_1_UART.c ****                     ((LIN_1_UART_TXSTATUS_REG & LIN_1_UART_TX_STS_FIFO_FULL) == 0u) )
1134:.\Generated_Source\PSoC5/LIN_1_UART.c ****                 {
1135:.\Generated_Source\PSoC5/LIN_1_UART.c ****                     /* Add directly to the FIFO. */
1136:.\Generated_Source\PSoC5/LIN_1_UART.c ****                     LIN_1_UART_TXDATA_REG = txDataByte;
1137:.\Generated_Source\PSoC5/LIN_1_UART.c ****                 }
1138:.\Generated_Source\PSoC5/LIN_1_UART.c ****                 else
1139:.\Generated_Source\PSoC5/LIN_1_UART.c ****                 {
1140:.\Generated_Source\PSoC5/LIN_1_UART.c ****                     if(loc_txBufferWrite >= LIN_1_UART_TXBUFFERSIZE)
1141:.\Generated_Source\PSoC5/LIN_1_UART.c ****                     {
1142:.\Generated_Source\PSoC5/LIN_1_UART.c ****                         loc_txBufferWrite = 0u;
ARM GAS  C:\Users\MATSUD~1\AppData\Local\Temp\ccwDh0Hw.s 			page 37


1143:.\Generated_Source\PSoC5/LIN_1_UART.c ****                     }
1144:.\Generated_Source\PSoC5/LIN_1_UART.c ****                     /* Add to the software buffer. */
1145:.\Generated_Source\PSoC5/LIN_1_UART.c ****                     LIN_1_UART_txBuffer[loc_txBufferWrite] = txDataByte;
1146:.\Generated_Source\PSoC5/LIN_1_UART.c ****                     loc_txBufferWrite++;
1147:.\Generated_Source\PSoC5/LIN_1_UART.c **** 
1148:.\Generated_Source\PSoC5/LIN_1_UART.c ****                     /* Finally, update the real output pointer */
1149:.\Generated_Source\PSoC5/LIN_1_UART.c ****                     #if ((LIN_1_UART_TXBUFFERSIZE > LIN_1_UART_MAX_BYTE_VALUE) && (CY_PSOC3))
1150:.\Generated_Source\PSoC5/LIN_1_UART.c ****                         CyIntDisable(LIN_1_UART_TX_VECT_NUM);
1151:.\Generated_Source\PSoC5/LIN_1_UART.c ****                     #endif /* End TXBUFFERSIZE > 255 */
1152:.\Generated_Source\PSoC5/LIN_1_UART.c ****                     LIN_1_UART_txBufferWrite = loc_txBufferWrite;
1153:.\Generated_Source\PSoC5/LIN_1_UART.c ****                     #if ((LIN_1_UART_TXBUFFERSIZE > LIN_1_UART_MAX_BYTE_VALUE) && (CY_PSOC3))
1154:.\Generated_Source\PSoC5/LIN_1_UART.c ****                         CyIntEnable(LIN_1_UART_TX_VECT_NUM);
1155:.\Generated_Source\PSoC5/LIN_1_UART.c ****                     #endif /* End TXBUFFERSIZE > 255 */
1156:.\Generated_Source\PSoC5/LIN_1_UART.c ****                 }
1157:.\Generated_Source\PSoC5/LIN_1_UART.c **** 
1158:.\Generated_Source\PSoC5/LIN_1_UART.c ****             #else /* LIN_1_UART_TXBUFFERSIZE > LIN_1_UART_FIFO_LENGTH */
1159:.\Generated_Source\PSoC5/LIN_1_UART.c **** 
1160:.\Generated_Source\PSoC5/LIN_1_UART.c ****                 while((LIN_1_UART_TXSTATUS_REG & LIN_1_UART_TX_STS_FIFO_FULL) != 0u)
 910              		.loc 1 1160 0
 911 000a 00BF     		nop
 912              	.L33:
 913              		.loc 1 1160 0 is_stmt 0 discriminator 1
 914 000c 46F26743 		movw	r3, #25703
 915 0010 C4F20003 		movt	r3, 16384
 916 0014 1B78     		ldrb	r3, [r3, #0]
 917 0016 DBB2     		uxtb	r3, r3
 918 0018 03F00403 		and	r3, r3, #4
 919 001c 002B     		cmp	r3, #0
 920 001e F5D1     		bne	.L33
1161:.\Generated_Source\PSoC5/LIN_1_UART.c ****                 {
1162:.\Generated_Source\PSoC5/LIN_1_UART.c ****                     ; /* Wait for room in the FIFO. */
1163:.\Generated_Source\PSoC5/LIN_1_UART.c ****                 }
1164:.\Generated_Source\PSoC5/LIN_1_UART.c **** 
1165:.\Generated_Source\PSoC5/LIN_1_UART.c ****                 /* Add directly to the FIFO. */
1166:.\Generated_Source\PSoC5/LIN_1_UART.c ****                 LIN_1_UART_TXDATA_REG = txDataByte;
 921              		.loc 1 1166 0 is_stmt 1
 922 0020 46F24743 		movw	r3, #25671
 923 0024 C4F20003 		movt	r3, 16384
 924 0028 FA79     		ldrb	r2, [r7, #7]
 925 002a 1A70     		strb	r2, [r3, #0]
1167:.\Generated_Source\PSoC5/LIN_1_UART.c **** 
1168:.\Generated_Source\PSoC5/LIN_1_UART.c ****             #endif /* End LIN_1_UART_TXBUFFERSIZE > LIN_1_UART_FIFO_LENGTH */
1169:.\Generated_Source\PSoC5/LIN_1_UART.c ****     }
 926              		.loc 1 1169 0
 927 002c 07F10C07 		add	r7, r7, #12
 928 0030 BD46     		mov	sp, r7
 929 0032 80BC     		pop	{r7}
 930 0034 7047     		bx	lr
 931              		.cfi_endproc
 932              	.LFE19:
 933              		.size	LIN_1_UART_PutChar, .-LIN_1_UART_PutChar
 934 0036 00BF     		.section	.text.LIN_1_UART_PutString,"ax",%progbits
 935              		.align	2
 936              		.global	LIN_1_UART_PutString
 937              		.thumb
 938              		.thumb_func
 939              		.type	LIN_1_UART_PutString, %function
ARM GAS  C:\Users\MATSUD~1\AppData\Local\Temp\ccwDh0Hw.s 			page 38


 940              	LIN_1_UART_PutString:
 941              	.LFB20:
1170:.\Generated_Source\PSoC5/LIN_1_UART.c **** 
1171:.\Generated_Source\PSoC5/LIN_1_UART.c **** 
1172:.\Generated_Source\PSoC5/LIN_1_UART.c ****     /*******************************************************************************
1173:.\Generated_Source\PSoC5/LIN_1_UART.c ****     * Function Name: LIN_1_UART_PutString
1174:.\Generated_Source\PSoC5/LIN_1_UART.c ****     ********************************************************************************
1175:.\Generated_Source\PSoC5/LIN_1_UART.c ****     *
1176:.\Generated_Source\PSoC5/LIN_1_UART.c ****     * Summary:
1177:.\Generated_Source\PSoC5/LIN_1_UART.c ****     *  Write a Sequence of bytes on the Transmit line. Data comes from RAM or ROM.
1178:.\Generated_Source\PSoC5/LIN_1_UART.c ****     *
1179:.\Generated_Source\PSoC5/LIN_1_UART.c ****     * Parameters:
1180:.\Generated_Source\PSoC5/LIN_1_UART.c ****     *  string: char pointer to character string of Data to Send.
1181:.\Generated_Source\PSoC5/LIN_1_UART.c ****     *
1182:.\Generated_Source\PSoC5/LIN_1_UART.c ****     * Return:
1183:.\Generated_Source\PSoC5/LIN_1_UART.c ****     *  None.
1184:.\Generated_Source\PSoC5/LIN_1_UART.c ****     *
1185:.\Generated_Source\PSoC5/LIN_1_UART.c ****     * Global Variables:
1186:.\Generated_Source\PSoC5/LIN_1_UART.c ****     *  LIN_1_UART_initVar - checked to identify that the component has been
1187:.\Generated_Source\PSoC5/LIN_1_UART.c ****     *     initialized.
1188:.\Generated_Source\PSoC5/LIN_1_UART.c ****     *
1189:.\Generated_Source\PSoC5/LIN_1_UART.c ****     * Reentrant:
1190:.\Generated_Source\PSoC5/LIN_1_UART.c ****     *  No.
1191:.\Generated_Source\PSoC5/LIN_1_UART.c ****     *
1192:.\Generated_Source\PSoC5/LIN_1_UART.c ****     * Theory:
1193:.\Generated_Source\PSoC5/LIN_1_UART.c ****     *  This function will block if there is not enough memory to place the whole
1194:.\Generated_Source\PSoC5/LIN_1_UART.c ****     *  string, it will block until the entire string has been written to the
1195:.\Generated_Source\PSoC5/LIN_1_UART.c ****     *  transmit buffer.
1196:.\Generated_Source\PSoC5/LIN_1_UART.c ****     *
1197:.\Generated_Source\PSoC5/LIN_1_UART.c ****     *******************************************************************************/
1198:.\Generated_Source\PSoC5/LIN_1_UART.c ****     void LIN_1_UART_PutString(const char8 string[]) 
1199:.\Generated_Source\PSoC5/LIN_1_UART.c ****     {
 942              		.loc 1 1199 0
 943              		.cfi_startproc
 944              		@ args = 0, pretend = 0, frame = 16
 945              		@ frame_needed = 1, uses_anonymous_args = 0
 946 0000 80B5     		push	{r7, lr}
 947              	.LCFI55:
 948              		.cfi_def_cfa_offset 8
 949              		.cfi_offset 7, -8
 950              		.cfi_offset 14, -4
 951 0002 84B0     		sub	sp, sp, #16
 952              	.LCFI56:
 953              		.cfi_def_cfa_offset 24
 954 0004 00AF     		add	r7, sp, #0
 955              	.LCFI57:
 956              		.cfi_def_cfa_register 7
 957 0006 7860     		str	r0, [r7, #4]
1200:.\Generated_Source\PSoC5/LIN_1_UART.c ****         uint16 buf_index = 0u;
 958              		.loc 1 1200 0
 959 0008 4FF00003 		mov	r3, #0
 960 000c FB81     		strh	r3, [r7, #14]	@ movhi
1201:.\Generated_Source\PSoC5/LIN_1_UART.c ****         /* If not Initialized then skip this function*/
1202:.\Generated_Source\PSoC5/LIN_1_UART.c ****         if(LIN_1_UART_initVar != 0u)
 961              		.loc 1 1202 0
 962 000e 40F20003 		movw	r3, #:lower16:LIN_1_UART_initVar
 963 0012 C0F20003 		movt	r3, #:upper16:LIN_1_UART_initVar
ARM GAS  C:\Users\MATSUD~1\AppData\Local\Temp\ccwDh0Hw.s 			page 39


 964 0016 1B78     		ldrb	r3, [r3, #0]	@ zero_extendqisi2
 965 0018 002B     		cmp	r3, #0
 966 001a 11D0     		beq	.L34
1203:.\Generated_Source\PSoC5/LIN_1_UART.c ****         {
1204:.\Generated_Source\PSoC5/LIN_1_UART.c ****             /* This is a blocking function, it will not exit until all data is sent*/
1205:.\Generated_Source\PSoC5/LIN_1_UART.c ****             while(string[buf_index] != (char8)0)
 967              		.loc 1 1205 0
 968 001c 0AE0     		b	.L36
 969              	.L37:
1206:.\Generated_Source\PSoC5/LIN_1_UART.c ****             {
1207:.\Generated_Source\PSoC5/LIN_1_UART.c ****                 LIN_1_UART_PutChar((uint8)string[buf_index]);
 970              		.loc 1 1207 0
 971 001e FB89     		ldrh	r3, [r7, #14]
 972 0020 7A68     		ldr	r2, [r7, #4]
 973 0022 D318     		adds	r3, r2, r3
 974 0024 1B78     		ldrb	r3, [r3, #0]	@ zero_extendqisi2
 975 0026 1846     		mov	r0, r3
 976 0028 FFF7FEFF 		bl	LIN_1_UART_PutChar
1208:.\Generated_Source\PSoC5/LIN_1_UART.c ****                 buf_index++;
 977              		.loc 1 1208 0
 978 002c FB89     		ldrh	r3, [r7, #14]	@ movhi
 979 002e 03F10103 		add	r3, r3, #1
 980 0032 FB81     		strh	r3, [r7, #14]	@ movhi
 981              	.L36:
1205:.\Generated_Source\PSoC5/LIN_1_UART.c ****             while(string[buf_index] != (char8)0)
 982              		.loc 1 1205 0 discriminator 1
 983 0034 FB89     		ldrh	r3, [r7, #14]
 984 0036 7A68     		ldr	r2, [r7, #4]
 985 0038 D318     		adds	r3, r2, r3
 986 003a 1B78     		ldrb	r3, [r3, #0]	@ zero_extendqisi2
 987 003c 002B     		cmp	r3, #0
 988 003e EED1     		bne	.L37
 989              	.L34:
1209:.\Generated_Source\PSoC5/LIN_1_UART.c ****             }
1210:.\Generated_Source\PSoC5/LIN_1_UART.c ****         }
1211:.\Generated_Source\PSoC5/LIN_1_UART.c ****     }
 990              		.loc 1 1211 0
 991 0040 07F11007 		add	r7, r7, #16
 992 0044 BD46     		mov	sp, r7
 993 0046 80BD     		pop	{r7, pc}
 994              		.cfi_endproc
 995              	.LFE20:
 996              		.size	LIN_1_UART_PutString, .-LIN_1_UART_PutString
 997              		.section	.text.LIN_1_UART_PutArray,"ax",%progbits
 998              		.align	2
 999              		.global	LIN_1_UART_PutArray
 1000              		.thumb
 1001              		.thumb_func
 1002              		.type	LIN_1_UART_PutArray, %function
 1003              	LIN_1_UART_PutArray:
 1004              	.LFB21:
1212:.\Generated_Source\PSoC5/LIN_1_UART.c **** 
1213:.\Generated_Source\PSoC5/LIN_1_UART.c **** 
1214:.\Generated_Source\PSoC5/LIN_1_UART.c ****     /*******************************************************************************
1215:.\Generated_Source\PSoC5/LIN_1_UART.c ****     * Function Name: LIN_1_UART_PutArray
1216:.\Generated_Source\PSoC5/LIN_1_UART.c ****     ********************************************************************************
1217:.\Generated_Source\PSoC5/LIN_1_UART.c ****     *
ARM GAS  C:\Users\MATSUD~1\AppData\Local\Temp\ccwDh0Hw.s 			page 40


1218:.\Generated_Source\PSoC5/LIN_1_UART.c ****     * Summary:
1219:.\Generated_Source\PSoC5/LIN_1_UART.c ****     *  Write a Sequence of bytes on the Transmit line. Data comes from RAM or ROM.
1220:.\Generated_Source\PSoC5/LIN_1_UART.c ****     *
1221:.\Generated_Source\PSoC5/LIN_1_UART.c ****     * Parameters:
1222:.\Generated_Source\PSoC5/LIN_1_UART.c ****     *  string: Address of the memory array residing in RAM or ROM.
1223:.\Generated_Source\PSoC5/LIN_1_UART.c ****     *  byteCount: Number of Bytes to be transmitted.
1224:.\Generated_Source\PSoC5/LIN_1_UART.c ****     *
1225:.\Generated_Source\PSoC5/LIN_1_UART.c ****     * Return:
1226:.\Generated_Source\PSoC5/LIN_1_UART.c ****     *  None.
1227:.\Generated_Source\PSoC5/LIN_1_UART.c ****     *
1228:.\Generated_Source\PSoC5/LIN_1_UART.c ****     * Global Variables:
1229:.\Generated_Source\PSoC5/LIN_1_UART.c ****     *  LIN_1_UART_initVar - checked to identify that the component has been
1230:.\Generated_Source\PSoC5/LIN_1_UART.c ****     *     initialized.
1231:.\Generated_Source\PSoC5/LIN_1_UART.c ****     *
1232:.\Generated_Source\PSoC5/LIN_1_UART.c ****     * Reentrant:
1233:.\Generated_Source\PSoC5/LIN_1_UART.c ****     *  No.
1234:.\Generated_Source\PSoC5/LIN_1_UART.c ****     *
1235:.\Generated_Source\PSoC5/LIN_1_UART.c ****     *******************************************************************************/
1236:.\Generated_Source\PSoC5/LIN_1_UART.c ****     void LIN_1_UART_PutArray(const uint8 string[], uint8 byteCount)
1237:.\Generated_Source\PSoC5/LIN_1_UART.c ****                                                                     
1238:.\Generated_Source\PSoC5/LIN_1_UART.c ****     {
 1005              		.loc 1 1238 0
 1006              		.cfi_startproc
 1007              		@ args = 0, pretend = 0, frame = 16
 1008              		@ frame_needed = 1, uses_anonymous_args = 0
 1009 0000 80B5     		push	{r7, lr}
 1010              	.LCFI58:
 1011              		.cfi_def_cfa_offset 8
 1012              		.cfi_offset 7, -8
 1013              		.cfi_offset 14, -4
 1014 0002 84B0     		sub	sp, sp, #16
 1015              	.LCFI59:
 1016              		.cfi_def_cfa_offset 24
 1017 0004 00AF     		add	r7, sp, #0
 1018              	.LCFI60:
 1019              		.cfi_def_cfa_register 7
 1020 0006 7860     		str	r0, [r7, #4]
 1021 0008 0B46     		mov	r3, r1
 1022 000a FB70     		strb	r3, [r7, #3]
1239:.\Generated_Source\PSoC5/LIN_1_UART.c ****         uint8 buf_index = 0u;
 1023              		.loc 1 1239 0
 1024 000c 4FF00003 		mov	r3, #0
 1025 0010 FB73     		strb	r3, [r7, #15]
1240:.\Generated_Source\PSoC5/LIN_1_UART.c ****         /* If not Initialized then skip this function*/
1241:.\Generated_Source\PSoC5/LIN_1_UART.c ****         if(LIN_1_UART_initVar != 0u)
 1026              		.loc 1 1241 0
 1027 0012 40F20003 		movw	r3, #:lower16:LIN_1_UART_initVar
 1028 0016 C0F20003 		movt	r3, #:upper16:LIN_1_UART_initVar
 1029 001a 1B78     		ldrb	r3, [r3, #0]	@ zero_extendqisi2
 1030 001c 002B     		cmp	r3, #0
 1031 001e 0ED0     		beq	.L38
 1032              	.L40:
1242:.\Generated_Source\PSoC5/LIN_1_UART.c ****         {
1243:.\Generated_Source\PSoC5/LIN_1_UART.c ****             do
1244:.\Generated_Source\PSoC5/LIN_1_UART.c ****             {
1245:.\Generated_Source\PSoC5/LIN_1_UART.c ****                 LIN_1_UART_PutChar(string[buf_index]);
 1033              		.loc 1 1245 0 discriminator 1
ARM GAS  C:\Users\MATSUD~1\AppData\Local\Temp\ccwDh0Hw.s 			page 41


 1034 0020 FB7B     		ldrb	r3, [r7, #15]	@ zero_extendqisi2
 1035 0022 7A68     		ldr	r2, [r7, #4]
 1036 0024 D318     		adds	r3, r2, r3
 1037 0026 1B78     		ldrb	r3, [r3, #0]	@ zero_extendqisi2
 1038 0028 1846     		mov	r0, r3
 1039 002a FFF7FEFF 		bl	LIN_1_UART_PutChar
1246:.\Generated_Source\PSoC5/LIN_1_UART.c ****                 buf_index++;
 1040              		.loc 1 1246 0 discriminator 1
 1041 002e FB7B     		ldrb	r3, [r7, #15]
 1042 0030 03F10103 		add	r3, r3, #1
 1043 0034 FB73     		strb	r3, [r7, #15]
1247:.\Generated_Source\PSoC5/LIN_1_UART.c ****             }while(buf_index < byteCount);
 1044              		.loc 1 1247 0 discriminator 1
 1045 0036 FA7B     		ldrb	r2, [r7, #15]	@ zero_extendqisi2
 1046 0038 FB78     		ldrb	r3, [r7, #3]	@ zero_extendqisi2
 1047 003a 9A42     		cmp	r2, r3
 1048 003c F0D3     		bcc	.L40
 1049              	.L38:
1248:.\Generated_Source\PSoC5/LIN_1_UART.c ****         }
1249:.\Generated_Source\PSoC5/LIN_1_UART.c ****     }
 1050              		.loc 1 1249 0
 1051 003e 07F11007 		add	r7, r7, #16
 1052 0042 BD46     		mov	sp, r7
 1053 0044 80BD     		pop	{r7, pc}
 1054              		.cfi_endproc
 1055              	.LFE21:
 1056              		.size	LIN_1_UART_PutArray, .-LIN_1_UART_PutArray
 1057 0046 00BF     		.section	.text.LIN_1_UART_PutCRLF,"ax",%progbits
 1058              		.align	2
 1059              		.global	LIN_1_UART_PutCRLF
 1060              		.thumb
 1061              		.thumb_func
 1062              		.type	LIN_1_UART_PutCRLF, %function
 1063              	LIN_1_UART_PutCRLF:
 1064              	.LFB22:
1250:.\Generated_Source\PSoC5/LIN_1_UART.c **** 
1251:.\Generated_Source\PSoC5/LIN_1_UART.c **** 
1252:.\Generated_Source\PSoC5/LIN_1_UART.c ****     /*******************************************************************************
1253:.\Generated_Source\PSoC5/LIN_1_UART.c ****     * Function Name: LIN_1_UART_PutCRLF
1254:.\Generated_Source\PSoC5/LIN_1_UART.c ****     ********************************************************************************
1255:.\Generated_Source\PSoC5/LIN_1_UART.c ****     *
1256:.\Generated_Source\PSoC5/LIN_1_UART.c ****     * Summary:
1257:.\Generated_Source\PSoC5/LIN_1_UART.c ****     *  Write a character and then carriage return and line feed.
1258:.\Generated_Source\PSoC5/LIN_1_UART.c ****     *
1259:.\Generated_Source\PSoC5/LIN_1_UART.c ****     * Parameters:
1260:.\Generated_Source\PSoC5/LIN_1_UART.c ****     *  txDataByte: uint8 Character to send.
1261:.\Generated_Source\PSoC5/LIN_1_UART.c ****     *
1262:.\Generated_Source\PSoC5/LIN_1_UART.c ****     * Return:
1263:.\Generated_Source\PSoC5/LIN_1_UART.c ****     *  None.
1264:.\Generated_Source\PSoC5/LIN_1_UART.c ****     *
1265:.\Generated_Source\PSoC5/LIN_1_UART.c ****     * Global Variables:
1266:.\Generated_Source\PSoC5/LIN_1_UART.c ****     *  LIN_1_UART_initVar - checked to identify that the component has been
1267:.\Generated_Source\PSoC5/LIN_1_UART.c ****     *     initialized.
1268:.\Generated_Source\PSoC5/LIN_1_UART.c ****     *
1269:.\Generated_Source\PSoC5/LIN_1_UART.c ****     * Reentrant:
1270:.\Generated_Source\PSoC5/LIN_1_UART.c ****     *  No.
1271:.\Generated_Source\PSoC5/LIN_1_UART.c ****     *
ARM GAS  C:\Users\MATSUD~1\AppData\Local\Temp\ccwDh0Hw.s 			page 42


1272:.\Generated_Source\PSoC5/LIN_1_UART.c ****     *******************************************************************************/
1273:.\Generated_Source\PSoC5/LIN_1_UART.c ****     void LIN_1_UART_PutCRLF(uint8 txDataByte) 
1274:.\Generated_Source\PSoC5/LIN_1_UART.c ****     {
 1065              		.loc 1 1274 0
 1066              		.cfi_startproc
 1067              		@ args = 0, pretend = 0, frame = 8
 1068              		@ frame_needed = 1, uses_anonymous_args = 0
 1069 0000 80B5     		push	{r7, lr}
 1070              	.LCFI61:
 1071              		.cfi_def_cfa_offset 8
 1072              		.cfi_offset 7, -8
 1073              		.cfi_offset 14, -4
 1074 0002 82B0     		sub	sp, sp, #8
 1075              	.LCFI62:
 1076              		.cfi_def_cfa_offset 16
 1077 0004 00AF     		add	r7, sp, #0
 1078              	.LCFI63:
 1079              		.cfi_def_cfa_register 7
 1080 0006 0346     		mov	r3, r0
 1081 0008 FB71     		strb	r3, [r7, #7]
1275:.\Generated_Source\PSoC5/LIN_1_UART.c ****         /* If not Initialized then skip this function*/
1276:.\Generated_Source\PSoC5/LIN_1_UART.c ****         if(LIN_1_UART_initVar != 0u)
 1082              		.loc 1 1276 0
 1083 000a 40F20003 		movw	r3, #:lower16:LIN_1_UART_initVar
 1084 000e C0F20003 		movt	r3, #:upper16:LIN_1_UART_initVar
 1085 0012 1B78     		ldrb	r3, [r3, #0]	@ zero_extendqisi2
 1086 0014 002B     		cmp	r3, #0
 1087 0016 0BD0     		beq	.L41
1277:.\Generated_Source\PSoC5/LIN_1_UART.c ****         {
1278:.\Generated_Source\PSoC5/LIN_1_UART.c ****             LIN_1_UART_PutChar(txDataByte);
 1088              		.loc 1 1278 0
 1089 0018 FB79     		ldrb	r3, [r7, #7]	@ zero_extendqisi2
 1090 001a 1846     		mov	r0, r3
 1091 001c FFF7FEFF 		bl	LIN_1_UART_PutChar
1279:.\Generated_Source\PSoC5/LIN_1_UART.c ****             LIN_1_UART_PutChar(0x0Du);
 1092              		.loc 1 1279 0
 1093 0020 4FF00D00 		mov	r0, #13
 1094 0024 FFF7FEFF 		bl	LIN_1_UART_PutChar
1280:.\Generated_Source\PSoC5/LIN_1_UART.c ****             LIN_1_UART_PutChar(0x0Au);
 1095              		.loc 1 1280 0
 1096 0028 4FF00A00 		mov	r0, #10
 1097 002c FFF7FEFF 		bl	LIN_1_UART_PutChar
 1098              	.L41:
1281:.\Generated_Source\PSoC5/LIN_1_UART.c ****         }
1282:.\Generated_Source\PSoC5/LIN_1_UART.c ****     }
 1099              		.loc 1 1282 0
 1100 0030 07F10807 		add	r7, r7, #8
 1101 0034 BD46     		mov	sp, r7
 1102 0036 80BD     		pop	{r7, pc}
 1103              		.cfi_endproc
 1104              	.LFE22:
 1105              		.size	LIN_1_UART_PutCRLF, .-LIN_1_UART_PutCRLF
 1106              		.section	.text.LIN_1_UART_GetTxBufferSize,"ax",%progbits
 1107              		.align	2
 1108              		.global	LIN_1_UART_GetTxBufferSize
 1109              		.thumb
 1110              		.thumb_func
ARM GAS  C:\Users\MATSUD~1\AppData\Local\Temp\ccwDh0Hw.s 			page 43


 1111              		.type	LIN_1_UART_GetTxBufferSize, %function
 1112              	LIN_1_UART_GetTxBufferSize:
 1113              	.LFB23:
1283:.\Generated_Source\PSoC5/LIN_1_UART.c **** 
1284:.\Generated_Source\PSoC5/LIN_1_UART.c **** 
1285:.\Generated_Source\PSoC5/LIN_1_UART.c ****     /*******************************************************************************
1286:.\Generated_Source\PSoC5/LIN_1_UART.c ****     * Function Name: LIN_1_UART_GetTxBufferSize
1287:.\Generated_Source\PSoC5/LIN_1_UART.c ****     ********************************************************************************
1288:.\Generated_Source\PSoC5/LIN_1_UART.c ****     *
1289:.\Generated_Source\PSoC5/LIN_1_UART.c ****     * Summary:
1290:.\Generated_Source\PSoC5/LIN_1_UART.c ****     *  Determine the amount of space left in the TX buffer and return the count in
1291:.\Generated_Source\PSoC5/LIN_1_UART.c ****     *  bytes
1292:.\Generated_Source\PSoC5/LIN_1_UART.c ****     *
1293:.\Generated_Source\PSoC5/LIN_1_UART.c ****     * Parameters:
1294:.\Generated_Source\PSoC5/LIN_1_UART.c ****     *  None.
1295:.\Generated_Source\PSoC5/LIN_1_UART.c ****     *
1296:.\Generated_Source\PSoC5/LIN_1_UART.c ****     * Return:
1297:.\Generated_Source\PSoC5/LIN_1_UART.c ****     *  Integer count of the number of bytes left in the TX buffer
1298:.\Generated_Source\PSoC5/LIN_1_UART.c ****     *
1299:.\Generated_Source\PSoC5/LIN_1_UART.c ****     * Global Variables:
1300:.\Generated_Source\PSoC5/LIN_1_UART.c ****     *  LIN_1_UART_txBufferWrite - used to calculate left space.
1301:.\Generated_Source\PSoC5/LIN_1_UART.c ****     *  LIN_1_UART_txBufferRead - used to calculate left space.
1302:.\Generated_Source\PSoC5/LIN_1_UART.c ****     *
1303:.\Generated_Source\PSoC5/LIN_1_UART.c ****     * Reentrant:
1304:.\Generated_Source\PSoC5/LIN_1_UART.c ****     *  No.
1305:.\Generated_Source\PSoC5/LIN_1_UART.c ****     *
1306:.\Generated_Source\PSoC5/LIN_1_UART.c ****     * Theory:
1307:.\Generated_Source\PSoC5/LIN_1_UART.c ****     *  Allows the user to find out how full the TX Buffer is.
1308:.\Generated_Source\PSoC5/LIN_1_UART.c ****     *
1309:.\Generated_Source\PSoC5/LIN_1_UART.c ****     *******************************************************************************/
1310:.\Generated_Source\PSoC5/LIN_1_UART.c ****     uint8 LIN_1_UART_GetTxBufferSize(void)
1311:.\Generated_Source\PSoC5/LIN_1_UART.c ****                                                             
1312:.\Generated_Source\PSoC5/LIN_1_UART.c ****     {
 1114              		.loc 1 1312 0
 1115              		.cfi_startproc
 1116              		@ args = 0, pretend = 0, frame = 8
 1117              		@ frame_needed = 1, uses_anonymous_args = 0
 1118              		@ link register save eliminated.
 1119 0000 80B4     		push	{r7}
 1120              	.LCFI64:
 1121              		.cfi_def_cfa_offset 4
 1122              		.cfi_offset 7, -4
 1123 0002 83B0     		sub	sp, sp, #12
 1124              	.LCFI65:
 1125              		.cfi_def_cfa_offset 16
 1126 0004 00AF     		add	r7, sp, #0
 1127              	.LCFI66:
 1128              		.cfi_def_cfa_register 7
1313:.\Generated_Source\PSoC5/LIN_1_UART.c ****         uint8 size;
1314:.\Generated_Source\PSoC5/LIN_1_UART.c **** 
1315:.\Generated_Source\PSoC5/LIN_1_UART.c ****         #if(LIN_1_UART_TXBUFFERSIZE > LIN_1_UART_FIFO_LENGTH)
1316:.\Generated_Source\PSoC5/LIN_1_UART.c **** 
1317:.\Generated_Source\PSoC5/LIN_1_UART.c ****             /* Disable Tx interrupt. */
1318:.\Generated_Source\PSoC5/LIN_1_UART.c ****             /* Protect variables that could change on interrupt. */
1319:.\Generated_Source\PSoC5/LIN_1_UART.c ****             #if(LIN_1_UART_TX_INTERRUPT_ENABLED)
1320:.\Generated_Source\PSoC5/LIN_1_UART.c ****                 LIN_1_UART_DisableTxInt();
1321:.\Generated_Source\PSoC5/LIN_1_UART.c ****             #endif /* End LIN_1_UART_TX_INTERRUPT_ENABLED */
ARM GAS  C:\Users\MATSUD~1\AppData\Local\Temp\ccwDh0Hw.s 			page 44


1322:.\Generated_Source\PSoC5/LIN_1_UART.c **** 
1323:.\Generated_Source\PSoC5/LIN_1_UART.c ****             if(LIN_1_UART_txBufferRead == LIN_1_UART_txBufferWrite)
1324:.\Generated_Source\PSoC5/LIN_1_UART.c ****             {
1325:.\Generated_Source\PSoC5/LIN_1_UART.c ****                 size = 0u;
1326:.\Generated_Source\PSoC5/LIN_1_UART.c ****             }
1327:.\Generated_Source\PSoC5/LIN_1_UART.c ****             else if(LIN_1_UART_txBufferRead < LIN_1_UART_txBufferWrite)
1328:.\Generated_Source\PSoC5/LIN_1_UART.c ****             {
1329:.\Generated_Source\PSoC5/LIN_1_UART.c ****                 size = (LIN_1_UART_txBufferWrite - LIN_1_UART_txBufferRead);
1330:.\Generated_Source\PSoC5/LIN_1_UART.c ****             }
1331:.\Generated_Source\PSoC5/LIN_1_UART.c ****             else
1332:.\Generated_Source\PSoC5/LIN_1_UART.c ****             {
1333:.\Generated_Source\PSoC5/LIN_1_UART.c ****                 size = (LIN_1_UART_TXBUFFERSIZE - LIN_1_UART_txBufferRead) + LIN_1_UART_txBufferWri
1334:.\Generated_Source\PSoC5/LIN_1_UART.c ****             }
1335:.\Generated_Source\PSoC5/LIN_1_UART.c **** 
1336:.\Generated_Source\PSoC5/LIN_1_UART.c ****             /* Enable Tx interrupt. */
1337:.\Generated_Source\PSoC5/LIN_1_UART.c ****             #if(LIN_1_UART_TX_INTERRUPT_ENABLED)
1338:.\Generated_Source\PSoC5/LIN_1_UART.c ****                 LIN_1_UART_EnableTxInt();
1339:.\Generated_Source\PSoC5/LIN_1_UART.c ****             #endif /* End LIN_1_UART_TX_INTERRUPT_ENABLED */
1340:.\Generated_Source\PSoC5/LIN_1_UART.c **** 
1341:.\Generated_Source\PSoC5/LIN_1_UART.c ****         #else /* LIN_1_UART_TXBUFFERSIZE > LIN_1_UART_FIFO_LENGTH */
1342:.\Generated_Source\PSoC5/LIN_1_UART.c **** 
1343:.\Generated_Source\PSoC5/LIN_1_UART.c ****             size = LIN_1_UART_TXSTATUS_REG;
 1129              		.loc 1 1343 0
 1130 0006 46F26743 		movw	r3, #25703
 1131 000a C4F20003 		movt	r3, 16384
 1132 000e 1B78     		ldrb	r3, [r3, #0]
 1133 0010 FB71     		strb	r3, [r7, #7]
1344:.\Generated_Source\PSoC5/LIN_1_UART.c **** 
1345:.\Generated_Source\PSoC5/LIN_1_UART.c ****             /* Is the fifo is full. */
1346:.\Generated_Source\PSoC5/LIN_1_UART.c ****             if((size & LIN_1_UART_TX_STS_FIFO_FULL) != 0u)
 1134              		.loc 1 1346 0
 1135 0012 FB79     		ldrb	r3, [r7, #7]	@ zero_extendqisi2
 1136 0014 03F00403 		and	r3, r3, #4
 1137 0018 002B     		cmp	r3, #0
 1138 001a 03D0     		beq	.L44
1347:.\Generated_Source\PSoC5/LIN_1_UART.c ****             {
1348:.\Generated_Source\PSoC5/LIN_1_UART.c ****                 size = LIN_1_UART_FIFO_LENGTH;
 1139              		.loc 1 1348 0
 1140 001c 4FF00403 		mov	r3, #4
 1141 0020 FB71     		strb	r3, [r7, #7]
 1142 0022 0BE0     		b	.L45
 1143              	.L44:
1349:.\Generated_Source\PSoC5/LIN_1_UART.c ****             }
1350:.\Generated_Source\PSoC5/LIN_1_UART.c ****             else if((size & LIN_1_UART_TX_STS_FIFO_EMPTY) != 0u)
 1144              		.loc 1 1350 0
 1145 0024 FB79     		ldrb	r3, [r7, #7]	@ zero_extendqisi2
 1146 0026 03F00203 		and	r3, r3, #2
 1147 002a 002B     		cmp	r3, #0
 1148 002c 03D0     		beq	.L46
1351:.\Generated_Source\PSoC5/LIN_1_UART.c ****             {
1352:.\Generated_Source\PSoC5/LIN_1_UART.c ****                 size = 0u;
 1149              		.loc 1 1352 0
 1150 002e 4FF00003 		mov	r3, #0
 1151 0032 FB71     		strb	r3, [r7, #7]
 1152 0034 02E0     		b	.L45
 1153              	.L46:
1353:.\Generated_Source\PSoC5/LIN_1_UART.c ****             }
ARM GAS  C:\Users\MATSUD~1\AppData\Local\Temp\ccwDh0Hw.s 			page 45


1354:.\Generated_Source\PSoC5/LIN_1_UART.c ****             else
1355:.\Generated_Source\PSoC5/LIN_1_UART.c ****             {
1356:.\Generated_Source\PSoC5/LIN_1_UART.c ****                 /* We only know there is data in the fifo. */
1357:.\Generated_Source\PSoC5/LIN_1_UART.c ****                 size = 1u;
 1154              		.loc 1 1357 0
 1155 0036 4FF00103 		mov	r3, #1
 1156 003a FB71     		strb	r3, [r7, #7]
 1157              	.L45:
1358:.\Generated_Source\PSoC5/LIN_1_UART.c ****             }
1359:.\Generated_Source\PSoC5/LIN_1_UART.c **** 
1360:.\Generated_Source\PSoC5/LIN_1_UART.c ****         #endif /* End LIN_1_UART_TXBUFFERSIZE > LIN_1_UART_FIFO_LENGTH */
1361:.\Generated_Source\PSoC5/LIN_1_UART.c **** 
1362:.\Generated_Source\PSoC5/LIN_1_UART.c ****         return(size);
 1158              		.loc 1 1362 0
 1159 003c FB79     		ldrb	r3, [r7, #7]	@ zero_extendqisi2
1363:.\Generated_Source\PSoC5/LIN_1_UART.c ****     }
 1160              		.loc 1 1363 0
 1161 003e 1846     		mov	r0, r3
 1162 0040 07F10C07 		add	r7, r7, #12
 1163 0044 BD46     		mov	sp, r7
 1164 0046 80BC     		pop	{r7}
 1165 0048 7047     		bx	lr
 1166              		.cfi_endproc
 1167              	.LFE23:
 1168              		.size	LIN_1_UART_GetTxBufferSize, .-LIN_1_UART_GetTxBufferSize
 1169 004a 00BF     		.section	.text.LIN_1_UART_ClearTxBuffer,"ax",%progbits
 1170              		.align	2
 1171              		.global	LIN_1_UART_ClearTxBuffer
 1172              		.thumb
 1173              		.thumb_func
 1174              		.type	LIN_1_UART_ClearTxBuffer, %function
 1175              	LIN_1_UART_ClearTxBuffer:
 1176              	.LFB24:
1364:.\Generated_Source\PSoC5/LIN_1_UART.c **** 
1365:.\Generated_Source\PSoC5/LIN_1_UART.c **** 
1366:.\Generated_Source\PSoC5/LIN_1_UART.c ****     /*******************************************************************************
1367:.\Generated_Source\PSoC5/LIN_1_UART.c ****     * Function Name: LIN_1_UART_ClearTxBuffer
1368:.\Generated_Source\PSoC5/LIN_1_UART.c ****     ********************************************************************************
1369:.\Generated_Source\PSoC5/LIN_1_UART.c ****     *
1370:.\Generated_Source\PSoC5/LIN_1_UART.c ****     * Summary:
1371:.\Generated_Source\PSoC5/LIN_1_UART.c ****     *  Clears the TX RAM buffer by setting the read and write pointers both to zero.
1372:.\Generated_Source\PSoC5/LIN_1_UART.c ****     *  Clears the hardware TX FIFO.  Any data present in the FIFO will not be sent.
1373:.\Generated_Source\PSoC5/LIN_1_UART.c ****     *
1374:.\Generated_Source\PSoC5/LIN_1_UART.c ****     * Parameters:
1375:.\Generated_Source\PSoC5/LIN_1_UART.c ****     *  None.
1376:.\Generated_Source\PSoC5/LIN_1_UART.c ****     *
1377:.\Generated_Source\PSoC5/LIN_1_UART.c ****     * Return:
1378:.\Generated_Source\PSoC5/LIN_1_UART.c ****     *  None.
1379:.\Generated_Source\PSoC5/LIN_1_UART.c ****     *
1380:.\Generated_Source\PSoC5/LIN_1_UART.c ****     * Global Variables:
1381:.\Generated_Source\PSoC5/LIN_1_UART.c ****     *  LIN_1_UART_txBufferWrite - cleared to zero.
1382:.\Generated_Source\PSoC5/LIN_1_UART.c ****     *  LIN_1_UART_txBufferRead - cleared to zero.
1383:.\Generated_Source\PSoC5/LIN_1_UART.c ****     *
1384:.\Generated_Source\PSoC5/LIN_1_UART.c ****     * Reentrant:
1385:.\Generated_Source\PSoC5/LIN_1_UART.c ****     *  No.
1386:.\Generated_Source\PSoC5/LIN_1_UART.c ****     *
1387:.\Generated_Source\PSoC5/LIN_1_UART.c ****     * Theory:
ARM GAS  C:\Users\MATSUD~1\AppData\Local\Temp\ccwDh0Hw.s 			page 46


1388:.\Generated_Source\PSoC5/LIN_1_UART.c ****     *  Setting the pointers to zero makes the system believe there is no data to
1389:.\Generated_Source\PSoC5/LIN_1_UART.c ****     *  read and writing will resume at address 0 overwriting any data that may have
1390:.\Generated_Source\PSoC5/LIN_1_UART.c ****     *  remained in the RAM.
1391:.\Generated_Source\PSoC5/LIN_1_UART.c ****     *
1392:.\Generated_Source\PSoC5/LIN_1_UART.c ****     * Side Effects:
1393:.\Generated_Source\PSoC5/LIN_1_UART.c ****     *  Any received data not read from the RAM buffer will be lost when overwritten.
1394:.\Generated_Source\PSoC5/LIN_1_UART.c ****     *
1395:.\Generated_Source\PSoC5/LIN_1_UART.c ****     *******************************************************************************/
1396:.\Generated_Source\PSoC5/LIN_1_UART.c ****     void LIN_1_UART_ClearTxBuffer(void) 
1397:.\Generated_Source\PSoC5/LIN_1_UART.c ****     {
 1177              		.loc 1 1397 0
 1178              		.cfi_startproc
 1179              		@ args = 0, pretend = 0, frame = 8
 1180              		@ frame_needed = 1, uses_anonymous_args = 0
 1181 0000 80B5     		push	{r7, lr}
 1182              	.LCFI67:
 1183              		.cfi_def_cfa_offset 8
 1184              		.cfi_offset 7, -8
 1185              		.cfi_offset 14, -4
 1186 0002 82B0     		sub	sp, sp, #8
 1187              	.LCFI68:
 1188              		.cfi_def_cfa_offset 16
 1189 0004 00AF     		add	r7, sp, #0
 1190              	.LCFI69:
 1191              		.cfi_def_cfa_register 7
1398:.\Generated_Source\PSoC5/LIN_1_UART.c ****         uint8 enableInterrupts;
1399:.\Generated_Source\PSoC5/LIN_1_UART.c **** 
1400:.\Generated_Source\PSoC5/LIN_1_UART.c ****         /* Enter critical section */
1401:.\Generated_Source\PSoC5/LIN_1_UART.c ****         enableInterrupts = CyEnterCriticalSection();
 1192              		.loc 1 1401 0
 1193 0006 FFF7FEFF 		bl	CyEnterCriticalSection
 1194 000a 0346     		mov	r3, r0
 1195 000c FB71     		strb	r3, [r7, #7]
1402:.\Generated_Source\PSoC5/LIN_1_UART.c ****         /* clear the HW FIFO */
1403:.\Generated_Source\PSoC5/LIN_1_UART.c ****         LIN_1_UART_TXDATA_AUX_CTL_REG |=  LIN_1_UART_TX_FIFO_CLR;
 1196              		.loc 1 1403 0
 1197 000e 46F29743 		movw	r3, #25751
 1198 0012 C4F20003 		movt	r3, 16384
 1199 0016 46F29742 		movw	r2, #25751
 1200 001a C4F20002 		movt	r2, 16384
 1201 001e 1278     		ldrb	r2, [r2, #0]
 1202 0020 D2B2     		uxtb	r2, r2
 1203 0022 42F00102 		orr	r2, r2, #1
 1204 0026 D2B2     		uxtb	r2, r2
 1205 0028 1A70     		strb	r2, [r3, #0]
1404:.\Generated_Source\PSoC5/LIN_1_UART.c ****         LIN_1_UART_TXDATA_AUX_CTL_REG &= (uint8)~LIN_1_UART_TX_FIFO_CLR;
 1206              		.loc 1 1404 0
 1207 002a 46F29743 		movw	r3, #25751
 1208 002e C4F20003 		movt	r3, 16384
 1209 0032 46F29742 		movw	r2, #25751
 1210 0036 C4F20002 		movt	r2, 16384
 1211 003a 1278     		ldrb	r2, [r2, #0]
 1212 003c D2B2     		uxtb	r2, r2
 1213 003e 22F00102 		bic	r2, r2, #1
 1214 0042 D2B2     		uxtb	r2, r2
 1215 0044 1A70     		strb	r2, [r3, #0]
1405:.\Generated_Source\PSoC5/LIN_1_UART.c ****         /* Exit critical section */
ARM GAS  C:\Users\MATSUD~1\AppData\Local\Temp\ccwDh0Hw.s 			page 47


1406:.\Generated_Source\PSoC5/LIN_1_UART.c ****         CyExitCriticalSection(enableInterrupts);
 1216              		.loc 1 1406 0
 1217 0046 FB79     		ldrb	r3, [r7, #7]	@ zero_extendqisi2
 1218 0048 1846     		mov	r0, r3
 1219 004a FFF7FEFF 		bl	CyExitCriticalSection
1407:.\Generated_Source\PSoC5/LIN_1_UART.c **** 
1408:.\Generated_Source\PSoC5/LIN_1_UART.c ****         #if(LIN_1_UART_TXBUFFERSIZE > LIN_1_UART_FIFO_LENGTH)
1409:.\Generated_Source\PSoC5/LIN_1_UART.c **** 
1410:.\Generated_Source\PSoC5/LIN_1_UART.c ****             /* Disable Tx interrupt. */
1411:.\Generated_Source\PSoC5/LIN_1_UART.c ****             /* Protect variables that could change on interrupt. */
1412:.\Generated_Source\PSoC5/LIN_1_UART.c ****             #if(LIN_1_UART_TX_INTERRUPT_ENABLED)
1413:.\Generated_Source\PSoC5/LIN_1_UART.c ****                 LIN_1_UART_DisableTxInt();
1414:.\Generated_Source\PSoC5/LIN_1_UART.c ****             #endif /* End LIN_1_UART_TX_INTERRUPT_ENABLED */
1415:.\Generated_Source\PSoC5/LIN_1_UART.c **** 
1416:.\Generated_Source\PSoC5/LIN_1_UART.c ****             LIN_1_UART_txBufferRead = 0u;
1417:.\Generated_Source\PSoC5/LIN_1_UART.c ****             LIN_1_UART_txBufferWrite = 0u;
1418:.\Generated_Source\PSoC5/LIN_1_UART.c **** 
1419:.\Generated_Source\PSoC5/LIN_1_UART.c ****             /* Enable Tx interrupt. */
1420:.\Generated_Source\PSoC5/LIN_1_UART.c ****             #if(LIN_1_UART_TX_INTERRUPT_ENABLED)
1421:.\Generated_Source\PSoC5/LIN_1_UART.c ****                 LIN_1_UART_EnableTxInt();
1422:.\Generated_Source\PSoC5/LIN_1_UART.c ****             #endif /* End LIN_1_UART_TX_INTERRUPT_ENABLED */
1423:.\Generated_Source\PSoC5/LIN_1_UART.c **** 
1424:.\Generated_Source\PSoC5/LIN_1_UART.c ****         #endif /* End LIN_1_UART_TXBUFFERSIZE > LIN_1_UART_FIFO_LENGTH */
1425:.\Generated_Source\PSoC5/LIN_1_UART.c ****     }
 1220              		.loc 1 1425 0
 1221 004e 07F10807 		add	r7, r7, #8
 1222 0052 BD46     		mov	sp, r7
 1223 0054 80BD     		pop	{r7, pc}
 1224              		.cfi_endproc
 1225              	.LFE24:
 1226              		.size	LIN_1_UART_ClearTxBuffer, .-LIN_1_UART_ClearTxBuffer
 1227 0056 00BF     		.section	.text.LIN_1_UART_SendBreak,"ax",%progbits
 1228              		.align	2
 1229              		.global	LIN_1_UART_SendBreak
 1230              		.thumb
 1231              		.thumb_func
 1232              		.type	LIN_1_UART_SendBreak, %function
 1233              	LIN_1_UART_SendBreak:
 1234              	.LFB25:
1426:.\Generated_Source\PSoC5/LIN_1_UART.c **** 
1427:.\Generated_Source\PSoC5/LIN_1_UART.c **** 
1428:.\Generated_Source\PSoC5/LIN_1_UART.c ****     /*******************************************************************************
1429:.\Generated_Source\PSoC5/LIN_1_UART.c ****     * Function Name: LIN_1_UART_SendBreak
1430:.\Generated_Source\PSoC5/LIN_1_UART.c ****     ********************************************************************************
1431:.\Generated_Source\PSoC5/LIN_1_UART.c ****     *
1432:.\Generated_Source\PSoC5/LIN_1_UART.c ****     * Summary:
1433:.\Generated_Source\PSoC5/LIN_1_UART.c ****     *  Write a Break command to the UART
1434:.\Generated_Source\PSoC5/LIN_1_UART.c ****     *
1435:.\Generated_Source\PSoC5/LIN_1_UART.c ****     * Parameters:
1436:.\Generated_Source\PSoC5/LIN_1_UART.c ****     *  uint8 retMode:  Wait mode,
1437:.\Generated_Source\PSoC5/LIN_1_UART.c ****     *   0 - Initialize registers for Break, sends the Break signal and return
1438:.\Generated_Source\PSoC5/LIN_1_UART.c ****     *       imediately.
1439:.\Generated_Source\PSoC5/LIN_1_UART.c ****     *   1 - Wait until Break sending is complete, reinitialize registers to normal
1440:.\Generated_Source\PSoC5/LIN_1_UART.c ****     *       transmission mode then return.
1441:.\Generated_Source\PSoC5/LIN_1_UART.c ****     *   2 - Reinitialize registers to normal transmission mode then return.
1442:.\Generated_Source\PSoC5/LIN_1_UART.c ****     *   3 - both steps: 0 and 1
1443:.\Generated_Source\PSoC5/LIN_1_UART.c ****     *       init registers for Break, send Break signal
ARM GAS  C:\Users\MATSUD~1\AppData\Local\Temp\ccwDh0Hw.s 			page 48


1444:.\Generated_Source\PSoC5/LIN_1_UART.c ****     *       wait until Break sending is complete, reinit registers to normal
1445:.\Generated_Source\PSoC5/LIN_1_UART.c ****     *       transmission mode then return.
1446:.\Generated_Source\PSoC5/LIN_1_UART.c ****     *
1447:.\Generated_Source\PSoC5/LIN_1_UART.c ****     * Return:
1448:.\Generated_Source\PSoC5/LIN_1_UART.c ****     *  None.
1449:.\Generated_Source\PSoC5/LIN_1_UART.c ****     *
1450:.\Generated_Source\PSoC5/LIN_1_UART.c ****     * Global Variables:
1451:.\Generated_Source\PSoC5/LIN_1_UART.c ****     *  LIN_1_UART_initVar - checked to identify that the component has been
1452:.\Generated_Source\PSoC5/LIN_1_UART.c ****     *     initialized.
1453:.\Generated_Source\PSoC5/LIN_1_UART.c ****     *  tx_period - static variable, used for keeping TX period configuration.
1454:.\Generated_Source\PSoC5/LIN_1_UART.c ****     *
1455:.\Generated_Source\PSoC5/LIN_1_UART.c ****     * Reentrant:
1456:.\Generated_Source\PSoC5/LIN_1_UART.c ****     *  No.
1457:.\Generated_Source\PSoC5/LIN_1_UART.c ****     *
1458:.\Generated_Source\PSoC5/LIN_1_UART.c ****     * Theory:
1459:.\Generated_Source\PSoC5/LIN_1_UART.c ****     *  SendBreak function initializes registers to send 13-bit break signal. It is
1460:.\Generated_Source\PSoC5/LIN_1_UART.c ****     *  important to return the registers configuration to normal for continue 8-bit
1461:.\Generated_Source\PSoC5/LIN_1_UART.c ****     *  operation.
1462:.\Generated_Source\PSoC5/LIN_1_UART.c ****     *  Trere are 3 variants for this API usage:
1463:.\Generated_Source\PSoC5/LIN_1_UART.c ****     *  1) SendBreak(3) - function will send the Break signal and take care on the
1464:.\Generated_Source\PSoC5/LIN_1_UART.c ****     *     configuration returning. Funcition will block CPU untill transmition
1465:.\Generated_Source\PSoC5/LIN_1_UART.c ****     *     complete.
1466:.\Generated_Source\PSoC5/LIN_1_UART.c ****     *  2) User may want to use bloking time if UART configured to the low speed
1467:.\Generated_Source\PSoC5/LIN_1_UART.c ****     *     operation
1468:.\Generated_Source\PSoC5/LIN_1_UART.c ****     *     Emample for this case:
1469:.\Generated_Source\PSoC5/LIN_1_UART.c ****     *     SendBreak(0);     - init Break signal transmition
1470:.\Generated_Source\PSoC5/LIN_1_UART.c ****     *         Add your code here to use CPU time
1471:.\Generated_Source\PSoC5/LIN_1_UART.c ****     *     SendBreak(1);     - complete Break operation
1472:.\Generated_Source\PSoC5/LIN_1_UART.c ****     *  3) Same to 2) but user may want to init and use the interrupt for complete
1473:.\Generated_Source\PSoC5/LIN_1_UART.c ****     *     break operation.
1474:.\Generated_Source\PSoC5/LIN_1_UART.c ****     *     Example for this case:
1475:.\Generated_Source\PSoC5/LIN_1_UART.c ****     *     Init TX interrupt whith "TX - On TX Complete" parameter
1476:.\Generated_Source\PSoC5/LIN_1_UART.c ****     *     SendBreak(0);     - init Break signal transmition
1477:.\Generated_Source\PSoC5/LIN_1_UART.c ****     *         Add your code here to use CPU time
1478:.\Generated_Source\PSoC5/LIN_1_UART.c ****     *     When interrupt appear with UART_TX_STS_COMPLETE status:
1479:.\Generated_Source\PSoC5/LIN_1_UART.c ****     *     SendBreak(2);     - complete Break operation
1480:.\Generated_Source\PSoC5/LIN_1_UART.c ****     *
1481:.\Generated_Source\PSoC5/LIN_1_UART.c ****     * Side Effects:
1482:.\Generated_Source\PSoC5/LIN_1_UART.c ****     *   Uses static variable to keep registers configuration.
1483:.\Generated_Source\PSoC5/LIN_1_UART.c ****     *
1484:.\Generated_Source\PSoC5/LIN_1_UART.c ****     *******************************************************************************/
1485:.\Generated_Source\PSoC5/LIN_1_UART.c ****     void LIN_1_UART_SendBreak(uint8 retMode) 
1486:.\Generated_Source\PSoC5/LIN_1_UART.c ****     {
 1235              		.loc 1 1486 0
 1236              		.cfi_startproc
 1237              		@ args = 0, pretend = 0, frame = 16
 1238              		@ frame_needed = 1, uses_anonymous_args = 0
 1239              		@ link register save eliminated.
 1240 0000 80B4     		push	{r7}
 1241              	.LCFI70:
 1242              		.cfi_def_cfa_offset 4
 1243              		.cfi_offset 7, -4
 1244 0002 85B0     		sub	sp, sp, #20
 1245              	.LCFI71:
 1246              		.cfi_def_cfa_offset 24
 1247 0004 00AF     		add	r7, sp, #0
 1248              	.LCFI72:
ARM GAS  C:\Users\MATSUD~1\AppData\Local\Temp\ccwDh0Hw.s 			page 49


 1249              		.cfi_def_cfa_register 7
 1250 0006 0346     		mov	r3, r0
 1251 0008 FB71     		strb	r3, [r7, #7]
1487:.\Generated_Source\PSoC5/LIN_1_UART.c **** 
1488:.\Generated_Source\PSoC5/LIN_1_UART.c ****         /* If not Initialized then skip this function*/
1489:.\Generated_Source\PSoC5/LIN_1_UART.c ****         if(LIN_1_UART_initVar != 0u)
 1252              		.loc 1 1489 0
 1253 000a 40F20003 		movw	r3, #:lower16:LIN_1_UART_initVar
 1254 000e C0F20003 		movt	r3, #:upper16:LIN_1_UART_initVar
 1255 0012 1B78     		ldrb	r3, [r3, #0]	@ zero_extendqisi2
 1256 0014 002B     		cmp	r3, #0
 1257 0016 50D0     		beq	.L49
 1258              	.LBB2:
1490:.\Generated_Source\PSoC5/LIN_1_UART.c ****         {
1491:.\Generated_Source\PSoC5/LIN_1_UART.c ****             /*Set the Counter to 13-bits and transmit a 00 byte*/
1492:.\Generated_Source\PSoC5/LIN_1_UART.c ****             /*When that is done then reset the counter value back*/
1493:.\Generated_Source\PSoC5/LIN_1_UART.c ****             uint8 tmpStat;
1494:.\Generated_Source\PSoC5/LIN_1_UART.c **** 
1495:.\Generated_Source\PSoC5/LIN_1_UART.c ****             #if(LIN_1_UART_HD_ENABLED) /* Half Duplex mode*/
1496:.\Generated_Source\PSoC5/LIN_1_UART.c **** 
1497:.\Generated_Source\PSoC5/LIN_1_UART.c ****                 if( (retMode == LIN_1_UART_SEND_BREAK) ||
1498:.\Generated_Source\PSoC5/LIN_1_UART.c ****                     (retMode == LIN_1_UART_SEND_WAIT_REINIT ) )
1499:.\Generated_Source\PSoC5/LIN_1_UART.c ****                 {
1500:.\Generated_Source\PSoC5/LIN_1_UART.c ****                     /* CTRL_HD_SEND_BREAK - sends break bits in HD mode*/
1501:.\Generated_Source\PSoC5/LIN_1_UART.c ****                     LIN_1_UART_WriteControlRegister(LIN_1_UART_ReadControlRegister() |
1502:.\Generated_Source\PSoC5/LIN_1_UART.c ****                                                           LIN_1_UART_CTRL_HD_SEND_BREAK);
1503:.\Generated_Source\PSoC5/LIN_1_UART.c ****                     /* Send zeros*/
1504:.\Generated_Source\PSoC5/LIN_1_UART.c ****                     LIN_1_UART_TXDATA_REG = 0u;
1505:.\Generated_Source\PSoC5/LIN_1_UART.c **** 
1506:.\Generated_Source\PSoC5/LIN_1_UART.c ****                     do /*wait until transmit starts*/
1507:.\Generated_Source\PSoC5/LIN_1_UART.c ****                     {
1508:.\Generated_Source\PSoC5/LIN_1_UART.c ****                         tmpStat = LIN_1_UART_TXSTATUS_REG;
1509:.\Generated_Source\PSoC5/LIN_1_UART.c ****                     }while((tmpStat & LIN_1_UART_TX_STS_FIFO_EMPTY) != 0u);
1510:.\Generated_Source\PSoC5/LIN_1_UART.c ****                 }
1511:.\Generated_Source\PSoC5/LIN_1_UART.c **** 
1512:.\Generated_Source\PSoC5/LIN_1_UART.c ****                 if( (retMode == LIN_1_UART_WAIT_FOR_COMPLETE_REINIT) ||
1513:.\Generated_Source\PSoC5/LIN_1_UART.c ****                     (retMode == LIN_1_UART_SEND_WAIT_REINIT) )
1514:.\Generated_Source\PSoC5/LIN_1_UART.c ****                 {
1515:.\Generated_Source\PSoC5/LIN_1_UART.c ****                     do /*wait until transmit complete*/
1516:.\Generated_Source\PSoC5/LIN_1_UART.c ****                     {
1517:.\Generated_Source\PSoC5/LIN_1_UART.c ****                         tmpStat = LIN_1_UART_TXSTATUS_REG;
1518:.\Generated_Source\PSoC5/LIN_1_UART.c ****                     }while(((uint8)~tmpStat & LIN_1_UART_TX_STS_COMPLETE) != 0u);
1519:.\Generated_Source\PSoC5/LIN_1_UART.c ****                 }
1520:.\Generated_Source\PSoC5/LIN_1_UART.c **** 
1521:.\Generated_Source\PSoC5/LIN_1_UART.c ****                 if( (retMode == LIN_1_UART_WAIT_FOR_COMPLETE_REINIT) ||
1522:.\Generated_Source\PSoC5/LIN_1_UART.c ****                     (retMode == LIN_1_UART_REINIT) ||
1523:.\Generated_Source\PSoC5/LIN_1_UART.c ****                     (retMode == LIN_1_UART_SEND_WAIT_REINIT) )
1524:.\Generated_Source\PSoC5/LIN_1_UART.c ****                 {
1525:.\Generated_Source\PSoC5/LIN_1_UART.c ****                     LIN_1_UART_WriteControlRegister(LIN_1_UART_ReadControlRegister() &
1526:.\Generated_Source\PSoC5/LIN_1_UART.c ****                                                   (uint8)~LIN_1_UART_CTRL_HD_SEND_BREAK);
1527:.\Generated_Source\PSoC5/LIN_1_UART.c ****                 }
1528:.\Generated_Source\PSoC5/LIN_1_UART.c **** 
1529:.\Generated_Source\PSoC5/LIN_1_UART.c ****             #else /* LIN_1_UART_HD_ENABLED Full Duplex mode */
1530:.\Generated_Source\PSoC5/LIN_1_UART.c **** 
1531:.\Generated_Source\PSoC5/LIN_1_UART.c ****                 static uint8 tx_period;
1532:.\Generated_Source\PSoC5/LIN_1_UART.c **** 
1533:.\Generated_Source\PSoC5/LIN_1_UART.c ****                 if( (retMode == LIN_1_UART_SEND_BREAK) ||
ARM GAS  C:\Users\MATSUD~1\AppData\Local\Temp\ccwDh0Hw.s 			page 50


 1259              		.loc 1 1533 0
 1260 0018 FB79     		ldrb	r3, [r7, #7]	@ zero_extendqisi2
 1261 001a 002B     		cmp	r3, #0
 1262 001c 02D0     		beq	.L51
 1263              		.loc 1 1533 0 is_stmt 0 discriminator 1
 1264 001e FB79     		ldrb	r3, [r7, #7]	@ zero_extendqisi2
 1265 0020 032B     		cmp	r3, #3
 1266 0022 23D1     		bne	.L52
 1267              	.L51:
1534:.\Generated_Source\PSoC5/LIN_1_UART.c ****                     (retMode == LIN_1_UART_SEND_WAIT_REINIT) )
1535:.\Generated_Source\PSoC5/LIN_1_UART.c ****                 {
1536:.\Generated_Source\PSoC5/LIN_1_UART.c ****                     /* CTRL_HD_SEND_BREAK - skip to send parity bit at Break signal in Full Duplex 
1537:.\Generated_Source\PSoC5/LIN_1_UART.c ****                     #if( (LIN_1_UART_PARITY_TYPE != LIN_1_UART__B_UART__NONE_REVB) || \
1538:.\Generated_Source\PSoC5/LIN_1_UART.c ****                                         (LIN_1_UART_PARITY_TYPE_SW != 0u) )
1539:.\Generated_Source\PSoC5/LIN_1_UART.c ****                         LIN_1_UART_WriteControlRegister(LIN_1_UART_ReadControlRegister() |
1540:.\Generated_Source\PSoC5/LIN_1_UART.c ****                                                               LIN_1_UART_CTRL_HD_SEND_BREAK);
1541:.\Generated_Source\PSoC5/LIN_1_UART.c ****                     #endif /* End LIN_1_UART_PARITY_TYPE != LIN_1_UART__B_UART__NONE_REVB  */
1542:.\Generated_Source\PSoC5/LIN_1_UART.c **** 
1543:.\Generated_Source\PSoC5/LIN_1_UART.c ****                     #if(LIN_1_UART_TXCLKGEN_DP)
1544:.\Generated_Source\PSoC5/LIN_1_UART.c ****                         tx_period = LIN_1_UART_TXBITCLKTX_COMPLETE_REG;
1545:.\Generated_Source\PSoC5/LIN_1_UART.c ****                         LIN_1_UART_TXBITCLKTX_COMPLETE_REG = LIN_1_UART_TXBITCTR_BREAKBITS;
1546:.\Generated_Source\PSoC5/LIN_1_UART.c ****                     #else
1547:.\Generated_Source\PSoC5/LIN_1_UART.c ****                         tx_period = LIN_1_UART_TXBITCTR_PERIOD_REG;
 1268              		.loc 1 1547 0 is_stmt 1
 1269 0024 46F28343 		movw	r3, #25731
 1270 0028 C4F20003 		movt	r3, 16384
 1271 002c 1B78     		ldrb	r3, [r3, #0]
 1272 002e DAB2     		uxtb	r2, r3
 1273 0030 40F20003 		movw	r3, #:lower16:tx_period.4895
 1274 0034 C0F20003 		movt	r3, #:upper16:tx_period.4895
 1275 0038 1A70     		strb	r2, [r3, #0]
1548:.\Generated_Source\PSoC5/LIN_1_UART.c ****                         LIN_1_UART_TXBITCTR_PERIOD_REG = LIN_1_UART_TXBITCTR_BREAKBITS8X;
 1276              		.loc 1 1548 0
 1277 003a 46F28343 		movw	r3, #25731
 1278 003e C4F20003 		movt	r3, 16384
 1279 0042 4FF06702 		mov	r2, #103
 1280 0046 1A70     		strb	r2, [r3, #0]
1549:.\Generated_Source\PSoC5/LIN_1_UART.c ****                     #endif /* End LIN_1_UART_TXCLKGEN_DP */
1550:.\Generated_Source\PSoC5/LIN_1_UART.c **** 
1551:.\Generated_Source\PSoC5/LIN_1_UART.c ****                     /* Send zeros*/
1552:.\Generated_Source\PSoC5/LIN_1_UART.c ****                     LIN_1_UART_TXDATA_REG = 0u;
 1281              		.loc 1 1552 0
 1282 0048 46F24743 		movw	r3, #25671
 1283 004c C4F20003 		movt	r3, 16384
 1284 0050 4FF00002 		mov	r2, #0
 1285 0054 1A70     		strb	r2, [r3, #0]
 1286              	.L53:
1553:.\Generated_Source\PSoC5/LIN_1_UART.c **** 
1554:.\Generated_Source\PSoC5/LIN_1_UART.c ****                     do /* wait until transmit starts */
1555:.\Generated_Source\PSoC5/LIN_1_UART.c ****                     {
1556:.\Generated_Source\PSoC5/LIN_1_UART.c ****                         tmpStat = LIN_1_UART_TXSTATUS_REG;
 1287              		.loc 1 1556 0 discriminator 1
 1288 0056 46F26743 		movw	r3, #25703
 1289 005a C4F20003 		movt	r3, 16384
 1290 005e 1B78     		ldrb	r3, [r3, #0]
 1291 0060 FB73     		strb	r3, [r7, #15]
1557:.\Generated_Source\PSoC5/LIN_1_UART.c ****                     }while((tmpStat & LIN_1_UART_TX_STS_FIFO_EMPTY) != 0u);
ARM GAS  C:\Users\MATSUD~1\AppData\Local\Temp\ccwDh0Hw.s 			page 51


 1292              		.loc 1 1557 0 discriminator 1
 1293 0062 FB7B     		ldrb	r3, [r7, #15]	@ zero_extendqisi2
 1294 0064 03F00203 		and	r3, r3, #2
 1295 0068 002B     		cmp	r3, #0
 1296 006a F4D1     		bne	.L53
 1297              	.L52:
1558:.\Generated_Source\PSoC5/LIN_1_UART.c ****                 }
1559:.\Generated_Source\PSoC5/LIN_1_UART.c **** 
1560:.\Generated_Source\PSoC5/LIN_1_UART.c ****                 if( (retMode == LIN_1_UART_WAIT_FOR_COMPLETE_REINIT) ||
 1298              		.loc 1 1560 0
 1299 006c FB79     		ldrb	r3, [r7, #7]	@ zero_extendqisi2
 1300 006e 012B     		cmp	r3, #1
 1301 0070 02D0     		beq	.L54
 1302              		.loc 1 1560 0 is_stmt 0 discriminator 1
 1303 0072 FB79     		ldrb	r3, [r7, #7]	@ zero_extendqisi2
 1304 0074 032B     		cmp	r3, #3
 1305 0076 0DD1     		bne	.L55
 1306              	.L54:
1561:.\Generated_Source\PSoC5/LIN_1_UART.c ****                     (retMode == LIN_1_UART_SEND_WAIT_REINIT) )
1562:.\Generated_Source\PSoC5/LIN_1_UART.c ****                 {
1563:.\Generated_Source\PSoC5/LIN_1_UART.c ****                     do /*wait until transmit complete*/
1564:.\Generated_Source\PSoC5/LIN_1_UART.c ****                     {
1565:.\Generated_Source\PSoC5/LIN_1_UART.c ****                         tmpStat = LIN_1_UART_TXSTATUS_REG;
 1307              		.loc 1 1565 0 is_stmt 1 discriminator 1
 1308 0078 46F26743 		movw	r3, #25703
 1309 007c C4F20003 		movt	r3, 16384
 1310 0080 1B78     		ldrb	r3, [r3, #0]
 1311 0082 FB73     		strb	r3, [r7, #15]
1566:.\Generated_Source\PSoC5/LIN_1_UART.c ****                     }while(((uint8)~tmpStat & LIN_1_UART_TX_STS_COMPLETE) != 0u);
 1312              		.loc 1 1566 0 discriminator 1
 1313 0084 FB7B     		ldrb	r3, [r7, #15]
 1314 0086 6FEA0303 		mvn	r3, r3
 1315 008a DBB2     		uxtb	r3, r3
 1316 008c 03F00103 		and	r3, r3, #1
 1317 0090 002B     		cmp	r3, #0
 1318 0092 F1D1     		bne	.L54
 1319              	.L55:
1567:.\Generated_Source\PSoC5/LIN_1_UART.c ****                 }
1568:.\Generated_Source\PSoC5/LIN_1_UART.c **** 
1569:.\Generated_Source\PSoC5/LIN_1_UART.c ****                 if( (retMode == LIN_1_UART_WAIT_FOR_COMPLETE_REINIT) ||
 1320              		.loc 1 1569 0
 1321 0094 FB79     		ldrb	r3, [r7, #7]	@ zero_extendqisi2
 1322 0096 012B     		cmp	r3, #1
 1323 0098 05D0     		beq	.L56
 1324              		.loc 1 1569 0 is_stmt 0 discriminator 1
 1325 009a FB79     		ldrb	r3, [r7, #7]	@ zero_extendqisi2
 1326 009c 022B     		cmp	r3, #2
 1327 009e 02D0     		beq	.L56
1570:.\Generated_Source\PSoC5/LIN_1_UART.c ****                     (retMode == LIN_1_UART_REINIT) ||
 1328              		.loc 1 1570 0 is_stmt 1
 1329 00a0 FB79     		ldrb	r3, [r7, #7]	@ zero_extendqisi2
 1330 00a2 032B     		cmp	r3, #3
 1331 00a4 09D1     		bne	.L49
 1332              	.L56:
1571:.\Generated_Source\PSoC5/LIN_1_UART.c ****                     (retMode == LIN_1_UART_SEND_WAIT_REINIT) )
1572:.\Generated_Source\PSoC5/LIN_1_UART.c ****                 {
1573:.\Generated_Source\PSoC5/LIN_1_UART.c **** 
ARM GAS  C:\Users\MATSUD~1\AppData\Local\Temp\ccwDh0Hw.s 			page 52


1574:.\Generated_Source\PSoC5/LIN_1_UART.c ****                     #if(LIN_1_UART_TXCLKGEN_DP)
1575:.\Generated_Source\PSoC5/LIN_1_UART.c ****                         LIN_1_UART_TXBITCLKTX_COMPLETE_REG = tx_period;
1576:.\Generated_Source\PSoC5/LIN_1_UART.c ****                     #else
1577:.\Generated_Source\PSoC5/LIN_1_UART.c ****                         LIN_1_UART_TXBITCTR_PERIOD_REG = tx_period;
 1333              		.loc 1 1577 0
 1334 00a6 46F28343 		movw	r3, #25731
 1335 00aa C4F20003 		movt	r3, 16384
 1336 00ae 40F20002 		movw	r2, #:lower16:tx_period.4895
 1337 00b2 C0F20002 		movt	r2, #:upper16:tx_period.4895
 1338 00b6 1278     		ldrb	r2, [r2, #0]	@ zero_extendqisi2
 1339 00b8 1A70     		strb	r2, [r3, #0]
 1340              	.L49:
 1341              	.LBE2:
1578:.\Generated_Source\PSoC5/LIN_1_UART.c ****                     #endif /* End LIN_1_UART_TXCLKGEN_DP */
1579:.\Generated_Source\PSoC5/LIN_1_UART.c **** 
1580:.\Generated_Source\PSoC5/LIN_1_UART.c ****                     #if( (LIN_1_UART_PARITY_TYPE != LIN_1_UART__B_UART__NONE_REVB) || \
1581:.\Generated_Source\PSoC5/LIN_1_UART.c ****                          (LIN_1_UART_PARITY_TYPE_SW != 0u) )
1582:.\Generated_Source\PSoC5/LIN_1_UART.c ****                         LIN_1_UART_WriteControlRegister(LIN_1_UART_ReadControlRegister() &
1583:.\Generated_Source\PSoC5/LIN_1_UART.c ****                                                       (uint8)~LIN_1_UART_CTRL_HD_SEND_BREAK);
1584:.\Generated_Source\PSoC5/LIN_1_UART.c ****                     #endif /* End LIN_1_UART_PARITY_TYPE != NONE */
1585:.\Generated_Source\PSoC5/LIN_1_UART.c ****                 }
1586:.\Generated_Source\PSoC5/LIN_1_UART.c ****             #endif    /* End LIN_1_UART_HD_ENABLED */
1587:.\Generated_Source\PSoC5/LIN_1_UART.c ****         }
1588:.\Generated_Source\PSoC5/LIN_1_UART.c ****     }
 1342              		.loc 1 1588 0
 1343 00ba 07F11407 		add	r7, r7, #20
 1344 00be BD46     		mov	sp, r7
 1345 00c0 80BC     		pop	{r7}
 1346 00c2 7047     		bx	lr
 1347              		.cfi_endproc
 1348              	.LFE25:
 1349              		.size	LIN_1_UART_SendBreak, .-LIN_1_UART_SendBreak
 1350              		.section	.text.LIN_1_UART_SetTxAddressMode,"ax",%progbits
 1351              		.align	2
 1352              		.global	LIN_1_UART_SetTxAddressMode
 1353              		.thumb
 1354              		.thumb_func
 1355              		.type	LIN_1_UART_SetTxAddressMode, %function
 1356              	LIN_1_UART_SetTxAddressMode:
 1357              	.LFB26:
1589:.\Generated_Source\PSoC5/LIN_1_UART.c **** 
1590:.\Generated_Source\PSoC5/LIN_1_UART.c **** 
1591:.\Generated_Source\PSoC5/LIN_1_UART.c ****     /*******************************************************************************
1592:.\Generated_Source\PSoC5/LIN_1_UART.c ****     * Function Name: LIN_1_UART_SetTxAddressMode
1593:.\Generated_Source\PSoC5/LIN_1_UART.c ****     ********************************************************************************
1594:.\Generated_Source\PSoC5/LIN_1_UART.c ****     *
1595:.\Generated_Source\PSoC5/LIN_1_UART.c ****     * Summary:
1596:.\Generated_Source\PSoC5/LIN_1_UART.c ****     *  Set the transmit addressing mode
1597:.\Generated_Source\PSoC5/LIN_1_UART.c ****     *
1598:.\Generated_Source\PSoC5/LIN_1_UART.c ****     * Parameters:
1599:.\Generated_Source\PSoC5/LIN_1_UART.c ****     *  addressMode: 0 -> Space
1600:.\Generated_Source\PSoC5/LIN_1_UART.c ****     *               1 -> Mark
1601:.\Generated_Source\PSoC5/LIN_1_UART.c ****     *
1602:.\Generated_Source\PSoC5/LIN_1_UART.c ****     * Return:
1603:.\Generated_Source\PSoC5/LIN_1_UART.c ****     *  None.
1604:.\Generated_Source\PSoC5/LIN_1_UART.c ****     *
1605:.\Generated_Source\PSoC5/LIN_1_UART.c ****     *******************************************************************************/
ARM GAS  C:\Users\MATSUD~1\AppData\Local\Temp\ccwDh0Hw.s 			page 53


1606:.\Generated_Source\PSoC5/LIN_1_UART.c ****     void LIN_1_UART_SetTxAddressMode(uint8 addressMode) 
1607:.\Generated_Source\PSoC5/LIN_1_UART.c ****     {
 1358              		.loc 1 1607 0
 1359              		.cfi_startproc
 1360              		@ args = 0, pretend = 0, frame = 8
 1361              		@ frame_needed = 1, uses_anonymous_args = 0
 1362              		@ link register save eliminated.
 1363 0000 80B4     		push	{r7}
 1364              	.LCFI73:
 1365              		.cfi_def_cfa_offset 4
 1366              		.cfi_offset 7, -4
 1367 0002 83B0     		sub	sp, sp, #12
 1368              	.LCFI74:
 1369              		.cfi_def_cfa_offset 16
 1370 0004 00AF     		add	r7, sp, #0
 1371              	.LCFI75:
 1372              		.cfi_def_cfa_register 7
 1373 0006 0346     		mov	r3, r0
 1374 0008 FB71     		strb	r3, [r7, #7]
1608:.\Generated_Source\PSoC5/LIN_1_UART.c ****         /* Mark/Space sending enable*/
1609:.\Generated_Source\PSoC5/LIN_1_UART.c ****         if(addressMode != 0u)
1610:.\Generated_Source\PSoC5/LIN_1_UART.c ****         {
1611:.\Generated_Source\PSoC5/LIN_1_UART.c ****             #if( LIN_1_UART_CONTROL_REG_REMOVED == 0u )
1612:.\Generated_Source\PSoC5/LIN_1_UART.c ****                 LIN_1_UART_WriteControlRegister(LIN_1_UART_ReadControlRegister() |
1613:.\Generated_Source\PSoC5/LIN_1_UART.c ****                                                       LIN_1_UART_CTRL_MARK);
1614:.\Generated_Source\PSoC5/LIN_1_UART.c ****             #endif /* End LIN_1_UART_CONTROL_REG_REMOVED == 0u */
1615:.\Generated_Source\PSoC5/LIN_1_UART.c ****         }
1616:.\Generated_Source\PSoC5/LIN_1_UART.c ****         else
1617:.\Generated_Source\PSoC5/LIN_1_UART.c ****         {
1618:.\Generated_Source\PSoC5/LIN_1_UART.c ****             #if( LIN_1_UART_CONTROL_REG_REMOVED == 0u )
1619:.\Generated_Source\PSoC5/LIN_1_UART.c ****                 LIN_1_UART_WriteControlRegister(LIN_1_UART_ReadControlRegister() &
1620:.\Generated_Source\PSoC5/LIN_1_UART.c ****                                                     (uint8)~LIN_1_UART_CTRL_MARK);
1621:.\Generated_Source\PSoC5/LIN_1_UART.c ****             #endif /* End LIN_1_UART_CONTROL_REG_REMOVED == 0u */
1622:.\Generated_Source\PSoC5/LIN_1_UART.c ****         }
1623:.\Generated_Source\PSoC5/LIN_1_UART.c ****     }
 1375              		.loc 1 1623 0
 1376 000a 07F10C07 		add	r7, r7, #12
 1377 000e BD46     		mov	sp, r7
 1378 0010 80BC     		pop	{r7}
 1379 0012 7047     		bx	lr
 1380              		.cfi_endproc
 1381              	.LFE26:
 1382              		.size	LIN_1_UART_SetTxAddressMode, .-LIN_1_UART_SetTxAddressMode
 1383              		.bss
 1384              	tx_period.4895:
 1385 0001 00       		.space	1
 1386              		.text
 1387              	.Letext0:
 1388              		.file 2 ".\\Generated_Source\\PSoC5\\cytypes.h"