ARM GAS  C:\Users\MATSUD~1\AppData\Local\Temp\ccgY2OtB.s 			page 1


   1              		.syntax unified
   2              		.cpu cortex-m3
   3              		.fpu softvfp
   4              		.eabi_attribute 20, 1
   5              		.eabi_attribute 21, 1
   6              		.eabi_attribute 23, 3
   7              		.eabi_attribute 24, 1
   8              		.eabi_attribute 25, 1
   9              		.eabi_attribute 26, 1
  10              		.eabi_attribute 30, 6
  11              		.eabi_attribute 34, 1
  12              		.eabi_attribute 18, 4
  13              		.thumb
  14              		.file	"main.c"
  15              		.text
  16              	.Ltext0:
  17              		.cfi_sections	.debug_frame
  18              		.comm	arm,1,1
  19              		.comm	buffer,32,4
  20              		.section	.text.LIN_Slave_init,"ax",%progbits
  21              		.align	2
  22              		.global	LIN_Slave_init
  23              		.thumb
  24              		.thumb_func
  25              		.type	LIN_Slave_init, %function
  26              	LIN_Slave_init:
  27              	.LFB56:
  28              		.file 1 ".\\main.c"
   1:.\main.c      **** /* ========================================
   2:.\main.c      ****  *
   3:.\main.c      ****  * Copyright YOUR COMPANY, THE YEAR
   4:.\main.c      ****  * All Rights Reserved
   5:.\main.c      ****  * UNPUBLISHED, LICENSED SOFTWARE.
   6:.\main.c      ****  *
   7:.\main.c      ****  * CONFIDENTIAL AND PROPRIETARY INFORMATION
   8:.\main.c      ****  * WHICH IS THE PROPERTY OF your company.
   9:.\main.c      ****  *
  10:.\main.c      ****  * ========================================
  11:.\main.c      **** */
  12:.\main.c      **** #include <project.h>
  13:.\main.c      **** 
  14:.\main.c      **** uint8 arm;
  15:.\main.c      **** uint8 buffer[32];
  16:.\main.c      **** 
  17:.\main.c      **** void LIN_Slave_init()
  18:.\main.c      **** {
  29              		.loc 1 18 0
  30              		.cfi_startproc
  31              		@ args = 0, pretend = 0, frame = 0
  32              		@ frame_needed = 1, uses_anonymous_args = 0
  33 0000 80B5     		push	{r7, lr}
  34              	.LCFI0:
  35              		.cfi_def_cfa_offset 8
  36              		.cfi_offset 7, -8
  37              		.cfi_offset 14, -4
  38 0002 00AF     		add	r7, sp, #0
  39              	.LCFI1:
ARM GAS  C:\Users\MATSUD~1\AppData\Local\Temp\ccgY2OtB.s 			page 2


  40              		.cfi_def_cfa_register 7
  19:.\main.c      **** 	if(0u != l_sys_init()){
  41              		.loc 1 19 0
  42 0004 FFF7FEFF 		bl	l_sys_init
  43 0008 0346     		mov	r3, r0
  44 000a 002B     		cmp	r3, #0
  45 000c 03D0     		beq	.L2
  20:.\main.c      **** 		
  21:.\main.c      **** 		CyHalt(0x00);
  46              		.loc 1 21 0
  47 000e 4FF00000 		mov	r0, #0
  48 0012 FFF7FEFF 		bl	CyHalt
  49              	.L2:
  22:.\main.c      **** 		
  23:.\main.c      **** 	}
  24:.\main.c      **** 	
  25:.\main.c      **** 	if(0u != l_ifc_init(LIN_1_IFC_HANDLE)){
  50              		.loc 1 25 0
  51 0016 4FF00000 		mov	r0, #0
  52 001a FFF7FEFF 		bl	l_ifc_init
  53 001e 0346     		mov	r3, r0
  54 0020 002B     		cmp	r3, #0
  55 0022 03D0     		beq	.L1
  26:.\main.c      **** 	
  27:.\main.c      **** 		CyHalt(0x00);
  56              		.loc 1 27 0
  57 0024 4FF00000 		mov	r0, #0
  58 0028 FFF7FEFF 		bl	CyHalt
  59              	.L1:
  28:.\main.c      **** 		
  29:.\main.c      **** 	}
  30:.\main.c      **** }
  60              		.loc 1 30 0
  61 002c 80BD     		pop	{r7, pc}
  62              		.cfi_endproc
  63              	.LFE56:
  64              		.size	LIN_Slave_init, .-LIN_Slave_init
  65 002e 00BF     		.section	.rodata
  66              		.align	2
  67              	.LC0:
  68 0000 25356420 		.ascii	"%5d , %5d , %5d , %5d\012\000"
  68      2C202535 
  68      64202C20 
  68      25356420 
  68      2C202535 
  69 0017 00       		.section	.text.main,"ax",%progbits
  70              		.align	2
  71              		.global	main
  72              		.thumb
  73              		.thumb_func
  74              		.type	main, %function
  75              	main:
  76              	.LFB57:
  31:.\main.c      **** 
  32:.\main.c      **** int main()
  33:.\main.c      **** {
  77              		.loc 1 33 0
ARM GAS  C:\Users\MATSUD~1\AppData\Local\Temp\ccgY2OtB.s 			page 3


  78              		.cfi_startproc
  79              		@ args = 0, pretend = 0, frame = 0
  80              		@ frame_needed = 1, uses_anonymous_args = 0
  81 0000 F0B5     		push	{r4, r5, r6, r7, lr}
  82              	.LCFI2:
  83              		.cfi_def_cfa_offset 20
  84              		.cfi_offset 4, -20
  85              		.cfi_offset 5, -16
  86              		.cfi_offset 6, -12
  87              		.cfi_offset 7, -8
  88              		.cfi_offset 14, -4
  89 0002 83B0     		sub	sp, sp, #12
  90              	.LCFI3:
  91              		.cfi_def_cfa_offset 32
  92 0004 02AF     		add	r7, sp, #8
  93              	.LCFI4:
  94              		.cfi_def_cfa 7, 24
  34:.\main.c      ****     /* Place your initialization/startup code here (e.g. MyInst_Start()) */
  35:.\main.c      **** 
  36:.\main.c      ****     CyGlobalIntEnable;  /* Uncomment this line to enable global interrupts. */
  95              		.loc 1 36 0
  96              	@ 36 ".\main.c" 1
  97 0006 62B6     		CPSIE   i
  98              	@ 0 "" 2
  37:.\main.c      **** 	PWM_1_Start();
  99              		.loc 1 37 0
 100              		.thumb
 101 0008 FFF7FEFF 		bl	PWM_1_Start
  38:.\main.c      **** 	PWM_2_Start();
 102              		.loc 1 38 0
 103 000c FFF7FEFF 		bl	PWM_2_Start
  39:.\main.c      **** 	LIN_Slave_init();
 104              		.loc 1 39 0
 105 0010 FFF7FEFF 		bl	LIN_Slave_init
  40:.\main.c      **** 	UART_1_Start();
 106              		.loc 1 40 0
 107 0014 FFF7FEFF 		bl	UART_1_Start
  41:.\main.c      **** 	UART_1_EnableTxInt();
 108              		.loc 1 41 0
 109 0018 FFF7FEFF 		bl	UART_1_EnableTxInt
 110 001c 00E0     		b	.L10
 111              	.L11:
  42:.\main.c      ****     for(;;)
  43:.\main.c      ****     {
  44:.\main.c      ****     	 /* Place your application code here. */
  45:.\main.c      **** 		
  46:.\main.c      **** 		if(l_flg_tst_arm() == 1)
  47:.\main.c      **** 		{
  48:.\main.c      **** 
  49:.\main.c      **** 			arm = l_u8_rd_arm();
  50:.\main.c      **** 			
  51:.\main.c      **** 		}
  52:.\main.c      **** 		
  53:.\main.c      **** 		if((arm & (1 << 0)) && (Pin_5_Read() == 0) && (Pin_6_Read() == 0))
  54:.\main.c      **** 		{
  55:.\main.c      **** 			PWM_1_WriteCompare1(100);
  56:.\main.c      **** 			PWM_1_WriteCompare2(0);
ARM GAS  C:\Users\MATSUD~1\AppData\Local\Temp\ccgY2OtB.s 			page 4


  57:.\main.c      **** 			PWM_2_WriteCompare1(100);
  58:.\main.c      **** 			PWM_2_WriteCompare2(0);
  59:.\main.c      **** 		}
  60:.\main.c      **** 		
  61:.\main.c      **** 		else if((arm & (1 << 1)) && (Pin_7_Read() == 0) && (Pin_8_Read() == 0))
  62:.\main.c      **** 		{
  63:.\main.c      **** 			PWM_1_WriteCompare1(0);
  64:.\main.c      **** 			PWM_1_WriteCompare2(100);
  65:.\main.c      **** 			PWM_2_WriteCompare1(0);
  66:.\main.c      **** 			PWM_2_WriteCompare2(100);
  67:.\main.c      **** 		}
  68:.\main.c      **** 		
  69:.\main.c      **** 		else
  70:.\main.c      **** 		{
  71:.\main.c      **** 			PWM_1_WriteCompare1(0);
  72:.\main.c      **** 			PWM_1_WriteCompare2(0);
  73:.\main.c      **** 			PWM_2_WriteCompare1(0);
  74:.\main.c      **** 			PWM_2_WriteCompare2(0);
  75:.\main.c      **** 		}
  76:.\main.c      **** 		
  77:.\main.c      **** 		if(UART_1_ReadTxStatus() & UART_1_TX_STS_FIFO_EMPTY)
  78:.\main.c      **** 		{
  79:.\main.c      **** 				
  80:.\main.c      **** 			sprintf(buffer,"%5d , %5d , %5d , %5d\n",Pin_5_Read(),Pin_6_Read(),Pin_7_Read(),Pin_8_Read());
  81:.\main.c      **** 			UART_1_PutString(buffer);
  82:.\main.c      **** 				
  83:.\main.c      **** 		}
  84:.\main.c      ****     }
 112              		.loc 1 84 0
 113 001e 00BF     		nop
 114              	.L10:
  46:.\main.c      **** 		if(l_flg_tst_arm() == 1)
 115              		.loc 1 46 0
 116 0020 FFF7FEFF 		bl	l_flg_tst_arm
 117 0024 0346     		mov	r3, r0
 118 0026 012B     		cmp	r3, #1
 119 0028 08D1     		bne	.L5
  49:.\main.c      **** 			arm = l_u8_rd_arm();
 120              		.loc 1 49 0
 121 002a FFF7FEFF 		bl	l_u8_rd_arm
 122 002e 0346     		mov	r3, r0
 123 0030 1A46     		mov	r2, r3
 124 0032 40F20003 		movw	r3, #:lower16:arm
 125 0036 C0F20003 		movt	r3, #:upper16:arm
 126 003a 1A70     		strb	r2, [r3, #0]
 127              	.L5:
  53:.\main.c      **** 		if((arm & (1 << 0)) && (Pin_5_Read() == 0) && (Pin_6_Read() == 0))
 128              		.loc 1 53 0
 129 003c 40F20003 		movw	r3, #:lower16:arm
 130 0040 C0F20003 		movt	r3, #:upper16:arm
 131 0044 1B78     		ldrb	r3, [r3, #0]	@ zero_extendqisi2
 132 0046 03F00103 		and	r3, r3, #1
 133 004a 002B     		cmp	r3, #0
 134 004c 1AD0     		beq	.L6
  53:.\main.c      **** 		if((arm & (1 << 0)) && (Pin_5_Read() == 0) && (Pin_6_Read() == 0))
 135              		.loc 1 53 0 is_stmt 0 discriminator 1
 136 004e FFF7FEFF 		bl	Pin_5_Read
ARM GAS  C:\Users\MATSUD~1\AppData\Local\Temp\ccgY2OtB.s 			page 5


 137 0052 0346     		mov	r3, r0
 138 0054 002B     		cmp	r3, #0
 139 0056 15D1     		bne	.L6
 140 0058 FFF7FEFF 		bl	Pin_6_Read
 141 005c 0346     		mov	r3, r0
 142 005e 002B     		cmp	r3, #0
 143 0060 10D1     		bne	.L6
  55:.\main.c      **** 			PWM_1_WriteCompare1(100);
 144              		.loc 1 55 0 is_stmt 1
 145 0062 4FF06400 		mov	r0, #100
 146 0066 FFF7FEFF 		bl	PWM_1_WriteCompare1
  56:.\main.c      **** 			PWM_1_WriteCompare2(0);
 147              		.loc 1 56 0
 148 006a 4FF00000 		mov	r0, #0
 149 006e FFF7FEFF 		bl	PWM_1_WriteCompare2
  57:.\main.c      **** 			PWM_2_WriteCompare1(100);
 150              		.loc 1 57 0
 151 0072 4FF06400 		mov	r0, #100
 152 0076 FFF7FEFF 		bl	PWM_2_WriteCompare1
  58:.\main.c      **** 			PWM_2_WriteCompare2(0);
 153              		.loc 1 58 0
 154 007a 4FF00000 		mov	r0, #0
 155 007e FFF7FEFF 		bl	PWM_2_WriteCompare2
 156 0082 33E0     		b	.L7
 157              	.L6:
  61:.\main.c      **** 		else if((arm & (1 << 1)) && (Pin_7_Read() == 0) && (Pin_8_Read() == 0))
 158              		.loc 1 61 0
 159 0084 40F20003 		movw	r3, #:lower16:arm
 160 0088 C0F20003 		movt	r3, #:upper16:arm
 161 008c 1B78     		ldrb	r3, [r3, #0]	@ zero_extendqisi2
 162 008e 03F00203 		and	r3, r3, #2
 163 0092 002B     		cmp	r3, #0
 164 0094 1AD0     		beq	.L8
  61:.\main.c      **** 		else if((arm & (1 << 1)) && (Pin_7_Read() == 0) && (Pin_8_Read() == 0))
 165              		.loc 1 61 0 is_stmt 0 discriminator 1
 166 0096 FFF7FEFF 		bl	Pin_7_Read
 167 009a 0346     		mov	r3, r0
 168 009c 002B     		cmp	r3, #0
 169 009e 15D1     		bne	.L8
 170 00a0 FFF7FEFF 		bl	Pin_8_Read
 171 00a4 0346     		mov	r3, r0
 172 00a6 002B     		cmp	r3, #0
 173 00a8 10D1     		bne	.L8
  63:.\main.c      **** 			PWM_1_WriteCompare1(0);
 174              		.loc 1 63 0 is_stmt 1
 175 00aa 4FF00000 		mov	r0, #0
 176 00ae FFF7FEFF 		bl	PWM_1_WriteCompare1
  64:.\main.c      **** 			PWM_1_WriteCompare2(100);
 177              		.loc 1 64 0
 178 00b2 4FF06400 		mov	r0, #100
 179 00b6 FFF7FEFF 		bl	PWM_1_WriteCompare2
  65:.\main.c      **** 			PWM_2_WriteCompare1(0);
 180              		.loc 1 65 0
 181 00ba 4FF00000 		mov	r0, #0
 182 00be FFF7FEFF 		bl	PWM_2_WriteCompare1
  66:.\main.c      **** 			PWM_2_WriteCompare2(100);
 183              		.loc 1 66 0
ARM GAS  C:\Users\MATSUD~1\AppData\Local\Temp\ccgY2OtB.s 			page 6


 184 00c2 4FF06400 		mov	r0, #100
 185 00c6 FFF7FEFF 		bl	PWM_2_WriteCompare2
 186 00ca 0FE0     		b	.L7
 187              	.L8:
  71:.\main.c      **** 			PWM_1_WriteCompare1(0);
 188              		.loc 1 71 0
 189 00cc 4FF00000 		mov	r0, #0
 190 00d0 FFF7FEFF 		bl	PWM_1_WriteCompare1
  72:.\main.c      **** 			PWM_1_WriteCompare2(0);
 191              		.loc 1 72 0
 192 00d4 4FF00000 		mov	r0, #0
 193 00d8 FFF7FEFF 		bl	PWM_1_WriteCompare2
  73:.\main.c      **** 			PWM_2_WriteCompare1(0);
 194              		.loc 1 73 0
 195 00dc 4FF00000 		mov	r0, #0
 196 00e0 FFF7FEFF 		bl	PWM_2_WriteCompare1
  74:.\main.c      **** 			PWM_2_WriteCompare2(0);
 197              		.loc 1 74 0
 198 00e4 4FF00000 		mov	r0, #0
 199 00e8 FFF7FEFF 		bl	PWM_2_WriteCompare2
 200              	.L7:
  77:.\main.c      **** 		if(UART_1_ReadTxStatus() & UART_1_TX_STS_FIFO_EMPTY)
 201              		.loc 1 77 0
 202 00ec FFF7FEFF 		bl	UART_1_ReadTxStatus
 203 00f0 0346     		mov	r3, r0
 204 00f2 03F00203 		and	r3, r3, #2
 205 00f6 002B     		cmp	r3, #0
 206 00f8 91D0     		beq	.L11
 207              	.LBB2:
  80:.\main.c      **** 			sprintf(buffer,"%5d , %5d , %5d , %5d\n",Pin_5_Read(),Pin_6_Read(),Pin_7_Read(),Pin_8_Read());
 208              		.loc 1 80 0
 209 00fa FFF7FEFF 		bl	Pin_5_Read
 210 00fe 0346     		mov	r3, r0
 211 0100 1D46     		mov	r5, r3
 212 0102 FFF7FEFF 		bl	Pin_6_Read
 213 0106 0346     		mov	r3, r0
 214 0108 1C46     		mov	r4, r3
 215 010a FFF7FEFF 		bl	Pin_7_Read
 216 010e 0346     		mov	r3, r0
 217 0110 1E46     		mov	r6, r3
 218 0112 FFF7FEFF 		bl	Pin_8_Read
 219 0116 0346     		mov	r3, r0
 220 0118 0096     		str	r6, [sp, #0]
 221 011a 0193     		str	r3, [sp, #4]
 222 011c 40F20000 		movw	r0, #:lower16:buffer
 223 0120 C0F20000 		movt	r0, #:upper16:buffer
 224 0124 40F20001 		movw	r1, #:lower16:.LC0
 225 0128 C0F20001 		movt	r1, #:upper16:.LC0
 226 012c 2A46     		mov	r2, r5
 227 012e 2346     		mov	r3, r4
 228 0130 FFF7FEFF 		bl	sprintf
  81:.\main.c      **** 			UART_1_PutString(buffer);
 229              		.loc 1 81 0
 230 0134 40F20000 		movw	r0, #:lower16:buffer
 231 0138 C0F20000 		movt	r0, #:upper16:buffer
 232 013c FFF7FEFF 		bl	UART_1_PutString
 233              	.LBE2:
ARM GAS  C:\Users\MATSUD~1\AppData\Local\Temp\ccgY2OtB.s 			page 7


 234              		.loc 1 84 0
 235 0140 6DE7     		b	.L11
 236              		.cfi_endproc
 237              	.LFE57:
 238              		.size	main, .-main
 239 0142 00BF     		.text
 240              	.Letext0:
 241              		.file 2 "c:\\program files (x86)\\cypress\\psoc creator\\3.0\\psoc creator\\import\\gnu_cs\\arm\\4
 242              		.file 3 "./Generated_Source/PSoC5/cytypes.h"
 243              		.file 4 "./Generated_Source/PSoC5/core_cm3.h"
 244              		.file 5 "<built-in>"